
F103C6_project.elf:     file format elf32-littlearm

Sections:
Idx Name          Size      VMA       LMA       File off  Algn
  0 .isr_vector   0000010c  08000000  08000000  00001000  2**0
                  CONTENTS, ALLOC, LOAD, READONLY, DATA
  1 .text         00002314  0800010c  0800010c  0000110c  2**2
                  CONTENTS, ALLOC, LOAD, READONLY, CODE
  2 .rodata       0000007c  08002420  08002420  00003420  2**0
                  CONTENTS, ALLOC, LOAD, READONLY, DATA
  3 .ARM.extab    00000000  0800249c  0800249c  0000405c  2**0
                  CONTENTS
  4 .ARM          00000008  0800249c  0800249c  0000349c  2**2
                  CONTENTS, ALLOC, LOAD, READONLY, DATA
  5 .preinit_array 00000000  080024a4  080024a4  0000405c  2**0
                  CONTENTS, ALLOC, LOAD, DATA
  6 .init_array   00000004  080024a4  080024a4  000034a4  2**2
                  CONTENTS, ALLOC, LOAD, READONLY, DATA
  7 .fini_array   00000004  080024a8  080024a8  000034a8  2**2
                  CONTENTS, ALLOC, LOAD, READONLY, DATA
  8 .data         0000005c  20000000  080024ac  00004000  2**2
                  CONTENTS, ALLOC, LOAD, DATA
  9 .bss          00000338  2000005c  08002508  0000405c  2**2
                  ALLOC
 10 ._user_heap_stack 00000604  20000394  08002508  00004394  2**0
                  ALLOC
 11 .ARM.attributes 00000029  00000000  00000000  0000405c  2**0
                  CONTENTS, READONLY
 12 .comment      00000043  00000000  00000000  00004085  2**0
                  CONTENTS, READONLY
 13 .debug_frame  000005bc  00000000  00000000  000040c8  2**2
                  CONTENTS, READONLY, DEBUGGING, OCTETS

Disassembly of section .text:

0800010c <__do_global_dtors_aux>:
 800010c:	b510      	push	{r4, lr}
 800010e:	4c05      	ldr	r4, [pc, #20]	@ (8000124 <__do_global_dtors_aux+0x18>)
 8000110:	7823      	ldrb	r3, [r4, #0]
 8000112:	b933      	cbnz	r3, 8000122 <__do_global_dtors_aux+0x16>
 8000114:	4b04      	ldr	r3, [pc, #16]	@ (8000128 <__do_global_dtors_aux+0x1c>)
 8000116:	b113      	cbz	r3, 800011e <__do_global_dtors_aux+0x12>
 8000118:	4804      	ldr	r0, [pc, #16]	@ (800012c <__do_global_dtors_aux+0x20>)
 800011a:	f3af 8000 	nop.w
 800011e:	2301      	movs	r3, #1
 8000120:	7023      	strb	r3, [r4, #0]
 8000122:	bd10      	pop	{r4, pc}
 8000124:	2000005c 	.word	0x2000005c
 8000128:	00000000 	.word	0x00000000
 800012c:	08002408 	.word	0x08002408

08000130 <frame_dummy>:
 8000130:	b508      	push	{r3, lr}
 8000132:	4b03      	ldr	r3, [pc, #12]	@ (8000140 <frame_dummy+0x10>)
 8000134:	b11b      	cbz	r3, 800013e <frame_dummy+0xe>
 8000136:	4903      	ldr	r1, [pc, #12]	@ (8000144 <frame_dummy+0x14>)
 8000138:	4803      	ldr	r0, [pc, #12]	@ (8000148 <frame_dummy+0x18>)
 800013a:	f3af 8000 	nop.w
 800013e:	bd08      	pop	{r3, pc}
 8000140:	00000000 	.word	0x00000000
 8000144:	20000060 	.word	0x20000060
 8000148:	08002408 	.word	0x08002408

0800014c <strlen>:
 800014c:	4603      	mov	r3, r0
 800014e:	f813 2b01 	ldrb.w	r2, [r3], #1
 8000152:	2a00      	cmp	r2, #0
 8000154:	d1fb      	bne.n	800014e <strlen+0x2>
 8000156:	1a18      	subs	r0, r3, r0
 8000158:	3801      	subs	r0, #1
 800015a:	4770      	bx	lr

0800015c <uart_Init>:
 800015c:	b508      	push	{r3, lr}
 800015e:	4a09      	ldr	r2, [pc, #36]	@ (8000184 <uart_Init+0x28>)
 8000160:	4b09      	ldr	r3, [pc, #36]	@ (8000188 <uart_Init+0x2c>)
 8000162:	210c      	movs	r1, #12
 8000164:	e9c3 2000 	strd	r2, r0, [r3]
 8000168:	2200      	movs	r2, #0
 800016a:	4618      	mov	r0, r3
 800016c:	e9c3 2202 	strd	r2, r2, [r3, #8]
 8000170:	e9c3 1205 	strd	r1, r2, [r3, #20]
 8000174:	611a      	str	r2, [r3, #16]
 8000176:	61da      	str	r2, [r3, #28]
 8000178:	f001 f9ff 	bl	800157a <HAL_HalfDuplex_Init>
 800017c:	b108      	cbz	r0, 8000182 <uart_Init+0x26>
 800017e:	b672      	cpsid	i
 8000180:	e7fe      	b.n	8000180 <uart_Init+0x24>
 8000182:	bd08      	pop	{r3, pc}
 8000184:	40004400 	.word	0x40004400
 8000188:	20000108 	.word	0x20000108

0800018c <DS18B20_Start>:
 800018c:	23f0      	movs	r3, #240	@ 0xf0
 800018e:	b507      	push	{r0, r1, r2, lr}
 8000190:	f44f 5016 	mov.w	r0, #9600	@ 0x2580
 8000194:	f88d 3007 	strb.w	r3, [sp, #7]
 8000198:	f7ff ffe0 	bl	800015c <uart_Init>
 800019c:	f44f 73fa 	mov.w	r3, #500	@ 0x1f4
 80001a0:	2201      	movs	r2, #1
 80001a2:	f10d 0107 	add.w	r1, sp, #7
 80001a6:	480e      	ldr	r0, [pc, #56]	@ (80001e0 <DS18B20_Start+0x54>)
 80001a8:	f001 fa1a 	bl	80015e0 <HAL_UART_Transmit>
 80001ac:	f44f 737a 	mov.w	r3, #1000	@ 0x3e8
 80001b0:	2201      	movs	r2, #1
 80001b2:	480b      	ldr	r0, [pc, #44]	@ (80001e0 <DS18B20_Start+0x54>)
 80001b4:	f10d 0107 	add.w	r1, sp, #7
 80001b8:	f001 fa5d 	bl	8001676 <HAL_UART_Receive>
 80001bc:	b968      	cbnz	r0, 80001da <DS18B20_Start+0x4e>
 80001be:	f44f 30e1 	mov.w	r0, #115200	@ 0x1c200
 80001c2:	f7ff ffcb 	bl	800015c <uart_Init>
 80001c6:	f89d 3007 	ldrb.w	r3, [sp, #7]
 80001ca:	2bff      	cmp	r3, #255	@ 0xff
 80001cc:	bf0c      	ite	eq
 80001ce:	f06f 0001 	mvneq.w	r0, #1
 80001d2:	2001      	movne	r0, #1
 80001d4:	b003      	add	sp, #12
 80001d6:	f85d fb04 	ldr.w	pc, [sp], #4
 80001da:	f04f 30ff 	mov.w	r0, #4294967295
 80001de:	e7f9      	b.n	80001d4 <DS18B20_Start+0x48>
 80001e0:	20000108 	.word	0x20000108

080001e4 <HAL_UART_RxCpltCallback>:
 80001e4:	2201      	movs	r2, #1
 80001e6:	4b01      	ldr	r3, [pc, #4]	@ (80001ec <HAL_UART_RxCpltCallback+0x8>)
 80001e8:	601a      	str	r2, [r3, #0]
 80001ea:	4770      	bx	lr
 80001ec:	20000078 	.word	0x20000078

080001f0 <SystemClock_Config>:
 80001f0:	b500      	push	{lr}
 80001f2:	b091      	sub	sp, #68	@ 0x44
 80001f4:	2224      	movs	r2, #36	@ 0x24
 80001f6:	2100      	movs	r1, #0
 80001f8:	a807      	add	r0, sp, #28
 80001fa:	f001 fc75 	bl	8001ae8 <memset>
 80001fe:	2214      	movs	r2, #20
 8000200:	2100      	movs	r1, #0
 8000202:	a801      	add	r0, sp, #4
 8000204:	f001 fc70 	bl	8001ae8 <memset>
 8000208:	2302      	movs	r3, #2
 800020a:	2101      	movs	r1, #1
 800020c:	9306      	str	r3, [sp, #24]
 800020e:	2310      	movs	r3, #16
 8000210:	a806      	add	r0, sp, #24
 8000212:	e9cd 130a 	strd	r1, r3, [sp, #40]	@ 0x28
 8000216:	f000 fe0d 	bl	8000e34 <HAL_RCC_OscConfig>
 800021a:	4601      	mov	r1, r0
 800021c:	b108      	cbz	r0, 8000222 <SystemClock_Config+0x32>
 800021e:	b672      	cpsid	i
 8000220:	e7fe      	b.n	8000220 <SystemClock_Config+0x30>
 8000222:	230f      	movs	r3, #15
 8000224:	e9cd 0003 	strd	r0, r0, [sp, #12]
 8000228:	e9cd 3001 	strd	r3, r0, [sp, #4]
 800022c:	9005      	str	r0, [sp, #20]
 800022e:	a801      	add	r0, sp, #4
 8000230:	f000 ffc2 	bl	80011b8 <HAL_RCC_ClockConfig>
 8000234:	b108      	cbz	r0, 800023a <SystemClock_Config+0x4a>
 8000236:	b672      	cpsid	i
 8000238:	e7fe      	b.n	8000238 <SystemClock_Config+0x48>
 800023a:	b011      	add	sp, #68	@ 0x44
 800023c:	f85d fb04 	ldr.w	pc, [sp], #4

08000240 <main>:
 8000240:	b580      	push	{r7, lr}
 8000242:	b098      	sub	sp, #96	@ 0x60
 8000244:	aa03      	add	r2, sp, #12
 8000246:	4617      	mov	r7, r2
 8000248:	4b6d      	ldr	r3, [pc, #436]	@ (8000400 <main+0x1c0>)
 800024a:	f103 0510 	add.w	r5, r3, #16
 800024e:	4614      	mov	r4, r2
 8000250:	6818      	ldr	r0, [r3, #0]
 8000252:	6859      	ldr	r1, [r3, #4]
 8000254:	3308      	adds	r3, #8
 8000256:	c403      	stmia	r4!, {r0, r1}
 8000258:	42ab      	cmp	r3, r5
 800025a:	4622      	mov	r2, r4
 800025c:	d1f7      	bne.n	800024e <main+0xe>
 800025e:	8819      	ldrh	r1, [r3, #0]
 8000260:	789b      	ldrb	r3, [r3, #2]
 8000262:	8021      	strh	r1, [r4, #0]
 8000264:	70a3      	strb	r3, [r4, #2]
 8000266:	4c67      	ldr	r4, [pc, #412]	@ (8000404 <main+0x1c4>)
 8000268:	f000 fa9e 	bl	80007a8 <HAL_Init>
 800026c:	f7ff ffc0 	bl	80001f0 <SystemClock_Config>
 8000270:	2210      	movs	r2, #16
 8000272:	2100      	movs	r1, #0
 8000274:	a808      	add	r0, sp, #32
 8000276:	f001 fc37 	bl	8001ae8 <memset>
 800027a:	69a3      	ldr	r3, [r4, #24]
 800027c:	2200      	movs	r2, #0
 800027e:	f043 0304 	orr.w	r3, r3, #4
 8000282:	61a3      	str	r3, [r4, #24]
 8000284:	69a3      	ldr	r3, [r4, #24]
 8000286:	f44f 7180 	mov.w	r1, #256	@ 0x100
 800028a:	f003 0304 	and.w	r3, r3, #4
 800028e:	9301      	str	r3, [sp, #4]
 8000290:	9b01      	ldr	r3, [sp, #4]
 8000292:	69a3      	ldr	r3, [r4, #24]
 8000294:	485c      	ldr	r0, [pc, #368]	@ (8000408 <main+0x1c8>)
 8000296:	f043 0308 	orr.w	r3, r3, #8
 800029a:	61a3      	str	r3, [r4, #24]
 800029c:	69a3      	ldr	r3, [r4, #24]
 800029e:	2500      	movs	r5, #0
 80002a0:	f003 0308 	and.w	r3, r3, #8
 80002a4:	9302      	str	r3, [sp, #8]
 80002a6:	9b02      	ldr	r3, [sp, #8]
 80002a8:	f000 fd16 	bl	8000cd8 <HAL_GPIO_WritePin>
 80002ac:	2200      	movs	r2, #0
 80002ae:	2120      	movs	r1, #32
 80002b0:	4856      	ldr	r0, [pc, #344]	@ (800040c <main+0x1cc>)
 80002b2:	f000 fd11 	bl	8000cd8 <HAL_GPIO_WritePin>
 80002b6:	f04f 0801 	mov.w	r8, #1
 80002ba:	f44f 7380 	mov.w	r3, #256	@ 0x100
 80002be:	2602      	movs	r6, #2
 80002c0:	4851      	ldr	r0, [pc, #324]	@ (8000408 <main+0x1c8>)
 80002c2:	a908      	add	r1, sp, #32
 80002c4:	e9cd 3808 	strd	r3, r8, [sp, #32]
 80002c8:	e9cd 560a 	strd	r5, r6, [sp, #40]	@ 0x28
 80002cc:	f000 fc32 	bl	8000b34 <HAL_GPIO_Init>
 80002d0:	2320      	movs	r3, #32
 80002d2:	484e      	ldr	r0, [pc, #312]	@ (800040c <main+0x1cc>)
 80002d4:	eb0d 0103 	add.w	r1, sp, r3
 80002d8:	e9cd 3808 	strd	r3, r8, [sp, #32]
 80002dc:	e9cd 560a 	strd	r5, r6, [sp, #40]	@ 0x28
 80002e0:	f000 fc28 	bl	8000b34 <HAL_GPIO_Init>
 80002e4:	6963      	ldr	r3, [r4, #20]
 80002e6:	462a      	mov	r2, r5
 80002e8:	ea43 0308 	orr.w	r3, r3, r8
 80002ec:	6163      	str	r3, [r4, #20]
 80002ee:	6963      	ldr	r3, [r4, #20]
 80002f0:	4629      	mov	r1, r5
 80002f2:	ea03 0308 	and.w	r3, r3, r8
 80002f6:	2010      	movs	r0, #16
 80002f8:	9300      	str	r3, [sp, #0]
 80002fa:	9b00      	ldr	r3, [sp, #0]
 80002fc:	f000 fa9c 	bl	8000838 <HAL_NVIC_SetPriority>
 8000300:	2010      	movs	r0, #16
 8000302:	f000 fac9 	bl	8000898 <HAL_NVIC_EnableIRQ>
 8000306:	462a      	mov	r2, r5
 8000308:	4629      	mov	r1, r5
 800030a:	2011      	movs	r0, #17
 800030c:	f000 fa94 	bl	8000838 <HAL_NVIC_SetPriority>
 8000310:	2011      	movs	r0, #17
 8000312:	f000 fac1 	bl	8000898 <HAL_NVIC_EnableIRQ>
 8000316:	260c      	movs	r6, #12
 8000318:	f44f 33e1 	mov.w	r3, #115200	@ 0x1c200
 800031c:	4c3c      	ldr	r4, [pc, #240]	@ (8000410 <main+0x1d0>)
 800031e:	f8df e0f4 	ldr.w	lr, [pc, #244]	@ 8000414 <main+0x1d4>
 8000322:	4620      	mov	r0, r4
 8000324:	e9c4 e300 	strd	lr, r3, [r4]
 8000328:	e9c4 5502 	strd	r5, r5, [r4, #8]
 800032c:	e9c4 6505 	strd	r6, r5, [r4, #20]
 8000330:	6125      	str	r5, [r4, #16]
 8000332:	61e5      	str	r5, [r4, #28]
 8000334:	f001 f8f2 	bl	800151c <HAL_UART_Init>
 8000338:	4603      	mov	r3, r0
 800033a:	b108      	cbz	r0, 8000340 <main+0x100>
 800033c:	b672      	cpsid	i
 800033e:	e7fe      	b.n	800033e <main+0xfe>
 8000340:	4835      	ldr	r0, [pc, #212]	@ (8000418 <main+0x1d8>)
 8000342:	f8df c0d8 	ldr.w	ip, [pc, #216]	@ 800041c <main+0x1dc>
 8000346:	4a36      	ldr	r2, [pc, #216]	@ (8000420 <main+0x1e0>)
 8000348:	e9c0 3302 	strd	r3, r3, [r0, #8]
 800034c:	e9c0 c200 	strd	ip, r2, [r0]
 8000350:	f44f 4280 	mov.w	r2, #16384	@ 0x4000
 8000354:	e9c0 3306 	strd	r3, r3, [r0, #24]
 8000358:	e9c0 2304 	strd	r2, r3, [r0, #16]
 800035c:	6203      	str	r3, [r0, #32]
 800035e:	f000 fcc1 	bl	8000ce4 <HAL_I2C_Init>
 8000362:	4603      	mov	r3, r0
 8000364:	b108      	cbz	r0, 800036a <main+0x12a>
 8000366:	b672      	cpsid	i
 8000368:	e7fe      	b.n	8000368 <main+0x128>
 800036a:	f44f 7282 	mov.w	r2, #260	@ 0x104
 800036e:	482d      	ldr	r0, [pc, #180]	@ (8000424 <main+0x1e4>)
 8000370:	4d2d      	ldr	r5, [pc, #180]	@ (8000428 <main+0x1e8>)
 8000372:	e9c0 3302 	strd	r3, r3, [r0, #8]
 8000376:	e9c0 5200 	strd	r5, r2, [r0]
 800037a:	f44f 7200 	mov.w	r2, #512	@ 0x200
 800037e:	e9c0 3304 	strd	r3, r3, [r0, #16]
 8000382:	e9c0 2306 	strd	r2, r3, [r0, #24]
 8000386:	e9c0 3308 	strd	r3, r3, [r0, #32]
 800038a:	6283      	str	r3, [r0, #40]	@ 0x28
 800038c:	230a      	movs	r3, #10
 800038e:	62c3      	str	r3, [r0, #44]	@ 0x2c
 8000390:	f000 ffce 	bl	8001330 <HAL_SPI_Init>
 8000394:	4603      	mov	r3, r0
 8000396:	b108      	cbz	r0, 800039c <main+0x15c>
 8000398:	b672      	cpsid	i
 800039a:	e7fe      	b.n	800039a <main+0x15a>
 800039c:	f44f 5216 	mov.w	r2, #9600	@ 0x2580
 80003a0:	4822      	ldr	r0, [pc, #136]	@ (800042c <main+0x1ec>)
 80003a2:	4923      	ldr	r1, [pc, #140]	@ (8000430 <main+0x1f0>)
 80003a4:	e9c0 3302 	strd	r3, r3, [r0, #8]
 80003a8:	e9c0 1200 	strd	r1, r2, [r0]
 80003ac:	e9c0 3604 	strd	r3, r6, [r0, #16]
 80003b0:	e9c0 3306 	strd	r3, r3, [r0, #24]
 80003b4:	f001 f8e1 	bl	800157a <HAL_HalfDuplex_Init>
 80003b8:	b108      	cbz	r0, 80003be <main+0x17e>
 80003ba:	b672      	cpsid	i
 80003bc:	e7fe      	b.n	80003bc <main+0x17c>
 80003be:	2364      	movs	r3, #100	@ 0x64
 80003c0:	2212      	movs	r2, #18
 80003c2:	4639      	mov	r1, r7
 80003c4:	4620      	mov	r0, r4
 80003c6:	f001 f90b 	bl	80015e0 <HAL_UART_Transmit>
 80003ca:	4e1a      	ldr	r6, [pc, #104]	@ (8000434 <main+0x1f4>)
 80003cc:	4d1a      	ldr	r5, [pc, #104]	@ (8000438 <main+0x1f8>)
 80003ce:	f7ff fedd 	bl	800018c <DS18B20_Start>
 80003d2:	462a      	mov	r2, r5
 80003d4:	b203      	sxth	r3, r0
 80003d6:	2140      	movs	r1, #64	@ 0x40
 80003d8:	6030      	str	r0, [r6, #0]
 80003da:	a808      	add	r0, sp, #32
 80003dc:	f001 fb50 	bl	8001a80 <sniprintf>
 80003e0:	a808      	add	r0, sp, #32
 80003e2:	f7ff feb3 	bl	800014c <strlen>
 80003e6:	f04f 33ff 	mov.w	r3, #4294967295
 80003ea:	b282      	uxth	r2, r0
 80003ec:	a908      	add	r1, sp, #32
 80003ee:	4620      	mov	r0, r4
 80003f0:	f001 f8f6 	bl	80015e0 <HAL_UART_Transmit>
 80003f4:	f44f 707a 	mov.w	r0, #1000	@ 0x3e8
 80003f8:	f000 f9fa 	bl	80007f0 <HAL_Delay>
 80003fc:	e7e7      	b.n	80003ce <main+0x18e>
 80003fe:	bf00      	nop
 8000400:	0800242a 	.word	0x0800242a
 8000404:	40021000 	.word	0x40021000
 8000408:	40010800 	.word	0x40010800
 800040c:	40010c00 	.word	0x40010c00
 8000410:	20000150 	.word	0x20000150
 8000414:	40013800 	.word	0x40013800
 8000418:	200001f0 	.word	0x200001f0
 800041c:	40005400 	.word	0x40005400
 8000420:	000186a0 	.word	0x000186a0
 8000424:	20000198 	.word	0x20000198
 8000428:	40013000 	.word	0x40013000
 800042c:	20000108 	.word	0x20000108
 8000430:	40004400 	.word	0x40004400
 8000434:	2000007c 	.word	0x2000007c
 8000438:	08002420 	.word	0x08002420

0800043c <Error_Handler>:
 800043c:	b672      	cpsid	i
 800043e:	e7fe      	b.n	800043e <Error_Handler+0x2>

08000440 <HAL_MspInit>:
 8000440:	4b0e      	ldr	r3, [pc, #56]	@ (800047c <HAL_MspInit+0x3c>)
 8000442:	b082      	sub	sp, #8
 8000444:	699a      	ldr	r2, [r3, #24]
 8000446:	f042 0201 	orr.w	r2, r2, #1
 800044a:	619a      	str	r2, [r3, #24]
 800044c:	699a      	ldr	r2, [r3, #24]
 800044e:	f002 0201 	and.w	r2, r2, #1
 8000452:	9200      	str	r2, [sp, #0]
 8000454:	9a00      	ldr	r2, [sp, #0]
 8000456:	69da      	ldr	r2, [r3, #28]
 8000458:	f042 5280 	orr.w	r2, r2, #268435456	@ 0x10000000
 800045c:	61da      	str	r2, [r3, #28]
 800045e:	69db      	ldr	r3, [r3, #28]
 8000460:	4a07      	ldr	r2, [pc, #28]	@ (8000480 <HAL_MspInit+0x40>)
 8000462:	f003 5380 	and.w	r3, r3, #268435456	@ 0x10000000
 8000466:	9301      	str	r3, [sp, #4]
 8000468:	9b01      	ldr	r3, [sp, #4]
 800046a:	6853      	ldr	r3, [r2, #4]
 800046c:	f023 63e0 	bic.w	r3, r3, #117440512	@ 0x7000000
 8000470:	f043 7300 	orr.w	r3, r3, #33554432	@ 0x2000000
 8000474:	6053      	str	r3, [r2, #4]
 8000476:	b002      	add	sp, #8
 8000478:	4770      	bx	lr
 800047a:	bf00      	nop
 800047c:	40021000 	.word	0x40021000
 8000480:	40010000 	.word	0x40010000

08000484 <HAL_I2C_MspInit>:
 8000484:	b510      	push	{r4, lr}
 8000486:	4604      	mov	r4, r0
 8000488:	b086      	sub	sp, #24
 800048a:	2210      	movs	r2, #16
 800048c:	2100      	movs	r1, #0
 800048e:	a802      	add	r0, sp, #8
 8000490:	f001 fb2a 	bl	8001ae8 <memset>
 8000494:	6822      	ldr	r2, [r4, #0]
 8000496:	4b11      	ldr	r3, [pc, #68]	@ (80004dc <HAL_I2C_MspInit+0x58>)
 8000498:	429a      	cmp	r2, r3
 800049a:	d11c      	bne.n	80004d6 <HAL_I2C_MspInit+0x52>
 800049c:	4c10      	ldr	r4, [pc, #64]	@ (80004e0 <HAL_I2C_MspInit+0x5c>)
 800049e:	22c0      	movs	r2, #192	@ 0xc0
 80004a0:	69a3      	ldr	r3, [r4, #24]
 80004a2:	4810      	ldr	r0, [pc, #64]	@ (80004e4 <HAL_I2C_MspInit+0x60>)
 80004a4:	f043 0308 	orr.w	r3, r3, #8
 80004a8:	61a3      	str	r3, [r4, #24]
 80004aa:	69a3      	ldr	r3, [r4, #24]
 80004ac:	a902      	add	r1, sp, #8
 80004ae:	f003 0308 	and.w	r3, r3, #8
 80004b2:	9300      	str	r3, [sp, #0]
 80004b4:	9b00      	ldr	r3, [sp, #0]
 80004b6:	2312      	movs	r3, #18
 80004b8:	e9cd 2302 	strd	r2, r3, [sp, #8]
 80004bc:	2303      	movs	r3, #3
 80004be:	9305      	str	r3, [sp, #20]
 80004c0:	f000 fb38 	bl	8000b34 <HAL_GPIO_Init>
 80004c4:	69e3      	ldr	r3, [r4, #28]
 80004c6:	f443 1300 	orr.w	r3, r3, #2097152	@ 0x200000
 80004ca:	61e3      	str	r3, [r4, #28]
 80004cc:	69e3      	ldr	r3, [r4, #28]
 80004ce:	f403 1300 	and.w	r3, r3, #2097152	@ 0x200000
 80004d2:	9301      	str	r3, [sp, #4]
 80004d4:	9b01      	ldr	r3, [sp, #4]
 80004d6:	b006      	add	sp, #24
 80004d8:	bd10      	pop	{r4, pc}
 80004da:	bf00      	nop
 80004dc:	40005400 	.word	0x40005400
 80004e0:	40021000 	.word	0x40021000
 80004e4:	40010c00 	.word	0x40010c00

080004e8 <HAL_SPI_MspInit>:
 80004e8:	b510      	push	{r4, lr}
 80004ea:	4604      	mov	r4, r0
 80004ec:	b086      	sub	sp, #24
 80004ee:	2210      	movs	r2, #16
 80004f0:	2100      	movs	r1, #0
 80004f2:	a802      	add	r0, sp, #8
 80004f4:	f001 faf8 	bl	8001ae8 <memset>
 80004f8:	6822      	ldr	r2, [r4, #0]
 80004fa:	4b16      	ldr	r3, [pc, #88]	@ (8000554 <HAL_SPI_MspInit+0x6c>)
 80004fc:	429a      	cmp	r2, r3
 80004fe:	d126      	bne.n	800054e <HAL_SPI_MspInit+0x66>
 8000500:	f503 4360 	add.w	r3, r3, #57344	@ 0xe000
 8000504:	699a      	ldr	r2, [r3, #24]
 8000506:	4814      	ldr	r0, [pc, #80]	@ (8000558 <HAL_SPI_MspInit+0x70>)
 8000508:	f442 5280 	orr.w	r2, r2, #4096	@ 0x1000
 800050c:	619a      	str	r2, [r3, #24]
 800050e:	699a      	ldr	r2, [r3, #24]
 8000510:	a902      	add	r1, sp, #8
 8000512:	f402 5280 	and.w	r2, r2, #4096	@ 0x1000
 8000516:	9200      	str	r2, [sp, #0]
 8000518:	9a00      	ldr	r2, [sp, #0]
 800051a:	699a      	ldr	r2, [r3, #24]
 800051c:	f042 0204 	orr.w	r2, r2, #4
 8000520:	619a      	str	r2, [r3, #24]
 8000522:	699b      	ldr	r3, [r3, #24]
 8000524:	22a0      	movs	r2, #160	@ 0xa0
 8000526:	f003 0304 	and.w	r3, r3, #4
 800052a:	9301      	str	r3, [sp, #4]
 800052c:	9b01      	ldr	r3, [sp, #4]
 800052e:	2302      	movs	r3, #2
 8000530:	e9cd 2302 	strd	r2, r3, [sp, #8]
 8000534:	2303      	movs	r3, #3
 8000536:	9305      	str	r3, [sp, #20]
 8000538:	f000 fafc 	bl	8000b34 <HAL_GPIO_Init>
 800053c:	2140      	movs	r1, #64	@ 0x40
 800053e:	2300      	movs	r3, #0
 8000540:	4805      	ldr	r0, [pc, #20]	@ (8000558 <HAL_SPI_MspInit+0x70>)
 8000542:	e9cd 1302 	strd	r1, r3, [sp, #8]
 8000546:	a902      	add	r1, sp, #8
 8000548:	9304      	str	r3, [sp, #16]
 800054a:	f000 faf3 	bl	8000b34 <HAL_GPIO_Init>
 800054e:	b006      	add	sp, #24
 8000550:	bd10      	pop	{r4, pc}
 8000552:	bf00      	nop
 8000554:	40013000 	.word	0x40013000
 8000558:	40010800 	.word	0x40010800

0800055c <HAL_UART_MspInit>:
 800055c:	b570      	push	{r4, r5, r6, lr}
 800055e:	2610      	movs	r6, #16
 8000560:	4605      	mov	r5, r0
 8000562:	b088      	sub	sp, #32
 8000564:	4632      	mov	r2, r6
 8000566:	2100      	movs	r1, #0
 8000568:	eb0d 0006 	add.w	r0, sp, r6
 800056c:	f001 fabc 	bl	8001ae8 <memset>
 8000570:	682b      	ldr	r3, [r5, #0]
 8000572:	4a41      	ldr	r2, [pc, #260]	@ (8000678 <HAL_UART_MspInit+0x11c>)
 8000574:	4293      	cmp	r3, r2
 8000576:	d12b      	bne.n	80005d0 <HAL_UART_MspInit+0x74>
 8000578:	4b40      	ldr	r3, [pc, #256]	@ (800067c <HAL_UART_MspInit+0x120>)
 800057a:	f44f 7400 	mov.w	r4, #512	@ 0x200
 800057e:	699a      	ldr	r2, [r3, #24]
 8000580:	483f      	ldr	r0, [pc, #252]	@ (8000680 <HAL_UART_MspInit+0x124>)
 8000582:	f442 4280 	orr.w	r2, r2, #16384	@ 0x4000
 8000586:	619a      	str	r2, [r3, #24]
 8000588:	699a      	ldr	r2, [r3, #24]
 800058a:	eb0d 0106 	add.w	r1, sp, r6
 800058e:	f402 4280 	and.w	r2, r2, #16384	@ 0x4000
 8000592:	9200      	str	r2, [sp, #0]
 8000594:	9a00      	ldr	r2, [sp, #0]
 8000596:	699a      	ldr	r2, [r3, #24]
 8000598:	f44f 6580 	mov.w	r5, #1024	@ 0x400
 800059c:	f042 0204 	orr.w	r2, r2, #4
 80005a0:	619a      	str	r2, [r3, #24]
 80005a2:	699b      	ldr	r3, [r3, #24]
 80005a4:	f003 0304 	and.w	r3, r3, #4
 80005a8:	9301      	str	r3, [sp, #4]
 80005aa:	9b01      	ldr	r3, [sp, #4]
 80005ac:	2302      	movs	r3, #2
 80005ae:	e9cd 4304 	strd	r4, r3, [sp, #16]
 80005b2:	2303      	movs	r3, #3
 80005b4:	9307      	str	r3, [sp, #28]
 80005b6:	f000 fabd 	bl	8000b34 <HAL_GPIO_Init>
 80005ba:	2300      	movs	r3, #0
 80005bc:	4830      	ldr	r0, [pc, #192]	@ (8000680 <HAL_UART_MspInit+0x124>)
 80005be:	eb0d 0106 	add.w	r1, sp, r6
 80005c2:	e9cd 5304 	strd	r5, r3, [sp, #16]
 80005c6:	9306      	str	r3, [sp, #24]
 80005c8:	f000 fab4 	bl	8000b34 <HAL_GPIO_Init>
 80005cc:	b008      	add	sp, #32
 80005ce:	bd70      	pop	{r4, r5, r6, pc}
 80005d0:	4a2c      	ldr	r2, [pc, #176]	@ (8000684 <HAL_UART_MspInit+0x128>)
 80005d2:	4293      	cmp	r3, r2
 80005d4:	d1fa      	bne.n	80005cc <HAL_UART_MspInit+0x70>
 80005d6:	4b29      	ldr	r3, [pc, #164]	@ (800067c <HAL_UART_MspInit+0x120>)
 80005d8:	2104      	movs	r1, #4
 80005da:	69da      	ldr	r2, [r3, #28]
 80005dc:	2001      	movs	r0, #1
 80005de:	f442 3200 	orr.w	r2, r2, #131072	@ 0x20000
 80005e2:	61da      	str	r2, [r3, #28]
 80005e4:	69da      	ldr	r2, [r3, #28]
 80005e6:	4c28      	ldr	r4, [pc, #160]	@ (8000688 <HAL_UART_MspInit+0x12c>)
 80005e8:	f402 3200 	and.w	r2, r2, #131072	@ 0x20000
 80005ec:	9202      	str	r2, [sp, #8]
 80005ee:	9a02      	ldr	r2, [sp, #8]
 80005f0:	699a      	ldr	r2, [r3, #24]
 80005f2:	f042 0204 	orr.w	r2, r2, #4
 80005f6:	619a      	str	r2, [r3, #24]
 80005f8:	699b      	ldr	r3, [r3, #24]
 80005fa:	f003 0304 	and.w	r3, r3, #4
 80005fe:	9303      	str	r3, [sp, #12]
 8000600:	9b03      	ldr	r3, [sp, #12]
 8000602:	2312      	movs	r3, #18
 8000604:	e9cd 1304 	strd	r1, r3, [sp, #16]
 8000608:	2303      	movs	r3, #3
 800060a:	a904      	add	r1, sp, #16
 800060c:	e9cd 0306 	strd	r0, r3, [sp, #24]
 8000610:	481b      	ldr	r0, [pc, #108]	@ (8000680 <HAL_UART_MspInit+0x124>)
 8000612:	f000 fa8f 	bl	8000b34 <HAL_GPIO_Init>
 8000616:	4b1d      	ldr	r3, [pc, #116]	@ (800068c <HAL_UART_MspInit+0x130>)
 8000618:	2280      	movs	r2, #128	@ 0x80
 800061a:	e9c4 3600 	strd	r3, r6, [r4]
 800061e:	2300      	movs	r3, #0
 8000620:	4620      	mov	r0, r4
 8000622:	e9c4 3202 	strd	r3, r2, [r4, #8]
 8000626:	e9c4 3304 	strd	r3, r3, [r4, #16]
 800062a:	e9c4 3306 	strd	r3, r3, [r4, #24]
 800062e:	f000 f955 	bl	80008dc <HAL_DMA_Init>
 8000632:	b108      	cbz	r0, 8000638 <HAL_UART_MspInit+0xdc>
 8000634:	f7ff ff02 	bl	800043c <Error_Handler>
 8000638:	2300      	movs	r3, #0
 800063a:	4a15      	ldr	r2, [pc, #84]	@ (8000690 <HAL_UART_MspInit+0x134>)
 800063c:	63ac      	str	r4, [r5, #56]	@ 0x38
 800063e:	6265      	str	r5, [r4, #36]	@ 0x24
 8000640:	4c14      	ldr	r4, [pc, #80]	@ (8000694 <HAL_UART_MspInit+0x138>)
 8000642:	e9c4 2300 	strd	r2, r3, [r4]
 8000646:	2280      	movs	r2, #128	@ 0x80
 8000648:	4620      	mov	r0, r4
 800064a:	e9c4 2303 	strd	r2, r3, [r4, #12]
 800064e:	e9c4 3305 	strd	r3, r3, [r4, #20]
 8000652:	60a3      	str	r3, [r4, #8]
 8000654:	61e3      	str	r3, [r4, #28]
 8000656:	f000 f941 	bl	80008dc <HAL_DMA_Init>
 800065a:	b108      	cbz	r0, 8000660 <HAL_UART_MspInit+0x104>
 800065c:	f7ff feee 	bl	800043c <Error_Handler>
 8000660:	2200      	movs	r2, #0
 8000662:	2026      	movs	r0, #38	@ 0x26
 8000664:	4611      	mov	r1, r2
 8000666:	63ec      	str	r4, [r5, #60]	@ 0x3c
 8000668:	6265      	str	r5, [r4, #36]	@ 0x24
 800066a:	f000 f8e5 	bl	8000838 <HAL_NVIC_SetPriority>
 800066e:	2026      	movs	r0, #38	@ 0x26
 8000670:	f000 f912 	bl	8000898 <HAL_NVIC_EnableIRQ>
 8000674:	e7aa      	b.n	80005cc <HAL_UART_MspInit+0x70>
 8000676:	bf00      	nop
 8000678:	40013800 	.word	0x40013800
 800067c:	40021000 	.word	0x40021000
 8000680:	40010800 	.word	0x40010800
 8000684:	40004400 	.word	0x40004400
 8000688:	200000c4 	.word	0x200000c4
 800068c:	40020080 	.word	0x40020080
 8000690:	4002006c 	.word	0x4002006c
 8000694:	20000080 	.word	0x20000080

08000698 <NMI_Handler>:
 8000698:	e7fe      	b.n	8000698 <NMI_Handler>

0800069a <HardFault_Handler>:
 800069a:	e7fe      	b.n	800069a <HardFault_Handler>

0800069c <MemManage_Handler>:
 800069c:	e7fe      	b.n	800069c <MemManage_Handler>

0800069e <BusFault_Handler>:
 800069e:	e7fe      	b.n	800069e <BusFault_Handler>

080006a0 <UsageFault_Handler>:
 80006a0:	e7fe      	b.n	80006a0 <UsageFault_Handler>

080006a2 <SVC_Handler>:
 80006a2:	4770      	bx	lr

080006a4 <DebugMon_Handler>:
 80006a4:	4770      	bx	lr

080006a6 <PendSV_Handler>:
 80006a6:	4770      	bx	lr

080006a8 <SysTick_Handler>:
 80006a8:	f000 b890 	b.w	80007cc <HAL_IncTick>

080006ac <DMA1_Channel6_IRQHandler>:
 80006ac:	4801      	ldr	r0, [pc, #4]	@ (80006b4 <DMA1_Channel6_IRQHandler+0x8>)
 80006ae:	f000 b9ad 	b.w	8000a0c <HAL_DMA_IRQHandler>
 80006b2:	bf00      	nop
 80006b4:	20000080 	.word	0x20000080

080006b8 <DMA1_Channel7_IRQHandler>:
 80006b8:	4801      	ldr	r0, [pc, #4]	@ (80006c0 <DMA1_Channel7_IRQHandler+0x8>)
 80006ba:	f000 b9a7 	b.w	8000a0c <HAL_DMA_IRQHandler>
 80006be:	bf00      	nop
 80006c0:	200000c4 	.word	0x200000c4

080006c4 <USART2_IRQHandler>:
 80006c4:	4801      	ldr	r0, [pc, #4]	@ (80006cc <USART2_IRQHandler+0x8>)
 80006c6:	f001 b891 	b.w	80017ec <HAL_UART_IRQHandler>
 80006ca:	bf00      	nop
 80006cc:	20000108 	.word	0x20000108

080006d0 <_sbrk>:
 80006d0:	4a0b      	ldr	r2, [pc, #44]	@ (8000700 <_sbrk+0x30>)
 80006d2:	4603      	mov	r3, r0
 80006d4:	6811      	ldr	r1, [r2, #0]
 80006d6:	b510      	push	{r4, lr}
 80006d8:	b909      	cbnz	r1, 80006de <_sbrk+0xe>
 80006da:	490a      	ldr	r1, [pc, #40]	@ (8000704 <_sbrk+0x34>)
 80006dc:	6011      	str	r1, [r2, #0]
 80006de:	6810      	ldr	r0, [r2, #0]
 80006e0:	4909      	ldr	r1, [pc, #36]	@ (8000708 <_sbrk+0x38>)
 80006e2:	4c0a      	ldr	r4, [pc, #40]	@ (800070c <_sbrk+0x3c>)
 80006e4:	4403      	add	r3, r0
 80006e6:	1b09      	subs	r1, r1, r4
 80006e8:	428b      	cmp	r3, r1
 80006ea:	d906      	bls.n	80006fa <_sbrk+0x2a>
 80006ec:	f001 fa04 	bl	8001af8 <__errno>
 80006f0:	230c      	movs	r3, #12
 80006f2:	6003      	str	r3, [r0, #0]
 80006f4:	f04f 30ff 	mov.w	r0, #4294967295
 80006f8:	bd10      	pop	{r4, pc}
 80006fa:	6013      	str	r3, [r2, #0]
 80006fc:	e7fc      	b.n	80006f8 <_sbrk+0x28>
 80006fe:	bf00      	nop
 8000700:	20000244 	.word	0x20000244
 8000704:	20000398 	.word	0x20000398
 8000708:	20002800 	.word	0x20002800
 800070c:	00000400 	.word	0x00000400

08000710 <SystemInit>:
 8000710:	4770      	bx	lr
	...

08000714 <Reset_Handler>:
 8000714:	f7ff fffc 	bl	8000710 <SystemInit>
 8000718:	480b      	ldr	r0, [pc, #44]	@ (8000748 <LoopFillZerobss+0xe>)
 800071a:	490c      	ldr	r1, [pc, #48]	@ (800074c <LoopFillZerobss+0x12>)
 800071c:	4a0c      	ldr	r2, [pc, #48]	@ (8000750 <LoopFillZerobss+0x16>)
 800071e:	2300      	movs	r3, #0
 8000720:	e002      	b.n	8000728 <LoopCopyDataInit>

08000722 <CopyDataInit>:
 8000722:	58d4      	ldr	r4, [r2, r3]
 8000724:	50c4      	str	r4, [r0, r3]
 8000726:	3304      	adds	r3, #4

08000728 <LoopCopyDataInit>:
 8000728:	18c4      	adds	r4, r0, r3
 800072a:	428c      	cmp	r4, r1
 800072c:	d3f9      	bcc.n	8000722 <CopyDataInit>
 800072e:	4a09      	ldr	r2, [pc, #36]	@ (8000754 <LoopFillZerobss+0x1a>)
 8000730:	4c09      	ldr	r4, [pc, #36]	@ (8000758 <LoopFillZerobss+0x1e>)
 8000732:	2300      	movs	r3, #0
 8000734:	e001      	b.n	800073a <LoopFillZerobss>

08000736 <FillZerobss>:
 8000736:	6013      	str	r3, [r2, #0]
 8000738:	3204      	adds	r2, #4

0800073a <LoopFillZerobss>:
 800073a:	42a2      	cmp	r2, r4
 800073c:	d3fb      	bcc.n	8000736 <FillZerobss>
 800073e:	f001 f9e1 	bl	8001b04 <__libc_init_array>
 8000742:	f7ff fd7d 	bl	8000240 <main>
 8000746:	4770      	bx	lr
 8000748:	20000000 	.word	0x20000000
 800074c:	2000005c 	.word	0x2000005c
 8000750:	080024ac 	.word	0x080024ac
 8000754:	2000005c 	.word	0x2000005c
 8000758:	20000394 	.word	0x20000394

0800075c <ADC1_2_IRQHandler>:
 800075c:	e7fe      	b.n	800075c <ADC1_2_IRQHandler>
	...

08000760 <HAL_InitTick>:
 8000760:	b538      	push	{r3, r4, r5, lr}
 8000762:	4b0e      	ldr	r3, [pc, #56]	@ (800079c <HAL_InitTick+0x3c>)
 8000764:	4605      	mov	r5, r0
 8000766:	781a      	ldrb	r2, [r3, #0]
 8000768:	f44f 737a 	mov.w	r3, #1000	@ 0x3e8
 800076c:	fbb3 f3f2 	udiv	r3, r3, r2
 8000770:	4a0b      	ldr	r2, [pc, #44]	@ (80007a0 <HAL_InitTick+0x40>)
 8000772:	6810      	ldr	r0, [r2, #0]
 8000774:	fbb0 f0f3 	udiv	r0, r0, r3
 8000778:	f000 f89c 	bl	80008b4 <HAL_SYSTICK_Config>
 800077c:	4604      	mov	r4, r0
 800077e:	b958      	cbnz	r0, 8000798 <HAL_InitTick+0x38>
 8000780:	2d0f      	cmp	r5, #15
 8000782:	d809      	bhi.n	8000798 <HAL_InitTick+0x38>
 8000784:	4602      	mov	r2, r0
 8000786:	4629      	mov	r1, r5
 8000788:	f04f 30ff 	mov.w	r0, #4294967295
 800078c:	f000 f854 	bl	8000838 <HAL_NVIC_SetPriority>
 8000790:	4620      	mov	r0, r4
 8000792:	4b04      	ldr	r3, [pc, #16]	@ (80007a4 <HAL_InitTick+0x44>)
 8000794:	601d      	str	r5, [r3, #0]
 8000796:	bd38      	pop	{r3, r4, r5, pc}
 8000798:	2001      	movs	r0, #1
 800079a:	e7fc      	b.n	8000796 <HAL_InitTick+0x36>
 800079c:	20000004 	.word	0x20000004
 80007a0:	20000000 	.word	0x20000000
 80007a4:	20000008 	.word	0x20000008

080007a8 <HAL_Init>:
 80007a8:	4a07      	ldr	r2, [pc, #28]	@ (80007c8 <HAL_Init+0x20>)
 80007aa:	b508      	push	{r3, lr}
 80007ac:	6813      	ldr	r3, [r2, #0]
 80007ae:	2003      	movs	r0, #3
 80007b0:	f043 0310 	orr.w	r3, r3, #16
 80007b4:	6013      	str	r3, [r2, #0]
 80007b6:	f000 f82d 	bl	8000814 <HAL_NVIC_SetPriorityGrouping>
 80007ba:	200f      	movs	r0, #15
 80007bc:	f7ff ffd0 	bl	8000760 <HAL_InitTick>
 80007c0:	f7ff fe3e 	bl	8000440 <HAL_MspInit>
 80007c4:	2000      	movs	r0, #0
 80007c6:	bd08      	pop	{r3, pc}
 80007c8:	40022000 	.word	0x40022000

080007cc <HAL_IncTick>:
 80007cc:	4a03      	ldr	r2, [pc, #12]	@ (80007dc <HAL_IncTick+0x10>)
 80007ce:	4b04      	ldr	r3, [pc, #16]	@ (80007e0 <HAL_IncTick+0x14>)
 80007d0:	6811      	ldr	r1, [r2, #0]
 80007d2:	781b      	ldrb	r3, [r3, #0]
 80007d4:	440b      	add	r3, r1
 80007d6:	6013      	str	r3, [r2, #0]
 80007d8:	4770      	bx	lr
 80007da:	bf00      	nop
 80007dc:	20000248 	.word	0x20000248
 80007e0:	20000004 	.word	0x20000004

080007e4 <HAL_GetTick>:
 80007e4:	4b01      	ldr	r3, [pc, #4]	@ (80007ec <HAL_GetTick+0x8>)
 80007e6:	6818      	ldr	r0, [r3, #0]
 80007e8:	4770      	bx	lr
 80007ea:	bf00      	nop
 80007ec:	20000248 	.word	0x20000248

080007f0 <HAL_Delay>:
 80007f0:	b538      	push	{r3, r4, r5, lr}
 80007f2:	4604      	mov	r4, r0
 80007f4:	f7ff fff6 	bl	80007e4 <HAL_GetTick>
 80007f8:	4605      	mov	r5, r0
 80007fa:	1c63      	adds	r3, r4, #1
 80007fc:	bf1e      	ittt	ne
 80007fe:	4b04      	ldrne	r3, [pc, #16]	@ (8000810 <HAL_Delay+0x20>)
 8000800:	781b      	ldrbne	r3, [r3, #0]
 8000802:	18e4      	addne	r4, r4, r3
 8000804:	f7ff ffee 	bl	80007e4 <HAL_GetTick>
 8000808:	1b43      	subs	r3, r0, r5
 800080a:	42a3      	cmp	r3, r4
 800080c:	d3fa      	bcc.n	8000804 <HAL_Delay+0x14>
 800080e:	bd38      	pop	{r3, r4, r5, pc}
 8000810:	20000004 	.word	0x20000004

08000814 <HAL_NVIC_SetPriorityGrouping>:
 8000814:	4907      	ldr	r1, [pc, #28]	@ (8000834 <HAL_NVIC_SetPriorityGrouping+0x20>)
 8000816:	0203      	lsls	r3, r0, #8
 8000818:	68ca      	ldr	r2, [r1, #12]
 800081a:	f403 63e0 	and.w	r3, r3, #1792	@ 0x700
 800081e:	f422 62e0 	bic.w	r2, r2, #1792	@ 0x700
 8000822:	0412      	lsls	r2, r2, #16
 8000824:	0c12      	lsrs	r2, r2, #16
 8000826:	4313      	orrs	r3, r2
 8000828:	f043 63bf 	orr.w	r3, r3, #100139008	@ 0x5f80000
 800082c:	f443 3300 	orr.w	r3, r3, #131072	@ 0x20000
 8000830:	60cb      	str	r3, [r1, #12]
 8000832:	4770      	bx	lr
 8000834:	e000ed00 	.word	0xe000ed00

08000838 <HAL_NVIC_SetPriority>:
 8000838:	4b15      	ldr	r3, [pc, #84]	@ (8000890 <HAL_NVIC_SetPriority+0x58>)
 800083a:	b530      	push	{r4, r5, lr}
 800083c:	68dc      	ldr	r4, [r3, #12]
 800083e:	f3c4 2402 	ubfx	r4, r4, #8, #3
 8000842:	f1c4 0307 	rsb	r3, r4, #7
 8000846:	1d25      	adds	r5, r4, #4
 8000848:	2b04      	cmp	r3, #4
 800084a:	bf28      	it	cs
 800084c:	2304      	movcs	r3, #4
 800084e:	2d06      	cmp	r5, #6
 8000850:	f04f 35ff 	mov.w	r5, #4294967295
 8000854:	bf94      	ite	ls
 8000856:	2400      	movls	r4, #0
 8000858:	3c03      	subhi	r4, #3
 800085a:	fa05 f303 	lsl.w	r3, r5, r3
 800085e:	ea21 0303 	bic.w	r3, r1, r3
 8000862:	40a5      	lsls	r5, r4
 8000864:	ea22 0205 	bic.w	r2, r2, r5
 8000868:	40a3      	lsls	r3, r4
 800086a:	2800      	cmp	r0, #0
 800086c:	ea43 0302 	orr.w	r3, r3, r2
 8000870:	bfac      	ite	ge
 8000872:	f100 4060 	addge.w	r0, r0, #3758096384	@ 0xe0000000
 8000876:	4a07      	ldrlt	r2, [pc, #28]	@ (8000894 <HAL_NVIC_SetPriority+0x5c>)
 8000878:	ea4f 1303 	mov.w	r3, r3, lsl #4
 800087c:	b2db      	uxtb	r3, r3
 800087e:	bfab      	itete	ge
 8000880:	f500 4061 	addge.w	r0, r0, #57600	@ 0xe100
 8000884:	f000 000f 	andlt.w	r0, r0, #15
 8000888:	f880 3300 	strbge.w	r3, [r0, #768]	@ 0x300
 800088c:	5413      	strblt	r3, [r2, r0]
 800088e:	bd30      	pop	{r4, r5, pc}
 8000890:	e000ed00 	.word	0xe000ed00
 8000894:	e000ed14 	.word	0xe000ed14

08000898 <HAL_NVIC_EnableIRQ>:
 8000898:	2800      	cmp	r0, #0
 800089a:	db07      	blt.n	80008ac <HAL_NVIC_EnableIRQ+0x14>
 800089c:	2301      	movs	r3, #1
 800089e:	0941      	lsrs	r1, r0, #5
 80008a0:	4a03      	ldr	r2, [pc, #12]	@ (80008b0 <HAL_NVIC_EnableIRQ+0x18>)
 80008a2:	f000 001f 	and.w	r0, r0, #31
 80008a6:	4083      	lsls	r3, r0
 80008a8:	f842 3021 	str.w	r3, [r2, r1, lsl #2]
 80008ac:	4770      	bx	lr
 80008ae:	bf00      	nop
 80008b0:	e000e100 	.word	0xe000e100

080008b4 <HAL_SYSTICK_Config>:
 80008b4:	3801      	subs	r0, #1
 80008b6:	f1b0 7f80 	cmp.w	r0, #16777216	@ 0x1000000
 80008ba:	d20b      	bcs.n	80008d4 <HAL_SYSTICK_Config+0x20>
 80008bc:	f04f 23e0 	mov.w	r3, #3758153728	@ 0xe000e000
 80008c0:	21f0      	movs	r1, #240	@ 0xf0
 80008c2:	4a05      	ldr	r2, [pc, #20]	@ (80008d8 <HAL_SYSTICK_Config+0x24>)
 80008c4:	6158      	str	r0, [r3, #20]
 80008c6:	f882 1023 	strb.w	r1, [r2, #35]	@ 0x23
 80008ca:	2000      	movs	r0, #0
 80008cc:	2207      	movs	r2, #7
 80008ce:	6198      	str	r0, [r3, #24]
 80008d0:	611a      	str	r2, [r3, #16]
 80008d2:	4770      	bx	lr
 80008d4:	2001      	movs	r0, #1
 80008d6:	4770      	bx	lr
 80008d8:	e000ed00 	.word	0xe000ed00

080008dc <HAL_DMA_Init>:
 80008dc:	4603      	mov	r3, r0
 80008de:	b510      	push	{r4, lr}
 80008e0:	b340      	cbz	r0, 8000934 <HAL_DMA_Init+0x58>
 80008e2:	2114      	movs	r1, #20
 80008e4:	6800      	ldr	r0, [r0, #0]
 80008e6:	4a14      	ldr	r2, [pc, #80]	@ (8000938 <HAL_DMA_Init+0x5c>)
 80008e8:	4402      	add	r2, r0
 80008ea:	fbb2 f2f1 	udiv	r2, r2, r1
 80008ee:	0092      	lsls	r2, r2, #2
 80008f0:	641a      	str	r2, [r3, #64]	@ 0x40
 80008f2:	4a12      	ldr	r2, [pc, #72]	@ (800093c <HAL_DMA_Init+0x60>)
 80008f4:	63da      	str	r2, [r3, #60]	@ 0x3c
 80008f6:	2202      	movs	r2, #2
 80008f8:	f883 2021 	strb.w	r2, [r3, #33]	@ 0x21
 80008fc:	e9d3 2401 	ldrd	r2, r4, [r3, #4]
 8000900:	4322      	orrs	r2, r4
 8000902:	68dc      	ldr	r4, [r3, #12]
 8000904:	6801      	ldr	r1, [r0, #0]
 8000906:	4322      	orrs	r2, r4
 8000908:	691c      	ldr	r4, [r3, #16]
 800090a:	f421 517f 	bic.w	r1, r1, #16320	@ 0x3fc0
 800090e:	4322      	orrs	r2, r4
 8000910:	695c      	ldr	r4, [r3, #20]
 8000912:	f021 0130 	bic.w	r1, r1, #48	@ 0x30
 8000916:	4322      	orrs	r2, r4
 8000918:	699c      	ldr	r4, [r3, #24]
 800091a:	4322      	orrs	r2, r4
 800091c:	69dc      	ldr	r4, [r3, #28]
 800091e:	4322      	orrs	r2, r4
 8000920:	430a      	orrs	r2, r1
 8000922:	6002      	str	r2, [r0, #0]
 8000924:	2000      	movs	r0, #0
 8000926:	2201      	movs	r2, #1
 8000928:	6398      	str	r0, [r3, #56]	@ 0x38
 800092a:	f883 0020 	strb.w	r0, [r3, #32]
 800092e:	f883 2021 	strb.w	r2, [r3, #33]	@ 0x21
 8000932:	bd10      	pop	{r4, pc}
 8000934:	2001      	movs	r0, #1
 8000936:	e7fc      	b.n	8000932 <HAL_DMA_Init+0x56>
 8000938:	bffdfff8 	.word	0xbffdfff8
 800093c:	40020000 	.word	0x40020000

08000940 <HAL_DMA_Abort>:
 8000940:	f890 2021 	ldrb.w	r2, [r0, #33]	@ 0x21
 8000944:	4603      	mov	r3, r0
 8000946:	2a02      	cmp	r2, #2
 8000948:	d006      	beq.n	8000958 <HAL_DMA_Abort+0x18>
 800094a:	2204      	movs	r2, #4
 800094c:	6382      	str	r2, [r0, #56]	@ 0x38
 800094e:	2001      	movs	r0, #1
 8000950:	2200      	movs	r2, #0
 8000952:	f883 2020 	strb.w	r2, [r3, #32]
 8000956:	4770      	bx	lr
 8000958:	6802      	ldr	r2, [r0, #0]
 800095a:	6bc0      	ldr	r0, [r0, #60]	@ 0x3c
 800095c:	6811      	ldr	r1, [r2, #0]
 800095e:	f021 010e 	bic.w	r1, r1, #14
 8000962:	6011      	str	r1, [r2, #0]
 8000964:	6811      	ldr	r1, [r2, #0]
 8000966:	f021 0101 	bic.w	r1, r1, #1
 800096a:	6011      	str	r1, [r2, #0]
 800096c:	2101      	movs	r1, #1
 800096e:	6c1a      	ldr	r2, [r3, #64]	@ 0x40
 8000970:	fa01 f202 	lsl.w	r2, r1, r2
 8000974:	6042      	str	r2, [r0, #4]
 8000976:	2000      	movs	r0, #0
 8000978:	f883 1021 	strb.w	r1, [r3, #33]	@ 0x21
 800097c:	e7e8      	b.n	8000950 <HAL_DMA_Abort+0x10>
	...

08000980 <HAL_DMA_Abort_IT>:
 8000980:	b508      	push	{r3, lr}
 8000982:	f890 3021 	ldrb.w	r3, [r0, #33]	@ 0x21
 8000986:	2b02      	cmp	r3, #2
 8000988:	d003      	beq.n	8000992 <HAL_DMA_Abort_IT+0x12>
 800098a:	2304      	movs	r3, #4
 800098c:	6383      	str	r3, [r0, #56]	@ 0x38
 800098e:	2001      	movs	r0, #1
 8000990:	bd08      	pop	{r3, pc}
 8000992:	6803      	ldr	r3, [r0, #0]
 8000994:	681a      	ldr	r2, [r3, #0]
 8000996:	f022 020e 	bic.w	r2, r2, #14
 800099a:	601a      	str	r2, [r3, #0]
 800099c:	681a      	ldr	r2, [r3, #0]
 800099e:	f022 0201 	bic.w	r2, r2, #1
 80009a2:	601a      	str	r2, [r3, #0]
 80009a4:	4a17      	ldr	r2, [pc, #92]	@ (8000a04 <HAL_DMA_Abort_IT+0x84>)
 80009a6:	4293      	cmp	r3, r2
 80009a8:	d01f      	beq.n	80009ea <HAL_DMA_Abort_IT+0x6a>
 80009aa:	3214      	adds	r2, #20
 80009ac:	4293      	cmp	r3, r2
 80009ae:	d01e      	beq.n	80009ee <HAL_DMA_Abort_IT+0x6e>
 80009b0:	3214      	adds	r2, #20
 80009b2:	4293      	cmp	r3, r2
 80009b4:	d01d      	beq.n	80009f2 <HAL_DMA_Abort_IT+0x72>
 80009b6:	3214      	adds	r2, #20
 80009b8:	4293      	cmp	r3, r2
 80009ba:	d01d      	beq.n	80009f8 <HAL_DMA_Abort_IT+0x78>
 80009bc:	3214      	adds	r2, #20
 80009be:	4293      	cmp	r3, r2
 80009c0:	d01d      	beq.n	80009fe <HAL_DMA_Abort_IT+0x7e>
 80009c2:	3214      	adds	r2, #20
 80009c4:	4293      	cmp	r3, r2
 80009c6:	bf14      	ite	ne
 80009c8:	f04f 7380 	movne.w	r3, #16777216	@ 0x1000000
 80009cc:	f44f 1380 	moveq.w	r3, #1048576	@ 0x100000
 80009d0:	4a0d      	ldr	r2, [pc, #52]	@ (8000a08 <HAL_DMA_Abort_IT+0x88>)
 80009d2:	6053      	str	r3, [r2, #4]
 80009d4:	2301      	movs	r3, #1
 80009d6:	f880 3021 	strb.w	r3, [r0, #33]	@ 0x21
 80009da:	2300      	movs	r3, #0
 80009dc:	f880 3020 	strb.w	r3, [r0, #32]
 80009e0:	6b43      	ldr	r3, [r0, #52]	@ 0x34
 80009e2:	b103      	cbz	r3, 80009e6 <HAL_DMA_Abort_IT+0x66>
 80009e4:	4798      	blx	r3
 80009e6:	2000      	movs	r0, #0
 80009e8:	e7d2      	b.n	8000990 <HAL_DMA_Abort_IT+0x10>
 80009ea:	2301      	movs	r3, #1
 80009ec:	e7f0      	b.n	80009d0 <HAL_DMA_Abort_IT+0x50>
 80009ee:	2310      	movs	r3, #16
 80009f0:	e7ee      	b.n	80009d0 <HAL_DMA_Abort_IT+0x50>
 80009f2:	f44f 7380 	mov.w	r3, #256	@ 0x100
 80009f6:	e7eb      	b.n	80009d0 <HAL_DMA_Abort_IT+0x50>
 80009f8:	f44f 5380 	mov.w	r3, #4096	@ 0x1000
 80009fc:	e7e8      	b.n	80009d0 <HAL_DMA_Abort_IT+0x50>
 80009fe:	f44f 3380 	mov.w	r3, #65536	@ 0x10000
 8000a02:	e7e5      	b.n	80009d0 <HAL_DMA_Abort_IT+0x50>
 8000a04:	40020008 	.word	0x40020008
 8000a08:	40020000 	.word	0x40020000

08000a0c <HAL_DMA_IRQHandler>:
 8000a0c:	b470      	push	{r4, r5, r6}
 8000a0e:	2504      	movs	r5, #4
 8000a10:	6bc6      	ldr	r6, [r0, #60]	@ 0x3c
 8000a12:	6c02      	ldr	r2, [r0, #64]	@ 0x40
 8000a14:	6834      	ldr	r4, [r6, #0]
 8000a16:	6803      	ldr	r3, [r0, #0]
 8000a18:	4095      	lsls	r5, r2
 8000a1a:	4225      	tst	r5, r4
 8000a1c:	6819      	ldr	r1, [r3, #0]
 8000a1e:	d032      	beq.n	8000a86 <HAL_DMA_IRQHandler+0x7a>
 8000a20:	074d      	lsls	r5, r1, #29
 8000a22:	d530      	bpl.n	8000a86 <HAL_DMA_IRQHandler+0x7a>
 8000a24:	681a      	ldr	r2, [r3, #0]
 8000a26:	0696      	lsls	r6, r2, #26
 8000a28:	bf5e      	ittt	pl
 8000a2a:	681a      	ldrpl	r2, [r3, #0]
 8000a2c:	f022 0204 	bicpl.w	r2, r2, #4
 8000a30:	601a      	strpl	r2, [r3, #0]
 8000a32:	4a3e      	ldr	r2, [pc, #248]	@ (8000b2c <HAL_DMA_IRQHandler+0x120>)
 8000a34:	4293      	cmp	r3, r2
 8000a36:	d019      	beq.n	8000a6c <HAL_DMA_IRQHandler+0x60>
 8000a38:	3214      	adds	r2, #20
 8000a3a:	4293      	cmp	r3, r2
 8000a3c:	d018      	beq.n	8000a70 <HAL_DMA_IRQHandler+0x64>
 8000a3e:	3214      	adds	r2, #20
 8000a40:	4293      	cmp	r3, r2
 8000a42:	d017      	beq.n	8000a74 <HAL_DMA_IRQHandler+0x68>
 8000a44:	3214      	adds	r2, #20
 8000a46:	4293      	cmp	r3, r2
 8000a48:	d017      	beq.n	8000a7a <HAL_DMA_IRQHandler+0x6e>
 8000a4a:	3214      	adds	r2, #20
 8000a4c:	4293      	cmp	r3, r2
 8000a4e:	d017      	beq.n	8000a80 <HAL_DMA_IRQHandler+0x74>
 8000a50:	3214      	adds	r2, #20
 8000a52:	4293      	cmp	r3, r2
 8000a54:	bf14      	ite	ne
 8000a56:	f04f 6380 	movne.w	r3, #67108864	@ 0x4000000
 8000a5a:	f44f 0380 	moveq.w	r3, #4194304	@ 0x400000
 8000a5e:	4a34      	ldr	r2, [pc, #208]	@ (8000b30 <HAL_DMA_IRQHandler+0x124>)
 8000a60:	6053      	str	r3, [r2, #4]
 8000a62:	6ac3      	ldr	r3, [r0, #44]	@ 0x2c
 8000a64:	2b00      	cmp	r3, #0
 8000a66:	d05e      	beq.n	8000b26 <HAL_DMA_IRQHandler+0x11a>
 8000a68:	bc70      	pop	{r4, r5, r6}
 8000a6a:	4718      	bx	r3
 8000a6c:	2304      	movs	r3, #4
 8000a6e:	e7f6      	b.n	8000a5e <HAL_DMA_IRQHandler+0x52>
 8000a70:	2340      	movs	r3, #64	@ 0x40
 8000a72:	e7f4      	b.n	8000a5e <HAL_DMA_IRQHandler+0x52>
 8000a74:	f44f 6380 	mov.w	r3, #1024	@ 0x400
 8000a78:	e7f1      	b.n	8000a5e <HAL_DMA_IRQHandler+0x52>
 8000a7a:	f44f 4380 	mov.w	r3, #16384	@ 0x4000
 8000a7e:	e7ee      	b.n	8000a5e <HAL_DMA_IRQHandler+0x52>
 8000a80:	f44f 2380 	mov.w	r3, #262144	@ 0x40000
 8000a84:	e7eb      	b.n	8000a5e <HAL_DMA_IRQHandler+0x52>
 8000a86:	2502      	movs	r5, #2
 8000a88:	4095      	lsls	r5, r2
 8000a8a:	4225      	tst	r5, r4
 8000a8c:	d035      	beq.n	8000afa <HAL_DMA_IRQHandler+0xee>
 8000a8e:	078d      	lsls	r5, r1, #30
 8000a90:	d533      	bpl.n	8000afa <HAL_DMA_IRQHandler+0xee>
 8000a92:	681a      	ldr	r2, [r3, #0]
 8000a94:	0694      	lsls	r4, r2, #26
 8000a96:	d406      	bmi.n	8000aa6 <HAL_DMA_IRQHandler+0x9a>
 8000a98:	681a      	ldr	r2, [r3, #0]
 8000a9a:	f022 020a 	bic.w	r2, r2, #10
 8000a9e:	601a      	str	r2, [r3, #0]
 8000aa0:	2201      	movs	r2, #1
 8000aa2:	f880 2021 	strb.w	r2, [r0, #33]	@ 0x21
 8000aa6:	4a21      	ldr	r2, [pc, #132]	@ (8000b2c <HAL_DMA_IRQHandler+0x120>)
 8000aa8:	4293      	cmp	r3, r2
 8000aaa:	d019      	beq.n	8000ae0 <HAL_DMA_IRQHandler+0xd4>
 8000aac:	3214      	adds	r2, #20
 8000aae:	4293      	cmp	r3, r2
 8000ab0:	d018      	beq.n	8000ae4 <HAL_DMA_IRQHandler+0xd8>
 8000ab2:	3214      	adds	r2, #20
 8000ab4:	4293      	cmp	r3, r2
 8000ab6:	d017      	beq.n	8000ae8 <HAL_DMA_IRQHandler+0xdc>
 8000ab8:	3214      	adds	r2, #20
 8000aba:	4293      	cmp	r3, r2
 8000abc:	d017      	beq.n	8000aee <HAL_DMA_IRQHandler+0xe2>
 8000abe:	3214      	adds	r2, #20
 8000ac0:	4293      	cmp	r3, r2
 8000ac2:	d017      	beq.n	8000af4 <HAL_DMA_IRQHandler+0xe8>
 8000ac4:	3214      	adds	r2, #20
 8000ac6:	4293      	cmp	r3, r2
 8000ac8:	bf14      	ite	ne
 8000aca:	f04f 7300 	movne.w	r3, #33554432	@ 0x2000000
 8000ace:	f44f 1300 	moveq.w	r3, #2097152	@ 0x200000
 8000ad2:	4a17      	ldr	r2, [pc, #92]	@ (8000b30 <HAL_DMA_IRQHandler+0x124>)
 8000ad4:	6053      	str	r3, [r2, #4]
 8000ad6:	2300      	movs	r3, #0
 8000ad8:	f880 3020 	strb.w	r3, [r0, #32]
 8000adc:	6a83      	ldr	r3, [r0, #40]	@ 0x28
 8000ade:	e7c1      	b.n	8000a64 <HAL_DMA_IRQHandler+0x58>
 8000ae0:	2302      	movs	r3, #2
 8000ae2:	e7f6      	b.n	8000ad2 <HAL_DMA_IRQHandler+0xc6>
 8000ae4:	2320      	movs	r3, #32
 8000ae6:	e7f4      	b.n	8000ad2 <HAL_DMA_IRQHandler+0xc6>
 8000ae8:	f44f 7300 	mov.w	r3, #512	@ 0x200
 8000aec:	e7f1      	b.n	8000ad2 <HAL_DMA_IRQHandler+0xc6>
 8000aee:	f44f 5300 	mov.w	r3, #8192	@ 0x2000
 8000af2:	e7ee      	b.n	8000ad2 <HAL_DMA_IRQHandler+0xc6>
 8000af4:	f44f 3300 	mov.w	r3, #131072	@ 0x20000
 8000af8:	e7eb      	b.n	8000ad2 <HAL_DMA_IRQHandler+0xc6>
 8000afa:	2508      	movs	r5, #8
 8000afc:	4095      	lsls	r5, r2
 8000afe:	4225      	tst	r5, r4
 8000b00:	d011      	beq.n	8000b26 <HAL_DMA_IRQHandler+0x11a>
 8000b02:	0709      	lsls	r1, r1, #28
 8000b04:	d50f      	bpl.n	8000b26 <HAL_DMA_IRQHandler+0x11a>
 8000b06:	6819      	ldr	r1, [r3, #0]
 8000b08:	f021 010e 	bic.w	r1, r1, #14
 8000b0c:	6019      	str	r1, [r3, #0]
 8000b0e:	2301      	movs	r3, #1
 8000b10:	fa03 f202 	lsl.w	r2, r3, r2
 8000b14:	6072      	str	r2, [r6, #4]
 8000b16:	6383      	str	r3, [r0, #56]	@ 0x38
 8000b18:	f880 3021 	strb.w	r3, [r0, #33]	@ 0x21
 8000b1c:	2300      	movs	r3, #0
 8000b1e:	f880 3020 	strb.w	r3, [r0, #32]
 8000b22:	6b03      	ldr	r3, [r0, #48]	@ 0x30
 8000b24:	e79e      	b.n	8000a64 <HAL_DMA_IRQHandler+0x58>
 8000b26:	bc70      	pop	{r4, r5, r6}
 8000b28:	4770      	bx	lr
 8000b2a:	bf00      	nop
 8000b2c:	40020008 	.word	0x40020008
 8000b30:	40020000 	.word	0x40020000

08000b34 <HAL_GPIO_Init>:
 8000b34:	e92d 4ff7 	stmdb	sp!, {r0, r1, r2, r4, r5, r6, r7, r8, r9, sl, fp, lr}
 8000b38:	2200      	movs	r2, #0
 8000b3a:	4616      	mov	r6, r2
 8000b3c:	f8df c17c 	ldr.w	ip, [pc, #380]	@ 8000cbc <HAL_GPIO_Init+0x188>
 8000b40:	4b5f      	ldr	r3, [pc, #380]	@ (8000cc0 <HAL_GPIO_Init+0x18c>)
 8000b42:	f8df e180 	ldr.w	lr, [pc, #384]	@ 8000cc4 <HAL_GPIO_Init+0x190>
 8000b46:	f8df 8180 	ldr.w	r8, [pc, #384]	@ 8000cc8 <HAL_GPIO_Init+0x194>
 8000b4a:	680d      	ldr	r5, [r1, #0]
 8000b4c:	fa35 f406 	lsrs.w	r4, r5, r6
 8000b50:	d102      	bne.n	8000b58 <HAL_GPIO_Init+0x24>
 8000b52:	b003      	add	sp, #12
 8000b54:	e8bd 8ff0 	ldmia.w	sp!, {r4, r5, r6, r7, r8, r9, sl, fp, pc}
 8000b58:	2701      	movs	r7, #1
 8000b5a:	40b7      	lsls	r7, r6
 8000b5c:	ea05 0407 	and.w	r4, r5, r7
 8000b60:	ea37 0505 	bics.w	r5, r7, r5
 8000b64:	d175      	bne.n	8000c52 <HAL_GPIO_Init+0x11e>
 8000b66:	684d      	ldr	r5, [r1, #4]
 8000b68:	2d03      	cmp	r5, #3
 8000b6a:	d806      	bhi.n	8000b7a <HAL_GPIO_Init+0x46>
 8000b6c:	3d01      	subs	r5, #1
 8000b6e:	2d02      	cmp	r5, #2
 8000b70:	d87e      	bhi.n	8000c70 <HAL_GPIO_Init+0x13c>
 8000b72:	e8df f005 	tbb	[pc, r5]
 8000b76:	948f      	.short	0x948f
 8000b78:	9a          	.byte	0x9a
 8000b79:	00          	.byte	0x00
 8000b7a:	2d12      	cmp	r5, #18
 8000b7c:	f000 8092 	beq.w	8000ca4 <HAL_GPIO_Init+0x170>
 8000b80:	d869      	bhi.n	8000c56 <HAL_GPIO_Init+0x122>
 8000b82:	2d11      	cmp	r5, #17
 8000b84:	f000 8088 	beq.w	8000c98 <HAL_GPIO_Init+0x164>
 8000b88:	2cff      	cmp	r4, #255	@ 0xff
 8000b8a:	bf98      	it	ls
 8000b8c:	4681      	movls	r9, r0
 8000b8e:	f04f 0b0f 	mov.w	fp, #15
 8000b92:	bf88      	it	hi
 8000b94:	f100 0904 	addhi.w	r9, r0, #4
 8000b98:	ea4f 0586 	mov.w	r5, r6, lsl #2
 8000b9c:	f8d9 7000 	ldr.w	r7, [r9]
 8000ba0:	bf88      	it	hi
 8000ba2:	3d20      	subhi	r5, #32
 8000ba4:	fa0b fa05 	lsl.w	sl, fp, r5
 8000ba8:	ea27 070a 	bic.w	r7, r7, sl
 8000bac:	fa02 f505 	lsl.w	r5, r2, r5
 8000bb0:	432f      	orrs	r7, r5
 8000bb2:	f8c9 7000 	str.w	r7, [r9]
 8000bb6:	f8d1 9004 	ldr.w	r9, [r1, #4]
 8000bba:	f019 5f80 	tst.w	r9, #268435456	@ 0x10000000
 8000bbe:	d048      	beq.n	8000c52 <HAL_GPIO_Init+0x11e>
 8000bc0:	f8dc 5018 	ldr.w	r5, [ip, #24]
 8000bc4:	f026 0703 	bic.w	r7, r6, #3
 8000bc8:	f045 0501 	orr.w	r5, r5, #1
 8000bcc:	f8cc 5018 	str.w	r5, [ip, #24]
 8000bd0:	f8dc 5018 	ldr.w	r5, [ip, #24]
 8000bd4:	f107 4780 	add.w	r7, r7, #1073741824	@ 0x40000000
 8000bd8:	f005 0501 	and.w	r5, r5, #1
 8000bdc:	9501      	str	r5, [sp, #4]
 8000bde:	f507 3780 	add.w	r7, r7, #65536	@ 0x10000
 8000be2:	f006 0a03 	and.w	sl, r6, #3
 8000be6:	9d01      	ldr	r5, [sp, #4]
 8000be8:	ea4f 0a8a 	mov.w	sl, sl, lsl #2
 8000bec:	68bd      	ldr	r5, [r7, #8]
 8000bee:	fa0b fb0a 	lsl.w	fp, fp, sl
 8000bf2:	ea25 0b0b 	bic.w	fp, r5, fp
 8000bf6:	4d35      	ldr	r5, [pc, #212]	@ (8000ccc <HAL_GPIO_Init+0x198>)
 8000bf8:	42a8      	cmp	r0, r5
 8000bfa:	d05a      	beq.n	8000cb2 <HAL_GPIO_Init+0x17e>
 8000bfc:	f505 6580 	add.w	r5, r5, #1024	@ 0x400
 8000c00:	42a8      	cmp	r0, r5
 8000c02:	d058      	beq.n	8000cb6 <HAL_GPIO_Init+0x182>
 8000c04:	f505 6580 	add.w	r5, r5, #1024	@ 0x400
 8000c08:	42a8      	cmp	r0, r5
 8000c0a:	bf14      	ite	ne
 8000c0c:	2503      	movne	r5, #3
 8000c0e:	2502      	moveq	r5, #2
 8000c10:	fa05 f50a 	lsl.w	r5, r5, sl
 8000c14:	ea45 050b 	orr.w	r5, r5, fp
 8000c18:	60bd      	str	r5, [r7, #8]
 8000c1a:	689d      	ldr	r5, [r3, #8]
 8000c1c:	f419 1f80 	tst.w	r9, #1048576	@ 0x100000
 8000c20:	bf14      	ite	ne
 8000c22:	4325      	orrne	r5, r4
 8000c24:	43a5      	biceq	r5, r4
 8000c26:	609d      	str	r5, [r3, #8]
 8000c28:	68dd      	ldr	r5, [r3, #12]
 8000c2a:	f419 1f00 	tst.w	r9, #2097152	@ 0x200000
 8000c2e:	bf14      	ite	ne
 8000c30:	4325      	orrne	r5, r4
 8000c32:	43a5      	biceq	r5, r4
 8000c34:	60dd      	str	r5, [r3, #12]
 8000c36:	685d      	ldr	r5, [r3, #4]
 8000c38:	f419 3f00 	tst.w	r9, #131072	@ 0x20000
 8000c3c:	bf14      	ite	ne
 8000c3e:	4325      	orrne	r5, r4
 8000c40:	43a5      	biceq	r5, r4
 8000c42:	605d      	str	r5, [r3, #4]
 8000c44:	681d      	ldr	r5, [r3, #0]
 8000c46:	f419 3f80 	tst.w	r9, #65536	@ 0x10000
 8000c4a:	bf14      	ite	ne
 8000c4c:	4325      	orrne	r5, r4
 8000c4e:	43a5      	biceq	r5, r4
 8000c50:	601d      	str	r5, [r3, #0]
 8000c52:	3601      	adds	r6, #1
 8000c54:	e779      	b.n	8000b4a <HAL_GPIO_Init+0x16>
 8000c56:	f8df 9078 	ldr.w	r9, [pc, #120]	@ 8000cd0 <HAL_GPIO_Init+0x19c>
 8000c5a:	454d      	cmp	r5, r9
 8000c5c:	d008      	beq.n	8000c70 <HAL_GPIO_Init+0x13c>
 8000c5e:	d811      	bhi.n	8000c84 <HAL_GPIO_Init+0x150>
 8000c60:	f5a9 1980 	sub.w	r9, r9, #1048576	@ 0x100000
 8000c64:	454d      	cmp	r5, r9
 8000c66:	d003      	beq.n	8000c70 <HAL_GPIO_Init+0x13c>
 8000c68:	4575      	cmp	r5, lr
 8000c6a:	d001      	beq.n	8000c70 <HAL_GPIO_Init+0x13c>
 8000c6c:	4545      	cmp	r5, r8
 8000c6e:	d18b      	bne.n	8000b88 <HAL_GPIO_Init+0x54>
 8000c70:	688a      	ldr	r2, [r1, #8]
 8000c72:	b1e2      	cbz	r2, 8000cae <HAL_GPIO_Init+0x17a>
 8000c74:	2a01      	cmp	r2, #1
 8000c76:	bf08      	it	eq
 8000c78:	6107      	streq	r7, [r0, #16]
 8000c7a:	f04f 0208 	mov.w	r2, #8
 8000c7e:	bf18      	it	ne
 8000c80:	6147      	strne	r7, [r0, #20]
 8000c82:	e781      	b.n	8000b88 <HAL_GPIO_Init+0x54>
 8000c84:	f8df 904c 	ldr.w	r9, [pc, #76]	@ 8000cd4 <HAL_GPIO_Init+0x1a0>
 8000c88:	454d      	cmp	r5, r9
 8000c8a:	d0f1      	beq.n	8000c70 <HAL_GPIO_Init+0x13c>
 8000c8c:	f509 3980 	add.w	r9, r9, #65536	@ 0x10000
 8000c90:	454d      	cmp	r5, r9
 8000c92:	e7ec      	b.n	8000c6e <HAL_GPIO_Init+0x13a>
 8000c94:	68ca      	ldr	r2, [r1, #12]
 8000c96:	e777      	b.n	8000b88 <HAL_GPIO_Init+0x54>
 8000c98:	68ca      	ldr	r2, [r1, #12]
 8000c9a:	3204      	adds	r2, #4
 8000c9c:	e774      	b.n	8000b88 <HAL_GPIO_Init+0x54>
 8000c9e:	68ca      	ldr	r2, [r1, #12]
 8000ca0:	3208      	adds	r2, #8
 8000ca2:	e771      	b.n	8000b88 <HAL_GPIO_Init+0x54>
 8000ca4:	68ca      	ldr	r2, [r1, #12]
 8000ca6:	320c      	adds	r2, #12
 8000ca8:	e76e      	b.n	8000b88 <HAL_GPIO_Init+0x54>
 8000caa:	2200      	movs	r2, #0
 8000cac:	e76c      	b.n	8000b88 <HAL_GPIO_Init+0x54>
 8000cae:	2204      	movs	r2, #4
 8000cb0:	e76a      	b.n	8000b88 <HAL_GPIO_Init+0x54>
 8000cb2:	2500      	movs	r5, #0
 8000cb4:	e7ac      	b.n	8000c10 <HAL_GPIO_Init+0xdc>
 8000cb6:	2501      	movs	r5, #1
 8000cb8:	e7aa      	b.n	8000c10 <HAL_GPIO_Init+0xdc>
 8000cba:	bf00      	nop
 8000cbc:	40021000 	.word	0x40021000
 8000cc0:	40010400 	.word	0x40010400
 8000cc4:	10210000 	.word	0x10210000
 8000cc8:	10110000 	.word	0x10110000
 8000ccc:	40010800 	.word	0x40010800
 8000cd0:	10220000 	.word	0x10220000
 8000cd4:	10310000 	.word	0x10310000

08000cd8 <HAL_GPIO_WritePin>:
 8000cd8:	b10a      	cbz	r2, 8000cde <HAL_GPIO_WritePin+0x6>
 8000cda:	6101      	str	r1, [r0, #16]
 8000cdc:	4770      	bx	lr
 8000cde:	0409      	lsls	r1, r1, #16
 8000ce0:	e7fb      	b.n	8000cda <HAL_GPIO_WritePin+0x2>
	...

08000ce4 <HAL_I2C_Init>:
 8000ce4:	b570      	push	{r4, r5, r6, lr}
 8000ce6:	4604      	mov	r4, r0
 8000ce8:	b908      	cbnz	r0, 8000cee <HAL_I2C_Init+0xa>
 8000cea:	2001      	movs	r0, #1
 8000cec:	bd70      	pop	{r4, r5, r6, pc}
 8000cee:	f890 303d 	ldrb.w	r3, [r0, #61]	@ 0x3d
 8000cf2:	f003 02ff 	and.w	r2, r3, #255	@ 0xff
 8000cf6:	b91b      	cbnz	r3, 8000d00 <HAL_I2C_Init+0x1c>
 8000cf8:	f880 203c 	strb.w	r2, [r0, #60]	@ 0x3c
 8000cfc:	f7ff fbc2 	bl	8000484 <HAL_I2C_MspInit>
 8000d00:	2324      	movs	r3, #36	@ 0x24
 8000d02:	f884 303d 	strb.w	r3, [r4, #61]	@ 0x3d
 8000d06:	6823      	ldr	r3, [r4, #0]
 8000d08:	681a      	ldr	r2, [r3, #0]
 8000d0a:	f022 0201 	bic.w	r2, r2, #1
 8000d0e:	601a      	str	r2, [r3, #0]
 8000d10:	681a      	ldr	r2, [r3, #0]
 8000d12:	f442 4200 	orr.w	r2, r2, #32768	@ 0x8000
 8000d16:	601a      	str	r2, [r3, #0]
 8000d18:	681a      	ldr	r2, [r3, #0]
 8000d1a:	f422 4200 	bic.w	r2, r2, #32768	@ 0x8000
 8000d1e:	601a      	str	r2, [r3, #0]
 8000d20:	f000 fae6 	bl	80012f0 <HAL_RCC_GetPCLK1Freq>
 8000d24:	4b3f      	ldr	r3, [pc, #252]	@ (8000e24 <HAL_I2C_Init+0x140>)
 8000d26:	6865      	ldr	r5, [r4, #4]
 8000d28:	429d      	cmp	r5, r3
 8000d2a:	bf94      	ite	ls
 8000d2c:	4b3e      	ldrls	r3, [pc, #248]	@ (8000e28 <HAL_I2C_Init+0x144>)
 8000d2e:	4b3f      	ldrhi	r3, [pc, #252]	@ (8000e2c <HAL_I2C_Init+0x148>)
 8000d30:	4298      	cmp	r0, r3
 8000d32:	bf8c      	ite	hi
 8000d34:	2300      	movhi	r3, #0
 8000d36:	2301      	movls	r3, #1
 8000d38:	2b00      	cmp	r3, #0
 8000d3a:	d1d6      	bne.n	8000cea <HAL_I2C_Init+0x6>
 8000d3c:	4e39      	ldr	r6, [pc, #228]	@ (8000e24 <HAL_I2C_Init+0x140>)
 8000d3e:	4b3c      	ldr	r3, [pc, #240]	@ (8000e30 <HAL_I2C_Init+0x14c>)
 8000d40:	42b5      	cmp	r5, r6
 8000d42:	fbb0 f3f3 	udiv	r3, r0, r3
 8000d46:	bf88      	it	hi
 8000d48:	f44f 7696 	movhi.w	r6, #300	@ 0x12c
 8000d4c:	6822      	ldr	r2, [r4, #0]
 8000d4e:	6851      	ldr	r1, [r2, #4]
 8000d50:	f021 013f 	bic.w	r1, r1, #63	@ 0x3f
 8000d54:	ea41 0103 	orr.w	r1, r1, r3
 8000d58:	bf82      	ittt	hi
 8000d5a:	4373      	mulhi	r3, r6
 8000d5c:	f44f 767a 	movhi.w	r6, #1000	@ 0x3e8
 8000d60:	fbb3 f3f6 	udivhi	r3, r3, r6
 8000d64:	6051      	str	r1, [r2, #4]
 8000d66:	6a11      	ldr	r1, [r2, #32]
 8000d68:	3301      	adds	r3, #1
 8000d6a:	f021 013f 	bic.w	r1, r1, #63	@ 0x3f
 8000d6e:	430b      	orrs	r3, r1
 8000d70:	6213      	str	r3, [r2, #32]
 8000d72:	69d1      	ldr	r1, [r2, #28]
 8000d74:	1e43      	subs	r3, r0, #1
 8000d76:	482b      	ldr	r0, [pc, #172]	@ (8000e24 <HAL_I2C_Init+0x140>)
 8000d78:	f421 414f 	bic.w	r1, r1, #52992	@ 0xcf00
 8000d7c:	4285      	cmp	r5, r0
 8000d7e:	f021 01ff 	bic.w	r1, r1, #255	@ 0xff
 8000d82:	d832      	bhi.n	8000dea <HAL_I2C_Init+0x106>
 8000d84:	006d      	lsls	r5, r5, #1
 8000d86:	fbb3 f3f5 	udiv	r3, r3, r5
 8000d8a:	f640 70fc 	movw	r0, #4092	@ 0xffc
 8000d8e:	3301      	adds	r3, #1
 8000d90:	4203      	tst	r3, r0
 8000d92:	d042      	beq.n	8000e1a <HAL_I2C_Init+0x136>
 8000d94:	f3c3 030b 	ubfx	r3, r3, #0, #12
 8000d98:	4319      	orrs	r1, r3
 8000d9a:	61d1      	str	r1, [r2, #28]
 8000d9c:	6811      	ldr	r1, [r2, #0]
 8000d9e:	e9d4 3007 	ldrd	r3, r0, [r4, #28]
 8000da2:	f021 01c0 	bic.w	r1, r1, #192	@ 0xc0
 8000da6:	4303      	orrs	r3, r0
 8000da8:	430b      	orrs	r3, r1
 8000daa:	6013      	str	r3, [r2, #0]
 8000dac:	6891      	ldr	r1, [r2, #8]
 8000dae:	e9d4 0303 	ldrd	r0, r3, [r4, #12]
 8000db2:	f421 4103 	bic.w	r1, r1, #33536	@ 0x8300
 8000db6:	4303      	orrs	r3, r0
 8000db8:	f021 01ff 	bic.w	r1, r1, #255	@ 0xff
 8000dbc:	430b      	orrs	r3, r1
 8000dbe:	6093      	str	r3, [r2, #8]
 8000dc0:	68d1      	ldr	r1, [r2, #12]
 8000dc2:	e9d4 3005 	ldrd	r3, r0, [r4, #20]
 8000dc6:	f021 01ff 	bic.w	r1, r1, #255	@ 0xff
 8000dca:	4303      	orrs	r3, r0
 8000dcc:	430b      	orrs	r3, r1
 8000dce:	60d3      	str	r3, [r2, #12]
 8000dd0:	6813      	ldr	r3, [r2, #0]
 8000dd2:	2000      	movs	r0, #0
 8000dd4:	f043 0301 	orr.w	r3, r3, #1
 8000dd8:	6013      	str	r3, [r2, #0]
 8000dda:	2320      	movs	r3, #32
 8000ddc:	6420      	str	r0, [r4, #64]	@ 0x40
 8000dde:	f884 303d 	strb.w	r3, [r4, #61]	@ 0x3d
 8000de2:	6320      	str	r0, [r4, #48]	@ 0x30
 8000de4:	f884 003e 	strb.w	r0, [r4, #62]	@ 0x3e
 8000de8:	e780      	b.n	8000cec <HAL_I2C_Init+0x8>
 8000dea:	68a0      	ldr	r0, [r4, #8]
 8000dec:	b950      	cbnz	r0, 8000e04 <HAL_I2C_Init+0x120>
 8000dee:	eb05 0545 	add.w	r5, r5, r5, lsl #1
 8000df2:	fbb3 f3f5 	udiv	r3, r3, r5
 8000df6:	3301      	adds	r3, #1
 8000df8:	f3c3 030b 	ubfx	r3, r3, #0, #12
 8000dfc:	b17b      	cbz	r3, 8000e1e <HAL_I2C_Init+0x13a>
 8000dfe:	f443 4300 	orr.w	r3, r3, #32768	@ 0x8000
 8000e02:	e7c9      	b.n	8000d98 <HAL_I2C_Init+0xb4>
 8000e04:	2019      	movs	r0, #25
 8000e06:	4368      	muls	r0, r5
 8000e08:	fbb3 f3f0 	udiv	r3, r3, r0
 8000e0c:	3301      	adds	r3, #1
 8000e0e:	f3c3 030b 	ubfx	r3, r3, #0, #12
 8000e12:	b123      	cbz	r3, 8000e1e <HAL_I2C_Init+0x13a>
 8000e14:	f443 4340 	orr.w	r3, r3, #49152	@ 0xc000
 8000e18:	e7be      	b.n	8000d98 <HAL_I2C_Init+0xb4>
 8000e1a:	2304      	movs	r3, #4
 8000e1c:	e7bc      	b.n	8000d98 <HAL_I2C_Init+0xb4>
 8000e1e:	2301      	movs	r3, #1
 8000e20:	e7ba      	b.n	8000d98 <HAL_I2C_Init+0xb4>
 8000e22:	bf00      	nop
 8000e24:	000186a0 	.word	0x000186a0
 8000e28:	001e847f 	.word	0x001e847f
 8000e2c:	003d08ff 	.word	0x003d08ff
 8000e30:	000f4240 	.word	0x000f4240

08000e34 <HAL_RCC_OscConfig>:
 8000e34:	e92d 41f3 	stmdb	sp!, {r0, r1, r4, r5, r6, r7, r8, lr}
 8000e38:	4605      	mov	r5, r0
 8000e3a:	b338      	cbz	r0, 8000e8c <HAL_RCC_OscConfig+0x58>
 8000e3c:	6803      	ldr	r3, [r0, #0]
 8000e3e:	07db      	lsls	r3, r3, #31
 8000e40:	d410      	bmi.n	8000e64 <HAL_RCC_OscConfig+0x30>
 8000e42:	682b      	ldr	r3, [r5, #0]
 8000e44:	079f      	lsls	r7, r3, #30
 8000e46:	d45e      	bmi.n	8000f06 <HAL_RCC_OscConfig+0xd2>
 8000e48:	682b      	ldr	r3, [r5, #0]
 8000e4a:	0719      	lsls	r1, r3, #28
 8000e4c:	f100 8095 	bmi.w	8000f7a <HAL_RCC_OscConfig+0x146>
 8000e50:	682b      	ldr	r3, [r5, #0]
 8000e52:	075a      	lsls	r2, r3, #29
 8000e54:	f100 80c1 	bmi.w	8000fda <HAL_RCC_OscConfig+0x1a6>
 8000e58:	69eb      	ldr	r3, [r5, #28]
 8000e5a:	2b00      	cmp	r3, #0
 8000e5c:	f040 812c 	bne.w	80010b8 <HAL_RCC_OscConfig+0x284>
 8000e60:	2000      	movs	r0, #0
 8000e62:	e029      	b.n	8000eb8 <HAL_RCC_OscConfig+0x84>
 8000e64:	4c90      	ldr	r4, [pc, #576]	@ (80010a8 <HAL_RCC_OscConfig+0x274>)
 8000e66:	6863      	ldr	r3, [r4, #4]
 8000e68:	f003 030c 	and.w	r3, r3, #12
 8000e6c:	2b04      	cmp	r3, #4
 8000e6e:	d007      	beq.n	8000e80 <HAL_RCC_OscConfig+0x4c>
 8000e70:	6863      	ldr	r3, [r4, #4]
 8000e72:	f003 030c 	and.w	r3, r3, #12
 8000e76:	2b08      	cmp	r3, #8
 8000e78:	d10a      	bne.n	8000e90 <HAL_RCC_OscConfig+0x5c>
 8000e7a:	6863      	ldr	r3, [r4, #4]
 8000e7c:	03de      	lsls	r6, r3, #15
 8000e7e:	d507      	bpl.n	8000e90 <HAL_RCC_OscConfig+0x5c>
 8000e80:	6823      	ldr	r3, [r4, #0]
 8000e82:	039c      	lsls	r4, r3, #14
 8000e84:	d5dd      	bpl.n	8000e42 <HAL_RCC_OscConfig+0xe>
 8000e86:	686b      	ldr	r3, [r5, #4]
 8000e88:	2b00      	cmp	r3, #0
 8000e8a:	d1da      	bne.n	8000e42 <HAL_RCC_OscConfig+0xe>
 8000e8c:	2001      	movs	r0, #1
 8000e8e:	e013      	b.n	8000eb8 <HAL_RCC_OscConfig+0x84>
 8000e90:	686b      	ldr	r3, [r5, #4]
 8000e92:	f5b3 3f80 	cmp.w	r3, #65536	@ 0x10000
 8000e96:	d112      	bne.n	8000ebe <HAL_RCC_OscConfig+0x8a>
 8000e98:	6823      	ldr	r3, [r4, #0]
 8000e9a:	f443 3380 	orr.w	r3, r3, #65536	@ 0x10000
 8000e9e:	6023      	str	r3, [r4, #0]
 8000ea0:	f7ff fca0 	bl	80007e4 <HAL_GetTick>
 8000ea4:	4606      	mov	r6, r0
 8000ea6:	6823      	ldr	r3, [r4, #0]
 8000ea8:	0398      	lsls	r0, r3, #14
 8000eaa:	d4ca      	bmi.n	8000e42 <HAL_RCC_OscConfig+0xe>
 8000eac:	f7ff fc9a 	bl	80007e4 <HAL_GetTick>
 8000eb0:	1b80      	subs	r0, r0, r6
 8000eb2:	2864      	cmp	r0, #100	@ 0x64
 8000eb4:	d9f7      	bls.n	8000ea6 <HAL_RCC_OscConfig+0x72>
 8000eb6:	2003      	movs	r0, #3
 8000eb8:	b002      	add	sp, #8
 8000eba:	e8bd 81f0 	ldmia.w	sp!, {r4, r5, r6, r7, r8, pc}
 8000ebe:	b99b      	cbnz	r3, 8000ee8 <HAL_RCC_OscConfig+0xb4>
 8000ec0:	6823      	ldr	r3, [r4, #0]
 8000ec2:	f423 3380 	bic.w	r3, r3, #65536	@ 0x10000
 8000ec6:	6023      	str	r3, [r4, #0]
 8000ec8:	6823      	ldr	r3, [r4, #0]
 8000eca:	f423 2380 	bic.w	r3, r3, #262144	@ 0x40000
 8000ece:	6023      	str	r3, [r4, #0]
 8000ed0:	f7ff fc88 	bl	80007e4 <HAL_GetTick>
 8000ed4:	4606      	mov	r6, r0
 8000ed6:	6823      	ldr	r3, [r4, #0]
 8000ed8:	0399      	lsls	r1, r3, #14
 8000eda:	d5b2      	bpl.n	8000e42 <HAL_RCC_OscConfig+0xe>
 8000edc:	f7ff fc82 	bl	80007e4 <HAL_GetTick>
 8000ee0:	1b80      	subs	r0, r0, r6
 8000ee2:	2864      	cmp	r0, #100	@ 0x64
 8000ee4:	d9f7      	bls.n	8000ed6 <HAL_RCC_OscConfig+0xa2>
 8000ee6:	e7e6      	b.n	8000eb6 <HAL_RCC_OscConfig+0x82>
 8000ee8:	f5b3 2fa0 	cmp.w	r3, #327680	@ 0x50000
 8000eec:	6823      	ldr	r3, [r4, #0]
 8000eee:	d103      	bne.n	8000ef8 <HAL_RCC_OscConfig+0xc4>
 8000ef0:	f443 2380 	orr.w	r3, r3, #262144	@ 0x40000
 8000ef4:	6023      	str	r3, [r4, #0]
 8000ef6:	e7cf      	b.n	8000e98 <HAL_RCC_OscConfig+0x64>
 8000ef8:	f423 3380 	bic.w	r3, r3, #65536	@ 0x10000
 8000efc:	6023      	str	r3, [r4, #0]
 8000efe:	6823      	ldr	r3, [r4, #0]
 8000f00:	f423 2380 	bic.w	r3, r3, #262144	@ 0x40000
 8000f04:	e7cb      	b.n	8000e9e <HAL_RCC_OscConfig+0x6a>
 8000f06:	4c68      	ldr	r4, [pc, #416]	@ (80010a8 <HAL_RCC_OscConfig+0x274>)
 8000f08:	6863      	ldr	r3, [r4, #4]
 8000f0a:	f013 0f0c 	tst.w	r3, #12
 8000f0e:	d007      	beq.n	8000f20 <HAL_RCC_OscConfig+0xec>
 8000f10:	6863      	ldr	r3, [r4, #4]
 8000f12:	f003 030c 	and.w	r3, r3, #12
 8000f16:	2b08      	cmp	r3, #8
 8000f18:	d110      	bne.n	8000f3c <HAL_RCC_OscConfig+0x108>
 8000f1a:	6863      	ldr	r3, [r4, #4]
 8000f1c:	03da      	lsls	r2, r3, #15
 8000f1e:	d40d      	bmi.n	8000f3c <HAL_RCC_OscConfig+0x108>
 8000f20:	6823      	ldr	r3, [r4, #0]
 8000f22:	079b      	lsls	r3, r3, #30
 8000f24:	d502      	bpl.n	8000f2c <HAL_RCC_OscConfig+0xf8>
 8000f26:	692b      	ldr	r3, [r5, #16]
 8000f28:	2b01      	cmp	r3, #1
 8000f2a:	d1af      	bne.n	8000e8c <HAL_RCC_OscConfig+0x58>
 8000f2c:	6823      	ldr	r3, [r4, #0]
 8000f2e:	696a      	ldr	r2, [r5, #20]
 8000f30:	f023 03f8 	bic.w	r3, r3, #248	@ 0xf8
 8000f34:	ea43 03c2 	orr.w	r3, r3, r2, lsl #3
 8000f38:	6023      	str	r3, [r4, #0]
 8000f3a:	e785      	b.n	8000e48 <HAL_RCC_OscConfig+0x14>
 8000f3c:	692a      	ldr	r2, [r5, #16]
 8000f3e:	4b5b      	ldr	r3, [pc, #364]	@ (80010ac <HAL_RCC_OscConfig+0x278>)
 8000f40:	b16a      	cbz	r2, 8000f5e <HAL_RCC_OscConfig+0x12a>
 8000f42:	2201      	movs	r2, #1
 8000f44:	601a      	str	r2, [r3, #0]
 8000f46:	f7ff fc4d 	bl	80007e4 <HAL_GetTick>
 8000f4a:	4606      	mov	r6, r0
 8000f4c:	6823      	ldr	r3, [r4, #0]
 8000f4e:	079f      	lsls	r7, r3, #30
 8000f50:	d4ec      	bmi.n	8000f2c <HAL_RCC_OscConfig+0xf8>
 8000f52:	f7ff fc47 	bl	80007e4 <HAL_GetTick>
 8000f56:	1b80      	subs	r0, r0, r6
 8000f58:	2802      	cmp	r0, #2
 8000f5a:	d9f7      	bls.n	8000f4c <HAL_RCC_OscConfig+0x118>
 8000f5c:	e7ab      	b.n	8000eb6 <HAL_RCC_OscConfig+0x82>
 8000f5e:	601a      	str	r2, [r3, #0]
 8000f60:	f7ff fc40 	bl	80007e4 <HAL_GetTick>
 8000f64:	4606      	mov	r6, r0
 8000f66:	6823      	ldr	r3, [r4, #0]
 8000f68:	0798      	lsls	r0, r3, #30
 8000f6a:	f57f af6d 	bpl.w	8000e48 <HAL_RCC_OscConfig+0x14>
 8000f6e:	f7ff fc39 	bl	80007e4 <HAL_GetTick>
 8000f72:	1b80      	subs	r0, r0, r6
 8000f74:	2802      	cmp	r0, #2
 8000f76:	d9f6      	bls.n	8000f66 <HAL_RCC_OscConfig+0x132>
 8000f78:	e79d      	b.n	8000eb6 <HAL_RCC_OscConfig+0x82>
 8000f7a:	69aa      	ldr	r2, [r5, #24]
 8000f7c:	4e4a      	ldr	r6, [pc, #296]	@ (80010a8 <HAL_RCC_OscConfig+0x274>)
 8000f7e:	4b4b      	ldr	r3, [pc, #300]	@ (80010ac <HAL_RCC_OscConfig+0x278>)
 8000f80:	b1e2      	cbz	r2, 8000fbc <HAL_RCC_OscConfig+0x188>
 8000f82:	2201      	movs	r2, #1
 8000f84:	f8c3 2480 	str.w	r2, [r3, #1152]	@ 0x480
 8000f88:	f7ff fc2c 	bl	80007e4 <HAL_GetTick>
 8000f8c:	4604      	mov	r4, r0
 8000f8e:	6a73      	ldr	r3, [r6, #36]	@ 0x24
 8000f90:	079b      	lsls	r3, r3, #30
 8000f92:	d50d      	bpl.n	8000fb0 <HAL_RCC_OscConfig+0x17c>
 8000f94:	f44f 52fa 	mov.w	r2, #8000	@ 0x1f40
 8000f98:	4b45      	ldr	r3, [pc, #276]	@ (80010b0 <HAL_RCC_OscConfig+0x27c>)
 8000f9a:	681b      	ldr	r3, [r3, #0]
 8000f9c:	fbb3 f3f2 	udiv	r3, r3, r2
 8000fa0:	9301      	str	r3, [sp, #4]
 8000fa2:	bf00      	nop
 8000fa4:	9b01      	ldr	r3, [sp, #4]
 8000fa6:	1e5a      	subs	r2, r3, #1
 8000fa8:	9201      	str	r2, [sp, #4]
 8000faa:	2b00      	cmp	r3, #0
 8000fac:	d1f9      	bne.n	8000fa2 <HAL_RCC_OscConfig+0x16e>
 8000fae:	e74f      	b.n	8000e50 <HAL_RCC_OscConfig+0x1c>
 8000fb0:	f7ff fc18 	bl	80007e4 <HAL_GetTick>
 8000fb4:	1b00      	subs	r0, r0, r4
 8000fb6:	2802      	cmp	r0, #2
 8000fb8:	d9e9      	bls.n	8000f8e <HAL_RCC_OscConfig+0x15a>
 8000fba:	e77c      	b.n	8000eb6 <HAL_RCC_OscConfig+0x82>
 8000fbc:	f8c3 2480 	str.w	r2, [r3, #1152]	@ 0x480
 8000fc0:	f7ff fc10 	bl	80007e4 <HAL_GetTick>
 8000fc4:	4604      	mov	r4, r0
 8000fc6:	6a73      	ldr	r3, [r6, #36]	@ 0x24
 8000fc8:	079f      	lsls	r7, r3, #30
 8000fca:	f57f af41 	bpl.w	8000e50 <HAL_RCC_OscConfig+0x1c>
 8000fce:	f7ff fc09 	bl	80007e4 <HAL_GetTick>
 8000fd2:	1b00      	subs	r0, r0, r4
 8000fd4:	2802      	cmp	r0, #2
 8000fd6:	d9f6      	bls.n	8000fc6 <HAL_RCC_OscConfig+0x192>
 8000fd8:	e76d      	b.n	8000eb6 <HAL_RCC_OscConfig+0x82>
 8000fda:	4c33      	ldr	r4, [pc, #204]	@ (80010a8 <HAL_RCC_OscConfig+0x274>)
 8000fdc:	69e3      	ldr	r3, [r4, #28]
 8000fde:	00d8      	lsls	r0, r3, #3
 8000fe0:	d424      	bmi.n	800102c <HAL_RCC_OscConfig+0x1f8>
 8000fe2:	2701      	movs	r7, #1
 8000fe4:	69e3      	ldr	r3, [r4, #28]
 8000fe6:	f043 5380 	orr.w	r3, r3, #268435456	@ 0x10000000
 8000fea:	61e3      	str	r3, [r4, #28]
 8000fec:	69e3      	ldr	r3, [r4, #28]
 8000fee:	f003 5380 	and.w	r3, r3, #268435456	@ 0x10000000
 8000ff2:	9300      	str	r3, [sp, #0]
 8000ff4:	9b00      	ldr	r3, [sp, #0]
 8000ff6:	4e2f      	ldr	r6, [pc, #188]	@ (80010b4 <HAL_RCC_OscConfig+0x280>)
 8000ff8:	6833      	ldr	r3, [r6, #0]
 8000ffa:	05d9      	lsls	r1, r3, #23
 8000ffc:	d518      	bpl.n	8001030 <HAL_RCC_OscConfig+0x1fc>
 8000ffe:	68eb      	ldr	r3, [r5, #12]
 8001000:	2b01      	cmp	r3, #1
 8001002:	d126      	bne.n	8001052 <HAL_RCC_OscConfig+0x21e>
 8001004:	6a23      	ldr	r3, [r4, #32]
 8001006:	f043 0301 	orr.w	r3, r3, #1
 800100a:	6223      	str	r3, [r4, #32]
 800100c:	f7ff fbea 	bl	80007e4 <HAL_GetTick>
 8001010:	f241 3888 	movw	r8, #5000	@ 0x1388
 8001014:	4606      	mov	r6, r0
 8001016:	6a23      	ldr	r3, [r4, #32]
 8001018:	079b      	lsls	r3, r3, #30
 800101a:	d53f      	bpl.n	800109c <HAL_RCC_OscConfig+0x268>
 800101c:	2f00      	cmp	r7, #0
 800101e:	f43f af1b 	beq.w	8000e58 <HAL_RCC_OscConfig+0x24>
 8001022:	69e3      	ldr	r3, [r4, #28]
 8001024:	f023 5380 	bic.w	r3, r3, #268435456	@ 0x10000000
 8001028:	61e3      	str	r3, [r4, #28]
 800102a:	e715      	b.n	8000e58 <HAL_RCC_OscConfig+0x24>
 800102c:	2700      	movs	r7, #0
 800102e:	e7e2      	b.n	8000ff6 <HAL_RCC_OscConfig+0x1c2>
 8001030:	6833      	ldr	r3, [r6, #0]
 8001032:	f443 7380 	orr.w	r3, r3, #256	@ 0x100
 8001036:	6033      	str	r3, [r6, #0]
 8001038:	f7ff fbd4 	bl	80007e4 <HAL_GetTick>
 800103c:	4680      	mov	r8, r0
 800103e:	6833      	ldr	r3, [r6, #0]
 8001040:	05da      	lsls	r2, r3, #23
 8001042:	d4dc      	bmi.n	8000ffe <HAL_RCC_OscConfig+0x1ca>
 8001044:	f7ff fbce 	bl	80007e4 <HAL_GetTick>
 8001048:	eba0 0008 	sub.w	r0, r0, r8
 800104c:	2864      	cmp	r0, #100	@ 0x64
 800104e:	d9f6      	bls.n	800103e <HAL_RCC_OscConfig+0x20a>
 8001050:	e731      	b.n	8000eb6 <HAL_RCC_OscConfig+0x82>
 8001052:	b9ab      	cbnz	r3, 8001080 <HAL_RCC_OscConfig+0x24c>
 8001054:	6a23      	ldr	r3, [r4, #32]
 8001056:	f241 3888 	movw	r8, #5000	@ 0x1388
 800105a:	f023 0301 	bic.w	r3, r3, #1
 800105e:	6223      	str	r3, [r4, #32]
 8001060:	6a23      	ldr	r3, [r4, #32]
 8001062:	f023 0304 	bic.w	r3, r3, #4
 8001066:	6223      	str	r3, [r4, #32]
 8001068:	f7ff fbbc 	bl	80007e4 <HAL_GetTick>
 800106c:	4606      	mov	r6, r0
 800106e:	6a23      	ldr	r3, [r4, #32]
 8001070:	0798      	lsls	r0, r3, #30
 8001072:	d5d3      	bpl.n	800101c <HAL_RCC_OscConfig+0x1e8>
 8001074:	f7ff fbb6 	bl	80007e4 <HAL_GetTick>
 8001078:	1b80      	subs	r0, r0, r6
 800107a:	4540      	cmp	r0, r8
 800107c:	d9f7      	bls.n	800106e <HAL_RCC_OscConfig+0x23a>
 800107e:	e71a      	b.n	8000eb6 <HAL_RCC_OscConfig+0x82>
 8001080:	2b05      	cmp	r3, #5
 8001082:	6a23      	ldr	r3, [r4, #32]
 8001084:	d103      	bne.n	800108e <HAL_RCC_OscConfig+0x25a>
 8001086:	f043 0304 	orr.w	r3, r3, #4
 800108a:	6223      	str	r3, [r4, #32]
 800108c:	e7ba      	b.n	8001004 <HAL_RCC_OscConfig+0x1d0>
 800108e:	f023 0301 	bic.w	r3, r3, #1
 8001092:	6223      	str	r3, [r4, #32]
 8001094:	6a23      	ldr	r3, [r4, #32]
 8001096:	f023 0304 	bic.w	r3, r3, #4
 800109a:	e7b6      	b.n	800100a <HAL_RCC_OscConfig+0x1d6>
 800109c:	f7ff fba2 	bl	80007e4 <HAL_GetTick>
 80010a0:	1b80      	subs	r0, r0, r6
 80010a2:	4540      	cmp	r0, r8
 80010a4:	d9b7      	bls.n	8001016 <HAL_RCC_OscConfig+0x1e2>
 80010a6:	e706      	b.n	8000eb6 <HAL_RCC_OscConfig+0x82>
 80010a8:	40021000 	.word	0x40021000
 80010ac:	42420000 	.word	0x42420000
 80010b0:	20000000 	.word	0x20000000
 80010b4:	40007000 	.word	0x40007000
 80010b8:	4c2a      	ldr	r4, [pc, #168]	@ (8001164 <HAL_RCC_OscConfig+0x330>)
 80010ba:	6862      	ldr	r2, [r4, #4]
 80010bc:	f002 020c 	and.w	r2, r2, #12
 80010c0:	2a08      	cmp	r2, #8
 80010c2:	d03e      	beq.n	8001142 <HAL_RCC_OscConfig+0x30e>
 80010c4:	2200      	movs	r2, #0
 80010c6:	2b02      	cmp	r3, #2
 80010c8:	4b27      	ldr	r3, [pc, #156]	@ (8001168 <HAL_RCC_OscConfig+0x334>)
 80010ca:	661a      	str	r2, [r3, #96]	@ 0x60
 80010cc:	d12c      	bne.n	8001128 <HAL_RCC_OscConfig+0x2f4>
 80010ce:	f7ff fb89 	bl	80007e4 <HAL_GetTick>
 80010d2:	4606      	mov	r6, r0
 80010d4:	6823      	ldr	r3, [r4, #0]
 80010d6:	0199      	lsls	r1, r3, #6
 80010d8:	d420      	bmi.n	800111c <HAL_RCC_OscConfig+0x2e8>
 80010da:	6a2b      	ldr	r3, [r5, #32]
 80010dc:	f5b3 3f80 	cmp.w	r3, #65536	@ 0x10000
 80010e0:	d105      	bne.n	80010ee <HAL_RCC_OscConfig+0x2ba>
 80010e2:	6862      	ldr	r2, [r4, #4]
 80010e4:	68a9      	ldr	r1, [r5, #8]
 80010e6:	f422 3200 	bic.w	r2, r2, #131072	@ 0x20000
 80010ea:	430a      	orrs	r2, r1
 80010ec:	6062      	str	r2, [r4, #4]
 80010ee:	6a69      	ldr	r1, [r5, #36]	@ 0x24
 80010f0:	6862      	ldr	r2, [r4, #4]
 80010f2:	430b      	orrs	r3, r1
 80010f4:	f422 1274 	bic.w	r2, r2, #3997696	@ 0x3d0000
 80010f8:	4313      	orrs	r3, r2
 80010fa:	2201      	movs	r2, #1
 80010fc:	6063      	str	r3, [r4, #4]
 80010fe:	4b1a      	ldr	r3, [pc, #104]	@ (8001168 <HAL_RCC_OscConfig+0x334>)
 8001100:	661a      	str	r2, [r3, #96]	@ 0x60
 8001102:	f7ff fb6f 	bl	80007e4 <HAL_GetTick>
 8001106:	4605      	mov	r5, r0
 8001108:	6823      	ldr	r3, [r4, #0]
 800110a:	019a      	lsls	r2, r3, #6
 800110c:	f53f aea8 	bmi.w	8000e60 <HAL_RCC_OscConfig+0x2c>
 8001110:	f7ff fb68 	bl	80007e4 <HAL_GetTick>
 8001114:	1b40      	subs	r0, r0, r5
 8001116:	2802      	cmp	r0, #2
 8001118:	d9f6      	bls.n	8001108 <HAL_RCC_OscConfig+0x2d4>
 800111a:	e6cc      	b.n	8000eb6 <HAL_RCC_OscConfig+0x82>
 800111c:	f7ff fb62 	bl	80007e4 <HAL_GetTick>
 8001120:	1b80      	subs	r0, r0, r6
 8001122:	2802      	cmp	r0, #2
 8001124:	d9d6      	bls.n	80010d4 <HAL_RCC_OscConfig+0x2a0>
 8001126:	e6c6      	b.n	8000eb6 <HAL_RCC_OscConfig+0x82>
 8001128:	f7ff fb5c 	bl	80007e4 <HAL_GetTick>
 800112c:	4605      	mov	r5, r0
 800112e:	6823      	ldr	r3, [r4, #0]
 8001130:	019b      	lsls	r3, r3, #6
 8001132:	f57f ae95 	bpl.w	8000e60 <HAL_RCC_OscConfig+0x2c>
 8001136:	f7ff fb55 	bl	80007e4 <HAL_GetTick>
 800113a:	1b40      	subs	r0, r0, r5
 800113c:	2802      	cmp	r0, #2
 800113e:	d9f6      	bls.n	800112e <HAL_RCC_OscConfig+0x2fa>
 8001140:	e6b9      	b.n	8000eb6 <HAL_RCC_OscConfig+0x82>
 8001142:	2b01      	cmp	r3, #1
 8001144:	f43f aea2 	beq.w	8000e8c <HAL_RCC_OscConfig+0x58>
 8001148:	6860      	ldr	r0, [r4, #4]
 800114a:	6a2b      	ldr	r3, [r5, #32]
 800114c:	f400 3280 	and.w	r2, r0, #65536	@ 0x10000
 8001150:	429a      	cmp	r2, r3
 8001152:	f47f ae9b 	bne.w	8000e8c <HAL_RCC_OscConfig+0x58>
 8001156:	6a6b      	ldr	r3, [r5, #36]	@ 0x24
 8001158:	f400 1070 	and.w	r0, r0, #3932160	@ 0x3c0000
 800115c:	1ac0      	subs	r0, r0, r3
 800115e:	bf18      	it	ne
 8001160:	2001      	movne	r0, #1
 8001162:	e6a9      	b.n	8000eb8 <HAL_RCC_OscConfig+0x84>
 8001164:	40021000 	.word	0x40021000
 8001168:	42420000 	.word	0x42420000

0800116c <HAL_RCC_GetSysClockFreq>:
 800116c:	4a0d      	ldr	r2, [pc, #52]	@ (80011a4 <HAL_RCC_GetSysClockFreq+0x38>)
 800116e:	6853      	ldr	r3, [r2, #4]
 8001170:	f003 010c 	and.w	r1, r3, #12
 8001174:	2908      	cmp	r1, #8
 8001176:	d112      	bne.n	800119e <HAL_RCC_GetSysClockFreq+0x32>
 8001178:	480b      	ldr	r0, [pc, #44]	@ (80011a8 <HAL_RCC_GetSysClockFreq+0x3c>)
 800117a:	f3c3 4183 	ubfx	r1, r3, #18, #4
 800117e:	03db      	lsls	r3, r3, #15
 8001180:	5c40      	ldrb	r0, [r0, r1]
 8001182:	d509      	bpl.n	8001198 <HAL_RCC_GetSysClockFreq+0x2c>
 8001184:	6853      	ldr	r3, [r2, #4]
 8001186:	4a09      	ldr	r2, [pc, #36]	@ (80011ac <HAL_RCC_GetSysClockFreq+0x40>)
 8001188:	f3c3 4340 	ubfx	r3, r3, #17, #1
 800118c:	4350      	muls	r0, r2
 800118e:	4a08      	ldr	r2, [pc, #32]	@ (80011b0 <HAL_RCC_GetSysClockFreq+0x44>)
 8001190:	5cd3      	ldrb	r3, [r2, r3]
 8001192:	fbb0 f0f3 	udiv	r0, r0, r3
 8001196:	4770      	bx	lr
 8001198:	4b06      	ldr	r3, [pc, #24]	@ (80011b4 <HAL_RCC_GetSysClockFreq+0x48>)
 800119a:	4358      	muls	r0, r3
 800119c:	4770      	bx	lr
 800119e:	4803      	ldr	r0, [pc, #12]	@ (80011ac <HAL_RCC_GetSysClockFreq+0x40>)
 80011a0:	4770      	bx	lr
 80011a2:	bf00      	nop
 80011a4:	40021000 	.word	0x40021000
 80011a8:	08002457 	.word	0x08002457
 80011ac:	007a1200 	.word	0x007a1200
 80011b0:	08002455 	.word	0x08002455
 80011b4:	003d0900 	.word	0x003d0900

080011b8 <HAL_RCC_ClockConfig>:
 80011b8:	e92d 41f0 	stmdb	sp!, {r4, r5, r6, r7, r8, lr}
 80011bc:	460d      	mov	r5, r1
 80011be:	4604      	mov	r4, r0
 80011c0:	b910      	cbnz	r0, 80011c8 <HAL_RCC_ClockConfig+0x10>
 80011c2:	2001      	movs	r0, #1
 80011c4:	e8bd 81f0 	ldmia.w	sp!, {r4, r5, r6, r7, r8, pc}
 80011c8:	4a44      	ldr	r2, [pc, #272]	@ (80012dc <HAL_RCC_ClockConfig+0x124>)
 80011ca:	6813      	ldr	r3, [r2, #0]
 80011cc:	f003 0307 	and.w	r3, r3, #7
 80011d0:	428b      	cmp	r3, r1
 80011d2:	d328      	bcc.n	8001226 <HAL_RCC_ClockConfig+0x6e>
 80011d4:	6821      	ldr	r1, [r4, #0]
 80011d6:	078e      	lsls	r6, r1, #30
 80011d8:	d430      	bmi.n	800123c <HAL_RCC_ClockConfig+0x84>
 80011da:	07ca      	lsls	r2, r1, #31
 80011dc:	d443      	bmi.n	8001266 <HAL_RCC_ClockConfig+0xae>
 80011de:	4a3f      	ldr	r2, [pc, #252]	@ (80012dc <HAL_RCC_ClockConfig+0x124>)
 80011e0:	6813      	ldr	r3, [r2, #0]
 80011e2:	f003 0307 	and.w	r3, r3, #7
 80011e6:	42ab      	cmp	r3, r5
 80011e8:	d865      	bhi.n	80012b6 <HAL_RCC_ClockConfig+0xfe>
 80011ea:	6822      	ldr	r2, [r4, #0]
 80011ec:	4d3c      	ldr	r5, [pc, #240]	@ (80012e0 <HAL_RCC_ClockConfig+0x128>)
 80011ee:	f012 0f04 	tst.w	r2, #4
 80011f2:	d16c      	bne.n	80012ce <HAL_RCC_ClockConfig+0x116>
 80011f4:	0713      	lsls	r3, r2, #28
 80011f6:	d506      	bpl.n	8001206 <HAL_RCC_ClockConfig+0x4e>
 80011f8:	686b      	ldr	r3, [r5, #4]
 80011fa:	6922      	ldr	r2, [r4, #16]
 80011fc:	f423 5360 	bic.w	r3, r3, #14336	@ 0x3800
 8001200:	ea43 03c2 	orr.w	r3, r3, r2, lsl #3
 8001204:	606b      	str	r3, [r5, #4]
 8001206:	f7ff ffb1 	bl	800116c <HAL_RCC_GetSysClockFreq>
 800120a:	686b      	ldr	r3, [r5, #4]
 800120c:	4a35      	ldr	r2, [pc, #212]	@ (80012e4 <HAL_RCC_ClockConfig+0x12c>)
 800120e:	f3c3 1303 	ubfx	r3, r3, #4, #4
 8001212:	5cd3      	ldrb	r3, [r2, r3]
 8001214:	40d8      	lsrs	r0, r3
 8001216:	4b34      	ldr	r3, [pc, #208]	@ (80012e8 <HAL_RCC_ClockConfig+0x130>)
 8001218:	6018      	str	r0, [r3, #0]
 800121a:	4b34      	ldr	r3, [pc, #208]	@ (80012ec <HAL_RCC_ClockConfig+0x134>)
 800121c:	6818      	ldr	r0, [r3, #0]
 800121e:	f7ff fa9f 	bl	8000760 <HAL_InitTick>
 8001222:	2000      	movs	r0, #0
 8001224:	e7ce      	b.n	80011c4 <HAL_RCC_ClockConfig+0xc>
 8001226:	6813      	ldr	r3, [r2, #0]
 8001228:	f023 0307 	bic.w	r3, r3, #7
 800122c:	430b      	orrs	r3, r1
 800122e:	6013      	str	r3, [r2, #0]
 8001230:	6813      	ldr	r3, [r2, #0]
 8001232:	f003 0307 	and.w	r3, r3, #7
 8001236:	428b      	cmp	r3, r1
 8001238:	d1c3      	bne.n	80011c2 <HAL_RCC_ClockConfig+0xa>
 800123a:	e7cb      	b.n	80011d4 <HAL_RCC_ClockConfig+0x1c>
 800123c:	4b28      	ldr	r3, [pc, #160]	@ (80012e0 <HAL_RCC_ClockConfig+0x128>)
 800123e:	f011 0f04 	tst.w	r1, #4
 8001242:	bf1e      	ittt	ne
 8001244:	685a      	ldrne	r2, [r3, #4]
 8001246:	f442 62e0 	orrne.w	r2, r2, #1792	@ 0x700
 800124a:	605a      	strne	r2, [r3, #4]
 800124c:	0708      	lsls	r0, r1, #28
 800124e:	bf42      	ittt	mi
 8001250:	685a      	ldrmi	r2, [r3, #4]
 8001252:	f442 5260 	orrmi.w	r2, r2, #14336	@ 0x3800
 8001256:	605a      	strmi	r2, [r3, #4]
 8001258:	685a      	ldr	r2, [r3, #4]
 800125a:	68a0      	ldr	r0, [r4, #8]
 800125c:	f022 02f0 	bic.w	r2, r2, #240	@ 0xf0
 8001260:	4302      	orrs	r2, r0
 8001262:	605a      	str	r2, [r3, #4]
 8001264:	e7b9      	b.n	80011da <HAL_RCC_ClockConfig+0x22>
 8001266:	6862      	ldr	r2, [r4, #4]
 8001268:	4e1d      	ldr	r6, [pc, #116]	@ (80012e0 <HAL_RCC_ClockConfig+0x128>)
 800126a:	2a01      	cmp	r2, #1
 800126c:	6833      	ldr	r3, [r6, #0]
 800126e:	d11a      	bne.n	80012a6 <HAL_RCC_ClockConfig+0xee>
 8001270:	f413 3f00 	tst.w	r3, #131072	@ 0x20000
 8001274:	d0a5      	beq.n	80011c2 <HAL_RCC_ClockConfig+0xa>
 8001276:	6873      	ldr	r3, [r6, #4]
 8001278:	f241 3888 	movw	r8, #5000	@ 0x1388
 800127c:	f023 0303 	bic.w	r3, r3, #3
 8001280:	4313      	orrs	r3, r2
 8001282:	6073      	str	r3, [r6, #4]
 8001284:	f7ff faae 	bl	80007e4 <HAL_GetTick>
 8001288:	4607      	mov	r7, r0
 800128a:	6873      	ldr	r3, [r6, #4]
 800128c:	6862      	ldr	r2, [r4, #4]
 800128e:	f003 030c 	and.w	r3, r3, #12
 8001292:	ebb3 0f82 	cmp.w	r3, r2, lsl #2
 8001296:	d0a2      	beq.n	80011de <HAL_RCC_ClockConfig+0x26>
 8001298:	f7ff faa4 	bl	80007e4 <HAL_GetTick>
 800129c:	1bc0      	subs	r0, r0, r7
 800129e:	4540      	cmp	r0, r8
 80012a0:	d9f3      	bls.n	800128a <HAL_RCC_ClockConfig+0xd2>
 80012a2:	2003      	movs	r0, #3
 80012a4:	e78e      	b.n	80011c4 <HAL_RCC_ClockConfig+0xc>
 80012a6:	2a02      	cmp	r2, #2
 80012a8:	d102      	bne.n	80012b0 <HAL_RCC_ClockConfig+0xf8>
 80012aa:	f013 7f00 	tst.w	r3, #33554432	@ 0x2000000
 80012ae:	e7e1      	b.n	8001274 <HAL_RCC_ClockConfig+0xbc>
 80012b0:	f013 0f02 	tst.w	r3, #2
 80012b4:	e7de      	b.n	8001274 <HAL_RCC_ClockConfig+0xbc>
 80012b6:	6813      	ldr	r3, [r2, #0]
 80012b8:	f023 0307 	bic.w	r3, r3, #7
 80012bc:	432b      	orrs	r3, r5
 80012be:	6013      	str	r3, [r2, #0]
 80012c0:	6813      	ldr	r3, [r2, #0]
 80012c2:	f003 0307 	and.w	r3, r3, #7
 80012c6:	42ab      	cmp	r3, r5
 80012c8:	f47f af7b 	bne.w	80011c2 <HAL_RCC_ClockConfig+0xa>
 80012cc:	e78d      	b.n	80011ea <HAL_RCC_ClockConfig+0x32>
 80012ce:	686b      	ldr	r3, [r5, #4]
 80012d0:	68e1      	ldr	r1, [r4, #12]
 80012d2:	f423 63e0 	bic.w	r3, r3, #1792	@ 0x700
 80012d6:	430b      	orrs	r3, r1
 80012d8:	606b      	str	r3, [r5, #4]
 80012da:	e78b      	b.n	80011f4 <HAL_RCC_ClockConfig+0x3c>
 80012dc:	40022000 	.word	0x40022000
 80012e0:	40021000 	.word	0x40021000
 80012e4:	08002445 	.word	0x08002445
 80012e8:	20000000 	.word	0x20000000
 80012ec:	20000008 	.word	0x20000008

080012f0 <HAL_RCC_GetPCLK1Freq>:
 80012f0:	4b04      	ldr	r3, [pc, #16]	@ (8001304 <HAL_RCC_GetPCLK1Freq+0x14>)
 80012f2:	4a05      	ldr	r2, [pc, #20]	@ (8001308 <HAL_RCC_GetPCLK1Freq+0x18>)
 80012f4:	685b      	ldr	r3, [r3, #4]
 80012f6:	f3c3 2302 	ubfx	r3, r3, #8, #3
 80012fa:	5cd3      	ldrb	r3, [r2, r3]
 80012fc:	4a03      	ldr	r2, [pc, #12]	@ (800130c <HAL_RCC_GetPCLK1Freq+0x1c>)
 80012fe:	6810      	ldr	r0, [r2, #0]
 8001300:	40d8      	lsrs	r0, r3
 8001302:	4770      	bx	lr
 8001304:	40021000 	.word	0x40021000
 8001308:	0800243d 	.word	0x0800243d
 800130c:	20000000 	.word	0x20000000

08001310 <HAL_RCC_GetPCLK2Freq>:
 8001310:	4b04      	ldr	r3, [pc, #16]	@ (8001324 <HAL_RCC_GetPCLK2Freq+0x14>)
 8001312:	4a05      	ldr	r2, [pc, #20]	@ (8001328 <HAL_RCC_GetPCLK2Freq+0x18>)
 8001314:	685b      	ldr	r3, [r3, #4]
 8001316:	f3c3 23c2 	ubfx	r3, r3, #11, #3
 800131a:	5cd3      	ldrb	r3, [r2, r3]
 800131c:	4a03      	ldr	r2, [pc, #12]	@ (800132c <HAL_RCC_GetPCLK2Freq+0x1c>)
 800131e:	6810      	ldr	r0, [r2, #0]
 8001320:	40d8      	lsrs	r0, r3
 8001322:	4770      	bx	lr
 8001324:	40021000 	.word	0x40021000
 8001328:	0800243d 	.word	0x0800243d
 800132c:	20000000 	.word	0x20000000

08001330 <HAL_SPI_Init>:
 8001330:	b510      	push	{r4, lr}
 8001332:	4604      	mov	r4, r0
 8001334:	2800      	cmp	r0, #0
 8001336:	d051      	beq.n	80013dc <HAL_SPI_Init+0xac>
 8001338:	6a43      	ldr	r3, [r0, #36]	@ 0x24
 800133a:	2b00      	cmp	r3, #0
 800133c:	d14a      	bne.n	80013d4 <HAL_SPI_Init+0xa4>
 800133e:	6842      	ldr	r2, [r0, #4]
 8001340:	f5b2 7f82 	cmp.w	r2, #260	@ 0x104
 8001344:	d000      	beq.n	8001348 <HAL_SPI_Init+0x18>
 8001346:	61c3      	str	r3, [r0, #28]
 8001348:	2300      	movs	r3, #0
 800134a:	62a3      	str	r3, [r4, #40]	@ 0x28
 800134c:	f894 3051 	ldrb.w	r3, [r4, #81]	@ 0x51
 8001350:	f003 02ff 	and.w	r2, r3, #255	@ 0xff
 8001354:	b923      	cbnz	r3, 8001360 <HAL_SPI_Init+0x30>
 8001356:	4620      	mov	r0, r4
 8001358:	f884 2050 	strb.w	r2, [r4, #80]	@ 0x50
 800135c:	f7ff f8c4 	bl	80004e8 <HAL_SPI_MspInit>
 8001360:	2302      	movs	r3, #2
 8001362:	6822      	ldr	r2, [r4, #0]
 8001364:	f884 3051 	strb.w	r3, [r4, #81]	@ 0x51
 8001368:	6813      	ldr	r3, [r2, #0]
 800136a:	68a0      	ldr	r0, [r4, #8]
 800136c:	f023 0340 	bic.w	r3, r3, #64	@ 0x40
 8001370:	6013      	str	r3, [r2, #0]
 8001372:	6863      	ldr	r3, [r4, #4]
 8001374:	f400 4004 	and.w	r0, r0, #33792	@ 0x8400
 8001378:	f403 7382 	and.w	r3, r3, #260	@ 0x104
 800137c:	4303      	orrs	r3, r0
 800137e:	68e0      	ldr	r0, [r4, #12]
 8001380:	69a1      	ldr	r1, [r4, #24]
 8001382:	f400 6000 	and.w	r0, r0, #2048	@ 0x800
 8001386:	4303      	orrs	r3, r0
 8001388:	6920      	ldr	r0, [r4, #16]
 800138a:	f000 0002 	and.w	r0, r0, #2
 800138e:	4303      	orrs	r3, r0
 8001390:	6960      	ldr	r0, [r4, #20]
 8001392:	f000 0001 	and.w	r0, r0, #1
 8001396:	4303      	orrs	r3, r0
 8001398:	f401 7000 	and.w	r0, r1, #512	@ 0x200
 800139c:	4303      	orrs	r3, r0
 800139e:	69e0      	ldr	r0, [r4, #28]
 80013a0:	0c09      	lsrs	r1, r1, #16
 80013a2:	f000 0038 	and.w	r0, r0, #56	@ 0x38
 80013a6:	4303      	orrs	r3, r0
 80013a8:	6a20      	ldr	r0, [r4, #32]
 80013aa:	f001 0104 	and.w	r1, r1, #4
 80013ae:	f000 0080 	and.w	r0, r0, #128	@ 0x80
 80013b2:	4303      	orrs	r3, r0
 80013b4:	6aa0      	ldr	r0, [r4, #40]	@ 0x28
 80013b6:	f400 5000 	and.w	r0, r0, #8192	@ 0x2000
 80013ba:	4303      	orrs	r3, r0
 80013bc:	6013      	str	r3, [r2, #0]
 80013be:	6051      	str	r1, [r2, #4]
 80013c0:	69d3      	ldr	r3, [r2, #28]
 80013c2:	2000      	movs	r0, #0
 80013c4:	f423 6300 	bic.w	r3, r3, #2048	@ 0x800
 80013c8:	61d3      	str	r3, [r2, #28]
 80013ca:	2301      	movs	r3, #1
 80013cc:	6560      	str	r0, [r4, #84]	@ 0x54
 80013ce:	f884 3051 	strb.w	r3, [r4, #81]	@ 0x51
 80013d2:	bd10      	pop	{r4, pc}
 80013d4:	2300      	movs	r3, #0
 80013d6:	e9c0 3304 	strd	r3, r3, [r0, #16]
 80013da:	e7b5      	b.n	8001348 <HAL_SPI_Init+0x18>
 80013dc:	2001      	movs	r0, #1
 80013de:	e7f8      	b.n	80013d2 <HAL_SPI_Init+0xa2>

080013e0 <UART_EndRxTransfer>:
 80013e0:	6802      	ldr	r2, [r0, #0]
 80013e2:	f102 030c 	add.w	r3, r2, #12
 80013e6:	e853 3f00 	ldrex	r3, [r3]
 80013ea:	f423 7390 	bic.w	r3, r3, #288	@ 0x120
 80013ee:	320c      	adds	r2, #12
 80013f0:	e842 3100 	strex	r1, r3, [r2]
 80013f4:	6802      	ldr	r2, [r0, #0]
 80013f6:	2900      	cmp	r1, #0
 80013f8:	d1f2      	bne.n	80013e0 <UART_EndRxTransfer>
 80013fa:	f102 0314 	add.w	r3, r2, #20
 80013fe:	e853 3f00 	ldrex	r3, [r3]
 8001402:	f023 0301 	bic.w	r3, r3, #1
 8001406:	f102 0c14 	add.w	ip, r2, #20
 800140a:	e84c 3100 	strex	r1, r3, [ip]
 800140e:	2900      	cmp	r1, #0
 8001410:	d1f3      	bne.n	80013fa <UART_EndRxTransfer+0x1a>
 8001412:	6b03      	ldr	r3, [r0, #48]	@ 0x30
 8001414:	2b01      	cmp	r3, #1
 8001416:	d10b      	bne.n	8001430 <UART_EndRxTransfer+0x50>
 8001418:	f102 030c 	add.w	r3, r2, #12
 800141c:	e853 3f00 	ldrex	r3, [r3]
 8001420:	f023 0310 	bic.w	r3, r3, #16
 8001424:	f102 0c0c 	add.w	ip, r2, #12
 8001428:	e84c 3100 	strex	r1, r3, [ip]
 800142c:	2900      	cmp	r1, #0
 800142e:	d1f3      	bne.n	8001418 <UART_EndRxTransfer+0x38>
 8001430:	2320      	movs	r3, #32
 8001432:	f880 3042 	strb.w	r3, [r0, #66]	@ 0x42
 8001436:	2300      	movs	r3, #0
 8001438:	6303      	str	r3, [r0, #48]	@ 0x30
 800143a:	4770      	bx	lr

0800143c <UART_SetConfig>:
 800143c:	b510      	push	{r4, lr}
 800143e:	4604      	mov	r4, r0
 8001440:	6803      	ldr	r3, [r0, #0]
 8001442:	68c1      	ldr	r1, [r0, #12]
 8001444:	691a      	ldr	r2, [r3, #16]
 8001446:	f422 5240 	bic.w	r2, r2, #12288	@ 0x3000
 800144a:	430a      	orrs	r2, r1
 800144c:	611a      	str	r2, [r3, #16]
 800144e:	6882      	ldr	r2, [r0, #8]
 8001450:	6900      	ldr	r0, [r0, #16]
 8001452:	68d9      	ldr	r1, [r3, #12]
 8001454:	4302      	orrs	r2, r0
 8001456:	6960      	ldr	r0, [r4, #20]
 8001458:	f421 51b0 	bic.w	r1, r1, #5632	@ 0x1600
 800145c:	f021 010c 	bic.w	r1, r1, #12
 8001460:	4302      	orrs	r2, r0
 8001462:	430a      	orrs	r2, r1
 8001464:	60da      	str	r2, [r3, #12]
 8001466:	695a      	ldr	r2, [r3, #20]
 8001468:	69a1      	ldr	r1, [r4, #24]
 800146a:	f422 7240 	bic.w	r2, r2, #768	@ 0x300
 800146e:	430a      	orrs	r2, r1
 8001470:	615a      	str	r2, [r3, #20]
 8001472:	4a0e      	ldr	r2, [pc, #56]	@ (80014ac <UART_SetConfig+0x70>)
 8001474:	4293      	cmp	r3, r2
 8001476:	d115      	bne.n	80014a4 <UART_SetConfig+0x68>
 8001478:	f7ff ff4a 	bl	8001310 <HAL_RCC_GetPCLK2Freq>
 800147c:	2319      	movs	r3, #25
 800147e:	4343      	muls	r3, r0
 8001480:	6862      	ldr	r2, [r4, #4]
 8001482:	6820      	ldr	r0, [r4, #0]
 8001484:	0092      	lsls	r2, r2, #2
 8001486:	fbb3 f3f2 	udiv	r3, r3, r2
 800148a:	2264      	movs	r2, #100	@ 0x64
 800148c:	fbb3 f1f2 	udiv	r1, r3, r2
 8001490:	fb02 3311 	mls	r3, r2, r1, r3
 8001494:	011b      	lsls	r3, r3, #4
 8001496:	3332      	adds	r3, #50	@ 0x32
 8001498:	fbb3 f3f2 	udiv	r3, r3, r2
 800149c:	eb03 1301 	add.w	r3, r3, r1, lsl #4
 80014a0:	6083      	str	r3, [r0, #8]
 80014a2:	bd10      	pop	{r4, pc}
 80014a4:	f7ff ff24 	bl	80012f0 <HAL_RCC_GetPCLK1Freq>
 80014a8:	e7e8      	b.n	800147c <UART_SetConfig+0x40>
 80014aa:	bf00      	nop
 80014ac:	40013800 	.word	0x40013800

080014b0 <UART_WaitOnFlagUntilTimeout.constprop.0>:
 80014b0:	b5f8      	push	{r3, r4, r5, r6, r7, lr}
 80014b2:	4604      	mov	r4, r0
 80014b4:	460e      	mov	r6, r1
 80014b6:	4617      	mov	r7, r2
 80014b8:	461d      	mov	r5, r3
 80014ba:	6822      	ldr	r2, [r4, #0]
 80014bc:	6813      	ldr	r3, [r2, #0]
 80014be:	ea36 0303 	bics.w	r3, r6, r3
 80014c2:	d101      	bne.n	80014c8 <UART_WaitOnFlagUntilTimeout.constprop.0+0x18>
 80014c4:	2000      	movs	r0, #0
 80014c6:	e028      	b.n	800151a <UART_WaitOnFlagUntilTimeout.constprop.0+0x6a>
 80014c8:	1c6b      	adds	r3, r5, #1
 80014ca:	d0f7      	beq.n	80014bc <UART_WaitOnFlagUntilTimeout.constprop.0+0xc>
 80014cc:	b125      	cbz	r5, 80014d8 <UART_WaitOnFlagUntilTimeout.constprop.0+0x28>
 80014ce:	f7ff f989 	bl	80007e4 <HAL_GetTick>
 80014d2:	1bc0      	subs	r0, r0, r7
 80014d4:	4285      	cmp	r5, r0
 80014d6:	d2f0      	bcs.n	80014ba <UART_WaitOnFlagUntilTimeout.constprop.0+0xa>
 80014d8:	6822      	ldr	r2, [r4, #0]
 80014da:	f102 030c 	add.w	r3, r2, #12
 80014de:	e853 3f00 	ldrex	r3, [r3]
 80014e2:	f423 73d0 	bic.w	r3, r3, #416	@ 0x1a0
 80014e6:	320c      	adds	r2, #12
 80014e8:	e842 3000 	strex	r0, r3, [r2]
 80014ec:	6821      	ldr	r1, [r4, #0]
 80014ee:	2800      	cmp	r0, #0
 80014f0:	d1f2      	bne.n	80014d8 <UART_WaitOnFlagUntilTimeout.constprop.0+0x28>
 80014f2:	f101 0314 	add.w	r3, r1, #20
 80014f6:	e853 3f00 	ldrex	r3, [r3]
 80014fa:	f023 0301 	bic.w	r3, r3, #1
 80014fe:	f101 0014 	add.w	r0, r1, #20
 8001502:	e840 3200 	strex	r2, r3, [r0]
 8001506:	2a00      	cmp	r2, #0
 8001508:	d1f3      	bne.n	80014f2 <UART_WaitOnFlagUntilTimeout.constprop.0+0x42>
 800150a:	2320      	movs	r3, #32
 800150c:	2003      	movs	r0, #3
 800150e:	f884 3041 	strb.w	r3, [r4, #65]	@ 0x41
 8001512:	f884 2040 	strb.w	r2, [r4, #64]	@ 0x40
 8001516:	f884 3042 	strb.w	r3, [r4, #66]	@ 0x42
 800151a:	bdf8      	pop	{r3, r4, r5, r6, r7, pc}

0800151c <HAL_UART_Init>:
 800151c:	b510      	push	{r4, lr}
 800151e:	4604      	mov	r4, r0
 8001520:	b348      	cbz	r0, 8001576 <HAL_UART_Init+0x5a>
 8001522:	f890 3041 	ldrb.w	r3, [r0, #65]	@ 0x41
 8001526:	f003 02ff 	and.w	r2, r3, #255	@ 0xff
 800152a:	b91b      	cbnz	r3, 8001534 <HAL_UART_Init+0x18>
 800152c:	f880 2040 	strb.w	r2, [r0, #64]	@ 0x40
 8001530:	f7ff f814 	bl	800055c <HAL_UART_MspInit>
 8001534:	2324      	movs	r3, #36	@ 0x24
 8001536:	6822      	ldr	r2, [r4, #0]
 8001538:	f884 3041 	strb.w	r3, [r4, #65]	@ 0x41
 800153c:	68d3      	ldr	r3, [r2, #12]
 800153e:	4620      	mov	r0, r4
 8001540:	f423 5300 	bic.w	r3, r3, #8192	@ 0x2000
 8001544:	60d3      	str	r3, [r2, #12]
 8001546:	f7ff ff79 	bl	800143c <UART_SetConfig>
 800154a:	6823      	ldr	r3, [r4, #0]
 800154c:	2000      	movs	r0, #0
 800154e:	691a      	ldr	r2, [r3, #16]
 8001550:	f422 4290 	bic.w	r2, r2, #18432	@ 0x4800
 8001554:	611a      	str	r2, [r3, #16]
 8001556:	695a      	ldr	r2, [r3, #20]
 8001558:	f022 022a 	bic.w	r2, r2, #42	@ 0x2a
 800155c:	615a      	str	r2, [r3, #20]
 800155e:	68da      	ldr	r2, [r3, #12]
 8001560:	f442 5200 	orr.w	r2, r2, #8192	@ 0x2000
 8001564:	60da      	str	r2, [r3, #12]
 8001566:	2320      	movs	r3, #32
 8001568:	6460      	str	r0, [r4, #68]	@ 0x44
 800156a:	f884 3041 	strb.w	r3, [r4, #65]	@ 0x41
 800156e:	f884 3042 	strb.w	r3, [r4, #66]	@ 0x42
 8001572:	6360      	str	r0, [r4, #52]	@ 0x34
 8001574:	bd10      	pop	{r4, pc}
 8001576:	2001      	movs	r0, #1
 8001578:	e7fc      	b.n	8001574 <HAL_UART_Init+0x58>

0800157a <HAL_HalfDuplex_Init>:
 800157a:	b510      	push	{r4, lr}
 800157c:	4604      	mov	r4, r0
 800157e:	b368      	cbz	r0, 80015dc <HAL_HalfDuplex_Init+0x62>
 8001580:	f890 3041 	ldrb.w	r3, [r0, #65]	@ 0x41
 8001584:	f003 02ff 	and.w	r2, r3, #255	@ 0xff
 8001588:	b91b      	cbnz	r3, 8001592 <HAL_HalfDuplex_Init+0x18>
 800158a:	f880 2040 	strb.w	r2, [r0, #64]	@ 0x40
 800158e:	f7fe ffe5 	bl	800055c <HAL_UART_MspInit>
 8001592:	2324      	movs	r3, #36	@ 0x24
 8001594:	6822      	ldr	r2, [r4, #0]
 8001596:	f884 3041 	strb.w	r3, [r4, #65]	@ 0x41
 800159a:	68d3      	ldr	r3, [r2, #12]
 800159c:	4620      	mov	r0, r4
 800159e:	f423 5300 	bic.w	r3, r3, #8192	@ 0x2000
 80015a2:	60d3      	str	r3, [r2, #12]
 80015a4:	f7ff ff4a 	bl	800143c <UART_SetConfig>
 80015a8:	6823      	ldr	r3, [r4, #0]
 80015aa:	2000      	movs	r0, #0
 80015ac:	691a      	ldr	r2, [r3, #16]
 80015ae:	f422 4290 	bic.w	r2, r2, #18432	@ 0x4800
 80015b2:	611a      	str	r2, [r3, #16]
 80015b4:	695a      	ldr	r2, [r3, #20]
 80015b6:	f022 0222 	bic.w	r2, r2, #34	@ 0x22
 80015ba:	615a      	str	r2, [r3, #20]
 80015bc:	695a      	ldr	r2, [r3, #20]
 80015be:	f042 0208 	orr.w	r2, r2, #8
 80015c2:	615a      	str	r2, [r3, #20]
 80015c4:	68da      	ldr	r2, [r3, #12]
 80015c6:	f442 5200 	orr.w	r2, r2, #8192	@ 0x2000
 80015ca:	60da      	str	r2, [r3, #12]
 80015cc:	2320      	movs	r3, #32
 80015ce:	6460      	str	r0, [r4, #68]	@ 0x44
 80015d0:	f884 3041 	strb.w	r3, [r4, #65]	@ 0x41
 80015d4:	f884 3042 	strb.w	r3, [r4, #66]	@ 0x42
 80015d8:	6360      	str	r0, [r4, #52]	@ 0x34
 80015da:	bd10      	pop	{r4, pc}
 80015dc:	2001      	movs	r0, #1
 80015de:	e7fc      	b.n	80015da <HAL_HalfDuplex_Init+0x60>

080015e0 <HAL_UART_Transmit>:
 80015e0:	e92d 43f8 	stmdb	sp!, {r3, r4, r5, r6, r7, r8, r9, lr}
 80015e4:	4698      	mov	r8, r3
 80015e6:	f890 3041 	ldrb.w	r3, [r0, #65]	@ 0x41
 80015ea:	4604      	mov	r4, r0
 80015ec:	2b20      	cmp	r3, #32
 80015ee:	460e      	mov	r6, r1
 80015f0:	4617      	mov	r7, r2
 80015f2:	d13c      	bne.n	800166e <HAL_UART_Transmit+0x8e>
 80015f4:	2900      	cmp	r1, #0
 80015f6:	d03c      	beq.n	8001672 <HAL_UART_Transmit+0x92>
 80015f8:	2a00      	cmp	r2, #0
 80015fa:	d03a      	beq.n	8001672 <HAL_UART_Transmit+0x92>
 80015fc:	2321      	movs	r3, #33	@ 0x21
 80015fe:	2500      	movs	r5, #0
 8001600:	6445      	str	r5, [r0, #68]	@ 0x44
 8001602:	f880 3041 	strb.w	r3, [r0, #65]	@ 0x41
 8001606:	f7ff f8ed 	bl	80007e4 <HAL_GetTick>
 800160a:	68a3      	ldr	r3, [r4, #8]
 800160c:	4681      	mov	r9, r0
 800160e:	f5b3 5f80 	cmp.w	r3, #4096	@ 0x1000
 8001612:	84a7      	strh	r7, [r4, #36]	@ 0x24
 8001614:	84e7      	strh	r7, [r4, #38]	@ 0x26
 8001616:	d103      	bne.n	8001620 <HAL_UART_Transmit+0x40>
 8001618:	6923      	ldr	r3, [r4, #16]
 800161a:	b90b      	cbnz	r3, 8001620 <HAL_UART_Transmit+0x40>
 800161c:	4635      	mov	r5, r6
 800161e:	461e      	mov	r6, r3
 8001620:	8ce3      	ldrh	r3, [r4, #38]	@ 0x26
 8001622:	b29b      	uxth	r3, r3
 8001624:	b953      	cbnz	r3, 800163c <HAL_UART_Transmit+0x5c>
 8001626:	4643      	mov	r3, r8
 8001628:	464a      	mov	r2, r9
 800162a:	2140      	movs	r1, #64	@ 0x40
 800162c:	4620      	mov	r0, r4
 800162e:	f7ff ff3f 	bl	80014b0 <UART_WaitOnFlagUntilTimeout.constprop.0>
 8001632:	b950      	cbnz	r0, 800164a <HAL_UART_Transmit+0x6a>
 8001634:	2320      	movs	r3, #32
 8001636:	f884 3041 	strb.w	r3, [r4, #65]	@ 0x41
 800163a:	e007      	b.n	800164c <HAL_UART_Transmit+0x6c>
 800163c:	4643      	mov	r3, r8
 800163e:	464a      	mov	r2, r9
 8001640:	2180      	movs	r1, #128	@ 0x80
 8001642:	4620      	mov	r0, r4
 8001644:	f7ff ff34 	bl	80014b0 <UART_WaitOnFlagUntilTimeout.constprop.0>
 8001648:	b110      	cbz	r0, 8001650 <HAL_UART_Transmit+0x70>
 800164a:	2003      	movs	r0, #3
 800164c:	e8bd 83f8 	ldmia.w	sp!, {r3, r4, r5, r6, r7, r8, r9, pc}
 8001650:	6822      	ldr	r2, [r4, #0]
 8001652:	b94e      	cbnz	r6, 8001668 <HAL_UART_Transmit+0x88>
 8001654:	f835 3b02 	ldrh.w	r3, [r5], #2
 8001658:	f3c3 0308 	ubfx	r3, r3, #0, #9
 800165c:	6053      	str	r3, [r2, #4]
 800165e:	8ce1      	ldrh	r1, [r4, #38]	@ 0x26
 8001660:	3901      	subs	r1, #1
 8001662:	b289      	uxth	r1, r1
 8001664:	84e1      	strh	r1, [r4, #38]	@ 0x26
 8001666:	e7db      	b.n	8001620 <HAL_UART_Transmit+0x40>
 8001668:	f816 3b01 	ldrb.w	r3, [r6], #1
 800166c:	e7f6      	b.n	800165c <HAL_UART_Transmit+0x7c>
 800166e:	2002      	movs	r0, #2
 8001670:	e7ec      	b.n	800164c <HAL_UART_Transmit+0x6c>
 8001672:	2001      	movs	r0, #1
 8001674:	e7ea      	b.n	800164c <HAL_UART_Transmit+0x6c>

08001676 <HAL_UART_Receive>:
 8001676:	e92d 43f8 	stmdb	sp!, {r3, r4, r5, r6, r7, r8, r9, lr}
 800167a:	461f      	mov	r7, r3
 800167c:	f890 3042 	ldrb.w	r3, [r0, #66]	@ 0x42
 8001680:	4604      	mov	r4, r0
 8001682:	2b20      	cmp	r3, #32
 8001684:	460e      	mov	r6, r1
 8001686:	4691      	mov	r9, r2
 8001688:	d143      	bne.n	8001712 <HAL_UART_Receive+0x9c>
 800168a:	2900      	cmp	r1, #0
 800168c:	d043      	beq.n	8001716 <HAL_UART_Receive+0xa0>
 800168e:	2a00      	cmp	r2, #0
 8001690:	d041      	beq.n	8001716 <HAL_UART_Receive+0xa0>
 8001692:	2322      	movs	r3, #34	@ 0x22
 8001694:	2500      	movs	r5, #0
 8001696:	6445      	str	r5, [r0, #68]	@ 0x44
 8001698:	f880 3042 	strb.w	r3, [r0, #66]	@ 0x42
 800169c:	6305      	str	r5, [r0, #48]	@ 0x30
 800169e:	f7ff f8a1 	bl	80007e4 <HAL_GetTick>
 80016a2:	68a3      	ldr	r3, [r4, #8]
 80016a4:	4680      	mov	r8, r0
 80016a6:	f5b3 5f80 	cmp.w	r3, #4096	@ 0x1000
 80016aa:	f8a4 902c 	strh.w	r9, [r4, #44]	@ 0x2c
 80016ae:	f8a4 902e 	strh.w	r9, [r4, #46]	@ 0x2e
 80016b2:	d103      	bne.n	80016bc <HAL_UART_Receive+0x46>
 80016b4:	6923      	ldr	r3, [r4, #16]
 80016b6:	b90b      	cbnz	r3, 80016bc <HAL_UART_Receive+0x46>
 80016b8:	4635      	mov	r5, r6
 80016ba:	461e      	mov	r6, r3
 80016bc:	8de0      	ldrh	r0, [r4, #46]	@ 0x2e
 80016be:	b280      	uxth	r0, r0
 80016c0:	b920      	cbnz	r0, 80016cc <HAL_UART_Receive+0x56>
 80016c2:	2320      	movs	r3, #32
 80016c4:	f884 3042 	strb.w	r3, [r4, #66]	@ 0x42
 80016c8:	e8bd 83f8 	ldmia.w	sp!, {r3, r4, r5, r6, r7, r8, r9, pc}
 80016cc:	463b      	mov	r3, r7
 80016ce:	4642      	mov	r2, r8
 80016d0:	2120      	movs	r1, #32
 80016d2:	4620      	mov	r0, r4
 80016d4:	f7ff feec 	bl	80014b0 <UART_WaitOnFlagUntilTimeout.constprop.0>
 80016d8:	b9f8      	cbnz	r0, 800171a <HAL_UART_Receive+0xa4>
 80016da:	6823      	ldr	r3, [r4, #0]
 80016dc:	b94e      	cbnz	r6, 80016f2 <HAL_UART_Receive+0x7c>
 80016de:	685b      	ldr	r3, [r3, #4]
 80016e0:	f3c3 0308 	ubfx	r3, r3, #0, #9
 80016e4:	f825 3b02 	strh.w	r3, [r5], #2
 80016e8:	8de3      	ldrh	r3, [r4, #46]	@ 0x2e
 80016ea:	3b01      	subs	r3, #1
 80016ec:	b29b      	uxth	r3, r3
 80016ee:	85e3      	strh	r3, [r4, #46]	@ 0x2e
 80016f0:	e7e4      	b.n	80016bc <HAL_UART_Receive+0x46>
 80016f2:	68a2      	ldr	r2, [r4, #8]
 80016f4:	f5b2 5f80 	cmp.w	r2, #4096	@ 0x1000
 80016f8:	d002      	beq.n	8001700 <HAL_UART_Receive+0x8a>
 80016fa:	b932      	cbnz	r2, 800170a <HAL_UART_Receive+0x94>
 80016fc:	6922      	ldr	r2, [r4, #16]
 80016fe:	b922      	cbnz	r2, 800170a <HAL_UART_Receive+0x94>
 8001700:	6859      	ldr	r1, [r3, #4]
 8001702:	b2c9      	uxtb	r1, r1
 8001704:	f806 1b01 	strb.w	r1, [r6], #1
 8001708:	e7ee      	b.n	80016e8 <HAL_UART_Receive+0x72>
 800170a:	6859      	ldr	r1, [r3, #4]
 800170c:	f001 017f 	and.w	r1, r1, #127	@ 0x7f
 8001710:	e7f8      	b.n	8001704 <HAL_UART_Receive+0x8e>
 8001712:	2002      	movs	r0, #2
 8001714:	e7d8      	b.n	80016c8 <HAL_UART_Receive+0x52>
 8001716:	2001      	movs	r0, #1
 8001718:	e7d6      	b.n	80016c8 <HAL_UART_Receive+0x52>
 800171a:	2003      	movs	r0, #3
 800171c:	e7d4      	b.n	80016c8 <HAL_UART_Receive+0x52>

0800171e <HAL_UART_TxCpltCallback>:
 800171e:	4770      	bx	lr

08001720 <HAL_UART_ErrorCallback>:
 8001720:	4770      	bx	lr

08001722 <UART_DMAAbortOnError>:
 8001722:	b508      	push	{r3, lr}
 8001724:	2300      	movs	r3, #0
 8001726:	6a40      	ldr	r0, [r0, #36]	@ 0x24
 8001728:	85c3      	strh	r3, [r0, #46]	@ 0x2e
 800172a:	84c3      	strh	r3, [r0, #38]	@ 0x26
 800172c:	f7ff fff8 	bl	8001720 <HAL_UART_ErrorCallback>
 8001730:	bd08      	pop	{r3, pc}

08001732 <HAL_UARTEx_RxEventCallback>:
 8001732:	4770      	bx	lr

08001734 <UART_Receive_IT.isra.0>:
 8001734:	f890 3042 	ldrb.w	r3, [r0, #66]	@ 0x42
 8001738:	b507      	push	{r0, r1, r2, lr}
 800173a:	2b22      	cmp	r3, #34	@ 0x22
 800173c:	d142      	bne.n	80017c4 <UART_Receive_IT.isra.0+0x90>
 800173e:	6881      	ldr	r1, [r0, #8]
 8001740:	6802      	ldr	r2, [r0, #0]
 8001742:	f5b1 5f80 	cmp.w	r1, #4096	@ 0x1000
 8001746:	6a83      	ldr	r3, [r0, #40]	@ 0x28
 8001748:	d13f      	bne.n	80017ca <UART_Receive_IT.isra.0+0x96>
 800174a:	6901      	ldr	r1, [r0, #16]
 800174c:	2900      	cmp	r1, #0
 800174e:	d13f      	bne.n	80017d0 <UART_Receive_IT.isra.0+0x9c>
 8001750:	6852      	ldr	r2, [r2, #4]
 8001752:	f3c2 0208 	ubfx	r2, r2, #0, #9
 8001756:	f823 2b02 	strh.w	r2, [r3], #2
 800175a:	6283      	str	r3, [r0, #40]	@ 0x28
 800175c:	8dc3      	ldrh	r3, [r0, #46]	@ 0x2e
 800175e:	3b01      	subs	r3, #1
 8001760:	b29b      	uxth	r3, r3
 8001762:	85c3      	strh	r3, [r0, #46]	@ 0x2e
 8001764:	2b00      	cmp	r3, #0
 8001766:	d12d      	bne.n	80017c4 <UART_Receive_IT.isra.0+0x90>
 8001768:	6802      	ldr	r2, [r0, #0]
 800176a:	68d1      	ldr	r1, [r2, #12]
 800176c:	f021 0120 	bic.w	r1, r1, #32
 8001770:	60d1      	str	r1, [r2, #12]
 8001772:	68d1      	ldr	r1, [r2, #12]
 8001774:	f421 7180 	bic.w	r1, r1, #256	@ 0x100
 8001778:	60d1      	str	r1, [r2, #12]
 800177a:	6951      	ldr	r1, [r2, #20]
 800177c:	f021 0101 	bic.w	r1, r1, #1
 8001780:	6151      	str	r1, [r2, #20]
 8001782:	2220      	movs	r2, #32
 8001784:	f880 2042 	strb.w	r2, [r0, #66]	@ 0x42
 8001788:	6343      	str	r3, [r0, #52]	@ 0x34
 800178a:	6b02      	ldr	r2, [r0, #48]	@ 0x30
 800178c:	2a01      	cmp	r2, #1
 800178e:	6802      	ldr	r2, [r0, #0]
 8001790:	d128      	bne.n	80017e4 <UART_Receive_IT.isra.0+0xb0>
 8001792:	6303      	str	r3, [r0, #48]	@ 0x30
 8001794:	f102 030c 	add.w	r3, r2, #12
 8001798:	e853 3f00 	ldrex	r3, [r3]
 800179c:	f023 0310 	bic.w	r3, r3, #16
 80017a0:	f102 0c0c 	add.w	ip, r2, #12
 80017a4:	e84c 3100 	strex	r1, r3, [ip]
 80017a8:	2900      	cmp	r1, #0
 80017aa:	d1f3      	bne.n	8001794 <UART_Receive_IT.isra.0+0x60>
 80017ac:	6813      	ldr	r3, [r2, #0]
 80017ae:	06db      	lsls	r3, r3, #27
 80017b0:	d505      	bpl.n	80017be <UART_Receive_IT.isra.0+0x8a>
 80017b2:	9101      	str	r1, [sp, #4]
 80017b4:	6813      	ldr	r3, [r2, #0]
 80017b6:	9301      	str	r3, [sp, #4]
 80017b8:	6853      	ldr	r3, [r2, #4]
 80017ba:	9301      	str	r3, [sp, #4]
 80017bc:	9b01      	ldr	r3, [sp, #4]
 80017be:	8d81      	ldrh	r1, [r0, #44]	@ 0x2c
 80017c0:	f7ff ffb7 	bl	8001732 <HAL_UARTEx_RxEventCallback>
 80017c4:	b003      	add	sp, #12
 80017c6:	f85d fb04 	ldr.w	pc, [sp], #4
 80017ca:	b939      	cbnz	r1, 80017dc <UART_Receive_IT.isra.0+0xa8>
 80017cc:	6901      	ldr	r1, [r0, #16]
 80017ce:	b929      	cbnz	r1, 80017dc <UART_Receive_IT.isra.0+0xa8>
 80017d0:	6852      	ldr	r2, [r2, #4]
 80017d2:	b2d2      	uxtb	r2, r2
 80017d4:	701a      	strb	r2, [r3, #0]
 80017d6:	6a83      	ldr	r3, [r0, #40]	@ 0x28
 80017d8:	3301      	adds	r3, #1
 80017da:	e7be      	b.n	800175a <UART_Receive_IT.isra.0+0x26>
 80017dc:	6852      	ldr	r2, [r2, #4]
 80017de:	f002 027f 	and.w	r2, r2, #127	@ 0x7f
 80017e2:	e7f7      	b.n	80017d4 <UART_Receive_IT.isra.0+0xa0>
 80017e4:	f7fe fcfe 	bl	80001e4 <HAL_UART_RxCpltCallback>
 80017e8:	e7ec      	b.n	80017c4 <UART_Receive_IT.isra.0+0x90>
	...

080017ec <HAL_UART_IRQHandler>:
 80017ec:	6803      	ldr	r3, [r0, #0]
 80017ee:	b573      	push	{r0, r1, r4, r5, r6, lr}
 80017f0:	681a      	ldr	r2, [r3, #0]
 80017f2:	4604      	mov	r4, r0
 80017f4:	0716      	lsls	r6, r2, #28
 80017f6:	68d9      	ldr	r1, [r3, #12]
 80017f8:	695d      	ldr	r5, [r3, #20]
 80017fa:	d108      	bne.n	800180e <HAL_UART_IRQHandler+0x22>
 80017fc:	0696      	lsls	r6, r2, #26
 80017fe:	d568      	bpl.n	80018d2 <HAL_UART_IRQHandler+0xe6>
 8001800:	068d      	lsls	r5, r1, #26
 8001802:	d566      	bpl.n	80018d2 <HAL_UART_IRQHandler+0xe6>
 8001804:	b002      	add	sp, #8
 8001806:	e8bd 4070 	ldmia.w	sp!, {r4, r5, r6, lr}
 800180a:	f7ff bf93 	b.w	8001734 <UART_Receive_IT.isra.0>
 800180e:	f005 0001 	and.w	r0, r5, #1
 8001812:	f401 7590 	and.w	r5, r1, #288	@ 0x120
 8001816:	4305      	orrs	r5, r0
 8001818:	d05b      	beq.n	80018d2 <HAL_UART_IRQHandler+0xe6>
 800181a:	07d6      	lsls	r6, r2, #31
 800181c:	d505      	bpl.n	800182a <HAL_UART_IRQHandler+0x3e>
 800181e:	05cd      	lsls	r5, r1, #23
 8001820:	bf42      	ittt	mi
 8001822:	6c63      	ldrmi	r3, [r4, #68]	@ 0x44
 8001824:	f043 0301 	orrmi.w	r3, r3, #1
 8001828:	6463      	strmi	r3, [r4, #68]	@ 0x44
 800182a:	0753      	lsls	r3, r2, #29
 800182c:	d504      	bpl.n	8001838 <HAL_UART_IRQHandler+0x4c>
 800182e:	b118      	cbz	r0, 8001838 <HAL_UART_IRQHandler+0x4c>
 8001830:	6c63      	ldr	r3, [r4, #68]	@ 0x44
 8001832:	f043 0302 	orr.w	r3, r3, #2
 8001836:	6463      	str	r3, [r4, #68]	@ 0x44
 8001838:	0796      	lsls	r6, r2, #30
 800183a:	d504      	bpl.n	8001846 <HAL_UART_IRQHandler+0x5a>
 800183c:	b118      	cbz	r0, 8001846 <HAL_UART_IRQHandler+0x5a>
 800183e:	6c63      	ldr	r3, [r4, #68]	@ 0x44
 8001840:	f043 0304 	orr.w	r3, r3, #4
 8001844:	6463      	str	r3, [r4, #68]	@ 0x44
 8001846:	0715      	lsls	r5, r2, #28
 8001848:	d507      	bpl.n	800185a <HAL_UART_IRQHandler+0x6e>
 800184a:	f001 0320 	and.w	r3, r1, #32
 800184e:	4303      	orrs	r3, r0
 8001850:	bf1e      	ittt	ne
 8001852:	6c63      	ldrne	r3, [r4, #68]	@ 0x44
 8001854:	f043 0308 	orrne.w	r3, r3, #8
 8001858:	6463      	strne	r3, [r4, #68]	@ 0x44
 800185a:	6c63      	ldr	r3, [r4, #68]	@ 0x44
 800185c:	2b00      	cmp	r3, #0
 800185e:	d032      	beq.n	80018c6 <HAL_UART_IRQHandler+0xda>
 8001860:	0692      	lsls	r2, r2, #26
 8001862:	d504      	bpl.n	800186e <HAL_UART_IRQHandler+0x82>
 8001864:	068b      	lsls	r3, r1, #26
 8001866:	d502      	bpl.n	800186e <HAL_UART_IRQHandler+0x82>
 8001868:	4620      	mov	r0, r4
 800186a:	f7ff ff63 	bl	8001734 <UART_Receive_IT.isra.0>
 800186e:	6826      	ldr	r6, [r4, #0]
 8001870:	4620      	mov	r0, r4
 8001872:	6973      	ldr	r3, [r6, #20]
 8001874:	6c62      	ldr	r2, [r4, #68]	@ 0x44
 8001876:	f003 0340 	and.w	r3, r3, #64	@ 0x40
 800187a:	f002 0208 	and.w	r2, r2, #8
 800187e:	ea53 0502 	orrs.w	r5, r3, r2
 8001882:	d022      	beq.n	80018ca <HAL_UART_IRQHandler+0xde>
 8001884:	f7ff fdac 	bl	80013e0 <UART_EndRxTransfer>
 8001888:	6973      	ldr	r3, [r6, #20]
 800188a:	065e      	lsls	r6, r3, #25
 800188c:	d518      	bpl.n	80018c0 <HAL_UART_IRQHandler+0xd4>
 800188e:	6822      	ldr	r2, [r4, #0]
 8001890:	f102 0314 	add.w	r3, r2, #20
 8001894:	e853 3f00 	ldrex	r3, [r3]
 8001898:	f023 0340 	bic.w	r3, r3, #64	@ 0x40
 800189c:	3214      	adds	r2, #20
 800189e:	e842 3100 	strex	r1, r3, [r2]
 80018a2:	2900      	cmp	r1, #0
 80018a4:	d1f3      	bne.n	800188e <HAL_UART_IRQHandler+0xa2>
 80018a6:	6be0      	ldr	r0, [r4, #60]	@ 0x3c
 80018a8:	b150      	cbz	r0, 80018c0 <HAL_UART_IRQHandler+0xd4>
 80018aa:	4b74      	ldr	r3, [pc, #464]	@ (8001a7c <HAL_UART_IRQHandler+0x290>)
 80018ac:	6343      	str	r3, [r0, #52]	@ 0x34
 80018ae:	f7ff f867 	bl	8000980 <HAL_DMA_Abort_IT>
 80018b2:	b140      	cbz	r0, 80018c6 <HAL_UART_IRQHandler+0xda>
 80018b4:	6be0      	ldr	r0, [r4, #60]	@ 0x3c
 80018b6:	6b43      	ldr	r3, [r0, #52]	@ 0x34
 80018b8:	b002      	add	sp, #8
 80018ba:	e8bd 4070 	ldmia.w	sp!, {r4, r5, r6, lr}
 80018be:	4718      	bx	r3
 80018c0:	4620      	mov	r0, r4
 80018c2:	f7ff ff2d 	bl	8001720 <HAL_UART_ErrorCallback>
 80018c6:	b002      	add	sp, #8
 80018c8:	bd70      	pop	{r4, r5, r6, pc}
 80018ca:	f7ff ff29 	bl	8001720 <HAL_UART_ErrorCallback>
 80018ce:	6465      	str	r5, [r4, #68]	@ 0x44
 80018d0:	e7f9      	b.n	80018c6 <HAL_UART_IRQHandler+0xda>
 80018d2:	6b20      	ldr	r0, [r4, #48]	@ 0x30
 80018d4:	2801      	cmp	r0, #1
 80018d6:	f040 8094 	bne.w	8001a02 <HAL_UART_IRQHandler+0x216>
 80018da:	06d5      	lsls	r5, r2, #27
 80018dc:	f140 8091 	bpl.w	8001a02 <HAL_UART_IRQHandler+0x216>
 80018e0:	06c8      	lsls	r0, r1, #27
 80018e2:	f140 808e 	bpl.w	8001a02 <HAL_UART_IRQHandler+0x216>
 80018e6:	2200      	movs	r2, #0
 80018e8:	9201      	str	r2, [sp, #4]
 80018ea:	681a      	ldr	r2, [r3, #0]
 80018ec:	9201      	str	r2, [sp, #4]
 80018ee:	685a      	ldr	r2, [r3, #4]
 80018f0:	9201      	str	r2, [sp, #4]
 80018f2:	9a01      	ldr	r2, [sp, #4]
 80018f4:	695a      	ldr	r2, [r3, #20]
 80018f6:	0652      	lsls	r2, r2, #25
 80018f8:	d54d      	bpl.n	8001996 <HAL_UART_IRQHandler+0x1aa>
 80018fa:	6be1      	ldr	r1, [r4, #60]	@ 0x3c
 80018fc:	680a      	ldr	r2, [r1, #0]
 80018fe:	6852      	ldr	r2, [r2, #4]
 8001900:	b292      	uxth	r2, r2
 8001902:	2a00      	cmp	r2, #0
 8001904:	d0df      	beq.n	80018c6 <HAL_UART_IRQHandler+0xda>
 8001906:	8da0      	ldrh	r0, [r4, #44]	@ 0x2c
 8001908:	4290      	cmp	r0, r2
 800190a:	d9dc      	bls.n	80018c6 <HAL_UART_IRQHandler+0xda>
 800190c:	85e2      	strh	r2, [r4, #46]	@ 0x2e
 800190e:	698a      	ldr	r2, [r1, #24]
 8001910:	2a20      	cmp	r2, #32
 8001912:	d036      	beq.n	8001982 <HAL_UART_IRQHandler+0x196>
 8001914:	f103 020c 	add.w	r2, r3, #12
 8001918:	e852 2f00 	ldrex	r2, [r2]
 800191c:	f422 7280 	bic.w	r2, r2, #256	@ 0x100
 8001920:	f103 000c 	add.w	r0, r3, #12
 8001924:	e840 2100 	strex	r1, r2, [r0]
 8001928:	2900      	cmp	r1, #0
 800192a:	d1f3      	bne.n	8001914 <HAL_UART_IRQHandler+0x128>
 800192c:	f103 0214 	add.w	r2, r3, #20
 8001930:	e852 2f00 	ldrex	r2, [r2]
 8001934:	f022 0201 	bic.w	r2, r2, #1
 8001938:	f103 0014 	add.w	r0, r3, #20
 800193c:	e840 2100 	strex	r1, r2, [r0]
 8001940:	2900      	cmp	r1, #0
 8001942:	d1f3      	bne.n	800192c <HAL_UART_IRQHandler+0x140>
 8001944:	f103 0214 	add.w	r2, r3, #20
 8001948:	e852 2f00 	ldrex	r2, [r2]
 800194c:	f022 0240 	bic.w	r2, r2, #64	@ 0x40
 8001950:	f103 0014 	add.w	r0, r3, #20
 8001954:	e840 2100 	strex	r1, r2, [r0]
 8001958:	2900      	cmp	r1, #0
 800195a:	d1f3      	bne.n	8001944 <HAL_UART_IRQHandler+0x158>
 800195c:	2220      	movs	r2, #32
 800195e:	f884 2042 	strb.w	r2, [r4, #66]	@ 0x42
 8001962:	6321      	str	r1, [r4, #48]	@ 0x30
 8001964:	f103 020c 	add.w	r2, r3, #12
 8001968:	e852 2f00 	ldrex	r2, [r2]
 800196c:	f022 0210 	bic.w	r2, r2, #16
 8001970:	f103 000c 	add.w	r0, r3, #12
 8001974:	e840 2100 	strex	r1, r2, [r0]
 8001978:	2900      	cmp	r1, #0
 800197a:	d1f3      	bne.n	8001964 <HAL_UART_IRQHandler+0x178>
 800197c:	6be0      	ldr	r0, [r4, #60]	@ 0x3c
 800197e:	f7fe ffdf 	bl	8000940 <HAL_DMA_Abort>
 8001982:	2302      	movs	r3, #2
 8001984:	6363      	str	r3, [r4, #52]	@ 0x34
 8001986:	8de3      	ldrh	r3, [r4, #46]	@ 0x2e
 8001988:	8da1      	ldrh	r1, [r4, #44]	@ 0x2c
 800198a:	1ac9      	subs	r1, r1, r3
 800198c:	b289      	uxth	r1, r1
 800198e:	4620      	mov	r0, r4
 8001990:	f7ff fecf 	bl	8001732 <HAL_UARTEx_RxEventCallback>
 8001994:	e797      	b.n	80018c6 <HAL_UART_IRQHandler+0xda>
 8001996:	8de2      	ldrh	r2, [r4, #46]	@ 0x2e
 8001998:	8de0      	ldrh	r0, [r4, #46]	@ 0x2e
 800199a:	8da1      	ldrh	r1, [r4, #44]	@ 0x2c
 800199c:	b280      	uxth	r0, r0
 800199e:	b292      	uxth	r2, r2
 80019a0:	2800      	cmp	r0, #0
 80019a2:	d090      	beq.n	80018c6 <HAL_UART_IRQHandler+0xda>
 80019a4:	1a89      	subs	r1, r1, r2
 80019a6:	b289      	uxth	r1, r1
 80019a8:	2900      	cmp	r1, #0
 80019aa:	d08c      	beq.n	80018c6 <HAL_UART_IRQHandler+0xda>
 80019ac:	f103 020c 	add.w	r2, r3, #12
 80019b0:	e852 2f00 	ldrex	r2, [r2]
 80019b4:	f422 7290 	bic.w	r2, r2, #288	@ 0x120
 80019b8:	f103 050c 	add.w	r5, r3, #12
 80019bc:	e845 2000 	strex	r0, r2, [r5]
 80019c0:	2800      	cmp	r0, #0
 80019c2:	d1f3      	bne.n	80019ac <HAL_UART_IRQHandler+0x1c0>
 80019c4:	f103 0214 	add.w	r2, r3, #20
 80019c8:	e852 2f00 	ldrex	r2, [r2]
 80019cc:	f022 0201 	bic.w	r2, r2, #1
 80019d0:	f103 0514 	add.w	r5, r3, #20
 80019d4:	e845 2000 	strex	r0, r2, [r5]
 80019d8:	2800      	cmp	r0, #0
 80019da:	d1f3      	bne.n	80019c4 <HAL_UART_IRQHandler+0x1d8>
 80019dc:	2220      	movs	r2, #32
 80019de:	f884 2042 	strb.w	r2, [r4, #66]	@ 0x42
 80019e2:	6320      	str	r0, [r4, #48]	@ 0x30
 80019e4:	f103 020c 	add.w	r2, r3, #12
 80019e8:	e852 2f00 	ldrex	r2, [r2]
 80019ec:	f022 0210 	bic.w	r2, r2, #16
 80019f0:	f103 050c 	add.w	r5, r3, #12
 80019f4:	e845 2000 	strex	r0, r2, [r5]
 80019f8:	2800      	cmp	r0, #0
 80019fa:	d1f3      	bne.n	80019e4 <HAL_UART_IRQHandler+0x1f8>
 80019fc:	2302      	movs	r3, #2
 80019fe:	6363      	str	r3, [r4, #52]	@ 0x34
 8001a00:	e7c5      	b.n	800198e <HAL_UART_IRQHandler+0x1a2>
 8001a02:	0616      	lsls	r6, r2, #24
 8001a04:	d528      	bpl.n	8001a58 <HAL_UART_IRQHandler+0x26c>
 8001a06:	060d      	lsls	r5, r1, #24
 8001a08:	d526      	bpl.n	8001a58 <HAL_UART_IRQHandler+0x26c>
 8001a0a:	f894 2041 	ldrb.w	r2, [r4, #65]	@ 0x41
 8001a0e:	2a21      	cmp	r2, #33	@ 0x21
 8001a10:	f47f af59 	bne.w	80018c6 <HAL_UART_IRQHandler+0xda>
 8001a14:	68a1      	ldr	r1, [r4, #8]
 8001a16:	6a22      	ldr	r2, [r4, #32]
 8001a18:	f5b1 5f80 	cmp.w	r1, #4096	@ 0x1000
 8001a1c:	d117      	bne.n	8001a4e <HAL_UART_IRQHandler+0x262>
 8001a1e:	6921      	ldr	r1, [r4, #16]
 8001a20:	b9a9      	cbnz	r1, 8001a4e <HAL_UART_IRQHandler+0x262>
 8001a22:	f832 1b02 	ldrh.w	r1, [r2], #2
 8001a26:	f3c1 0108 	ubfx	r1, r1, #0, #9
 8001a2a:	6059      	str	r1, [r3, #4]
 8001a2c:	6222      	str	r2, [r4, #32]
 8001a2e:	8ce2      	ldrh	r2, [r4, #38]	@ 0x26
 8001a30:	3a01      	subs	r2, #1
 8001a32:	b292      	uxth	r2, r2
 8001a34:	84e2      	strh	r2, [r4, #38]	@ 0x26
 8001a36:	2a00      	cmp	r2, #0
 8001a38:	f47f af45 	bne.w	80018c6 <HAL_UART_IRQHandler+0xda>
 8001a3c:	68da      	ldr	r2, [r3, #12]
 8001a3e:	f022 0280 	bic.w	r2, r2, #128	@ 0x80
 8001a42:	60da      	str	r2, [r3, #12]
 8001a44:	68da      	ldr	r2, [r3, #12]
 8001a46:	f042 0240 	orr.w	r2, r2, #64	@ 0x40
 8001a4a:	60da      	str	r2, [r3, #12]
 8001a4c:	e73b      	b.n	80018c6 <HAL_UART_IRQHandler+0xda>
 8001a4e:	1c51      	adds	r1, r2, #1
 8001a50:	6221      	str	r1, [r4, #32]
 8001a52:	7812      	ldrb	r2, [r2, #0]
 8001a54:	605a      	str	r2, [r3, #4]
 8001a56:	e7ea      	b.n	8001a2e <HAL_UART_IRQHandler+0x242>
 8001a58:	0650      	lsls	r0, r2, #25
 8001a5a:	f57f af34 	bpl.w	80018c6 <HAL_UART_IRQHandler+0xda>
 8001a5e:	064a      	lsls	r2, r1, #25
 8001a60:	f57f af31 	bpl.w	80018c6 <HAL_UART_IRQHandler+0xda>
 8001a64:	68da      	ldr	r2, [r3, #12]
 8001a66:	4620      	mov	r0, r4
 8001a68:	f022 0240 	bic.w	r2, r2, #64	@ 0x40
 8001a6c:	60da      	str	r2, [r3, #12]
 8001a6e:	2320      	movs	r3, #32
 8001a70:	f884 3041 	strb.w	r3, [r4, #65]	@ 0x41
 8001a74:	f7ff fe53 	bl	800171e <HAL_UART_TxCpltCallback>
 8001a78:	e725      	b.n	80018c6 <HAL_UART_IRQHandler+0xda>
 8001a7a:	bf00      	nop
 8001a7c:	08001723 	.word	0x08001723

08001a80 <sniprintf>:
 8001a80:	b40c      	push	{r2, r3}
 8001a82:	b530      	push	{r4, r5, lr}
 8001a84:	4b17      	ldr	r3, [pc, #92]	@ (8001ae4 <sniprintf+0x64>)
 8001a86:	1e0c      	subs	r4, r1, #0
 8001a88:	681d      	ldr	r5, [r3, #0]
 8001a8a:	b09d      	sub	sp, #116	@ 0x74
 8001a8c:	da08      	bge.n	8001aa0 <sniprintf+0x20>
 8001a8e:	238b      	movs	r3, #139	@ 0x8b
 8001a90:	f04f 30ff 	mov.w	r0, #4294967295
 8001a94:	602b      	str	r3, [r5, #0]
 8001a96:	b01d      	add	sp, #116	@ 0x74
 8001a98:	e8bd 4030 	ldmia.w	sp!, {r4, r5, lr}
 8001a9c:	b002      	add	sp, #8
 8001a9e:	4770      	bx	lr
 8001aa0:	f44f 7302 	mov.w	r3, #520	@ 0x208
 8001aa4:	f8ad 3014 	strh.w	r3, [sp, #20]
 8001aa8:	bf0c      	ite	eq
 8001aaa:	4623      	moveq	r3, r4
 8001aac:	f104 33ff 	addne.w	r3, r4, #4294967295
 8001ab0:	9304      	str	r3, [sp, #16]
 8001ab2:	9307      	str	r3, [sp, #28]
 8001ab4:	f64f 73ff 	movw	r3, #65535	@ 0xffff
 8001ab8:	9002      	str	r0, [sp, #8]
 8001aba:	9006      	str	r0, [sp, #24]
 8001abc:	f8ad 3016 	strh.w	r3, [sp, #22]
 8001ac0:	4628      	mov	r0, r5
 8001ac2:	ab21      	add	r3, sp, #132	@ 0x84
 8001ac4:	9a20      	ldr	r2, [sp, #128]	@ 0x80
 8001ac6:	a902      	add	r1, sp, #8
 8001ac8:	9301      	str	r3, [sp, #4]
 8001aca:	f000 f993 	bl	8001df4 <_svfiprintf_r>
 8001ace:	1c43      	adds	r3, r0, #1
 8001ad0:	bfbc      	itt	lt
 8001ad2:	238b      	movlt	r3, #139	@ 0x8b
 8001ad4:	602b      	strlt	r3, [r5, #0]
 8001ad6:	2c00      	cmp	r4, #0
 8001ad8:	d0dd      	beq.n	8001a96 <sniprintf+0x16>
 8001ada:	2200      	movs	r2, #0
 8001adc:	9b02      	ldr	r3, [sp, #8]
 8001ade:	701a      	strb	r2, [r3, #0]
 8001ae0:	e7d9      	b.n	8001a96 <sniprintf+0x16>
 8001ae2:	bf00      	nop
 8001ae4:	2000000c 	.word	0x2000000c

08001ae8 <memset>:
 8001ae8:	4603      	mov	r3, r0
 8001aea:	4402      	add	r2, r0
 8001aec:	4293      	cmp	r3, r2
 8001aee:	d100      	bne.n	8001af2 <memset+0xa>
 8001af0:	4770      	bx	lr
 8001af2:	f803 1b01 	strb.w	r1, [r3], #1
 8001af6:	e7f9      	b.n	8001aec <memset+0x4>

08001af8 <__errno>:
 8001af8:	4b01      	ldr	r3, [pc, #4]	@ (8001b00 <__errno+0x8>)
 8001afa:	6818      	ldr	r0, [r3, #0]
 8001afc:	4770      	bx	lr
 8001afe:	bf00      	nop
 8001b00:	2000000c 	.word	0x2000000c

08001b04 <__libc_init_array>:
 8001b04:	b570      	push	{r4, r5, r6, lr}
 8001b06:	2600      	movs	r6, #0
 8001b08:	4d0c      	ldr	r5, [pc, #48]	@ (8001b3c <__libc_init_array+0x38>)
 8001b0a:	4c0d      	ldr	r4, [pc, #52]	@ (8001b40 <__libc_init_array+0x3c>)
 8001b0c:	1b64      	subs	r4, r4, r5
 8001b0e:	10a4      	asrs	r4, r4, #2
 8001b10:	42a6      	cmp	r6, r4
 8001b12:	d109      	bne.n	8001b28 <__libc_init_array+0x24>
 8001b14:	f000 fc78 	bl	8002408 <_init>
 8001b18:	2600      	movs	r6, #0
 8001b1a:	4d0a      	ldr	r5, [pc, #40]	@ (8001b44 <__libc_init_array+0x40>)
 8001b1c:	4c0a      	ldr	r4, [pc, #40]	@ (8001b48 <__libc_init_array+0x44>)
 8001b1e:	1b64      	subs	r4, r4, r5
 8001b20:	10a4      	asrs	r4, r4, #2
 8001b22:	42a6      	cmp	r6, r4
 8001b24:	d105      	bne.n	8001b32 <__libc_init_array+0x2e>
 8001b26:	bd70      	pop	{r4, r5, r6, pc}
 8001b28:	f855 3b04 	ldr.w	r3, [r5], #4
 8001b2c:	4798      	blx	r3
 8001b2e:	3601      	adds	r6, #1
 8001b30:	e7ee      	b.n	8001b10 <__libc_init_array+0xc>
 8001b32:	f855 3b04 	ldr.w	r3, [r5], #4
 8001b36:	4798      	blx	r3
 8001b38:	3601      	adds	r6, #1
 8001b3a:	e7f2      	b.n	8001b22 <__libc_init_array+0x1e>
 8001b3c:	080024a4 	.word	0x080024a4
 8001b40:	080024a4 	.word	0x080024a4
 8001b44:	080024a4 	.word	0x080024a4
 8001b48:	080024a8 	.word	0x080024a8

08001b4c <__retarget_lock_acquire_recursive>:
 8001b4c:	4770      	bx	lr

08001b4e <__retarget_lock_release_recursive>:
 8001b4e:	4770      	bx	lr

08001b50 <_free_r>:
 8001b50:	b538      	push	{r3, r4, r5, lr}
 8001b52:	4605      	mov	r5, r0
 8001b54:	2900      	cmp	r1, #0
 8001b56:	d040      	beq.n	8001bda <_free_r+0x8a>
 8001b58:	f851 3c04 	ldr.w	r3, [r1, #-4]
 8001b5c:	1f0c      	subs	r4, r1, #4
 8001b5e:	2b00      	cmp	r3, #0
 8001b60:	bfb8      	it	lt
 8001b62:	18e4      	addlt	r4, r4, r3
 8001b64:	f000 f8de 	bl	8001d24 <__malloc_lock>
 8001b68:	4a1c      	ldr	r2, [pc, #112]	@ (8001bdc <_free_r+0x8c>)
 8001b6a:	6813      	ldr	r3, [r2, #0]
 8001b6c:	b933      	cbnz	r3, 8001b7c <_free_r+0x2c>
 8001b6e:	6063      	str	r3, [r4, #4]
 8001b70:	6014      	str	r4, [r2, #0]
 8001b72:	4628      	mov	r0, r5
 8001b74:	e8bd 4038 	ldmia.w	sp!, {r3, r4, r5, lr}
 8001b78:	f000 b8da 	b.w	8001d30 <__malloc_unlock>
 8001b7c:	42a3      	cmp	r3, r4
 8001b7e:	d908      	bls.n	8001b92 <_free_r+0x42>
 8001b80:	6820      	ldr	r0, [r4, #0]
 8001b82:	1821      	adds	r1, r4, r0
 8001b84:	428b      	cmp	r3, r1
 8001b86:	bf01      	itttt	eq
 8001b88:	6819      	ldreq	r1, [r3, #0]
 8001b8a:	685b      	ldreq	r3, [r3, #4]
 8001b8c:	1809      	addeq	r1, r1, r0
 8001b8e:	6021      	streq	r1, [r4, #0]
 8001b90:	e7ed      	b.n	8001b6e <_free_r+0x1e>
 8001b92:	461a      	mov	r2, r3
 8001b94:	685b      	ldr	r3, [r3, #4]
 8001b96:	b10b      	cbz	r3, 8001b9c <_free_r+0x4c>
 8001b98:	42a3      	cmp	r3, r4
 8001b9a:	d9fa      	bls.n	8001b92 <_free_r+0x42>
 8001b9c:	6811      	ldr	r1, [r2, #0]
 8001b9e:	1850      	adds	r0, r2, r1
 8001ba0:	42a0      	cmp	r0, r4
 8001ba2:	d10b      	bne.n	8001bbc <_free_r+0x6c>
 8001ba4:	6820      	ldr	r0, [r4, #0]
 8001ba6:	4401      	add	r1, r0
 8001ba8:	1850      	adds	r0, r2, r1
 8001baa:	4283      	cmp	r3, r0
 8001bac:	6011      	str	r1, [r2, #0]
 8001bae:	d1e0      	bne.n	8001b72 <_free_r+0x22>
 8001bb0:	6818      	ldr	r0, [r3, #0]
 8001bb2:	685b      	ldr	r3, [r3, #4]
 8001bb4:	4408      	add	r0, r1
 8001bb6:	6010      	str	r0, [r2, #0]
 8001bb8:	6053      	str	r3, [r2, #4]
 8001bba:	e7da      	b.n	8001b72 <_free_r+0x22>
 8001bbc:	d902      	bls.n	8001bc4 <_free_r+0x74>
 8001bbe:	230c      	movs	r3, #12
 8001bc0:	602b      	str	r3, [r5, #0]
 8001bc2:	e7d6      	b.n	8001b72 <_free_r+0x22>
 8001bc4:	6820      	ldr	r0, [r4, #0]
 8001bc6:	1821      	adds	r1, r4, r0
 8001bc8:	428b      	cmp	r3, r1
 8001bca:	bf01      	itttt	eq
 8001bcc:	6819      	ldreq	r1, [r3, #0]
 8001bce:	685b      	ldreq	r3, [r3, #4]
 8001bd0:	1809      	addeq	r1, r1, r0
 8001bd2:	6021      	streq	r1, [r4, #0]
 8001bd4:	6063      	str	r3, [r4, #4]
 8001bd6:	6054      	str	r4, [r2, #4]
 8001bd8:	e7cb      	b.n	8001b72 <_free_r+0x22>
 8001bda:	bd38      	pop	{r3, r4, r5, pc}
 8001bdc:	20000390 	.word	0x20000390

08001be0 <sbrk_aligned>:
 8001be0:	b570      	push	{r4, r5, r6, lr}
 8001be2:	4e0f      	ldr	r6, [pc, #60]	@ (8001c20 <sbrk_aligned+0x40>)
 8001be4:	460c      	mov	r4, r1
 8001be6:	6831      	ldr	r1, [r6, #0]
 8001be8:	4605      	mov	r5, r0
 8001bea:	b911      	cbnz	r1, 8001bf2 <sbrk_aligned+0x12>
 8001bec:	f000 fbaa 	bl	8002344 <_sbrk_r>
 8001bf0:	6030      	str	r0, [r6, #0]
 8001bf2:	4621      	mov	r1, r4
 8001bf4:	4628      	mov	r0, r5
 8001bf6:	f000 fba5 	bl	8002344 <_sbrk_r>
 8001bfa:	1c43      	adds	r3, r0, #1
 8001bfc:	d103      	bne.n	8001c06 <sbrk_aligned+0x26>
 8001bfe:	f04f 34ff 	mov.w	r4, #4294967295
 8001c02:	4620      	mov	r0, r4
 8001c04:	bd70      	pop	{r4, r5, r6, pc}
 8001c06:	1cc4      	adds	r4, r0, #3
 8001c08:	f024 0403 	bic.w	r4, r4, #3
 8001c0c:	42a0      	cmp	r0, r4
 8001c0e:	d0f8      	beq.n	8001c02 <sbrk_aligned+0x22>
 8001c10:	1a21      	subs	r1, r4, r0
 8001c12:	4628      	mov	r0, r5
 8001c14:	f000 fb96 	bl	8002344 <_sbrk_r>
 8001c18:	3001      	adds	r0, #1
 8001c1a:	d1f2      	bne.n	8001c02 <sbrk_aligned+0x22>
 8001c1c:	e7ef      	b.n	8001bfe <sbrk_aligned+0x1e>
 8001c1e:	bf00      	nop
 8001c20:	2000038c 	.word	0x2000038c

08001c24 <_malloc_r>:
 8001c24:	e92d 43f8 	stmdb	sp!, {r3, r4, r5, r6, r7, r8, r9, lr}
 8001c28:	1ccd      	adds	r5, r1, #3
 8001c2a:	f025 0503 	bic.w	r5, r5, #3
 8001c2e:	3508      	adds	r5, #8
 8001c30:	2d0c      	cmp	r5, #12
 8001c32:	bf38      	it	cc
 8001c34:	250c      	movcc	r5, #12
 8001c36:	2d00      	cmp	r5, #0
 8001c38:	4606      	mov	r6, r0
 8001c3a:	db01      	blt.n	8001c40 <_malloc_r+0x1c>
 8001c3c:	42a9      	cmp	r1, r5
 8001c3e:	d904      	bls.n	8001c4a <_malloc_r+0x26>
 8001c40:	230c      	movs	r3, #12
 8001c42:	6033      	str	r3, [r6, #0]
 8001c44:	2000      	movs	r0, #0
 8001c46:	e8bd 83f8 	ldmia.w	sp!, {r3, r4, r5, r6, r7, r8, r9, pc}
 8001c4a:	f8df 80d4 	ldr.w	r8, [pc, #212]	@ 8001d20 <_malloc_r+0xfc>
 8001c4e:	f000 f869 	bl	8001d24 <__malloc_lock>
 8001c52:	f8d8 3000 	ldr.w	r3, [r8]
 8001c56:	461c      	mov	r4, r3
 8001c58:	bb44      	cbnz	r4, 8001cac <_malloc_r+0x88>
 8001c5a:	4629      	mov	r1, r5
 8001c5c:	4630      	mov	r0, r6
 8001c5e:	f7ff ffbf 	bl	8001be0 <sbrk_aligned>
 8001c62:	1c43      	adds	r3, r0, #1
 8001c64:	4604      	mov	r4, r0
 8001c66:	d158      	bne.n	8001d1a <_malloc_r+0xf6>
 8001c68:	f8d8 4000 	ldr.w	r4, [r8]
 8001c6c:	4627      	mov	r7, r4
 8001c6e:	2f00      	cmp	r7, #0
 8001c70:	d143      	bne.n	8001cfa <_malloc_r+0xd6>
 8001c72:	2c00      	cmp	r4, #0
 8001c74:	d04b      	beq.n	8001d0e <_malloc_r+0xea>
 8001c76:	6823      	ldr	r3, [r4, #0]
 8001c78:	4639      	mov	r1, r7
 8001c7a:	4630      	mov	r0, r6
 8001c7c:	eb04 0903 	add.w	r9, r4, r3
 8001c80:	f000 fb60 	bl	8002344 <_sbrk_r>
 8001c84:	4581      	cmp	r9, r0
 8001c86:	d142      	bne.n	8001d0e <_malloc_r+0xea>
 8001c88:	6821      	ldr	r1, [r4, #0]
 8001c8a:	4630      	mov	r0, r6
 8001c8c:	1a6d      	subs	r5, r5, r1
 8001c8e:	4629      	mov	r1, r5
 8001c90:	f7ff ffa6 	bl	8001be0 <sbrk_aligned>
 8001c94:	3001      	adds	r0, #1
 8001c96:	d03a      	beq.n	8001d0e <_malloc_r+0xea>
 8001c98:	6823      	ldr	r3, [r4, #0]
 8001c9a:	442b      	add	r3, r5
 8001c9c:	6023      	str	r3, [r4, #0]
 8001c9e:	f8d8 3000 	ldr.w	r3, [r8]
 8001ca2:	685a      	ldr	r2, [r3, #4]
 8001ca4:	bb62      	cbnz	r2, 8001d00 <_malloc_r+0xdc>
 8001ca6:	f8c8 7000 	str.w	r7, [r8]
 8001caa:	e00f      	b.n	8001ccc <_malloc_r+0xa8>
 8001cac:	6822      	ldr	r2, [r4, #0]
 8001cae:	1b52      	subs	r2, r2, r5
 8001cb0:	d420      	bmi.n	8001cf4 <_malloc_r+0xd0>
 8001cb2:	2a0b      	cmp	r2, #11
 8001cb4:	d917      	bls.n	8001ce6 <_malloc_r+0xc2>
 8001cb6:	1961      	adds	r1, r4, r5
 8001cb8:	42a3      	cmp	r3, r4
 8001cba:	6025      	str	r5, [r4, #0]
 8001cbc:	bf18      	it	ne
 8001cbe:	6059      	strne	r1, [r3, #4]
 8001cc0:	6863      	ldr	r3, [r4, #4]
 8001cc2:	bf08      	it	eq
 8001cc4:	f8c8 1000 	streq.w	r1, [r8]
 8001cc8:	5162      	str	r2, [r4, r5]
 8001cca:	604b      	str	r3, [r1, #4]
 8001ccc:	4630      	mov	r0, r6
 8001cce:	f000 f82f 	bl	8001d30 <__malloc_unlock>
 8001cd2:	f104 000b 	add.w	r0, r4, #11
 8001cd6:	1d23      	adds	r3, r4, #4
 8001cd8:	f020 0007 	bic.w	r0, r0, #7
 8001cdc:	1ac2      	subs	r2, r0, r3
 8001cde:	bf1c      	itt	ne
 8001ce0:	1a1b      	subne	r3, r3, r0
 8001ce2:	50a3      	strne	r3, [r4, r2]
 8001ce4:	e7af      	b.n	8001c46 <_malloc_r+0x22>
 8001ce6:	6862      	ldr	r2, [r4, #4]
 8001ce8:	42a3      	cmp	r3, r4
 8001cea:	bf0c      	ite	eq
 8001cec:	f8c8 2000 	streq.w	r2, [r8]
 8001cf0:	605a      	strne	r2, [r3, #4]
 8001cf2:	e7eb      	b.n	8001ccc <_malloc_r+0xa8>
 8001cf4:	4623      	mov	r3, r4
 8001cf6:	6864      	ldr	r4, [r4, #4]
 8001cf8:	e7ae      	b.n	8001c58 <_malloc_r+0x34>
 8001cfa:	463c      	mov	r4, r7
 8001cfc:	687f      	ldr	r7, [r7, #4]
 8001cfe:	e7b6      	b.n	8001c6e <_malloc_r+0x4a>
 8001d00:	461a      	mov	r2, r3
 8001d02:	685b      	ldr	r3, [r3, #4]
 8001d04:	42a3      	cmp	r3, r4
 8001d06:	d1fb      	bne.n	8001d00 <_malloc_r+0xdc>
 8001d08:	2300      	movs	r3, #0
 8001d0a:	6053      	str	r3, [r2, #4]
 8001d0c:	e7de      	b.n	8001ccc <_malloc_r+0xa8>
 8001d0e:	230c      	movs	r3, #12
 8001d10:	4630      	mov	r0, r6
 8001d12:	6033      	str	r3, [r6, #0]
 8001d14:	f000 f80c 	bl	8001d30 <__malloc_unlock>
 8001d18:	e794      	b.n	8001c44 <_malloc_r+0x20>
 8001d1a:	6005      	str	r5, [r0, #0]
 8001d1c:	e7d6      	b.n	8001ccc <_malloc_r+0xa8>
 8001d1e:	bf00      	nop
 8001d20:	20000390 	.word	0x20000390

08001d24 <__malloc_lock>:
 8001d24:	4801      	ldr	r0, [pc, #4]	@ (8001d2c <__malloc_lock+0x8>)
 8001d26:	f7ff bf11 	b.w	8001b4c <__retarget_lock_acquire_recursive>
 8001d2a:	bf00      	nop
 8001d2c:	20000388 	.word	0x20000388

08001d30 <__malloc_unlock>:
 8001d30:	4801      	ldr	r0, [pc, #4]	@ (8001d38 <__malloc_unlock+0x8>)
 8001d32:	f7ff bf0c 	b.w	8001b4e <__retarget_lock_release_recursive>
 8001d36:	bf00      	nop
 8001d38:	20000388 	.word	0x20000388

08001d3c <__ssputs_r>:
 8001d3c:	e92d 47f0 	stmdb	sp!, {r4, r5, r6, r7, r8, r9, sl, lr}
 8001d40:	461f      	mov	r7, r3
 8001d42:	688e      	ldr	r6, [r1, #8]
 8001d44:	4682      	mov	sl, r0
 8001d46:	42be      	cmp	r6, r7
 8001d48:	460c      	mov	r4, r1
 8001d4a:	4690      	mov	r8, r2
 8001d4c:	680b      	ldr	r3, [r1, #0]
 8001d4e:	d82d      	bhi.n	8001dac <__ssputs_r+0x70>
 8001d50:	f9b1 200c 	ldrsh.w	r2, [r1, #12]
 8001d54:	f412 6f90 	tst.w	r2, #1152	@ 0x480
 8001d58:	d026      	beq.n	8001da8 <__ssputs_r+0x6c>
 8001d5a:	6965      	ldr	r5, [r4, #20]
 8001d5c:	6909      	ldr	r1, [r1, #16]
 8001d5e:	eb05 0545 	add.w	r5, r5, r5, lsl #1
 8001d62:	eba3 0901 	sub.w	r9, r3, r1
 8001d66:	eb05 75d5 	add.w	r5, r5, r5, lsr #31
 8001d6a:	1c7b      	adds	r3, r7, #1
 8001d6c:	444b      	add	r3, r9
 8001d6e:	106d      	asrs	r5, r5, #1
 8001d70:	429d      	cmp	r5, r3
 8001d72:	bf38      	it	cc
 8001d74:	461d      	movcc	r5, r3
 8001d76:	0553      	lsls	r3, r2, #21
 8001d78:	d527      	bpl.n	8001dca <__ssputs_r+0x8e>
 8001d7a:	4629      	mov	r1, r5
 8001d7c:	f7ff ff52 	bl	8001c24 <_malloc_r>
 8001d80:	4606      	mov	r6, r0
 8001d82:	b360      	cbz	r0, 8001dde <__ssputs_r+0xa2>
 8001d84:	464a      	mov	r2, r9
 8001d86:	6921      	ldr	r1, [r4, #16]
 8001d88:	f000 fafa 	bl	8002380 <memcpy>
 8001d8c:	89a3      	ldrh	r3, [r4, #12]
 8001d8e:	f423 6390 	bic.w	r3, r3, #1152	@ 0x480
 8001d92:	f043 0380 	orr.w	r3, r3, #128	@ 0x80
 8001d96:	81a3      	strh	r3, [r4, #12]
 8001d98:	6126      	str	r6, [r4, #16]
 8001d9a:	444e      	add	r6, r9
 8001d9c:	6026      	str	r6, [r4, #0]
 8001d9e:	463e      	mov	r6, r7
 8001da0:	6165      	str	r5, [r4, #20]
 8001da2:	eba5 0509 	sub.w	r5, r5, r9
 8001da6:	60a5      	str	r5, [r4, #8]
 8001da8:	42be      	cmp	r6, r7
 8001daa:	d900      	bls.n	8001dae <__ssputs_r+0x72>
 8001dac:	463e      	mov	r6, r7
 8001dae:	4632      	mov	r2, r6
 8001db0:	4641      	mov	r1, r8
 8001db2:	6820      	ldr	r0, [r4, #0]
 8001db4:	f000 faac 	bl	8002310 <memmove>
 8001db8:	2000      	movs	r0, #0
 8001dba:	68a3      	ldr	r3, [r4, #8]
 8001dbc:	1b9b      	subs	r3, r3, r6
 8001dbe:	60a3      	str	r3, [r4, #8]
 8001dc0:	6823      	ldr	r3, [r4, #0]
 8001dc2:	4433      	add	r3, r6
 8001dc4:	6023      	str	r3, [r4, #0]
 8001dc6:	e8bd 87f0 	ldmia.w	sp!, {r4, r5, r6, r7, r8, r9, sl, pc}
 8001dca:	462a      	mov	r2, r5
 8001dcc:	f000 fae6 	bl	800239c <_realloc_r>
 8001dd0:	4606      	mov	r6, r0
 8001dd2:	2800      	cmp	r0, #0
 8001dd4:	d1e0      	bne.n	8001d98 <__ssputs_r+0x5c>
 8001dd6:	4650      	mov	r0, sl
 8001dd8:	6921      	ldr	r1, [r4, #16]
 8001dda:	f7ff feb9 	bl	8001b50 <_free_r>
 8001dde:	230c      	movs	r3, #12
 8001de0:	f8ca 3000 	str.w	r3, [sl]
 8001de4:	89a3      	ldrh	r3, [r4, #12]
 8001de6:	f04f 30ff 	mov.w	r0, #4294967295
 8001dea:	f043 0340 	orr.w	r3, r3, #64	@ 0x40
 8001dee:	81a3      	strh	r3, [r4, #12]
 8001df0:	e7e9      	b.n	8001dc6 <__ssputs_r+0x8a>
	...

08001df4 <_svfiprintf_r>:
 8001df4:	e92d 4ff0 	stmdb	sp!, {r4, r5, r6, r7, r8, r9, sl, fp, lr}
 8001df8:	4698      	mov	r8, r3
 8001dfa:	898b      	ldrh	r3, [r1, #12]
 8001dfc:	4607      	mov	r7, r0
 8001dfe:	061b      	lsls	r3, r3, #24
 8001e00:	460d      	mov	r5, r1
 8001e02:	4614      	mov	r4, r2
 8001e04:	b09d      	sub	sp, #116	@ 0x74
 8001e06:	d510      	bpl.n	8001e2a <_svfiprintf_r+0x36>
 8001e08:	690b      	ldr	r3, [r1, #16]
 8001e0a:	b973      	cbnz	r3, 8001e2a <_svfiprintf_r+0x36>
 8001e0c:	2140      	movs	r1, #64	@ 0x40
 8001e0e:	f7ff ff09 	bl	8001c24 <_malloc_r>
 8001e12:	6028      	str	r0, [r5, #0]
 8001e14:	6128      	str	r0, [r5, #16]
 8001e16:	b930      	cbnz	r0, 8001e26 <_svfiprintf_r+0x32>
 8001e18:	230c      	movs	r3, #12
 8001e1a:	603b      	str	r3, [r7, #0]
 8001e1c:	f04f 30ff 	mov.w	r0, #4294967295
 8001e20:	b01d      	add	sp, #116	@ 0x74
 8001e22:	e8bd 8ff0 	ldmia.w	sp!, {r4, r5, r6, r7, r8, r9, sl, fp, pc}
 8001e26:	2340      	movs	r3, #64	@ 0x40
 8001e28:	616b      	str	r3, [r5, #20]
 8001e2a:	2300      	movs	r3, #0
 8001e2c:	9309      	str	r3, [sp, #36]	@ 0x24
 8001e2e:	2320      	movs	r3, #32
 8001e30:	f88d 3029 	strb.w	r3, [sp, #41]	@ 0x29
 8001e34:	2330      	movs	r3, #48	@ 0x30
 8001e36:	f04f 0901 	mov.w	r9, #1
 8001e3a:	f8cd 800c 	str.w	r8, [sp, #12]
 8001e3e:	f8df 8198 	ldr.w	r8, [pc, #408]	@ 8001fd8 <_svfiprintf_r+0x1e4>
 8001e42:	f88d 302a 	strb.w	r3, [sp, #42]	@ 0x2a
 8001e46:	4623      	mov	r3, r4
 8001e48:	469a      	mov	sl, r3
 8001e4a:	f813 2b01 	ldrb.w	r2, [r3], #1
 8001e4e:	b10a      	cbz	r2, 8001e54 <_svfiprintf_r+0x60>
 8001e50:	2a25      	cmp	r2, #37	@ 0x25
 8001e52:	d1f9      	bne.n	8001e48 <_svfiprintf_r+0x54>
 8001e54:	ebba 0b04 	subs.w	fp, sl, r4
 8001e58:	d00b      	beq.n	8001e72 <_svfiprintf_r+0x7e>
 8001e5a:	465b      	mov	r3, fp
 8001e5c:	4622      	mov	r2, r4
 8001e5e:	4629      	mov	r1, r5
 8001e60:	4638      	mov	r0, r7
 8001e62:	f7ff ff6b 	bl	8001d3c <__ssputs_r>
 8001e66:	3001      	adds	r0, #1
 8001e68:	f000 80a7 	beq.w	8001fba <_svfiprintf_r+0x1c6>
 8001e6c:	9a09      	ldr	r2, [sp, #36]	@ 0x24
 8001e6e:	445a      	add	r2, fp
 8001e70:	9209      	str	r2, [sp, #36]	@ 0x24
 8001e72:	f89a 3000 	ldrb.w	r3, [sl]
 8001e76:	2b00      	cmp	r3, #0
 8001e78:	f000 809f 	beq.w	8001fba <_svfiprintf_r+0x1c6>
 8001e7c:	2300      	movs	r3, #0
 8001e7e:	f04f 32ff 	mov.w	r2, #4294967295
 8001e82:	e9cd 2305 	strd	r2, r3, [sp, #20]
 8001e86:	f10a 0a01 	add.w	sl, sl, #1
 8001e8a:	9304      	str	r3, [sp, #16]
 8001e8c:	9307      	str	r3, [sp, #28]
 8001e8e:	f88d 3053 	strb.w	r3, [sp, #83]	@ 0x53
 8001e92:	931a      	str	r3, [sp, #104]	@ 0x68
 8001e94:	4654      	mov	r4, sl
 8001e96:	2205      	movs	r2, #5
 8001e98:	f814 1b01 	ldrb.w	r1, [r4], #1
 8001e9c:	484e      	ldr	r0, [pc, #312]	@ (8001fd8 <_svfiprintf_r+0x1e4>)
 8001e9e:	f000 fa61 	bl	8002364 <memchr>
 8001ea2:	9a04      	ldr	r2, [sp, #16]
 8001ea4:	b9d8      	cbnz	r0, 8001ede <_svfiprintf_r+0xea>
 8001ea6:	06d0      	lsls	r0, r2, #27
 8001ea8:	bf44      	itt	mi
 8001eaa:	2320      	movmi	r3, #32
 8001eac:	f88d 3053 	strbmi.w	r3, [sp, #83]	@ 0x53
 8001eb0:	0711      	lsls	r1, r2, #28
 8001eb2:	bf44      	itt	mi
 8001eb4:	232b      	movmi	r3, #43	@ 0x2b
 8001eb6:	f88d 3053 	strbmi.w	r3, [sp, #83]	@ 0x53
 8001eba:	f89a 3000 	ldrb.w	r3, [sl]
 8001ebe:	2b2a      	cmp	r3, #42	@ 0x2a
 8001ec0:	d015      	beq.n	8001eee <_svfiprintf_r+0xfa>
 8001ec2:	4654      	mov	r4, sl
 8001ec4:	2000      	movs	r0, #0
 8001ec6:	f04f 0c0a 	mov.w	ip, #10
 8001eca:	9a07      	ldr	r2, [sp, #28]
 8001ecc:	4621      	mov	r1, r4
 8001ece:	f811 3b01 	ldrb.w	r3, [r1], #1
 8001ed2:	3b30      	subs	r3, #48	@ 0x30
 8001ed4:	2b09      	cmp	r3, #9
 8001ed6:	d94b      	bls.n	8001f70 <_svfiprintf_r+0x17c>
 8001ed8:	b1b0      	cbz	r0, 8001f08 <_svfiprintf_r+0x114>
 8001eda:	9207      	str	r2, [sp, #28]
 8001edc:	e014      	b.n	8001f08 <_svfiprintf_r+0x114>
 8001ede:	eba0 0308 	sub.w	r3, r0, r8
 8001ee2:	fa09 f303 	lsl.w	r3, r9, r3
 8001ee6:	4313      	orrs	r3, r2
 8001ee8:	46a2      	mov	sl, r4
 8001eea:	9304      	str	r3, [sp, #16]
 8001eec:	e7d2      	b.n	8001e94 <_svfiprintf_r+0xa0>
 8001eee:	9b03      	ldr	r3, [sp, #12]
 8001ef0:	1d19      	adds	r1, r3, #4
 8001ef2:	681b      	ldr	r3, [r3, #0]
 8001ef4:	9103      	str	r1, [sp, #12]
 8001ef6:	2b00      	cmp	r3, #0
 8001ef8:	bfbb      	ittet	lt
 8001efa:	425b      	neglt	r3, r3
 8001efc:	f042 0202 	orrlt.w	r2, r2, #2
 8001f00:	9307      	strge	r3, [sp, #28]
 8001f02:	9307      	strlt	r3, [sp, #28]
 8001f04:	bfb8      	it	lt
 8001f06:	9204      	strlt	r2, [sp, #16]
 8001f08:	7823      	ldrb	r3, [r4, #0]
 8001f0a:	2b2e      	cmp	r3, #46	@ 0x2e
 8001f0c:	d10a      	bne.n	8001f24 <_svfiprintf_r+0x130>
 8001f0e:	7863      	ldrb	r3, [r4, #1]
 8001f10:	2b2a      	cmp	r3, #42	@ 0x2a
 8001f12:	d132      	bne.n	8001f7a <_svfiprintf_r+0x186>
 8001f14:	9b03      	ldr	r3, [sp, #12]
 8001f16:	3402      	adds	r4, #2
 8001f18:	1d1a      	adds	r2, r3, #4
 8001f1a:	681b      	ldr	r3, [r3, #0]
 8001f1c:	9203      	str	r2, [sp, #12]
 8001f1e:	ea43 73e3 	orr.w	r3, r3, r3, asr #31
 8001f22:	9305      	str	r3, [sp, #20]
 8001f24:	f8df a0b4 	ldr.w	sl, [pc, #180]	@ 8001fdc <_svfiprintf_r+0x1e8>
 8001f28:	2203      	movs	r2, #3
 8001f2a:	4650      	mov	r0, sl
 8001f2c:	7821      	ldrb	r1, [r4, #0]
 8001f2e:	f000 fa19 	bl	8002364 <memchr>
 8001f32:	b138      	cbz	r0, 8001f44 <_svfiprintf_r+0x150>
 8001f34:	2240      	movs	r2, #64	@ 0x40
 8001f36:	9b04      	ldr	r3, [sp, #16]
 8001f38:	eba0 000a 	sub.w	r0, r0, sl
 8001f3c:	4082      	lsls	r2, r0
 8001f3e:	4313      	orrs	r3, r2
 8001f40:	3401      	adds	r4, #1
 8001f42:	9304      	str	r3, [sp, #16]
 8001f44:	f814 1b01 	ldrb.w	r1, [r4], #1
 8001f48:	2206      	movs	r2, #6
 8001f4a:	4825      	ldr	r0, [pc, #148]	@ (8001fe0 <_svfiprintf_r+0x1ec>)
 8001f4c:	f88d 1028 	strb.w	r1, [sp, #40]	@ 0x28
 8001f50:	f000 fa08 	bl	8002364 <memchr>
 8001f54:	2800      	cmp	r0, #0
 8001f56:	d036      	beq.n	8001fc6 <_svfiprintf_r+0x1d2>
 8001f58:	4b22      	ldr	r3, [pc, #136]	@ (8001fe4 <_svfiprintf_r+0x1f0>)
 8001f5a:	bb1b      	cbnz	r3, 8001fa4 <_svfiprintf_r+0x1b0>
 8001f5c:	9b03      	ldr	r3, [sp, #12]
 8001f5e:	3307      	adds	r3, #7
 8001f60:	f023 0307 	bic.w	r3, r3, #7
 8001f64:	3308      	adds	r3, #8
 8001f66:	9303      	str	r3, [sp, #12]
 8001f68:	9b09      	ldr	r3, [sp, #36]	@ 0x24
 8001f6a:	4433      	add	r3, r6
 8001f6c:	9309      	str	r3, [sp, #36]	@ 0x24
 8001f6e:	e76a      	b.n	8001e46 <_svfiprintf_r+0x52>
 8001f70:	460c      	mov	r4, r1
 8001f72:	2001      	movs	r0, #1
 8001f74:	fb0c 3202 	mla	r2, ip, r2, r3
 8001f78:	e7a8      	b.n	8001ecc <_svfiprintf_r+0xd8>
 8001f7a:	2300      	movs	r3, #0
 8001f7c:	f04f 0c0a 	mov.w	ip, #10
 8001f80:	4619      	mov	r1, r3
 8001f82:	3401      	adds	r4, #1
 8001f84:	9305      	str	r3, [sp, #20]
 8001f86:	4620      	mov	r0, r4
 8001f88:	f810 2b01 	ldrb.w	r2, [r0], #1
 8001f8c:	3a30      	subs	r2, #48	@ 0x30
 8001f8e:	2a09      	cmp	r2, #9
 8001f90:	d903      	bls.n	8001f9a <_svfiprintf_r+0x1a6>
 8001f92:	2b00      	cmp	r3, #0
 8001f94:	d0c6      	beq.n	8001f24 <_svfiprintf_r+0x130>
 8001f96:	9105      	str	r1, [sp, #20]
 8001f98:	e7c4      	b.n	8001f24 <_svfiprintf_r+0x130>
 8001f9a:	4604      	mov	r4, r0
 8001f9c:	2301      	movs	r3, #1
 8001f9e:	fb0c 2101 	mla	r1, ip, r1, r2
 8001fa2:	e7f0      	b.n	8001f86 <_svfiprintf_r+0x192>
 8001fa4:	ab03      	add	r3, sp, #12
 8001fa6:	9300      	str	r3, [sp, #0]
 8001fa8:	462a      	mov	r2, r5
 8001faa:	4638      	mov	r0, r7
 8001fac:	4b0e      	ldr	r3, [pc, #56]	@ (8001fe8 <_svfiprintf_r+0x1f4>)
 8001fae:	a904      	add	r1, sp, #16
 8001fb0:	f3af 8000 	nop.w
 8001fb4:	1c42      	adds	r2, r0, #1
 8001fb6:	4606      	mov	r6, r0
 8001fb8:	d1d6      	bne.n	8001f68 <_svfiprintf_r+0x174>
 8001fba:	89ab      	ldrh	r3, [r5, #12]
 8001fbc:	065b      	lsls	r3, r3, #25
 8001fbe:	f53f af2d 	bmi.w	8001e1c <_svfiprintf_r+0x28>
 8001fc2:	9809      	ldr	r0, [sp, #36]	@ 0x24
 8001fc4:	e72c      	b.n	8001e20 <_svfiprintf_r+0x2c>
 8001fc6:	ab03      	add	r3, sp, #12
 8001fc8:	9300      	str	r3, [sp, #0]
 8001fca:	462a      	mov	r2, r5
 8001fcc:	4638      	mov	r0, r7
 8001fce:	4b06      	ldr	r3, [pc, #24]	@ (8001fe8 <_svfiprintf_r+0x1f4>)
 8001fd0:	a904      	add	r1, sp, #16
 8001fd2:	f000 f87d 	bl	80020d0 <_printf_i>
 8001fd6:	e7ed      	b.n	8001fb4 <_svfiprintf_r+0x1c0>
 8001fd8:	08002467 	.word	0x08002467
 8001fdc:	0800246d 	.word	0x0800246d
 8001fe0:	08002471 	.word	0x08002471
 8001fe4:	00000000 	.word	0x00000000
 8001fe8:	08001d3d 	.word	0x08001d3d

08001fec <_printf_common>:
 8001fec:	e92d 47f0 	stmdb	sp!, {r4, r5, r6, r7, r8, r9, sl, lr}
 8001ff0:	4616      	mov	r6, r2
 8001ff2:	4698      	mov	r8, r3
 8001ff4:	688a      	ldr	r2, [r1, #8]
 8001ff6:	690b      	ldr	r3, [r1, #16]
 8001ff8:	4607      	mov	r7, r0
 8001ffa:	4293      	cmp	r3, r2
 8001ffc:	bfb8      	it	lt
 8001ffe:	4613      	movlt	r3, r2
 8002000:	6033      	str	r3, [r6, #0]
 8002002:	f891 2043 	ldrb.w	r2, [r1, #67]	@ 0x43
 8002006:	460c      	mov	r4, r1
 8002008:	f8dd 9020 	ldr.w	r9, [sp, #32]
 800200c:	b10a      	cbz	r2, 8002012 <_printf_common+0x26>
 800200e:	3301      	adds	r3, #1
 8002010:	6033      	str	r3, [r6, #0]
 8002012:	6823      	ldr	r3, [r4, #0]
 8002014:	0699      	lsls	r1, r3, #26
 8002016:	bf42      	ittt	mi
 8002018:	6833      	ldrmi	r3, [r6, #0]
 800201a:	3302      	addmi	r3, #2
 800201c:	6033      	strmi	r3, [r6, #0]
 800201e:	6825      	ldr	r5, [r4, #0]
 8002020:	f015 0506 	ands.w	r5, r5, #6
 8002024:	d106      	bne.n	8002034 <_printf_common+0x48>
 8002026:	f104 0a19 	add.w	sl, r4, #25
 800202a:	68e3      	ldr	r3, [r4, #12]
 800202c:	6832      	ldr	r2, [r6, #0]
 800202e:	1a9b      	subs	r3, r3, r2
 8002030:	42ab      	cmp	r3, r5
 8002032:	dc2b      	bgt.n	800208c <_printf_common+0xa0>
 8002034:	f894 3043 	ldrb.w	r3, [r4, #67]	@ 0x43
 8002038:	6822      	ldr	r2, [r4, #0]
 800203a:	3b00      	subs	r3, #0
 800203c:	bf18      	it	ne
 800203e:	2301      	movne	r3, #1
 8002040:	0692      	lsls	r2, r2, #26
 8002042:	d430      	bmi.n	80020a6 <_printf_common+0xba>
 8002044:	4641      	mov	r1, r8
 8002046:	4638      	mov	r0, r7
 8002048:	f104 0243 	add.w	r2, r4, #67	@ 0x43
 800204c:	47c8      	blx	r9
 800204e:	3001      	adds	r0, #1
 8002050:	d023      	beq.n	800209a <_printf_common+0xae>
 8002052:	6823      	ldr	r3, [r4, #0]
 8002054:	6922      	ldr	r2, [r4, #16]
 8002056:	f003 0306 	and.w	r3, r3, #6
 800205a:	2b04      	cmp	r3, #4
 800205c:	bf14      	ite	ne
 800205e:	2500      	movne	r5, #0
 8002060:	6833      	ldreq	r3, [r6, #0]
 8002062:	f04f 0600 	mov.w	r6, #0
 8002066:	bf08      	it	eq
 8002068:	68e5      	ldreq	r5, [r4, #12]
 800206a:	f104 041a 	add.w	r4, r4, #26
 800206e:	bf08      	it	eq
 8002070:	1aed      	subeq	r5, r5, r3
 8002072:	f854 3c12 	ldr.w	r3, [r4, #-18]
 8002076:	bf08      	it	eq
 8002078:	ea25 75e5 	biceq.w	r5, r5, r5, asr #31
 800207c:	4293      	cmp	r3, r2
 800207e:	bfc4      	itt	gt
 8002080:	1a9b      	subgt	r3, r3, r2
 8002082:	18ed      	addgt	r5, r5, r3
 8002084:	42b5      	cmp	r5, r6
 8002086:	d11a      	bne.n	80020be <_printf_common+0xd2>
 8002088:	2000      	movs	r0, #0
 800208a:	e008      	b.n	800209e <_printf_common+0xb2>
 800208c:	2301      	movs	r3, #1
 800208e:	4652      	mov	r2, sl
 8002090:	4641      	mov	r1, r8
 8002092:	4638      	mov	r0, r7
 8002094:	47c8      	blx	r9
 8002096:	3001      	adds	r0, #1
 8002098:	d103      	bne.n	80020a2 <_printf_common+0xb6>
 800209a:	f04f 30ff 	mov.w	r0, #4294967295
 800209e:	e8bd 87f0 	ldmia.w	sp!, {r4, r5, r6, r7, r8, r9, sl, pc}
 80020a2:	3501      	adds	r5, #1
 80020a4:	e7c1      	b.n	800202a <_printf_common+0x3e>
 80020a6:	2030      	movs	r0, #48	@ 0x30
 80020a8:	18e1      	adds	r1, r4, r3
 80020aa:	f881 0043 	strb.w	r0, [r1, #67]	@ 0x43
 80020ae:	1c5a      	adds	r2, r3, #1
 80020b0:	f894 1045 	ldrb.w	r1, [r4, #69]	@ 0x45
 80020b4:	4422      	add	r2, r4
 80020b6:	3302      	adds	r3, #2
 80020b8:	f882 1043 	strb.w	r1, [r2, #67]	@ 0x43
 80020bc:	e7c2      	b.n	8002044 <_printf_common+0x58>
 80020be:	2301      	movs	r3, #1
 80020c0:	4622      	mov	r2, r4
 80020c2:	4641      	mov	r1, r8
 80020c4:	4638      	mov	r0, r7
 80020c6:	47c8      	blx	r9
 80020c8:	3001      	adds	r0, #1
 80020ca:	d0e6      	beq.n	800209a <_printf_common+0xae>
 80020cc:	3601      	adds	r6, #1
 80020ce:	e7d9      	b.n	8002084 <_printf_common+0x98>

080020d0 <_printf_i>:
 80020d0:	e92d 47ff 	stmdb	sp!, {r0, r1, r2, r3, r4, r5, r6, r7, r8, r9, sl, lr}
 80020d4:	7e0f      	ldrb	r7, [r1, #24]
 80020d6:	4691      	mov	r9, r2
 80020d8:	2f78      	cmp	r7, #120	@ 0x78
 80020da:	4680      	mov	r8, r0
 80020dc:	460c      	mov	r4, r1
 80020de:	469a      	mov	sl, r3
 80020e0:	9e0c      	ldr	r6, [sp, #48]	@ 0x30
 80020e2:	f101 0243 	add.w	r2, r1, #67	@ 0x43
 80020e6:	d807      	bhi.n	80020f8 <_printf_i+0x28>
 80020e8:	2f62      	cmp	r7, #98	@ 0x62
 80020ea:	d80a      	bhi.n	8002102 <_printf_i+0x32>
 80020ec:	2f00      	cmp	r7, #0
 80020ee:	f000 80d3 	beq.w	8002298 <_printf_i+0x1c8>
 80020f2:	2f58      	cmp	r7, #88	@ 0x58
 80020f4:	f000 80ba 	beq.w	800226c <_printf_i+0x19c>
 80020f8:	f104 0642 	add.w	r6, r4, #66	@ 0x42
 80020fc:	f884 7042 	strb.w	r7, [r4, #66]	@ 0x42
 8002100:	e03a      	b.n	8002178 <_printf_i+0xa8>
 8002102:	f1a7 0363 	sub.w	r3, r7, #99	@ 0x63
 8002106:	2b15      	cmp	r3, #21
 8002108:	d8f6      	bhi.n	80020f8 <_printf_i+0x28>
 800210a:	a101      	add	r1, pc, #4	@ (adr r1, 8002110 <_printf_i+0x40>)
 800210c:	f851 f023 	ldr.w	pc, [r1, r3, lsl #2]
 8002110:	08002169 	.word	0x08002169
 8002114:	0800217d 	.word	0x0800217d
 8002118:	080020f9 	.word	0x080020f9
 800211c:	080020f9 	.word	0x080020f9
 8002120:	080020f9 	.word	0x080020f9
 8002124:	080020f9 	.word	0x080020f9
 8002128:	0800217d 	.word	0x0800217d
 800212c:	080020f9 	.word	0x080020f9
 8002130:	080020f9 	.word	0x080020f9
 8002134:	080020f9 	.word	0x080020f9
 8002138:	080020f9 	.word	0x080020f9
 800213c:	0800227f 	.word	0x0800227f
 8002140:	080021a7 	.word	0x080021a7
 8002144:	08002239 	.word	0x08002239
 8002148:	080020f9 	.word	0x080020f9
 800214c:	080020f9 	.word	0x080020f9
 8002150:	080022a1 	.word	0x080022a1
 8002154:	080020f9 	.word	0x080020f9
 8002158:	080021a7 	.word	0x080021a7
 800215c:	080020f9 	.word	0x080020f9
 8002160:	080020f9 	.word	0x080020f9
 8002164:	08002241 	.word	0x08002241
 8002168:	6833      	ldr	r3, [r6, #0]
 800216a:	1d1a      	adds	r2, r3, #4
 800216c:	681b      	ldr	r3, [r3, #0]
 800216e:	6032      	str	r2, [r6, #0]
 8002170:	f104 0642 	add.w	r6, r4, #66	@ 0x42
 8002174:	f884 3042 	strb.w	r3, [r4, #66]	@ 0x42
 8002178:	2301      	movs	r3, #1
 800217a:	e09e      	b.n	80022ba <_printf_i+0x1ea>
 800217c:	6833      	ldr	r3, [r6, #0]
 800217e:	6820      	ldr	r0, [r4, #0]
 8002180:	1d19      	adds	r1, r3, #4
 8002182:	6031      	str	r1, [r6, #0]
 8002184:	0606      	lsls	r6, r0, #24
 8002186:	d501      	bpl.n	800218c <_printf_i+0xbc>
 8002188:	681d      	ldr	r5, [r3, #0]
 800218a:	e003      	b.n	8002194 <_printf_i+0xc4>
 800218c:	0645      	lsls	r5, r0, #25
 800218e:	d5fb      	bpl.n	8002188 <_printf_i+0xb8>
 8002190:	f9b3 5000 	ldrsh.w	r5, [r3]
 8002194:	2d00      	cmp	r5, #0
 8002196:	da03      	bge.n	80021a0 <_printf_i+0xd0>
 8002198:	232d      	movs	r3, #45	@ 0x2d
 800219a:	426d      	negs	r5, r5
 800219c:	f884 3043 	strb.w	r3, [r4, #67]	@ 0x43
 80021a0:	230a      	movs	r3, #10
 80021a2:	4859      	ldr	r0, [pc, #356]	@ (8002308 <_printf_i+0x238>)
 80021a4:	e011      	b.n	80021ca <_printf_i+0xfa>
 80021a6:	6821      	ldr	r1, [r4, #0]
 80021a8:	6833      	ldr	r3, [r6, #0]
 80021aa:	0608      	lsls	r0, r1, #24
 80021ac:	f853 5b04 	ldr.w	r5, [r3], #4
 80021b0:	d402      	bmi.n	80021b8 <_printf_i+0xe8>
 80021b2:	0649      	lsls	r1, r1, #25
 80021b4:	bf48      	it	mi
 80021b6:	b2ad      	uxthmi	r5, r5
 80021b8:	2f6f      	cmp	r7, #111	@ 0x6f
 80021ba:	6033      	str	r3, [r6, #0]
 80021bc:	bf14      	ite	ne
 80021be:	230a      	movne	r3, #10
 80021c0:	2308      	moveq	r3, #8
 80021c2:	4851      	ldr	r0, [pc, #324]	@ (8002308 <_printf_i+0x238>)
 80021c4:	2100      	movs	r1, #0
 80021c6:	f884 1043 	strb.w	r1, [r4, #67]	@ 0x43
 80021ca:	6866      	ldr	r6, [r4, #4]
 80021cc:	2e00      	cmp	r6, #0
 80021ce:	bfa8      	it	ge
 80021d0:	6821      	ldrge	r1, [r4, #0]
 80021d2:	60a6      	str	r6, [r4, #8]
 80021d4:	bfa4      	itt	ge
 80021d6:	f021 0104 	bicge.w	r1, r1, #4
 80021da:	6021      	strge	r1, [r4, #0]
 80021dc:	b90d      	cbnz	r5, 80021e2 <_printf_i+0x112>
 80021de:	2e00      	cmp	r6, #0
 80021e0:	d04b      	beq.n	800227a <_printf_i+0x1aa>
 80021e2:	4616      	mov	r6, r2
 80021e4:	fbb5 f1f3 	udiv	r1, r5, r3
 80021e8:	fb03 5711 	mls	r7, r3, r1, r5
 80021ec:	5dc7      	ldrb	r7, [r0, r7]
 80021ee:	f806 7d01 	strb.w	r7, [r6, #-1]!
 80021f2:	462f      	mov	r7, r5
 80021f4:	42bb      	cmp	r3, r7
 80021f6:	460d      	mov	r5, r1
 80021f8:	d9f4      	bls.n	80021e4 <_printf_i+0x114>
 80021fa:	2b08      	cmp	r3, #8
 80021fc:	d10b      	bne.n	8002216 <_printf_i+0x146>
 80021fe:	6823      	ldr	r3, [r4, #0]
 8002200:	07df      	lsls	r7, r3, #31
 8002202:	d508      	bpl.n	8002216 <_printf_i+0x146>
 8002204:	6923      	ldr	r3, [r4, #16]
 8002206:	6861      	ldr	r1, [r4, #4]
 8002208:	4299      	cmp	r1, r3
 800220a:	bfde      	ittt	le
 800220c:	2330      	movle	r3, #48	@ 0x30
 800220e:	f806 3c01 	strble.w	r3, [r6, #-1]
 8002212:	f106 36ff 	addle.w	r6, r6, #4294967295
 8002216:	1b92      	subs	r2, r2, r6
 8002218:	6122      	str	r2, [r4, #16]
 800221a:	464b      	mov	r3, r9
 800221c:	4621      	mov	r1, r4
 800221e:	4640      	mov	r0, r8
 8002220:	f8cd a000 	str.w	sl, [sp]
 8002224:	aa03      	add	r2, sp, #12
 8002226:	f7ff fee1 	bl	8001fec <_printf_common>
 800222a:	3001      	adds	r0, #1
 800222c:	d14a      	bne.n	80022c4 <_printf_i+0x1f4>
 800222e:	f04f 30ff 	mov.w	r0, #4294967295
 8002232:	b004      	add	sp, #16
 8002234:	e8bd 87f0 	ldmia.w	sp!, {r4, r5, r6, r7, r8, r9, sl, pc}
 8002238:	6823      	ldr	r3, [r4, #0]
 800223a:	f043 0320 	orr.w	r3, r3, #32
 800223e:	6023      	str	r3, [r4, #0]
 8002240:	2778      	movs	r7, #120	@ 0x78
 8002242:	4832      	ldr	r0, [pc, #200]	@ (800230c <_printf_i+0x23c>)
 8002244:	f884 7045 	strb.w	r7, [r4, #69]	@ 0x45
 8002248:	6823      	ldr	r3, [r4, #0]
 800224a:	6831      	ldr	r1, [r6, #0]
 800224c:	061f      	lsls	r7, r3, #24
 800224e:	f851 5b04 	ldr.w	r5, [r1], #4
 8002252:	d402      	bmi.n	800225a <_printf_i+0x18a>
 8002254:	065f      	lsls	r7, r3, #25
 8002256:	bf48      	it	mi
 8002258:	b2ad      	uxthmi	r5, r5
 800225a:	6031      	str	r1, [r6, #0]
 800225c:	07d9      	lsls	r1, r3, #31
 800225e:	bf44      	itt	mi
 8002260:	f043 0320 	orrmi.w	r3, r3, #32
 8002264:	6023      	strmi	r3, [r4, #0]
 8002266:	b11d      	cbz	r5, 8002270 <_printf_i+0x1a0>
 8002268:	2310      	movs	r3, #16
 800226a:	e7ab      	b.n	80021c4 <_printf_i+0xf4>
 800226c:	4826      	ldr	r0, [pc, #152]	@ (8002308 <_printf_i+0x238>)
 800226e:	e7e9      	b.n	8002244 <_printf_i+0x174>
 8002270:	6823      	ldr	r3, [r4, #0]
 8002272:	f023 0320 	bic.w	r3, r3, #32
 8002276:	6023      	str	r3, [r4, #0]
 8002278:	e7f6      	b.n	8002268 <_printf_i+0x198>
 800227a:	4616      	mov	r6, r2
 800227c:	e7bd      	b.n	80021fa <_printf_i+0x12a>
 800227e:	6833      	ldr	r3, [r6, #0]
 8002280:	6825      	ldr	r5, [r4, #0]
 8002282:	1d18      	adds	r0, r3, #4
 8002284:	6961      	ldr	r1, [r4, #20]
 8002286:	6030      	str	r0, [r6, #0]
 8002288:	062e      	lsls	r6, r5, #24
 800228a:	681b      	ldr	r3, [r3, #0]
 800228c:	d501      	bpl.n	8002292 <_printf_i+0x1c2>
 800228e:	6019      	str	r1, [r3, #0]
 8002290:	e002      	b.n	8002298 <_printf_i+0x1c8>
 8002292:	0668      	lsls	r0, r5, #25
 8002294:	d5fb      	bpl.n	800228e <_printf_i+0x1be>
 8002296:	8019      	strh	r1, [r3, #0]
 8002298:	2300      	movs	r3, #0
 800229a:	4616      	mov	r6, r2
 800229c:	6123      	str	r3, [r4, #16]
 800229e:	e7bc      	b.n	800221a <_printf_i+0x14a>
 80022a0:	6833      	ldr	r3, [r6, #0]
 80022a2:	2100      	movs	r1, #0
 80022a4:	1d1a      	adds	r2, r3, #4
 80022a6:	6032      	str	r2, [r6, #0]
 80022a8:	681e      	ldr	r6, [r3, #0]
 80022aa:	6862      	ldr	r2, [r4, #4]
 80022ac:	4630      	mov	r0, r6
 80022ae:	f000 f859 	bl	8002364 <memchr>
 80022b2:	b108      	cbz	r0, 80022b8 <_printf_i+0x1e8>
 80022b4:	1b80      	subs	r0, r0, r6
 80022b6:	6060      	str	r0, [r4, #4]
 80022b8:	6863      	ldr	r3, [r4, #4]
 80022ba:	6123      	str	r3, [r4, #16]
 80022bc:	2300      	movs	r3, #0
 80022be:	f884 3043 	strb.w	r3, [r4, #67]	@ 0x43
 80022c2:	e7aa      	b.n	800221a <_printf_i+0x14a>
 80022c4:	4632      	mov	r2, r6
 80022c6:	4649      	mov	r1, r9
 80022c8:	4640      	mov	r0, r8
 80022ca:	6923      	ldr	r3, [r4, #16]
 80022cc:	47d0      	blx	sl
 80022ce:	3001      	adds	r0, #1
 80022d0:	d0ad      	beq.n	800222e <_printf_i+0x15e>
 80022d2:	6823      	ldr	r3, [r4, #0]
 80022d4:	079b      	lsls	r3, r3, #30
 80022d6:	d413      	bmi.n	8002300 <_printf_i+0x230>
 80022d8:	68e0      	ldr	r0, [r4, #12]
 80022da:	9b03      	ldr	r3, [sp, #12]
 80022dc:	4298      	cmp	r0, r3
 80022de:	bfb8      	it	lt
 80022e0:	4618      	movlt	r0, r3
 80022e2:	e7a6      	b.n	8002232 <_printf_i+0x162>
 80022e4:	2301      	movs	r3, #1
 80022e6:	4632      	mov	r2, r6
 80022e8:	4649      	mov	r1, r9
 80022ea:	4640      	mov	r0, r8
 80022ec:	47d0      	blx	sl
 80022ee:	3001      	adds	r0, #1
 80022f0:	d09d      	beq.n	800222e <_printf_i+0x15e>
 80022f2:	3501      	adds	r5, #1
 80022f4:	68e3      	ldr	r3, [r4, #12]
 80022f6:	9903      	ldr	r1, [sp, #12]
 80022f8:	1a5b      	subs	r3, r3, r1
 80022fa:	42ab      	cmp	r3, r5
 80022fc:	dcf2      	bgt.n	80022e4 <_printf_i+0x214>
 80022fe:	e7eb      	b.n	80022d8 <_printf_i+0x208>
 8002300:	2500      	movs	r5, #0
 8002302:	f104 0619 	add.w	r6, r4, #25
 8002306:	e7f5      	b.n	80022f4 <_printf_i+0x224>
 8002308:	08002478 	.word	0x08002478
 800230c:	08002489 	.word	0x08002489

08002310 <memmove>:
 8002310:	4288      	cmp	r0, r1
 8002312:	b510      	push	{r4, lr}
 8002314:	eb01 0402 	add.w	r4, r1, r2
 8002318:	d902      	bls.n	8002320 <memmove+0x10>
 800231a:	4284      	cmp	r4, r0
 800231c:	4623      	mov	r3, r4
 800231e:	d807      	bhi.n	8002330 <memmove+0x20>
 8002320:	1e43      	subs	r3, r0, #1
 8002322:	42a1      	cmp	r1, r4
 8002324:	d008      	beq.n	8002338 <memmove+0x28>
 8002326:	f811 2b01 	ldrb.w	r2, [r1], #1
 800232a:	f803 2f01 	strb.w	r2, [r3, #1]!
 800232e:	e7f8      	b.n	8002322 <memmove+0x12>
 8002330:	4601      	mov	r1, r0
 8002332:	4402      	add	r2, r0
 8002334:	428a      	cmp	r2, r1
 8002336:	d100      	bne.n	800233a <memmove+0x2a>
 8002338:	bd10      	pop	{r4, pc}
 800233a:	f813 4d01 	ldrb.w	r4, [r3, #-1]!
 800233e:	f802 4d01 	strb.w	r4, [r2, #-1]!
 8002342:	e7f7      	b.n	8002334 <memmove+0x24>

08002344 <_sbrk_r>:
 8002344:	b538      	push	{r3, r4, r5, lr}
 8002346:	2300      	movs	r3, #0
 8002348:	4d05      	ldr	r5, [pc, #20]	@ (8002360 <_sbrk_r+0x1c>)
 800234a:	4604      	mov	r4, r0
 800234c:	4608      	mov	r0, r1
 800234e:	602b      	str	r3, [r5, #0]
 8002350:	f7fe f9be 	bl	80006d0 <_sbrk>
 8002354:	1c43      	adds	r3, r0, #1
 8002356:	d102      	bne.n	800235e <_sbrk_r+0x1a>
 8002358:	682b      	ldr	r3, [r5, #0]
 800235a:	b103      	cbz	r3, 800235e <_sbrk_r+0x1a>
 800235c:	6023      	str	r3, [r4, #0]
 800235e:	bd38      	pop	{r3, r4, r5, pc}
 8002360:	20000384 	.word	0x20000384

08002364 <memchr>:
 8002364:	4603      	mov	r3, r0
 8002366:	b510      	push	{r4, lr}
 8002368:	b2c9      	uxtb	r1, r1
 800236a:	4402      	add	r2, r0
 800236c:	4293      	cmp	r3, r2
 800236e:	4618      	mov	r0, r3
 8002370:	d101      	bne.n	8002376 <memchr+0x12>
 8002372:	2000      	movs	r0, #0
 8002374:	e003      	b.n	800237e <memchr+0x1a>
 8002376:	7804      	ldrb	r4, [r0, #0]
 8002378:	3301      	adds	r3, #1
 800237a:	428c      	cmp	r4, r1
 800237c:	d1f6      	bne.n	800236c <memchr+0x8>
 800237e:	bd10      	pop	{r4, pc}

08002380 <memcpy>:
 8002380:	440a      	add	r2, r1
 8002382:	4291      	cmp	r1, r2
 8002384:	f100 33ff 	add.w	r3, r0, #4294967295
 8002388:	d100      	bne.n	800238c <memcpy+0xc>
 800238a:	4770      	bx	lr
 800238c:	b510      	push	{r4, lr}
 800238e:	f811 4b01 	ldrb.w	r4, [r1], #1
 8002392:	4291      	cmp	r1, r2
 8002394:	f803 4f01 	strb.w	r4, [r3, #1]!
 8002398:	d1f9      	bne.n	800238e <memcpy+0xe>
 800239a:	bd10      	pop	{r4, pc}

0800239c <_realloc_r>:
 800239c:	e92d 41f0 	stmdb	sp!, {r4, r5, r6, r7, r8, lr}
 80023a0:	4680      	mov	r8, r0
 80023a2:	4615      	mov	r5, r2
 80023a4:	460c      	mov	r4, r1
 80023a6:	b921      	cbnz	r1, 80023b2 <_realloc_r+0x16>
 80023a8:	4611      	mov	r1, r2
 80023aa:	e8bd 41f0 	ldmia.w	sp!, {r4, r5, r6, r7, r8, lr}
 80023ae:	f7ff bc39 	b.w	8001c24 <_malloc_r>
 80023b2:	b92a      	cbnz	r2, 80023c0 <_realloc_r+0x24>
 80023b4:	f7ff fbcc 	bl	8001b50 <_free_r>
 80023b8:	2400      	movs	r4, #0
 80023ba:	4620      	mov	r0, r4
 80023bc:	e8bd 81f0 	ldmia.w	sp!, {r4, r5, r6, r7, r8, pc}
 80023c0:	f000 f81a 	bl	80023f8 <_malloc_usable_size_r>
 80023c4:	4285      	cmp	r5, r0
 80023c6:	4606      	mov	r6, r0
 80023c8:	d802      	bhi.n	80023d0 <_realloc_r+0x34>
 80023ca:	ebb5 0f50 	cmp.w	r5, r0, lsr #1
 80023ce:	d8f4      	bhi.n	80023ba <_realloc_r+0x1e>
 80023d0:	4629      	mov	r1, r5
 80023d2:	4640      	mov	r0, r8
 80023d4:	f7ff fc26 	bl	8001c24 <_malloc_r>
 80023d8:	4607      	mov	r7, r0
 80023da:	2800      	cmp	r0, #0
 80023dc:	d0ec      	beq.n	80023b8 <_realloc_r+0x1c>
 80023de:	42b5      	cmp	r5, r6
 80023e0:	462a      	mov	r2, r5
 80023e2:	4621      	mov	r1, r4
 80023e4:	bf28      	it	cs
 80023e6:	4632      	movcs	r2, r6
 80023e8:	f7ff ffca 	bl	8002380 <memcpy>
 80023ec:	4621      	mov	r1, r4
 80023ee:	4640      	mov	r0, r8
 80023f0:	f7ff fbae 	bl	8001b50 <_free_r>
 80023f4:	463c      	mov	r4, r7
 80023f6:	e7e0      	b.n	80023ba <_realloc_r+0x1e>

080023f8 <_malloc_usable_size_r>:
 80023f8:	f851 3c04 	ldr.w	r3, [r1, #-4]
 80023fc:	1f18      	subs	r0, r3, #4
 80023fe:	2b00      	cmp	r3, #0
 8002400:	bfbc      	itt	lt
 8002402:	580b      	ldrlt	r3, [r1, r0]
 8002404:	18c0      	addlt	r0, r0, r3
 8002406:	4770      	bx	lr

08002408 <_init>:
 8002408:	b5f8      	push	{r3, r4, r5, r6, r7, lr}
 800240a:	bf00      	nop
 800240c:	bcf8      	pop	{r3, r4, r5, r6, r7}
 800240e:	bc08      	pop	{r3}
 8002410:	469e      	mov	lr, r3
 8002412:	4770      	bx	lr

08002414 <_fini>:
 8002414:	b5f8      	push	{r3, r4, r5, r6, r7, lr}
 8002416:	bf00      	nop
 8002418:	bcf8      	pop	{r3, r4, r5, r6, r7}
 800241a:	bc08      	pop	{r3}
 800241c:	469e      	mov	lr, r3
 800241e:	4770      	bx	lr
