
F103C6_project.elf:     file format elf32-littlearm

Sections:
Idx Name          Size      VMA       LMA       File off  Algn
  0 .isr_vector   0000010c  08000000  08000000  00001000  2**0
                  CONTENTS, ALLOC, LOAD, READONLY, DATA
  1 .text         000013cc  0800010c  0800010c  0000110c  2**2
                  CONTENTS, ALLOC, LOAD, READONLY, CODE
  2 .rodata       0000003c  080014d8  080014d8  000024d8  2**0
                  CONTENTS, ALLOC, LOAD, READONLY, DATA
  3 .ARM.extab    00000000  08001514  08001514  0000300c  2**0
                  CONTENTS
  4 .ARM          00000000  08001514  08001514  0000300c  2**0
                  CONTENTS
  5 .preinit_array 00000000  08001514  08001514  0000300c  2**0
                  CONTENTS, ALLOC, LOAD, DATA
  6 .init_array   00000004  08001514  08001514  00002514  2**2
                  CONTENTS, ALLOC, LOAD, READONLY, DATA
  7 .fini_array   00000004  08001518  08001518  00002518  2**2
                  CONTENTS, ALLOC, LOAD, READONLY, DATA
  8 .data         0000000c  20000000  0800151c  00003000  2**2
                  CONTENTS, ALLOC, LOAD, DATA
  9 .bss          0000015c  2000000c  08001528  0000300c  2**2
                  ALLOC
 10 ._user_heap_stack 00000600  20000168  08001528  00003168  2**0
                  ALLOC
 11 .ARM.attributes 00000029  00000000  00000000  0000300c  2**0
                  CONTENTS, READONLY
 12 .comment      00000043  00000000  00000000  00003035  2**0
                  CONTENTS, READONLY
 13 .debug_frame  0000004c  00000000  00000000  00003078  2**2
                  CONTENTS, READONLY, DEBUGGING, OCTETS

Disassembly of section .text:

0800010c <__do_global_dtors_aux>:
 800010c:	b510      	push	{r4, lr}
 800010e:	4c05      	ldr	r4, [pc, #20]	@ (8000124 <__do_global_dtors_aux+0x18>)
 8000110:	7823      	ldrb	r3, [r4, #0]
 8000112:	b933      	cbnz	r3, 8000122 <__do_global_dtors_aux+0x16>
 8000114:	4b04      	ldr	r3, [pc, #16]	@ (8000128 <__do_global_dtors_aux+0x1c>)
 8000116:	b113      	cbz	r3, 800011e <__do_global_dtors_aux+0x12>
 8000118:	4804      	ldr	r0, [pc, #16]	@ (800012c <__do_global_dtors_aux+0x20>)
 800011a:	f3af 8000 	nop.w
 800011e:	2301      	movs	r3, #1
 8000120:	7023      	strb	r3, [r4, #0]
 8000122:	bd10      	pop	{r4, pc}
 8000124:	2000000c 	.word	0x2000000c
 8000128:	00000000 	.word	0x00000000
 800012c:	080014c0 	.word	0x080014c0

08000130 <frame_dummy>:
 8000130:	b508      	push	{r3, lr}
 8000132:	4b03      	ldr	r3, [pc, #12]	@ (8000140 <frame_dummy+0x10>)
 8000134:	b11b      	cbz	r3, 800013e <frame_dummy+0xe>
 8000136:	4903      	ldr	r1, [pc, #12]	@ (8000144 <frame_dummy+0x14>)
 8000138:	4803      	ldr	r0, [pc, #12]	@ (8000148 <frame_dummy+0x18>)
 800013a:	f3af 8000 	nop.w
 800013e:	bd08      	pop	{r3, pc}
 8000140:	00000000 	.word	0x00000000
 8000144:	20000010 	.word	0x20000010
 8000148:	080014c0 	.word	0x080014c0

0800014c <SystemClock_Config>:
 800014c:	b500      	push	{lr}
 800014e:	b091      	sub	sp, #68	@ 0x44
 8000150:	2224      	movs	r2, #36	@ 0x24
 8000152:	2100      	movs	r1, #0
 8000154:	a807      	add	r0, sp, #28
 8000156:	f001 f986 	bl	8001466 <memset>
 800015a:	2214      	movs	r2, #20
 800015c:	2100      	movs	r1, #0
 800015e:	a801      	add	r0, sp, #4
 8000160:	f001 f981 	bl	8001466 <memset>
 8000164:	2302      	movs	r3, #2
 8000166:	2101      	movs	r1, #1
 8000168:	9306      	str	r3, [sp, #24]
 800016a:	2310      	movs	r3, #16
 800016c:	a806      	add	r0, sp, #24
 800016e:	e9cd 130a 	strd	r1, r3, [sp, #40]	@ 0x28
 8000172:	f000 fc6d 	bl	8000a50 <HAL_RCC_OscConfig>
 8000176:	4601      	mov	r1, r0
 8000178:	b108      	cbz	r0, 800017e <SystemClock_Config+0x32>
 800017a:	b672      	cpsid	i
 800017c:	e7fe      	b.n	800017c <SystemClock_Config+0x30>
 800017e:	230f      	movs	r3, #15
 8000180:	e9cd 0003 	strd	r0, r0, [sp, #12]
 8000184:	e9cd 3001 	strd	r3, r0, [sp, #4]
 8000188:	9005      	str	r0, [sp, #20]
 800018a:	a801      	add	r0, sp, #4
 800018c:	f000 fe22 	bl	8000dd4 <HAL_RCC_ClockConfig>
 8000190:	b108      	cbz	r0, 8000196 <SystemClock_Config+0x4a>
 8000192:	b672      	cpsid	i
 8000194:	e7fe      	b.n	8000194 <SystemClock_Config+0x48>
 8000196:	b011      	add	sp, #68	@ 0x44
 8000198:	f85d fb04 	ldr.w	pc, [sp], #4

0800019c <main>:
 800019c:	b580      	push	{r7, lr}
 800019e:	b08c      	sub	sp, #48	@ 0x30
 80001a0:	aa07      	add	r2, sp, #28
 80001a2:	4690      	mov	r8, r2
 80001a4:	4b58      	ldr	r3, [pc, #352]	@ (8000308 <main+0x16c>)
 80001a6:	f103 0510 	add.w	r5, r3, #16
 80001aa:	4614      	mov	r4, r2
 80001ac:	6818      	ldr	r0, [r3, #0]
 80001ae:	6859      	ldr	r1, [r3, #4]
 80001b0:	3308      	adds	r3, #8
 80001b2:	c403      	stmia	r4!, {r0, r1}
 80001b4:	42ab      	cmp	r3, r5
 80001b6:	4622      	mov	r2, r4
 80001b8:	d1f7      	bne.n	80001aa <main+0xe>
 80001ba:	781b      	ldrb	r3, [r3, #0]
 80001bc:	2601      	movs	r6, #1
 80001be:	7023      	strb	r3, [r4, #0]
 80001c0:	f000 f9fe 	bl	80005c0 <HAL_Init>
 80001c4:	f7ff ffc2 	bl	800014c <SystemClock_Config>
 80001c8:	2210      	movs	r2, #16
 80001ca:	2100      	movs	r1, #0
 80001cc:	a803      	add	r0, sp, #12
 80001ce:	f001 f94a 	bl	8001466 <memset>
 80001d2:	4b4e      	ldr	r3, [pc, #312]	@ (800030c <main+0x170>)
 80001d4:	f44f 7180 	mov.w	r1, #256	@ 0x100
 80001d8:	699a      	ldr	r2, [r3, #24]
 80001da:	484d      	ldr	r0, [pc, #308]	@ (8000310 <main+0x174>)
 80001dc:	f042 0204 	orr.w	r2, r2, #4
 80001e0:	619a      	str	r2, [r3, #24]
 80001e2:	699a      	ldr	r2, [r3, #24]
 80001e4:	2400      	movs	r4, #0
 80001e6:	f002 0204 	and.w	r2, r2, #4
 80001ea:	9201      	str	r2, [sp, #4]
 80001ec:	9a01      	ldr	r2, [sp, #4]
 80001ee:	699a      	ldr	r2, [r3, #24]
 80001f0:	2502      	movs	r5, #2
 80001f2:	f042 0208 	orr.w	r2, r2, #8
 80001f6:	619a      	str	r2, [r3, #24]
 80001f8:	699b      	ldr	r3, [r3, #24]
 80001fa:	2200      	movs	r2, #0
 80001fc:	f003 0308 	and.w	r3, r3, #8
 8000200:	9302      	str	r3, [sp, #8]
 8000202:	9b02      	ldr	r3, [sp, #8]
 8000204:	f000 fb76 	bl	80008f4 <HAL_GPIO_WritePin>
 8000208:	2200      	movs	r2, #0
 800020a:	2120      	movs	r1, #32
 800020c:	4841      	ldr	r0, [pc, #260]	@ (8000314 <main+0x178>)
 800020e:	f000 fb71 	bl	80008f4 <HAL_GPIO_WritePin>
 8000212:	f44f 7380 	mov.w	r3, #256	@ 0x100
 8000216:	483e      	ldr	r0, [pc, #248]	@ (8000310 <main+0x174>)
 8000218:	a903      	add	r1, sp, #12
 800021a:	e9cd 3603 	strd	r3, r6, [sp, #12]
 800021e:	e9cd 4505 	strd	r4, r5, [sp, #20]
 8000222:	f000 fa95 	bl	8000750 <HAL_GPIO_Init>
 8000226:	2320      	movs	r3, #32
 8000228:	f44f 37e1 	mov.w	r7, #115200	@ 0x1c200
 800022c:	e9cd 3603 	strd	r3, r6, [sp, #12]
 8000230:	260c      	movs	r6, #12
 8000232:	e9cd 4505 	strd	r4, r5, [sp, #20]
 8000236:	4837      	ldr	r0, [pc, #220]	@ (8000314 <main+0x178>)
 8000238:	4d37      	ldr	r5, [pc, #220]	@ (8000318 <main+0x17c>)
 800023a:	a903      	add	r1, sp, #12
 800023c:	f000 fa88 	bl	8000750 <HAL_GPIO_Init>
 8000240:	4b36      	ldr	r3, [pc, #216]	@ (800031c <main+0x180>)
 8000242:	4628      	mov	r0, r5
 8000244:	e9c5 3700 	strd	r3, r7, [r5]
 8000248:	e9c5 4402 	strd	r4, r4, [r5, #8]
 800024c:	e9c5 6405 	strd	r6, r4, [r5, #20]
 8000250:	612c      	str	r4, [r5, #16]
 8000252:	61ec      	str	r4, [r5, #28]
 8000254:	f000 ff70 	bl	8001138 <HAL_UART_Init>
 8000258:	4603      	mov	r3, r0
 800025a:	b108      	cbz	r0, 8000260 <main+0xc4>
 800025c:	b672      	cpsid	i
 800025e:	e7fe      	b.n	800025e <main+0xc2>
 8000260:	482f      	ldr	r0, [pc, #188]	@ (8000320 <main+0x184>)
 8000262:	4a30      	ldr	r2, [pc, #192]	@ (8000324 <main+0x188>)
 8000264:	4c30      	ldr	r4, [pc, #192]	@ (8000328 <main+0x18c>)
 8000266:	e9c0 3302 	strd	r3, r3, [r0, #8]
 800026a:	e9c0 4200 	strd	r4, r2, [r0]
 800026e:	f44f 4280 	mov.w	r2, #16384	@ 0x4000
 8000272:	e9c0 3306 	strd	r3, r3, [r0, #24]
 8000276:	e9c0 2304 	strd	r2, r3, [r0, #16]
 800027a:	6203      	str	r3, [r0, #32]
 800027c:	f000 fb40 	bl	8000900 <HAL_I2C_Init>
 8000280:	4603      	mov	r3, r0
 8000282:	b108      	cbz	r0, 8000288 <main+0xec>
 8000284:	b672      	cpsid	i
 8000286:	e7fe      	b.n	8000286 <main+0xea>
 8000288:	f44f 7282 	mov.w	r2, #260	@ 0x104
 800028c:	4827      	ldr	r0, [pc, #156]	@ (800032c <main+0x190>)
 800028e:	4928      	ldr	r1, [pc, #160]	@ (8000330 <main+0x194>)
 8000290:	e9c0 3302 	strd	r3, r3, [r0, #8]
 8000294:	e9c0 1200 	strd	r1, r2, [r0]
 8000298:	f44f 7200 	mov.w	r2, #512	@ 0x200
 800029c:	e9c0 3304 	strd	r3, r3, [r0, #16]
 80002a0:	e9c0 2306 	strd	r2, r3, [r0, #24]
 80002a4:	e9c0 3308 	strd	r3, r3, [r0, #32]
 80002a8:	6283      	str	r3, [r0, #40]	@ 0x28
 80002aa:	230a      	movs	r3, #10
 80002ac:	62c3      	str	r3, [r0, #44]	@ 0x2c
 80002ae:	f000 fe4d 	bl	8000f4c <HAL_SPI_Init>
 80002b2:	b108      	cbz	r0, 80002b8 <main+0x11c>
 80002b4:	b672      	cpsid	i
 80002b6:	e7fe      	b.n	80002b6 <main+0x11a>
 80002b8:	4c1e      	ldr	r4, [pc, #120]	@ (8000334 <main+0x198>)
 80002ba:	4b1f      	ldr	r3, [pc, #124]	@ (8000338 <main+0x19c>)
 80002bc:	e9c4 0002 	strd	r0, r0, [r4, #8]
 80002c0:	e9c4 0604 	strd	r0, r6, [r4, #16]
 80002c4:	e9c4 0006 	strd	r0, r0, [r4, #24]
 80002c8:	4620      	mov	r0, r4
 80002ca:	e9c4 3700 	strd	r3, r7, [r4]
 80002ce:	f000 ff62 	bl	8001196 <HAL_HalfDuplex_Init>
 80002d2:	b108      	cbz	r0, 80002d8 <main+0x13c>
 80002d4:	b672      	cpsid	i
 80002d6:	e7fe      	b.n	80002d6 <main+0x13a>
 80002d8:	f44f 737a 	mov.w	r3, #1000	@ 0x3e8
 80002dc:	2210      	movs	r2, #16
 80002de:	4641      	mov	r1, r8
 80002e0:	4628      	mov	r0, r5
 80002e2:	f000 ff8b 	bl	80011fc <HAL_UART_Transmit>
 80002e6:	a903      	add	r1, sp, #12
 80002e8:	220a      	movs	r2, #10
 80002ea:	4620      	mov	r0, r4
 80002ec:	f001 f8aa 	bl	8001444 <HAL_UART_Receive_DMA>
 80002f0:	f44f 737a 	mov.w	r3, #1000	@ 0x3e8
 80002f4:	220a      	movs	r2, #10
 80002f6:	a903      	add	r1, sp, #12
 80002f8:	4807      	ldr	r0, [pc, #28]	@ (8000318 <main+0x17c>)
 80002fa:	f000 ff7f 	bl	80011fc <HAL_UART_Transmit>
 80002fe:	f44f 707a 	mov.w	r0, #1000	@ 0x3e8
 8000302:	f000 f981 	bl	8000608 <HAL_Delay>
 8000306:	e7ee      	b.n	80002e6 <main+0x14a>
 8000308:	080014d8 	.word	0x080014d8
 800030c:	40021000 	.word	0x40021000
 8000310:	40010800 	.word	0x40010800
 8000314:	40010c00 	.word	0x40010c00
 8000318:	20000070 	.word	0x20000070
 800031c:	40013800 	.word	0x40013800
 8000320:	20000110 	.word	0x20000110
 8000324:	000186a0 	.word	0x000186a0
 8000328:	40005400 	.word	0x40005400
 800032c:	200000b8 	.word	0x200000b8
 8000330:	40013000 	.word	0x40013000
 8000334:	20000028 	.word	0x20000028
 8000338:	40004400 	.word	0x40004400

0800033c <HAL_MspInit>:
 800033c:	4b0e      	ldr	r3, [pc, #56]	@ (8000378 <HAL_MspInit+0x3c>)
 800033e:	b082      	sub	sp, #8
 8000340:	699a      	ldr	r2, [r3, #24]
 8000342:	f042 0201 	orr.w	r2, r2, #1
 8000346:	619a      	str	r2, [r3, #24]
 8000348:	699a      	ldr	r2, [r3, #24]
 800034a:	f002 0201 	and.w	r2, r2, #1
 800034e:	9200      	str	r2, [sp, #0]
 8000350:	9a00      	ldr	r2, [sp, #0]
 8000352:	69da      	ldr	r2, [r3, #28]
 8000354:	f042 5280 	orr.w	r2, r2, #268435456	@ 0x10000000
 8000358:	61da      	str	r2, [r3, #28]
 800035a:	69db      	ldr	r3, [r3, #28]
 800035c:	4a07      	ldr	r2, [pc, #28]	@ (800037c <HAL_MspInit+0x40>)
 800035e:	f003 5380 	and.w	r3, r3, #268435456	@ 0x10000000
 8000362:	9301      	str	r3, [sp, #4]
 8000364:	9b01      	ldr	r3, [sp, #4]
 8000366:	6853      	ldr	r3, [r2, #4]
 8000368:	f023 63e0 	bic.w	r3, r3, #117440512	@ 0x7000000
 800036c:	f043 7300 	orr.w	r3, r3, #33554432	@ 0x2000000
 8000370:	6053      	str	r3, [r2, #4]
 8000372:	b002      	add	sp, #8
 8000374:	4770      	bx	lr
 8000376:	bf00      	nop
 8000378:	40021000 	.word	0x40021000
 800037c:	40010000 	.word	0x40010000

08000380 <HAL_I2C_MspInit>:
 8000380:	b510      	push	{r4, lr}
 8000382:	4604      	mov	r4, r0
 8000384:	b086      	sub	sp, #24
 8000386:	2210      	movs	r2, #16
 8000388:	2100      	movs	r1, #0
 800038a:	a802      	add	r0, sp, #8
 800038c:	f001 f86b 	bl	8001466 <memset>
 8000390:	6822      	ldr	r2, [r4, #0]
 8000392:	4b11      	ldr	r3, [pc, #68]	@ (80003d8 <HAL_I2C_MspInit+0x58>)
 8000394:	429a      	cmp	r2, r3
 8000396:	d11c      	bne.n	80003d2 <HAL_I2C_MspInit+0x52>
 8000398:	4c10      	ldr	r4, [pc, #64]	@ (80003dc <HAL_I2C_MspInit+0x5c>)
 800039a:	22c0      	movs	r2, #192	@ 0xc0
 800039c:	69a3      	ldr	r3, [r4, #24]
 800039e:	4810      	ldr	r0, [pc, #64]	@ (80003e0 <HAL_I2C_MspInit+0x60>)
 80003a0:	f043 0308 	orr.w	r3, r3, #8
 80003a4:	61a3      	str	r3, [r4, #24]
 80003a6:	69a3      	ldr	r3, [r4, #24]
 80003a8:	a902      	add	r1, sp, #8
 80003aa:	f003 0308 	and.w	r3, r3, #8
 80003ae:	9300      	str	r3, [sp, #0]
 80003b0:	9b00      	ldr	r3, [sp, #0]
 80003b2:	2312      	movs	r3, #18
 80003b4:	e9cd 2302 	strd	r2, r3, [sp, #8]
 80003b8:	2303      	movs	r3, #3
 80003ba:	9305      	str	r3, [sp, #20]
 80003bc:	f000 f9c8 	bl	8000750 <HAL_GPIO_Init>
 80003c0:	69e3      	ldr	r3, [r4, #28]
 80003c2:	f443 1300 	orr.w	r3, r3, #2097152	@ 0x200000
 80003c6:	61e3      	str	r3, [r4, #28]
 80003c8:	69e3      	ldr	r3, [r4, #28]
 80003ca:	f403 1300 	and.w	r3, r3, #2097152	@ 0x200000
 80003ce:	9301      	str	r3, [sp, #4]
 80003d0:	9b01      	ldr	r3, [sp, #4]
 80003d2:	b006      	add	sp, #24
 80003d4:	bd10      	pop	{r4, pc}
 80003d6:	bf00      	nop
 80003d8:	40005400 	.word	0x40005400
 80003dc:	40021000 	.word	0x40021000
 80003e0:	40010c00 	.word	0x40010c00

080003e4 <HAL_SPI_MspInit>:
 80003e4:	b510      	push	{r4, lr}
 80003e6:	4604      	mov	r4, r0
 80003e8:	b086      	sub	sp, #24
 80003ea:	2210      	movs	r2, #16
 80003ec:	2100      	movs	r1, #0
 80003ee:	a802      	add	r0, sp, #8
 80003f0:	f001 f839 	bl	8001466 <memset>
 80003f4:	6822      	ldr	r2, [r4, #0]
 80003f6:	4b16      	ldr	r3, [pc, #88]	@ (8000450 <HAL_SPI_MspInit+0x6c>)
 80003f8:	429a      	cmp	r2, r3
 80003fa:	d126      	bne.n	800044a <HAL_SPI_MspInit+0x66>
 80003fc:	f503 4360 	add.w	r3, r3, #57344	@ 0xe000
 8000400:	699a      	ldr	r2, [r3, #24]
 8000402:	4814      	ldr	r0, [pc, #80]	@ (8000454 <HAL_SPI_MspInit+0x70>)
 8000404:	f442 5280 	orr.w	r2, r2, #4096	@ 0x1000
 8000408:	619a      	str	r2, [r3, #24]
 800040a:	699a      	ldr	r2, [r3, #24]
 800040c:	a902      	add	r1, sp, #8
 800040e:	f402 5280 	and.w	r2, r2, #4096	@ 0x1000
 8000412:	9200      	str	r2, [sp, #0]
 8000414:	9a00      	ldr	r2, [sp, #0]
 8000416:	699a      	ldr	r2, [r3, #24]
 8000418:	f042 0204 	orr.w	r2, r2, #4
 800041c:	619a      	str	r2, [r3, #24]
 800041e:	699b      	ldr	r3, [r3, #24]
 8000420:	22a0      	movs	r2, #160	@ 0xa0
 8000422:	f003 0304 	and.w	r3, r3, #4
 8000426:	9301      	str	r3, [sp, #4]
 8000428:	9b01      	ldr	r3, [sp, #4]
 800042a:	2302      	movs	r3, #2
 800042c:	e9cd 2302 	strd	r2, r3, [sp, #8]
 8000430:	2303      	movs	r3, #3
 8000432:	9305      	str	r3, [sp, #20]
 8000434:	f000 f98c 	bl	8000750 <HAL_GPIO_Init>
 8000438:	2140      	movs	r1, #64	@ 0x40
 800043a:	2300      	movs	r3, #0
 800043c:	4805      	ldr	r0, [pc, #20]	@ (8000454 <HAL_SPI_MspInit+0x70>)
 800043e:	e9cd 1302 	strd	r1, r3, [sp, #8]
 8000442:	a902      	add	r1, sp, #8
 8000444:	9304      	str	r3, [sp, #16]
 8000446:	f000 f983 	bl	8000750 <HAL_GPIO_Init>
 800044a:	b006      	add	sp, #24
 800044c:	bd10      	pop	{r4, pc}
 800044e:	bf00      	nop
 8000450:	40013000 	.word	0x40013000
 8000454:	40010800 	.word	0x40010800

08000458 <HAL_UART_MspInit>:
 8000458:	2210      	movs	r2, #16
 800045a:	b510      	push	{r4, lr}
 800045c:	4604      	mov	r4, r0
 800045e:	b088      	sub	sp, #32
 8000460:	eb0d 0002 	add.w	r0, sp, r2
 8000464:	2100      	movs	r1, #0
 8000466:	f000 fffe 	bl	8001466 <memset>
 800046a:	6823      	ldr	r3, [r4, #0]
 800046c:	4a25      	ldr	r2, [pc, #148]	@ (8000504 <HAL_UART_MspInit+0xac>)
 800046e:	4293      	cmp	r3, r2
 8000470:	d129      	bne.n	80004c6 <HAL_UART_MspInit+0x6e>
 8000472:	4b25      	ldr	r3, [pc, #148]	@ (8000508 <HAL_UART_MspInit+0xb0>)
 8000474:	f44f 7000 	mov.w	r0, #512	@ 0x200
 8000478:	699a      	ldr	r2, [r3, #24]
 800047a:	a904      	add	r1, sp, #16
 800047c:	f442 4280 	orr.w	r2, r2, #16384	@ 0x4000
 8000480:	619a      	str	r2, [r3, #24]
 8000482:	699a      	ldr	r2, [r3, #24]
 8000484:	f44f 6480 	mov.w	r4, #1024	@ 0x400
 8000488:	f402 4280 	and.w	r2, r2, #16384	@ 0x4000
 800048c:	9200      	str	r2, [sp, #0]
 800048e:	9a00      	ldr	r2, [sp, #0]
 8000490:	699a      	ldr	r2, [r3, #24]
 8000492:	f042 0204 	orr.w	r2, r2, #4
 8000496:	619a      	str	r2, [r3, #24]
 8000498:	699b      	ldr	r3, [r3, #24]
 800049a:	f003 0304 	and.w	r3, r3, #4
 800049e:	9301      	str	r3, [sp, #4]
 80004a0:	9b01      	ldr	r3, [sp, #4]
 80004a2:	2302      	movs	r3, #2
 80004a4:	e9cd 0304 	strd	r0, r3, [sp, #16]
 80004a8:	2303      	movs	r3, #3
 80004aa:	4818      	ldr	r0, [pc, #96]	@ (800050c <HAL_UART_MspInit+0xb4>)
 80004ac:	9307      	str	r3, [sp, #28]
 80004ae:	f000 f94f 	bl	8000750 <HAL_GPIO_Init>
 80004b2:	2300      	movs	r3, #0
 80004b4:	e9cd 4304 	strd	r4, r3, [sp, #16]
 80004b8:	9306      	str	r3, [sp, #24]
 80004ba:	4814      	ldr	r0, [pc, #80]	@ (800050c <HAL_UART_MspInit+0xb4>)
 80004bc:	a904      	add	r1, sp, #16
 80004be:	f000 f947 	bl	8000750 <HAL_GPIO_Init>
 80004c2:	b008      	add	sp, #32
 80004c4:	bd10      	pop	{r4, pc}
 80004c6:	4a12      	ldr	r2, [pc, #72]	@ (8000510 <HAL_UART_MspInit+0xb8>)
 80004c8:	4293      	cmp	r3, r2
 80004ca:	d1fa      	bne.n	80004c2 <HAL_UART_MspInit+0x6a>
 80004cc:	4b0e      	ldr	r3, [pc, #56]	@ (8000508 <HAL_UART_MspInit+0xb0>)
 80004ce:	2101      	movs	r1, #1
 80004d0:	69da      	ldr	r2, [r3, #28]
 80004d2:	f442 3200 	orr.w	r2, r2, #131072	@ 0x20000
 80004d6:	61da      	str	r2, [r3, #28]
 80004d8:	69da      	ldr	r2, [r3, #28]
 80004da:	f402 3200 	and.w	r2, r2, #131072	@ 0x20000
 80004de:	9202      	str	r2, [sp, #8]
 80004e0:	9a02      	ldr	r2, [sp, #8]
 80004e2:	699a      	ldr	r2, [r3, #24]
 80004e4:	f042 0204 	orr.w	r2, r2, #4
 80004e8:	619a      	str	r2, [r3, #24]
 80004ea:	699b      	ldr	r3, [r3, #24]
 80004ec:	2204      	movs	r2, #4
 80004ee:	f003 0304 	and.w	r3, r3, #4
 80004f2:	9303      	str	r3, [sp, #12]
 80004f4:	9b03      	ldr	r3, [sp, #12]
 80004f6:	2312      	movs	r3, #18
 80004f8:	e9cd 2304 	strd	r2, r3, [sp, #16]
 80004fc:	2303      	movs	r3, #3
 80004fe:	e9cd 1306 	strd	r1, r3, [sp, #24]
 8000502:	e7da      	b.n	80004ba <HAL_UART_MspInit+0x62>
 8000504:	40013800 	.word	0x40013800
 8000508:	40021000 	.word	0x40021000
 800050c:	40010800 	.word	0x40010800
 8000510:	40004400 	.word	0x40004400

08000514 <NMI_Handler>:
 8000514:	e7fe      	b.n	8000514 <NMI_Handler>

08000516 <HardFault_Handler>:
 8000516:	e7fe      	b.n	8000516 <HardFault_Handler>

08000518 <MemManage_Handler>:
 8000518:	e7fe      	b.n	8000518 <MemManage_Handler>

0800051a <BusFault_Handler>:
 800051a:	e7fe      	b.n	800051a <BusFault_Handler>

0800051c <UsageFault_Handler>:
 800051c:	e7fe      	b.n	800051c <UsageFault_Handler>

0800051e <SVC_Handler>:
 800051e:	4770      	bx	lr

08000520 <DebugMon_Handler>:
 8000520:	4770      	bx	lr

08000522 <PendSV_Handler>:
 8000522:	4770      	bx	lr

08000524 <SysTick_Handler>:
 8000524:	f000 b85e 	b.w	80005e4 <HAL_IncTick>

08000528 <SystemInit>:
 8000528:	4770      	bx	lr
	...

0800052c <Reset_Handler>:
 800052c:	f7ff fffc 	bl	8000528 <SystemInit>
 8000530:	480b      	ldr	r0, [pc, #44]	@ (8000560 <LoopFillZerobss+0xe>)
 8000532:	490c      	ldr	r1, [pc, #48]	@ (8000564 <LoopFillZerobss+0x12>)
 8000534:	4a0c      	ldr	r2, [pc, #48]	@ (8000568 <LoopFillZerobss+0x16>)
 8000536:	2300      	movs	r3, #0
 8000538:	e002      	b.n	8000540 <LoopCopyDataInit>

0800053a <CopyDataInit>:
 800053a:	58d4      	ldr	r4, [r2, r3]
 800053c:	50c4      	str	r4, [r0, r3]
 800053e:	3304      	adds	r3, #4

08000540 <LoopCopyDataInit>:
 8000540:	18c4      	adds	r4, r0, r3
 8000542:	428c      	cmp	r4, r1
 8000544:	d3f9      	bcc.n	800053a <CopyDataInit>
 8000546:	4a09      	ldr	r2, [pc, #36]	@ (800056c <LoopFillZerobss+0x1a>)
 8000548:	4c09      	ldr	r4, [pc, #36]	@ (8000570 <LoopFillZerobss+0x1e>)
 800054a:	2300      	movs	r3, #0
 800054c:	e001      	b.n	8000552 <LoopFillZerobss>

0800054e <FillZerobss>:
 800054e:	6013      	str	r3, [r2, #0]
 8000550:	3204      	adds	r2, #4

08000552 <LoopFillZerobss>:
 8000552:	42a2      	cmp	r2, r4
 8000554:	d3fb      	bcc.n	800054e <FillZerobss>
 8000556:	f000 ff8f 	bl	8001478 <__libc_init_array>
 800055a:	f7ff fe1f 	bl	800019c <main>
 800055e:	4770      	bx	lr
 8000560:	20000000 	.word	0x20000000
 8000564:	2000000c 	.word	0x2000000c
 8000568:	0800151c 	.word	0x0800151c
 800056c:	2000000c 	.word	0x2000000c
 8000570:	20000168 	.word	0x20000168

08000574 <ADC1_2_IRQHandler>:
 8000574:	e7fe      	b.n	8000574 <ADC1_2_IRQHandler>
	...

08000578 <HAL_InitTick>:
 8000578:	b538      	push	{r3, r4, r5, lr}
 800057a:	4b0e      	ldr	r3, [pc, #56]	@ (80005b4 <HAL_InitTick+0x3c>)
 800057c:	4605      	mov	r5, r0
 800057e:	781a      	ldrb	r2, [r3, #0]
 8000580:	f44f 737a 	mov.w	r3, #1000	@ 0x3e8
 8000584:	fbb3 f3f2 	udiv	r3, r3, r2
 8000588:	4a0b      	ldr	r2, [pc, #44]	@ (80005b8 <HAL_InitTick+0x40>)
 800058a:	6810      	ldr	r0, [r2, #0]
 800058c:	fbb0 f0f3 	udiv	r0, r0, r3
 8000590:	f000 f88e 	bl	80006b0 <HAL_SYSTICK_Config>
 8000594:	4604      	mov	r4, r0
 8000596:	b958      	cbnz	r0, 80005b0 <HAL_InitTick+0x38>
 8000598:	2d0f      	cmp	r5, #15
 800059a:	d809      	bhi.n	80005b0 <HAL_InitTick+0x38>
 800059c:	4602      	mov	r2, r0
 800059e:	4629      	mov	r1, r5
 80005a0:	f04f 30ff 	mov.w	r0, #4294967295
 80005a4:	f000 f854 	bl	8000650 <HAL_NVIC_SetPriority>
 80005a8:	4620      	mov	r0, r4
 80005aa:	4b04      	ldr	r3, [pc, #16]	@ (80005bc <HAL_InitTick+0x44>)
 80005ac:	601d      	str	r5, [r3, #0]
 80005ae:	bd38      	pop	{r3, r4, r5, pc}
 80005b0:	2001      	movs	r0, #1
 80005b2:	e7fc      	b.n	80005ae <HAL_InitTick+0x36>
 80005b4:	20000004 	.word	0x20000004
 80005b8:	20000000 	.word	0x20000000
 80005bc:	20000008 	.word	0x20000008

080005c0 <HAL_Init>:
 80005c0:	4a07      	ldr	r2, [pc, #28]	@ (80005e0 <HAL_Init+0x20>)
 80005c2:	b508      	push	{r3, lr}
 80005c4:	6813      	ldr	r3, [r2, #0]
 80005c6:	2003      	movs	r0, #3
 80005c8:	f043 0310 	orr.w	r3, r3, #16
 80005cc:	6013      	str	r3, [r2, #0]
 80005ce:	f000 f82d 	bl	800062c <HAL_NVIC_SetPriorityGrouping>
 80005d2:	200f      	movs	r0, #15
 80005d4:	f7ff ffd0 	bl	8000578 <HAL_InitTick>
 80005d8:	f7ff feb0 	bl	800033c <HAL_MspInit>
 80005dc:	2000      	movs	r0, #0
 80005de:	bd08      	pop	{r3, pc}
 80005e0:	40022000 	.word	0x40022000

080005e4 <HAL_IncTick>:
 80005e4:	4a03      	ldr	r2, [pc, #12]	@ (80005f4 <HAL_IncTick+0x10>)
 80005e6:	4b04      	ldr	r3, [pc, #16]	@ (80005f8 <HAL_IncTick+0x14>)
 80005e8:	6811      	ldr	r1, [r2, #0]
 80005ea:	781b      	ldrb	r3, [r3, #0]
 80005ec:	440b      	add	r3, r1
 80005ee:	6013      	str	r3, [r2, #0]
 80005f0:	4770      	bx	lr
 80005f2:	bf00      	nop
 80005f4:	20000164 	.word	0x20000164
 80005f8:	20000004 	.word	0x20000004

080005fc <HAL_GetTick>:
 80005fc:	4b01      	ldr	r3, [pc, #4]	@ (8000604 <HAL_GetTick+0x8>)
 80005fe:	6818      	ldr	r0, [r3, #0]
 8000600:	4770      	bx	lr
 8000602:	bf00      	nop
 8000604:	20000164 	.word	0x20000164

08000608 <HAL_Delay>:
 8000608:	b538      	push	{r3, r4, r5, lr}
 800060a:	4604      	mov	r4, r0
 800060c:	f7ff fff6 	bl	80005fc <HAL_GetTick>
 8000610:	4605      	mov	r5, r0
 8000612:	1c63      	adds	r3, r4, #1
 8000614:	bf1e      	ittt	ne
 8000616:	4b04      	ldrne	r3, [pc, #16]	@ (8000628 <HAL_Delay+0x20>)
 8000618:	781b      	ldrbne	r3, [r3, #0]
 800061a:	18e4      	addne	r4, r4, r3
 800061c:	f7ff ffee 	bl	80005fc <HAL_GetTick>
 8000620:	1b43      	subs	r3, r0, r5
 8000622:	42a3      	cmp	r3, r4
 8000624:	d3fa      	bcc.n	800061c <HAL_Delay+0x14>
 8000626:	bd38      	pop	{r3, r4, r5, pc}
 8000628:	20000004 	.word	0x20000004

0800062c <HAL_NVIC_SetPriorityGrouping>:
 800062c:	4907      	ldr	r1, [pc, #28]	@ (800064c <HAL_NVIC_SetPriorityGrouping+0x20>)
 800062e:	0203      	lsls	r3, r0, #8
 8000630:	68ca      	ldr	r2, [r1, #12]
 8000632:	f403 63e0 	and.w	r3, r3, #1792	@ 0x700
 8000636:	f422 62e0 	bic.w	r2, r2, #1792	@ 0x700
 800063a:	0412      	lsls	r2, r2, #16
 800063c:	0c12      	lsrs	r2, r2, #16
 800063e:	4313      	orrs	r3, r2
 8000640:	f043 63bf 	orr.w	r3, r3, #100139008	@ 0x5f80000
 8000644:	f443 3300 	orr.w	r3, r3, #131072	@ 0x20000
 8000648:	60cb      	str	r3, [r1, #12]
 800064a:	4770      	bx	lr
 800064c:	e000ed00 	.word	0xe000ed00

08000650 <HAL_NVIC_SetPriority>:
 8000650:	4b15      	ldr	r3, [pc, #84]	@ (80006a8 <HAL_NVIC_SetPriority+0x58>)
 8000652:	b530      	push	{r4, r5, lr}
 8000654:	68dc      	ldr	r4, [r3, #12]
 8000656:	f3c4 2402 	ubfx	r4, r4, #8, #3
 800065a:	f1c4 0307 	rsb	r3, r4, #7
 800065e:	1d25      	adds	r5, r4, #4
 8000660:	2b04      	cmp	r3, #4
 8000662:	bf28      	it	cs
 8000664:	2304      	movcs	r3, #4
 8000666:	2d06      	cmp	r5, #6
 8000668:	f04f 35ff 	mov.w	r5, #4294967295
 800066c:	bf94      	ite	ls
 800066e:	2400      	movls	r4, #0
 8000670:	3c03      	subhi	r4, #3
 8000672:	fa05 f303 	lsl.w	r3, r5, r3
 8000676:	ea21 0303 	bic.w	r3, r1, r3
 800067a:	40a5      	lsls	r5, r4
 800067c:	ea22 0205 	bic.w	r2, r2, r5
 8000680:	40a3      	lsls	r3, r4
 8000682:	2800      	cmp	r0, #0
 8000684:	ea43 0302 	orr.w	r3, r3, r2
 8000688:	bfac      	ite	ge
 800068a:	f100 4060 	addge.w	r0, r0, #3758096384	@ 0xe0000000
 800068e:	4a07      	ldrlt	r2, [pc, #28]	@ (80006ac <HAL_NVIC_SetPriority+0x5c>)
 8000690:	ea4f 1303 	mov.w	r3, r3, lsl #4
 8000694:	b2db      	uxtb	r3, r3
 8000696:	bfab      	itete	ge
 8000698:	f500 4061 	addge.w	r0, r0, #57600	@ 0xe100
 800069c:	f000 000f 	andlt.w	r0, r0, #15
 80006a0:	f880 3300 	strbge.w	r3, [r0, #768]	@ 0x300
 80006a4:	5413      	strblt	r3, [r2, r0]
 80006a6:	bd30      	pop	{r4, r5, pc}
 80006a8:	e000ed00 	.word	0xe000ed00
 80006ac:	e000ed14 	.word	0xe000ed14

080006b0 <HAL_SYSTICK_Config>:
 80006b0:	3801      	subs	r0, #1
 80006b2:	f1b0 7f80 	cmp.w	r0, #16777216	@ 0x1000000
 80006b6:	d20b      	bcs.n	80006d0 <HAL_SYSTICK_Config+0x20>
 80006b8:	f04f 23e0 	mov.w	r3, #3758153728	@ 0xe000e000
 80006bc:	21f0      	movs	r1, #240	@ 0xf0
 80006be:	4a05      	ldr	r2, [pc, #20]	@ (80006d4 <HAL_SYSTICK_Config+0x24>)
 80006c0:	6158      	str	r0, [r3, #20]
 80006c2:	f882 1023 	strb.w	r1, [r2, #35]	@ 0x23
 80006c6:	2000      	movs	r0, #0
 80006c8:	2207      	movs	r2, #7
 80006ca:	6198      	str	r0, [r3, #24]
 80006cc:	611a      	str	r2, [r3, #16]
 80006ce:	4770      	bx	lr
 80006d0:	2001      	movs	r0, #1
 80006d2:	4770      	bx	lr
 80006d4:	e000ed00 	.word	0xe000ed00

080006d8 <HAL_DMA_Start_IT>:
 80006d8:	b5f0      	push	{r4, r5, r6, r7, lr}
 80006da:	f890 4020 	ldrb.w	r4, [r0, #32]
 80006de:	2c01      	cmp	r4, #1
 80006e0:	d034      	beq.n	800074c <HAL_DMA_Start_IT+0x74>
 80006e2:	2401      	movs	r4, #1
 80006e4:	f880 4020 	strb.w	r4, [r0, #32]
 80006e8:	f890 4021 	ldrb.w	r4, [r0, #33]	@ 0x21
 80006ec:	2c01      	cmp	r4, #1
 80006ee:	b2e5      	uxtb	r5, r4
 80006f0:	f04f 0400 	mov.w	r4, #0
 80006f4:	d128      	bne.n	8000748 <HAL_DMA_Start_IT+0x70>
 80006f6:	2602      	movs	r6, #2
 80006f8:	f880 6021 	strb.w	r6, [r0, #33]	@ 0x21
 80006fc:	6384      	str	r4, [r0, #56]	@ 0x38
 80006fe:	6804      	ldr	r4, [r0, #0]
 8000700:	6826      	ldr	r6, [r4, #0]
 8000702:	f026 0601 	bic.w	r6, r6, #1
 8000706:	6026      	str	r6, [r4, #0]
 8000708:	e9d0 670f 	ldrd	r6, r7, [r0, #60]	@ 0x3c
 800070c:	40bd      	lsls	r5, r7
 800070e:	6075      	str	r5, [r6, #4]
 8000710:	6063      	str	r3, [r4, #4]
 8000712:	6843      	ldr	r3, [r0, #4]
 8000714:	2b10      	cmp	r3, #16
 8000716:	6ac3      	ldr	r3, [r0, #44]	@ 0x2c
 8000718:	bf0b      	itete	eq
 800071a:	60a2      	streq	r2, [r4, #8]
 800071c:	60a1      	strne	r1, [r4, #8]
 800071e:	60e1      	streq	r1, [r4, #12]
 8000720:	60e2      	strne	r2, [r4, #12]
 8000722:	b14b      	cbz	r3, 8000738 <HAL_DMA_Start_IT+0x60>
 8000724:	6823      	ldr	r3, [r4, #0]
 8000726:	f043 030e 	orr.w	r3, r3, #14
 800072a:	2000      	movs	r0, #0
 800072c:	6023      	str	r3, [r4, #0]
 800072e:	6823      	ldr	r3, [r4, #0]
 8000730:	f043 0301 	orr.w	r3, r3, #1
 8000734:	6023      	str	r3, [r4, #0]
 8000736:	bdf0      	pop	{r4, r5, r6, r7, pc}
 8000738:	6823      	ldr	r3, [r4, #0]
 800073a:	f023 0304 	bic.w	r3, r3, #4
 800073e:	6023      	str	r3, [r4, #0]
 8000740:	6823      	ldr	r3, [r4, #0]
 8000742:	f043 030a 	orr.w	r3, r3, #10
 8000746:	e7f0      	b.n	800072a <HAL_DMA_Start_IT+0x52>
 8000748:	f880 4020 	strb.w	r4, [r0, #32]
 800074c:	2002      	movs	r0, #2
 800074e:	e7f2      	b.n	8000736 <HAL_DMA_Start_IT+0x5e>

08000750 <HAL_GPIO_Init>:
 8000750:	e92d 4ff7 	stmdb	sp!, {r0, r1, r2, r4, r5, r6, r7, r8, r9, sl, fp, lr}
 8000754:	2200      	movs	r2, #0
 8000756:	4616      	mov	r6, r2
 8000758:	f8df c17c 	ldr.w	ip, [pc, #380]	@ 80008d8 <HAL_GPIO_Init+0x188>
 800075c:	4b5f      	ldr	r3, [pc, #380]	@ (80008dc <HAL_GPIO_Init+0x18c>)
 800075e:	f8df e180 	ldr.w	lr, [pc, #384]	@ 80008e0 <HAL_GPIO_Init+0x190>
 8000762:	f8df 8180 	ldr.w	r8, [pc, #384]	@ 80008e4 <HAL_GPIO_Init+0x194>
 8000766:	680d      	ldr	r5, [r1, #0]
 8000768:	fa35 f406 	lsrs.w	r4, r5, r6
 800076c:	d102      	bne.n	8000774 <HAL_GPIO_Init+0x24>
 800076e:	b003      	add	sp, #12
 8000770:	e8bd 8ff0 	ldmia.w	sp!, {r4, r5, r6, r7, r8, r9, sl, fp, pc}
 8000774:	2701      	movs	r7, #1
 8000776:	40b7      	lsls	r7, r6
 8000778:	ea05 0407 	and.w	r4, r5, r7
 800077c:	ea37 0505 	bics.w	r5, r7, r5
 8000780:	d175      	bne.n	800086e <HAL_GPIO_Init+0x11e>
 8000782:	684d      	ldr	r5, [r1, #4]
 8000784:	2d03      	cmp	r5, #3
 8000786:	d806      	bhi.n	8000796 <HAL_GPIO_Init+0x46>
 8000788:	3d01      	subs	r5, #1
 800078a:	2d02      	cmp	r5, #2
 800078c:	d87e      	bhi.n	800088c <HAL_GPIO_Init+0x13c>
 800078e:	e8df f005 	tbb	[pc, r5]
 8000792:	948f      	.short	0x948f
 8000794:	9a          	.byte	0x9a
 8000795:	00          	.byte	0x00
 8000796:	2d12      	cmp	r5, #18
 8000798:	f000 8092 	beq.w	80008c0 <HAL_GPIO_Init+0x170>
 800079c:	d869      	bhi.n	8000872 <HAL_GPIO_Init+0x122>
 800079e:	2d11      	cmp	r5, #17
 80007a0:	f000 8088 	beq.w	80008b4 <HAL_GPIO_Init+0x164>
 80007a4:	2cff      	cmp	r4, #255	@ 0xff
 80007a6:	bf98      	it	ls
 80007a8:	4681      	movls	r9, r0
 80007aa:	f04f 0b0f 	mov.w	fp, #15
 80007ae:	bf88      	it	hi
 80007b0:	f100 0904 	addhi.w	r9, r0, #4
 80007b4:	ea4f 0586 	mov.w	r5, r6, lsl #2
 80007b8:	f8d9 7000 	ldr.w	r7, [r9]
 80007bc:	bf88      	it	hi
 80007be:	3d20      	subhi	r5, #32
 80007c0:	fa0b fa05 	lsl.w	sl, fp, r5
 80007c4:	ea27 070a 	bic.w	r7, r7, sl
 80007c8:	fa02 f505 	lsl.w	r5, r2, r5
 80007cc:	432f      	orrs	r7, r5
 80007ce:	f8c9 7000 	str.w	r7, [r9]
 80007d2:	f8d1 9004 	ldr.w	r9, [r1, #4]
 80007d6:	f019 5f80 	tst.w	r9, #268435456	@ 0x10000000
 80007da:	d048      	beq.n	800086e <HAL_GPIO_Init+0x11e>
 80007dc:	f8dc 5018 	ldr.w	r5, [ip, #24]
 80007e0:	f026 0703 	bic.w	r7, r6, #3
 80007e4:	f045 0501 	orr.w	r5, r5, #1
 80007e8:	f8cc 5018 	str.w	r5, [ip, #24]
 80007ec:	f8dc 5018 	ldr.w	r5, [ip, #24]
 80007f0:	f107 4780 	add.w	r7, r7, #1073741824	@ 0x40000000
 80007f4:	f005 0501 	and.w	r5, r5, #1
 80007f8:	9501      	str	r5, [sp, #4]
 80007fa:	f507 3780 	add.w	r7, r7, #65536	@ 0x10000
 80007fe:	f006 0a03 	and.w	sl, r6, #3
 8000802:	9d01      	ldr	r5, [sp, #4]
 8000804:	ea4f 0a8a 	mov.w	sl, sl, lsl #2
 8000808:	68bd      	ldr	r5, [r7, #8]
 800080a:	fa0b fb0a 	lsl.w	fp, fp, sl
 800080e:	ea25 0b0b 	bic.w	fp, r5, fp
 8000812:	4d35      	ldr	r5, [pc, #212]	@ (80008e8 <HAL_GPIO_Init+0x198>)
 8000814:	42a8      	cmp	r0, r5
 8000816:	d05a      	beq.n	80008ce <HAL_GPIO_Init+0x17e>
 8000818:	f505 6580 	add.w	r5, r5, #1024	@ 0x400
 800081c:	42a8      	cmp	r0, r5
 800081e:	d058      	beq.n	80008d2 <HAL_GPIO_Init+0x182>
 8000820:	f505 6580 	add.w	r5, r5, #1024	@ 0x400
 8000824:	42a8      	cmp	r0, r5
 8000826:	bf14      	ite	ne
 8000828:	2503      	movne	r5, #3
 800082a:	2502      	moveq	r5, #2
 800082c:	fa05 f50a 	lsl.w	r5, r5, sl
 8000830:	ea45 050b 	orr.w	r5, r5, fp
 8000834:	60bd      	str	r5, [r7, #8]
 8000836:	689d      	ldr	r5, [r3, #8]
 8000838:	f419 1f80 	tst.w	r9, #1048576	@ 0x100000
 800083c:	bf14      	ite	ne
 800083e:	4325      	orrne	r5, r4
 8000840:	43a5      	biceq	r5, r4
 8000842:	609d      	str	r5, [r3, #8]
 8000844:	68dd      	ldr	r5, [r3, #12]
 8000846:	f419 1f00 	tst.w	r9, #2097152	@ 0x200000
 800084a:	bf14      	ite	ne
 800084c:	4325      	orrne	r5, r4
 800084e:	43a5      	biceq	r5, r4
 8000850:	60dd      	str	r5, [r3, #12]
 8000852:	685d      	ldr	r5, [r3, #4]
 8000854:	f419 3f00 	tst.w	r9, #131072	@ 0x20000
 8000858:	bf14      	ite	ne
 800085a:	4325      	orrne	r5, r4
 800085c:	43a5      	biceq	r5, r4
 800085e:	605d      	str	r5, [r3, #4]
 8000860:	681d      	ldr	r5, [r3, #0]
 8000862:	f419 3f80 	tst.w	r9, #65536	@ 0x10000
 8000866:	bf14      	ite	ne
 8000868:	4325      	orrne	r5, r4
 800086a:	43a5      	biceq	r5, r4
 800086c:	601d      	str	r5, [r3, #0]
 800086e:	3601      	adds	r6, #1
 8000870:	e779      	b.n	8000766 <HAL_GPIO_Init+0x16>
 8000872:	f8df 9078 	ldr.w	r9, [pc, #120]	@ 80008ec <HAL_GPIO_Init+0x19c>
 8000876:	454d      	cmp	r5, r9
 8000878:	d008      	beq.n	800088c <HAL_GPIO_Init+0x13c>
 800087a:	d811      	bhi.n	80008a0 <HAL_GPIO_Init+0x150>
 800087c:	f5a9 1980 	sub.w	r9, r9, #1048576	@ 0x100000
 8000880:	454d      	cmp	r5, r9
 8000882:	d003      	beq.n	800088c <HAL_GPIO_Init+0x13c>
 8000884:	4575      	cmp	r5, lr
 8000886:	d001      	beq.n	800088c <HAL_GPIO_Init+0x13c>
 8000888:	4545      	cmp	r5, r8
 800088a:	d18b      	bne.n	80007a4 <HAL_GPIO_Init+0x54>
 800088c:	688a      	ldr	r2, [r1, #8]
 800088e:	b1e2      	cbz	r2, 80008ca <HAL_GPIO_Init+0x17a>
 8000890:	2a01      	cmp	r2, #1
 8000892:	bf08      	it	eq
 8000894:	6107      	streq	r7, [r0, #16]
 8000896:	f04f 0208 	mov.w	r2, #8
 800089a:	bf18      	it	ne
 800089c:	6147      	strne	r7, [r0, #20]
 800089e:	e781      	b.n	80007a4 <HAL_GPIO_Init+0x54>
 80008a0:	f8df 904c 	ldr.w	r9, [pc, #76]	@ 80008f0 <HAL_GPIO_Init+0x1a0>
 80008a4:	454d      	cmp	r5, r9
 80008a6:	d0f1      	beq.n	800088c <HAL_GPIO_Init+0x13c>
 80008a8:	f509 3980 	add.w	r9, r9, #65536	@ 0x10000
 80008ac:	454d      	cmp	r5, r9
 80008ae:	e7ec      	b.n	800088a <HAL_GPIO_Init+0x13a>
 80008b0:	68ca      	ldr	r2, [r1, #12]
 80008b2:	e777      	b.n	80007a4 <HAL_GPIO_Init+0x54>
 80008b4:	68ca      	ldr	r2, [r1, #12]
 80008b6:	3204      	adds	r2, #4
 80008b8:	e774      	b.n	80007a4 <HAL_GPIO_Init+0x54>
 80008ba:	68ca      	ldr	r2, [r1, #12]
 80008bc:	3208      	adds	r2, #8
 80008be:	e771      	b.n	80007a4 <HAL_GPIO_Init+0x54>
 80008c0:	68ca      	ldr	r2, [r1, #12]
 80008c2:	320c      	adds	r2, #12
 80008c4:	e76e      	b.n	80007a4 <HAL_GPIO_Init+0x54>
 80008c6:	2200      	movs	r2, #0
 80008c8:	e76c      	b.n	80007a4 <HAL_GPIO_Init+0x54>
 80008ca:	2204      	movs	r2, #4
 80008cc:	e76a      	b.n	80007a4 <HAL_GPIO_Init+0x54>
 80008ce:	2500      	movs	r5, #0
 80008d0:	e7ac      	b.n	800082c <HAL_GPIO_Init+0xdc>
 80008d2:	2501      	movs	r5, #1
 80008d4:	e7aa      	b.n	800082c <HAL_GPIO_Init+0xdc>
 80008d6:	bf00      	nop
 80008d8:	40021000 	.word	0x40021000
 80008dc:	40010400 	.word	0x40010400
 80008e0:	10210000 	.word	0x10210000
 80008e4:	10110000 	.word	0x10110000
 80008e8:	40010800 	.word	0x40010800
 80008ec:	10220000 	.word	0x10220000
 80008f0:	10310000 	.word	0x10310000

080008f4 <HAL_GPIO_WritePin>:
 80008f4:	b10a      	cbz	r2, 80008fa <HAL_GPIO_WritePin+0x6>
 80008f6:	6101      	str	r1, [r0, #16]
 80008f8:	4770      	bx	lr
 80008fa:	0409      	lsls	r1, r1, #16
 80008fc:	e7fb      	b.n	80008f6 <HAL_GPIO_WritePin+0x2>
	...

08000900 <HAL_I2C_Init>:
 8000900:	b570      	push	{r4, r5, r6, lr}
 8000902:	4604      	mov	r4, r0
 8000904:	b908      	cbnz	r0, 800090a <HAL_I2C_Init+0xa>
 8000906:	2001      	movs	r0, #1
 8000908:	bd70      	pop	{r4, r5, r6, pc}
 800090a:	f890 303d 	ldrb.w	r3, [r0, #61]	@ 0x3d
 800090e:	f003 02ff 	and.w	r2, r3, #255	@ 0xff
 8000912:	b91b      	cbnz	r3, 800091c <HAL_I2C_Init+0x1c>
 8000914:	f880 203c 	strb.w	r2, [r0, #60]	@ 0x3c
 8000918:	f7ff fd32 	bl	8000380 <HAL_I2C_MspInit>
 800091c:	2324      	movs	r3, #36	@ 0x24
 800091e:	f884 303d 	strb.w	r3, [r4, #61]	@ 0x3d
 8000922:	6823      	ldr	r3, [r4, #0]
 8000924:	681a      	ldr	r2, [r3, #0]
 8000926:	f022 0201 	bic.w	r2, r2, #1
 800092a:	601a      	str	r2, [r3, #0]
 800092c:	681a      	ldr	r2, [r3, #0]
 800092e:	f442 4200 	orr.w	r2, r2, #32768	@ 0x8000
 8000932:	601a      	str	r2, [r3, #0]
 8000934:	681a      	ldr	r2, [r3, #0]
 8000936:	f422 4200 	bic.w	r2, r2, #32768	@ 0x8000
 800093a:	601a      	str	r2, [r3, #0]
 800093c:	f000 fae6 	bl	8000f0c <HAL_RCC_GetPCLK1Freq>
 8000940:	4b3f      	ldr	r3, [pc, #252]	@ (8000a40 <HAL_I2C_Init+0x140>)
 8000942:	6865      	ldr	r5, [r4, #4]
 8000944:	429d      	cmp	r5, r3
 8000946:	bf94      	ite	ls
 8000948:	4b3e      	ldrls	r3, [pc, #248]	@ (8000a44 <HAL_I2C_Init+0x144>)
 800094a:	4b3f      	ldrhi	r3, [pc, #252]	@ (8000a48 <HAL_I2C_Init+0x148>)
 800094c:	4298      	cmp	r0, r3
 800094e:	bf8c      	ite	hi
 8000950:	2300      	movhi	r3, #0
 8000952:	2301      	movls	r3, #1
 8000954:	2b00      	cmp	r3, #0
 8000956:	d1d6      	bne.n	8000906 <HAL_I2C_Init+0x6>
 8000958:	4e39      	ldr	r6, [pc, #228]	@ (8000a40 <HAL_I2C_Init+0x140>)
 800095a:	4b3c      	ldr	r3, [pc, #240]	@ (8000a4c <HAL_I2C_Init+0x14c>)
 800095c:	42b5      	cmp	r5, r6
 800095e:	fbb0 f3f3 	udiv	r3, r0, r3
 8000962:	bf88      	it	hi
 8000964:	f44f 7696 	movhi.w	r6, #300	@ 0x12c
 8000968:	6822      	ldr	r2, [r4, #0]
 800096a:	6851      	ldr	r1, [r2, #4]
 800096c:	f021 013f 	bic.w	r1, r1, #63	@ 0x3f
 8000970:	ea41 0103 	orr.w	r1, r1, r3
 8000974:	bf82      	ittt	hi
 8000976:	4373      	mulhi	r3, r6
 8000978:	f44f 767a 	movhi.w	r6, #1000	@ 0x3e8
 800097c:	fbb3 f3f6 	udivhi	r3, r3, r6
 8000980:	6051      	str	r1, [r2, #4]
 8000982:	6a11      	ldr	r1, [r2, #32]
 8000984:	3301      	adds	r3, #1
 8000986:	f021 013f 	bic.w	r1, r1, #63	@ 0x3f
 800098a:	430b      	orrs	r3, r1
 800098c:	6213      	str	r3, [r2, #32]
 800098e:	69d1      	ldr	r1, [r2, #28]
 8000990:	1e43      	subs	r3, r0, #1
 8000992:	482b      	ldr	r0, [pc, #172]	@ (8000a40 <HAL_I2C_Init+0x140>)
 8000994:	f421 414f 	bic.w	r1, r1, #52992	@ 0xcf00
 8000998:	4285      	cmp	r5, r0
 800099a:	f021 01ff 	bic.w	r1, r1, #255	@ 0xff
 800099e:	d832      	bhi.n	8000a06 <HAL_I2C_Init+0x106>
 80009a0:	006d      	lsls	r5, r5, #1
 80009a2:	fbb3 f3f5 	udiv	r3, r3, r5
 80009a6:	f640 70fc 	movw	r0, #4092	@ 0xffc
 80009aa:	3301      	adds	r3, #1
 80009ac:	4203      	tst	r3, r0
 80009ae:	d042      	beq.n	8000a36 <HAL_I2C_Init+0x136>
 80009b0:	f3c3 030b 	ubfx	r3, r3, #0, #12
 80009b4:	4319      	orrs	r1, r3
 80009b6:	61d1      	str	r1, [r2, #28]
 80009b8:	6811      	ldr	r1, [r2, #0]
 80009ba:	e9d4 3007 	ldrd	r3, r0, [r4, #28]
 80009be:	f021 01c0 	bic.w	r1, r1, #192	@ 0xc0
 80009c2:	4303      	orrs	r3, r0
 80009c4:	430b      	orrs	r3, r1
 80009c6:	6013      	str	r3, [r2, #0]
 80009c8:	6891      	ldr	r1, [r2, #8]
 80009ca:	e9d4 0303 	ldrd	r0, r3, [r4, #12]
 80009ce:	f421 4103 	bic.w	r1, r1, #33536	@ 0x8300
 80009d2:	4303      	orrs	r3, r0
 80009d4:	f021 01ff 	bic.w	r1, r1, #255	@ 0xff
 80009d8:	430b      	orrs	r3, r1
 80009da:	6093      	str	r3, [r2, #8]
 80009dc:	68d1      	ldr	r1, [r2, #12]
 80009de:	e9d4 3005 	ldrd	r3, r0, [r4, #20]
 80009e2:	f021 01ff 	bic.w	r1, r1, #255	@ 0xff
 80009e6:	4303      	orrs	r3, r0
 80009e8:	430b      	orrs	r3, r1
 80009ea:	60d3      	str	r3, [r2, #12]
 80009ec:	6813      	ldr	r3, [r2, #0]
 80009ee:	2000      	movs	r0, #0
 80009f0:	f043 0301 	orr.w	r3, r3, #1
 80009f4:	6013      	str	r3, [r2, #0]
 80009f6:	2320      	movs	r3, #32
 80009f8:	6420      	str	r0, [r4, #64]	@ 0x40
 80009fa:	f884 303d 	strb.w	r3, [r4, #61]	@ 0x3d
 80009fe:	6320      	str	r0, [r4, #48]	@ 0x30
 8000a00:	f884 003e 	strb.w	r0, [r4, #62]	@ 0x3e
 8000a04:	e780      	b.n	8000908 <HAL_I2C_Init+0x8>
 8000a06:	68a0      	ldr	r0, [r4, #8]
 8000a08:	b950      	cbnz	r0, 8000a20 <HAL_I2C_Init+0x120>
 8000a0a:	eb05 0545 	add.w	r5, r5, r5, lsl #1
 8000a0e:	fbb3 f3f5 	udiv	r3, r3, r5
 8000a12:	3301      	adds	r3, #1
 8000a14:	f3c3 030b 	ubfx	r3, r3, #0, #12
 8000a18:	b17b      	cbz	r3, 8000a3a <HAL_I2C_Init+0x13a>
 8000a1a:	f443 4300 	orr.w	r3, r3, #32768	@ 0x8000
 8000a1e:	e7c9      	b.n	80009b4 <HAL_I2C_Init+0xb4>
 8000a20:	2019      	movs	r0, #25
 8000a22:	4368      	muls	r0, r5
 8000a24:	fbb3 f3f0 	udiv	r3, r3, r0
 8000a28:	3301      	adds	r3, #1
 8000a2a:	f3c3 030b 	ubfx	r3, r3, #0, #12
 8000a2e:	b123      	cbz	r3, 8000a3a <HAL_I2C_Init+0x13a>
 8000a30:	f443 4340 	orr.w	r3, r3, #49152	@ 0xc000
 8000a34:	e7be      	b.n	80009b4 <HAL_I2C_Init+0xb4>
 8000a36:	2304      	movs	r3, #4
 8000a38:	e7bc      	b.n	80009b4 <HAL_I2C_Init+0xb4>
 8000a3a:	2301      	movs	r3, #1
 8000a3c:	e7ba      	b.n	80009b4 <HAL_I2C_Init+0xb4>
 8000a3e:	bf00      	nop
 8000a40:	000186a0 	.word	0x000186a0
 8000a44:	001e847f 	.word	0x001e847f
 8000a48:	003d08ff 	.word	0x003d08ff
 8000a4c:	000f4240 	.word	0x000f4240

08000a50 <HAL_RCC_OscConfig>:
 8000a50:	e92d 41f3 	stmdb	sp!, {r0, r1, r4, r5, r6, r7, r8, lr}
 8000a54:	4605      	mov	r5, r0
 8000a56:	b338      	cbz	r0, 8000aa8 <HAL_RCC_OscConfig+0x58>
 8000a58:	6803      	ldr	r3, [r0, #0]
 8000a5a:	07db      	lsls	r3, r3, #31
 8000a5c:	d410      	bmi.n	8000a80 <HAL_RCC_OscConfig+0x30>
 8000a5e:	682b      	ldr	r3, [r5, #0]
 8000a60:	079f      	lsls	r7, r3, #30
 8000a62:	d45e      	bmi.n	8000b22 <HAL_RCC_OscConfig+0xd2>
 8000a64:	682b      	ldr	r3, [r5, #0]
 8000a66:	0719      	lsls	r1, r3, #28
 8000a68:	f100 8095 	bmi.w	8000b96 <HAL_RCC_OscConfig+0x146>
 8000a6c:	682b      	ldr	r3, [r5, #0]
 8000a6e:	075a      	lsls	r2, r3, #29
 8000a70:	f100 80c1 	bmi.w	8000bf6 <HAL_RCC_OscConfig+0x1a6>
 8000a74:	69eb      	ldr	r3, [r5, #28]
 8000a76:	2b00      	cmp	r3, #0
 8000a78:	f040 812c 	bne.w	8000cd4 <HAL_RCC_OscConfig+0x284>
 8000a7c:	2000      	movs	r0, #0
 8000a7e:	e029      	b.n	8000ad4 <HAL_RCC_OscConfig+0x84>
 8000a80:	4c90      	ldr	r4, [pc, #576]	@ (8000cc4 <HAL_RCC_OscConfig+0x274>)
 8000a82:	6863      	ldr	r3, [r4, #4]
 8000a84:	f003 030c 	and.w	r3, r3, #12
 8000a88:	2b04      	cmp	r3, #4
 8000a8a:	d007      	beq.n	8000a9c <HAL_RCC_OscConfig+0x4c>
 8000a8c:	6863      	ldr	r3, [r4, #4]
 8000a8e:	f003 030c 	and.w	r3, r3, #12
 8000a92:	2b08      	cmp	r3, #8
 8000a94:	d10a      	bne.n	8000aac <HAL_RCC_OscConfig+0x5c>
 8000a96:	6863      	ldr	r3, [r4, #4]
 8000a98:	03de      	lsls	r6, r3, #15
 8000a9a:	d507      	bpl.n	8000aac <HAL_RCC_OscConfig+0x5c>
 8000a9c:	6823      	ldr	r3, [r4, #0]
 8000a9e:	039c      	lsls	r4, r3, #14
 8000aa0:	d5dd      	bpl.n	8000a5e <HAL_RCC_OscConfig+0xe>
 8000aa2:	686b      	ldr	r3, [r5, #4]
 8000aa4:	2b00      	cmp	r3, #0
 8000aa6:	d1da      	bne.n	8000a5e <HAL_RCC_OscConfig+0xe>
 8000aa8:	2001      	movs	r0, #1
 8000aaa:	e013      	b.n	8000ad4 <HAL_RCC_OscConfig+0x84>
 8000aac:	686b      	ldr	r3, [r5, #4]
 8000aae:	f5b3 3f80 	cmp.w	r3, #65536	@ 0x10000
 8000ab2:	d112      	bne.n	8000ada <HAL_RCC_OscConfig+0x8a>
 8000ab4:	6823      	ldr	r3, [r4, #0]
 8000ab6:	f443 3380 	orr.w	r3, r3, #65536	@ 0x10000
 8000aba:	6023      	str	r3, [r4, #0]
 8000abc:	f7ff fd9e 	bl	80005fc <HAL_GetTick>
 8000ac0:	4606      	mov	r6, r0
 8000ac2:	6823      	ldr	r3, [r4, #0]
 8000ac4:	0398      	lsls	r0, r3, #14
 8000ac6:	d4ca      	bmi.n	8000a5e <HAL_RCC_OscConfig+0xe>
 8000ac8:	f7ff fd98 	bl	80005fc <HAL_GetTick>
 8000acc:	1b80      	subs	r0, r0, r6
 8000ace:	2864      	cmp	r0, #100	@ 0x64
 8000ad0:	d9f7      	bls.n	8000ac2 <HAL_RCC_OscConfig+0x72>
 8000ad2:	2003      	movs	r0, #3
 8000ad4:	b002      	add	sp, #8
 8000ad6:	e8bd 81f0 	ldmia.w	sp!, {r4, r5, r6, r7, r8, pc}
 8000ada:	b99b      	cbnz	r3, 8000b04 <HAL_RCC_OscConfig+0xb4>
 8000adc:	6823      	ldr	r3, [r4, #0]
 8000ade:	f423 3380 	bic.w	r3, r3, #65536	@ 0x10000
 8000ae2:	6023      	str	r3, [r4, #0]
 8000ae4:	6823      	ldr	r3, [r4, #0]
 8000ae6:	f423 2380 	bic.w	r3, r3, #262144	@ 0x40000
 8000aea:	6023      	str	r3, [r4, #0]
 8000aec:	f7ff fd86 	bl	80005fc <HAL_GetTick>
 8000af0:	4606      	mov	r6, r0
 8000af2:	6823      	ldr	r3, [r4, #0]
 8000af4:	0399      	lsls	r1, r3, #14
 8000af6:	d5b2      	bpl.n	8000a5e <HAL_RCC_OscConfig+0xe>
 8000af8:	f7ff fd80 	bl	80005fc <HAL_GetTick>
 8000afc:	1b80      	subs	r0, r0, r6
 8000afe:	2864      	cmp	r0, #100	@ 0x64
 8000b00:	d9f7      	bls.n	8000af2 <HAL_RCC_OscConfig+0xa2>
 8000b02:	e7e6      	b.n	8000ad2 <HAL_RCC_OscConfig+0x82>
 8000b04:	f5b3 2fa0 	cmp.w	r3, #327680	@ 0x50000
 8000b08:	6823      	ldr	r3, [r4, #0]
 8000b0a:	d103      	bne.n	8000b14 <HAL_RCC_OscConfig+0xc4>
 8000b0c:	f443 2380 	orr.w	r3, r3, #262144	@ 0x40000
 8000b10:	6023      	str	r3, [r4, #0]
 8000b12:	e7cf      	b.n	8000ab4 <HAL_RCC_OscConfig+0x64>
 8000b14:	f423 3380 	bic.w	r3, r3, #65536	@ 0x10000
 8000b18:	6023      	str	r3, [r4, #0]
 8000b1a:	6823      	ldr	r3, [r4, #0]
 8000b1c:	f423 2380 	bic.w	r3, r3, #262144	@ 0x40000
 8000b20:	e7cb      	b.n	8000aba <HAL_RCC_OscConfig+0x6a>
 8000b22:	4c68      	ldr	r4, [pc, #416]	@ (8000cc4 <HAL_RCC_OscConfig+0x274>)
 8000b24:	6863      	ldr	r3, [r4, #4]
 8000b26:	f013 0f0c 	tst.w	r3, #12
 8000b2a:	d007      	beq.n	8000b3c <HAL_RCC_OscConfig+0xec>
 8000b2c:	6863      	ldr	r3, [r4, #4]
 8000b2e:	f003 030c 	and.w	r3, r3, #12
 8000b32:	2b08      	cmp	r3, #8
 8000b34:	d110      	bne.n	8000b58 <HAL_RCC_OscConfig+0x108>
 8000b36:	6863      	ldr	r3, [r4, #4]
 8000b38:	03da      	lsls	r2, r3, #15
 8000b3a:	d40d      	bmi.n	8000b58 <HAL_RCC_OscConfig+0x108>
 8000b3c:	6823      	ldr	r3, [r4, #0]
 8000b3e:	079b      	lsls	r3, r3, #30
 8000b40:	d502      	bpl.n	8000b48 <HAL_RCC_OscConfig+0xf8>
 8000b42:	692b      	ldr	r3, [r5, #16]
 8000b44:	2b01      	cmp	r3, #1
 8000b46:	d1af      	bne.n	8000aa8 <HAL_RCC_OscConfig+0x58>
 8000b48:	6823      	ldr	r3, [r4, #0]
 8000b4a:	696a      	ldr	r2, [r5, #20]
 8000b4c:	f023 03f8 	bic.w	r3, r3, #248	@ 0xf8
 8000b50:	ea43 03c2 	orr.w	r3, r3, r2, lsl #3
 8000b54:	6023      	str	r3, [r4, #0]
 8000b56:	e785      	b.n	8000a64 <HAL_RCC_OscConfig+0x14>
 8000b58:	692a      	ldr	r2, [r5, #16]
 8000b5a:	4b5b      	ldr	r3, [pc, #364]	@ (8000cc8 <HAL_RCC_OscConfig+0x278>)
 8000b5c:	b16a      	cbz	r2, 8000b7a <HAL_RCC_OscConfig+0x12a>
 8000b5e:	2201      	movs	r2, #1
 8000b60:	601a      	str	r2, [r3, #0]
 8000b62:	f7ff fd4b 	bl	80005fc <HAL_GetTick>
 8000b66:	4606      	mov	r6, r0
 8000b68:	6823      	ldr	r3, [r4, #0]
 8000b6a:	079f      	lsls	r7, r3, #30
 8000b6c:	d4ec      	bmi.n	8000b48 <HAL_RCC_OscConfig+0xf8>
 8000b6e:	f7ff fd45 	bl	80005fc <HAL_GetTick>
 8000b72:	1b80      	subs	r0, r0, r6
 8000b74:	2802      	cmp	r0, #2
 8000b76:	d9f7      	bls.n	8000b68 <HAL_RCC_OscConfig+0x118>
 8000b78:	e7ab      	b.n	8000ad2 <HAL_RCC_OscConfig+0x82>
 8000b7a:	601a      	str	r2, [r3, #0]
 8000b7c:	f7ff fd3e 	bl	80005fc <HAL_GetTick>
 8000b80:	4606      	mov	r6, r0
 8000b82:	6823      	ldr	r3, [r4, #0]
 8000b84:	0798      	lsls	r0, r3, #30
 8000b86:	f57f af6d 	bpl.w	8000a64 <HAL_RCC_OscConfig+0x14>
 8000b8a:	f7ff fd37 	bl	80005fc <HAL_GetTick>
 8000b8e:	1b80      	subs	r0, r0, r6
 8000b90:	2802      	cmp	r0, #2
 8000b92:	d9f6      	bls.n	8000b82 <HAL_RCC_OscConfig+0x132>
 8000b94:	e79d      	b.n	8000ad2 <HAL_RCC_OscConfig+0x82>
 8000b96:	69aa      	ldr	r2, [r5, #24]
 8000b98:	4e4a      	ldr	r6, [pc, #296]	@ (8000cc4 <HAL_RCC_OscConfig+0x274>)
 8000b9a:	4b4b      	ldr	r3, [pc, #300]	@ (8000cc8 <HAL_RCC_OscConfig+0x278>)
 8000b9c:	b1e2      	cbz	r2, 8000bd8 <HAL_RCC_OscConfig+0x188>
 8000b9e:	2201      	movs	r2, #1
 8000ba0:	f8c3 2480 	str.w	r2, [r3, #1152]	@ 0x480
 8000ba4:	f7ff fd2a 	bl	80005fc <HAL_GetTick>
 8000ba8:	4604      	mov	r4, r0
 8000baa:	6a73      	ldr	r3, [r6, #36]	@ 0x24
 8000bac:	079b      	lsls	r3, r3, #30
 8000bae:	d50d      	bpl.n	8000bcc <HAL_RCC_OscConfig+0x17c>
 8000bb0:	f44f 52fa 	mov.w	r2, #8000	@ 0x1f40
 8000bb4:	4b45      	ldr	r3, [pc, #276]	@ (8000ccc <HAL_RCC_OscConfig+0x27c>)
 8000bb6:	681b      	ldr	r3, [r3, #0]
 8000bb8:	fbb3 f3f2 	udiv	r3, r3, r2
 8000bbc:	9301      	str	r3, [sp, #4]
 8000bbe:	bf00      	nop
 8000bc0:	9b01      	ldr	r3, [sp, #4]
 8000bc2:	1e5a      	subs	r2, r3, #1
 8000bc4:	9201      	str	r2, [sp, #4]
 8000bc6:	2b00      	cmp	r3, #0
 8000bc8:	d1f9      	bne.n	8000bbe <HAL_RCC_OscConfig+0x16e>
 8000bca:	e74f      	b.n	8000a6c <HAL_RCC_OscConfig+0x1c>
 8000bcc:	f7ff fd16 	bl	80005fc <HAL_GetTick>
 8000bd0:	1b00      	subs	r0, r0, r4
 8000bd2:	2802      	cmp	r0, #2
 8000bd4:	d9e9      	bls.n	8000baa <HAL_RCC_OscConfig+0x15a>
 8000bd6:	e77c      	b.n	8000ad2 <HAL_RCC_OscConfig+0x82>
 8000bd8:	f8c3 2480 	str.w	r2, [r3, #1152]	@ 0x480
 8000bdc:	f7ff fd0e 	bl	80005fc <HAL_GetTick>
 8000be0:	4604      	mov	r4, r0
 8000be2:	6a73      	ldr	r3, [r6, #36]	@ 0x24
 8000be4:	079f      	lsls	r7, r3, #30
 8000be6:	f57f af41 	bpl.w	8000a6c <HAL_RCC_OscConfig+0x1c>
 8000bea:	f7ff fd07 	bl	80005fc <HAL_GetTick>
 8000bee:	1b00      	subs	r0, r0, r4
 8000bf0:	2802      	cmp	r0, #2
 8000bf2:	d9f6      	bls.n	8000be2 <HAL_RCC_OscConfig+0x192>
 8000bf4:	e76d      	b.n	8000ad2 <HAL_RCC_OscConfig+0x82>
 8000bf6:	4c33      	ldr	r4, [pc, #204]	@ (8000cc4 <HAL_RCC_OscConfig+0x274>)
 8000bf8:	69e3      	ldr	r3, [r4, #28]
 8000bfa:	00d8      	lsls	r0, r3, #3
 8000bfc:	d424      	bmi.n	8000c48 <HAL_RCC_OscConfig+0x1f8>
 8000bfe:	2701      	movs	r7, #1
 8000c00:	69e3      	ldr	r3, [r4, #28]
 8000c02:	f043 5380 	orr.w	r3, r3, #268435456	@ 0x10000000
 8000c06:	61e3      	str	r3, [r4, #28]
 8000c08:	69e3      	ldr	r3, [r4, #28]
 8000c0a:	f003 5380 	and.w	r3, r3, #268435456	@ 0x10000000
 8000c0e:	9300      	str	r3, [sp, #0]
 8000c10:	9b00      	ldr	r3, [sp, #0]
 8000c12:	4e2f      	ldr	r6, [pc, #188]	@ (8000cd0 <HAL_RCC_OscConfig+0x280>)
 8000c14:	6833      	ldr	r3, [r6, #0]
 8000c16:	05d9      	lsls	r1, r3, #23
 8000c18:	d518      	bpl.n	8000c4c <HAL_RCC_OscConfig+0x1fc>
 8000c1a:	68eb      	ldr	r3, [r5, #12]
 8000c1c:	2b01      	cmp	r3, #1
 8000c1e:	d126      	bne.n	8000c6e <HAL_RCC_OscConfig+0x21e>
 8000c20:	6a23      	ldr	r3, [r4, #32]
 8000c22:	f043 0301 	orr.w	r3, r3, #1
 8000c26:	6223      	str	r3, [r4, #32]
 8000c28:	f7ff fce8 	bl	80005fc <HAL_GetTick>
 8000c2c:	f241 3888 	movw	r8, #5000	@ 0x1388
 8000c30:	4606      	mov	r6, r0
 8000c32:	6a23      	ldr	r3, [r4, #32]
 8000c34:	079b      	lsls	r3, r3, #30
 8000c36:	d53f      	bpl.n	8000cb8 <HAL_RCC_OscConfig+0x268>
 8000c38:	2f00      	cmp	r7, #0
 8000c3a:	f43f af1b 	beq.w	8000a74 <HAL_RCC_OscConfig+0x24>
 8000c3e:	69e3      	ldr	r3, [r4, #28]
 8000c40:	f023 5380 	bic.w	r3, r3, #268435456	@ 0x10000000
 8000c44:	61e3      	str	r3, [r4, #28]
 8000c46:	e715      	b.n	8000a74 <HAL_RCC_OscConfig+0x24>
 8000c48:	2700      	movs	r7, #0
 8000c4a:	e7e2      	b.n	8000c12 <HAL_RCC_OscConfig+0x1c2>
 8000c4c:	6833      	ldr	r3, [r6, #0]
 8000c4e:	f443 7380 	orr.w	r3, r3, #256	@ 0x100
 8000c52:	6033      	str	r3, [r6, #0]
 8000c54:	f7ff fcd2 	bl	80005fc <HAL_GetTick>
 8000c58:	4680      	mov	r8, r0
 8000c5a:	6833      	ldr	r3, [r6, #0]
 8000c5c:	05da      	lsls	r2, r3, #23
 8000c5e:	d4dc      	bmi.n	8000c1a <HAL_RCC_OscConfig+0x1ca>
 8000c60:	f7ff fccc 	bl	80005fc <HAL_GetTick>
 8000c64:	eba0 0008 	sub.w	r0, r0, r8
 8000c68:	2864      	cmp	r0, #100	@ 0x64
 8000c6a:	d9f6      	bls.n	8000c5a <HAL_RCC_OscConfig+0x20a>
 8000c6c:	e731      	b.n	8000ad2 <HAL_RCC_OscConfig+0x82>
 8000c6e:	b9ab      	cbnz	r3, 8000c9c <HAL_RCC_OscConfig+0x24c>
 8000c70:	6a23      	ldr	r3, [r4, #32]
 8000c72:	f241 3888 	movw	r8, #5000	@ 0x1388
 8000c76:	f023 0301 	bic.w	r3, r3, #1
 8000c7a:	6223      	str	r3, [r4, #32]
 8000c7c:	6a23      	ldr	r3, [r4, #32]
 8000c7e:	f023 0304 	bic.w	r3, r3, #4
 8000c82:	6223      	str	r3, [r4, #32]
 8000c84:	f7ff fcba 	bl	80005fc <HAL_GetTick>
 8000c88:	4606      	mov	r6, r0
 8000c8a:	6a23      	ldr	r3, [r4, #32]
 8000c8c:	0798      	lsls	r0, r3, #30
 8000c8e:	d5d3      	bpl.n	8000c38 <HAL_RCC_OscConfig+0x1e8>
 8000c90:	f7ff fcb4 	bl	80005fc <HAL_GetTick>
 8000c94:	1b80      	subs	r0, r0, r6
 8000c96:	4540      	cmp	r0, r8
 8000c98:	d9f7      	bls.n	8000c8a <HAL_RCC_OscConfig+0x23a>
 8000c9a:	e71a      	b.n	8000ad2 <HAL_RCC_OscConfig+0x82>
 8000c9c:	2b05      	cmp	r3, #5
 8000c9e:	6a23      	ldr	r3, [r4, #32]
 8000ca0:	d103      	bne.n	8000caa <HAL_RCC_OscConfig+0x25a>
 8000ca2:	f043 0304 	orr.w	r3, r3, #4
 8000ca6:	6223      	str	r3, [r4, #32]
 8000ca8:	e7ba      	b.n	8000c20 <HAL_RCC_OscConfig+0x1d0>
 8000caa:	f023 0301 	bic.w	r3, r3, #1
 8000cae:	6223      	str	r3, [r4, #32]
 8000cb0:	6a23      	ldr	r3, [r4, #32]
 8000cb2:	f023 0304 	bic.w	r3, r3, #4
 8000cb6:	e7b6      	b.n	8000c26 <HAL_RCC_OscConfig+0x1d6>
 8000cb8:	f7ff fca0 	bl	80005fc <HAL_GetTick>
 8000cbc:	1b80      	subs	r0, r0, r6
 8000cbe:	4540      	cmp	r0, r8
 8000cc0:	d9b7      	bls.n	8000c32 <HAL_RCC_OscConfig+0x1e2>
 8000cc2:	e706      	b.n	8000ad2 <HAL_RCC_OscConfig+0x82>
 8000cc4:	40021000 	.word	0x40021000
 8000cc8:	42420000 	.word	0x42420000
 8000ccc:	20000000 	.word	0x20000000
 8000cd0:	40007000 	.word	0x40007000
 8000cd4:	4c2a      	ldr	r4, [pc, #168]	@ (8000d80 <HAL_RCC_OscConfig+0x330>)
 8000cd6:	6862      	ldr	r2, [r4, #4]
 8000cd8:	f002 020c 	and.w	r2, r2, #12
 8000cdc:	2a08      	cmp	r2, #8
 8000cde:	d03e      	beq.n	8000d5e <HAL_RCC_OscConfig+0x30e>
 8000ce0:	2200      	movs	r2, #0
 8000ce2:	2b02      	cmp	r3, #2
 8000ce4:	4b27      	ldr	r3, [pc, #156]	@ (8000d84 <HAL_RCC_OscConfig+0x334>)
 8000ce6:	661a      	str	r2, [r3, #96]	@ 0x60
 8000ce8:	d12c      	bne.n	8000d44 <HAL_RCC_OscConfig+0x2f4>
 8000cea:	f7ff fc87 	bl	80005fc <HAL_GetTick>
 8000cee:	4606      	mov	r6, r0
 8000cf0:	6823      	ldr	r3, [r4, #0]
 8000cf2:	0199      	lsls	r1, r3, #6
 8000cf4:	d420      	bmi.n	8000d38 <HAL_RCC_OscConfig+0x2e8>
 8000cf6:	6a2b      	ldr	r3, [r5, #32]
 8000cf8:	f5b3 3f80 	cmp.w	r3, #65536	@ 0x10000
 8000cfc:	d105      	bne.n	8000d0a <HAL_RCC_OscConfig+0x2ba>
 8000cfe:	6862      	ldr	r2, [r4, #4]
 8000d00:	68a9      	ldr	r1, [r5, #8]
 8000d02:	f422 3200 	bic.w	r2, r2, #131072	@ 0x20000
 8000d06:	430a      	orrs	r2, r1
 8000d08:	6062      	str	r2, [r4, #4]
 8000d0a:	6a69      	ldr	r1, [r5, #36]	@ 0x24
 8000d0c:	6862      	ldr	r2, [r4, #4]
 8000d0e:	430b      	orrs	r3, r1
 8000d10:	f422 1274 	bic.w	r2, r2, #3997696	@ 0x3d0000
 8000d14:	4313      	orrs	r3, r2
 8000d16:	2201      	movs	r2, #1
 8000d18:	6063      	str	r3, [r4, #4]
 8000d1a:	4b1a      	ldr	r3, [pc, #104]	@ (8000d84 <HAL_RCC_OscConfig+0x334>)
 8000d1c:	661a      	str	r2, [r3, #96]	@ 0x60
 8000d1e:	f7ff fc6d 	bl	80005fc <HAL_GetTick>
 8000d22:	4605      	mov	r5, r0
 8000d24:	6823      	ldr	r3, [r4, #0]
 8000d26:	019a      	lsls	r2, r3, #6
 8000d28:	f53f aea8 	bmi.w	8000a7c <HAL_RCC_OscConfig+0x2c>
 8000d2c:	f7ff fc66 	bl	80005fc <HAL_GetTick>
 8000d30:	1b40      	subs	r0, r0, r5
 8000d32:	2802      	cmp	r0, #2
 8000d34:	d9f6      	bls.n	8000d24 <HAL_RCC_OscConfig+0x2d4>
 8000d36:	e6cc      	b.n	8000ad2 <HAL_RCC_OscConfig+0x82>
 8000d38:	f7ff fc60 	bl	80005fc <HAL_GetTick>
 8000d3c:	1b80      	subs	r0, r0, r6
 8000d3e:	2802      	cmp	r0, #2
 8000d40:	d9d6      	bls.n	8000cf0 <HAL_RCC_OscConfig+0x2a0>
 8000d42:	e6c6      	b.n	8000ad2 <HAL_RCC_OscConfig+0x82>
 8000d44:	f7ff fc5a 	bl	80005fc <HAL_GetTick>
 8000d48:	4605      	mov	r5, r0
 8000d4a:	6823      	ldr	r3, [r4, #0]
 8000d4c:	019b      	lsls	r3, r3, #6
 8000d4e:	f57f ae95 	bpl.w	8000a7c <HAL_RCC_OscConfig+0x2c>
 8000d52:	f7ff fc53 	bl	80005fc <HAL_GetTick>
 8000d56:	1b40      	subs	r0, r0, r5
 8000d58:	2802      	cmp	r0, #2
 8000d5a:	d9f6      	bls.n	8000d4a <HAL_RCC_OscConfig+0x2fa>
 8000d5c:	e6b9      	b.n	8000ad2 <HAL_RCC_OscConfig+0x82>
 8000d5e:	2b01      	cmp	r3, #1
 8000d60:	f43f aea2 	beq.w	8000aa8 <HAL_RCC_OscConfig+0x58>
 8000d64:	6860      	ldr	r0, [r4, #4]
 8000d66:	6a2b      	ldr	r3, [r5, #32]
 8000d68:	f400 3280 	and.w	r2, r0, #65536	@ 0x10000
 8000d6c:	429a      	cmp	r2, r3
 8000d6e:	f47f ae9b 	bne.w	8000aa8 <HAL_RCC_OscConfig+0x58>
 8000d72:	6a6b      	ldr	r3, [r5, #36]	@ 0x24
 8000d74:	f400 1070 	and.w	r0, r0, #3932160	@ 0x3c0000
 8000d78:	1ac0      	subs	r0, r0, r3
 8000d7a:	bf18      	it	ne
 8000d7c:	2001      	movne	r0, #1
 8000d7e:	e6a9      	b.n	8000ad4 <HAL_RCC_OscConfig+0x84>
 8000d80:	40021000 	.word	0x40021000
 8000d84:	42420000 	.word	0x42420000

08000d88 <HAL_RCC_GetSysClockFreq>:
 8000d88:	4a0d      	ldr	r2, [pc, #52]	@ (8000dc0 <HAL_RCC_GetSysClockFreq+0x38>)
 8000d8a:	6853      	ldr	r3, [r2, #4]
 8000d8c:	f003 010c 	and.w	r1, r3, #12
 8000d90:	2908      	cmp	r1, #8
 8000d92:	d112      	bne.n	8000dba <HAL_RCC_GetSysClockFreq+0x32>
 8000d94:	480b      	ldr	r0, [pc, #44]	@ (8000dc4 <HAL_RCC_GetSysClockFreq+0x3c>)
 8000d96:	f3c3 4183 	ubfx	r1, r3, #18, #4
 8000d9a:	03db      	lsls	r3, r3, #15
 8000d9c:	5c40      	ldrb	r0, [r0, r1]
 8000d9e:	d509      	bpl.n	8000db4 <HAL_RCC_GetSysClockFreq+0x2c>
 8000da0:	6853      	ldr	r3, [r2, #4]
 8000da2:	4a09      	ldr	r2, [pc, #36]	@ (8000dc8 <HAL_RCC_GetSysClockFreq+0x40>)
 8000da4:	f3c3 4340 	ubfx	r3, r3, #17, #1
 8000da8:	4350      	muls	r0, r2
 8000daa:	4a08      	ldr	r2, [pc, #32]	@ (8000dcc <HAL_RCC_GetSysClockFreq+0x44>)
 8000dac:	5cd3      	ldrb	r3, [r2, r3]
 8000dae:	fbb0 f0f3 	udiv	r0, r0, r3
 8000db2:	4770      	bx	lr
 8000db4:	4b06      	ldr	r3, [pc, #24]	@ (8000dd0 <HAL_RCC_GetSysClockFreq+0x48>)
 8000db6:	4358      	muls	r0, r3
 8000db8:	4770      	bx	lr
 8000dba:	4803      	ldr	r0, [pc, #12]	@ (8000dc8 <HAL_RCC_GetSysClockFreq+0x40>)
 8000dbc:	4770      	bx	lr
 8000dbe:	bf00      	nop
 8000dc0:	40021000 	.word	0x40021000
 8000dc4:	08001503 	.word	0x08001503
 8000dc8:	007a1200 	.word	0x007a1200
 8000dcc:	08001501 	.word	0x08001501
 8000dd0:	003d0900 	.word	0x003d0900

08000dd4 <HAL_RCC_ClockConfig>:
 8000dd4:	e92d 41f0 	stmdb	sp!, {r4, r5, r6, r7, r8, lr}
 8000dd8:	460d      	mov	r5, r1
 8000dda:	4604      	mov	r4, r0
 8000ddc:	b910      	cbnz	r0, 8000de4 <HAL_RCC_ClockConfig+0x10>
 8000dde:	2001      	movs	r0, #1
 8000de0:	e8bd 81f0 	ldmia.w	sp!, {r4, r5, r6, r7, r8, pc}
 8000de4:	4a44      	ldr	r2, [pc, #272]	@ (8000ef8 <HAL_RCC_ClockConfig+0x124>)
 8000de6:	6813      	ldr	r3, [r2, #0]
 8000de8:	f003 0307 	and.w	r3, r3, #7
 8000dec:	428b      	cmp	r3, r1
 8000dee:	d328      	bcc.n	8000e42 <HAL_RCC_ClockConfig+0x6e>
 8000df0:	6821      	ldr	r1, [r4, #0]
 8000df2:	078e      	lsls	r6, r1, #30
 8000df4:	d430      	bmi.n	8000e58 <HAL_RCC_ClockConfig+0x84>
 8000df6:	07ca      	lsls	r2, r1, #31
 8000df8:	d443      	bmi.n	8000e82 <HAL_RCC_ClockConfig+0xae>
 8000dfa:	4a3f      	ldr	r2, [pc, #252]	@ (8000ef8 <HAL_RCC_ClockConfig+0x124>)
 8000dfc:	6813      	ldr	r3, [r2, #0]
 8000dfe:	f003 0307 	and.w	r3, r3, #7
 8000e02:	42ab      	cmp	r3, r5
 8000e04:	d865      	bhi.n	8000ed2 <HAL_RCC_ClockConfig+0xfe>
 8000e06:	6822      	ldr	r2, [r4, #0]
 8000e08:	4d3c      	ldr	r5, [pc, #240]	@ (8000efc <HAL_RCC_ClockConfig+0x128>)
 8000e0a:	f012 0f04 	tst.w	r2, #4
 8000e0e:	d16c      	bne.n	8000eea <HAL_RCC_ClockConfig+0x116>
 8000e10:	0713      	lsls	r3, r2, #28
 8000e12:	d506      	bpl.n	8000e22 <HAL_RCC_ClockConfig+0x4e>
 8000e14:	686b      	ldr	r3, [r5, #4]
 8000e16:	6922      	ldr	r2, [r4, #16]
 8000e18:	f423 5360 	bic.w	r3, r3, #14336	@ 0x3800
 8000e1c:	ea43 03c2 	orr.w	r3, r3, r2, lsl #3
 8000e20:	606b      	str	r3, [r5, #4]
 8000e22:	f7ff ffb1 	bl	8000d88 <HAL_RCC_GetSysClockFreq>
 8000e26:	686b      	ldr	r3, [r5, #4]
 8000e28:	4a35      	ldr	r2, [pc, #212]	@ (8000f00 <HAL_RCC_ClockConfig+0x12c>)
 8000e2a:	f3c3 1303 	ubfx	r3, r3, #4, #4
 8000e2e:	5cd3      	ldrb	r3, [r2, r3]
 8000e30:	40d8      	lsrs	r0, r3
 8000e32:	4b34      	ldr	r3, [pc, #208]	@ (8000f04 <HAL_RCC_ClockConfig+0x130>)
 8000e34:	6018      	str	r0, [r3, #0]
 8000e36:	4b34      	ldr	r3, [pc, #208]	@ (8000f08 <HAL_RCC_ClockConfig+0x134>)
 8000e38:	6818      	ldr	r0, [r3, #0]
 8000e3a:	f7ff fb9d 	bl	8000578 <HAL_InitTick>
 8000e3e:	2000      	movs	r0, #0
 8000e40:	e7ce      	b.n	8000de0 <HAL_RCC_ClockConfig+0xc>
 8000e42:	6813      	ldr	r3, [r2, #0]
 8000e44:	f023 0307 	bic.w	r3, r3, #7
 8000e48:	430b      	orrs	r3, r1
 8000e4a:	6013      	str	r3, [r2, #0]
 8000e4c:	6813      	ldr	r3, [r2, #0]
 8000e4e:	f003 0307 	and.w	r3, r3, #7
 8000e52:	428b      	cmp	r3, r1
 8000e54:	d1c3      	bne.n	8000dde <HAL_RCC_ClockConfig+0xa>
 8000e56:	e7cb      	b.n	8000df0 <HAL_RCC_ClockConfig+0x1c>
 8000e58:	4b28      	ldr	r3, [pc, #160]	@ (8000efc <HAL_RCC_ClockConfig+0x128>)
 8000e5a:	f011 0f04 	tst.w	r1, #4
 8000e5e:	bf1e      	ittt	ne
 8000e60:	685a      	ldrne	r2, [r3, #4]
 8000e62:	f442 62e0 	orrne.w	r2, r2, #1792	@ 0x700
 8000e66:	605a      	strne	r2, [r3, #4]
 8000e68:	0708      	lsls	r0, r1, #28
 8000e6a:	bf42      	ittt	mi
 8000e6c:	685a      	ldrmi	r2, [r3, #4]
 8000e6e:	f442 5260 	orrmi.w	r2, r2, #14336	@ 0x3800
 8000e72:	605a      	strmi	r2, [r3, #4]
 8000e74:	685a      	ldr	r2, [r3, #4]
 8000e76:	68a0      	ldr	r0, [r4, #8]
 8000e78:	f022 02f0 	bic.w	r2, r2, #240	@ 0xf0
 8000e7c:	4302      	orrs	r2, r0
 8000e7e:	605a      	str	r2, [r3, #4]
 8000e80:	e7b9      	b.n	8000df6 <HAL_RCC_ClockConfig+0x22>
 8000e82:	6862      	ldr	r2, [r4, #4]
 8000e84:	4e1d      	ldr	r6, [pc, #116]	@ (8000efc <HAL_RCC_ClockConfig+0x128>)
 8000e86:	2a01      	cmp	r2, #1
 8000e88:	6833      	ldr	r3, [r6, #0]
 8000e8a:	d11a      	bne.n	8000ec2 <HAL_RCC_ClockConfig+0xee>
 8000e8c:	f413 3f00 	tst.w	r3, #131072	@ 0x20000
 8000e90:	d0a5      	beq.n	8000dde <HAL_RCC_ClockConfig+0xa>
 8000e92:	6873      	ldr	r3, [r6, #4]
 8000e94:	f241 3888 	movw	r8, #5000	@ 0x1388
 8000e98:	f023 0303 	bic.w	r3, r3, #3
 8000e9c:	4313      	orrs	r3, r2
 8000e9e:	6073      	str	r3, [r6, #4]
 8000ea0:	f7ff fbac 	bl	80005fc <HAL_GetTick>
 8000ea4:	4607      	mov	r7, r0
 8000ea6:	6873      	ldr	r3, [r6, #4]
 8000ea8:	6862      	ldr	r2, [r4, #4]
 8000eaa:	f003 030c 	and.w	r3, r3, #12
 8000eae:	ebb3 0f82 	cmp.w	r3, r2, lsl #2
 8000eb2:	d0a2      	beq.n	8000dfa <HAL_RCC_ClockConfig+0x26>
 8000eb4:	f7ff fba2 	bl	80005fc <HAL_GetTick>
 8000eb8:	1bc0      	subs	r0, r0, r7
 8000eba:	4540      	cmp	r0, r8
 8000ebc:	d9f3      	bls.n	8000ea6 <HAL_RCC_ClockConfig+0xd2>
 8000ebe:	2003      	movs	r0, #3
 8000ec0:	e78e      	b.n	8000de0 <HAL_RCC_ClockConfig+0xc>
 8000ec2:	2a02      	cmp	r2, #2
 8000ec4:	d102      	bne.n	8000ecc <HAL_RCC_ClockConfig+0xf8>
 8000ec6:	f013 7f00 	tst.w	r3, #33554432	@ 0x2000000
 8000eca:	e7e1      	b.n	8000e90 <HAL_RCC_ClockConfig+0xbc>
 8000ecc:	f013 0f02 	tst.w	r3, #2
 8000ed0:	e7de      	b.n	8000e90 <HAL_RCC_ClockConfig+0xbc>
 8000ed2:	6813      	ldr	r3, [r2, #0]
 8000ed4:	f023 0307 	bic.w	r3, r3, #7
 8000ed8:	432b      	orrs	r3, r5
 8000eda:	6013      	str	r3, [r2, #0]
 8000edc:	6813      	ldr	r3, [r2, #0]
 8000ede:	f003 0307 	and.w	r3, r3, #7
 8000ee2:	42ab      	cmp	r3, r5
 8000ee4:	f47f af7b 	bne.w	8000dde <HAL_RCC_ClockConfig+0xa>
 8000ee8:	e78d      	b.n	8000e06 <HAL_RCC_ClockConfig+0x32>
 8000eea:	686b      	ldr	r3, [r5, #4]
 8000eec:	68e1      	ldr	r1, [r4, #12]
 8000eee:	f423 63e0 	bic.w	r3, r3, #1792	@ 0x700
 8000ef2:	430b      	orrs	r3, r1
 8000ef4:	606b      	str	r3, [r5, #4]
 8000ef6:	e78b      	b.n	8000e10 <HAL_RCC_ClockConfig+0x3c>
 8000ef8:	40022000 	.word	0x40022000
 8000efc:	40021000 	.word	0x40021000
 8000f00:	080014f1 	.word	0x080014f1
 8000f04:	20000000 	.word	0x20000000
 8000f08:	20000008 	.word	0x20000008

08000f0c <HAL_RCC_GetPCLK1Freq>:
 8000f0c:	4b04      	ldr	r3, [pc, #16]	@ (8000f20 <HAL_RCC_GetPCLK1Freq+0x14>)
 8000f0e:	4a05      	ldr	r2, [pc, #20]	@ (8000f24 <HAL_RCC_GetPCLK1Freq+0x18>)
 8000f10:	685b      	ldr	r3, [r3, #4]
 8000f12:	f3c3 2302 	ubfx	r3, r3, #8, #3
 8000f16:	5cd3      	ldrb	r3, [r2, r3]
 8000f18:	4a03      	ldr	r2, [pc, #12]	@ (8000f28 <HAL_RCC_GetPCLK1Freq+0x1c>)
 8000f1a:	6810      	ldr	r0, [r2, #0]
 8000f1c:	40d8      	lsrs	r0, r3
 8000f1e:	4770      	bx	lr
 8000f20:	40021000 	.word	0x40021000
 8000f24:	080014e9 	.word	0x080014e9
 8000f28:	20000000 	.word	0x20000000

08000f2c <HAL_RCC_GetPCLK2Freq>:
 8000f2c:	4b04      	ldr	r3, [pc, #16]	@ (8000f40 <HAL_RCC_GetPCLK2Freq+0x14>)
 8000f2e:	4a05      	ldr	r2, [pc, #20]	@ (8000f44 <HAL_RCC_GetPCLK2Freq+0x18>)
 8000f30:	685b      	ldr	r3, [r3, #4]
 8000f32:	f3c3 23c2 	ubfx	r3, r3, #11, #3
 8000f36:	5cd3      	ldrb	r3, [r2, r3]
 8000f38:	4a03      	ldr	r2, [pc, #12]	@ (8000f48 <HAL_RCC_GetPCLK2Freq+0x1c>)
 8000f3a:	6810      	ldr	r0, [r2, #0]
 8000f3c:	40d8      	lsrs	r0, r3
 8000f3e:	4770      	bx	lr
 8000f40:	40021000 	.word	0x40021000
 8000f44:	080014e9 	.word	0x080014e9
 8000f48:	20000000 	.word	0x20000000

08000f4c <HAL_SPI_Init>:
 8000f4c:	b510      	push	{r4, lr}
 8000f4e:	4604      	mov	r4, r0
 8000f50:	2800      	cmp	r0, #0
 8000f52:	d051      	beq.n	8000ff8 <HAL_SPI_Init+0xac>
 8000f54:	6a43      	ldr	r3, [r0, #36]	@ 0x24
 8000f56:	2b00      	cmp	r3, #0
 8000f58:	d14a      	bne.n	8000ff0 <HAL_SPI_Init+0xa4>
 8000f5a:	6842      	ldr	r2, [r0, #4]
 8000f5c:	f5b2 7f82 	cmp.w	r2, #260	@ 0x104
 8000f60:	d000      	beq.n	8000f64 <HAL_SPI_Init+0x18>
 8000f62:	61c3      	str	r3, [r0, #28]
 8000f64:	2300      	movs	r3, #0
 8000f66:	62a3      	str	r3, [r4, #40]	@ 0x28
 8000f68:	f894 3051 	ldrb.w	r3, [r4, #81]	@ 0x51
 8000f6c:	f003 02ff 	and.w	r2, r3, #255	@ 0xff
 8000f70:	b923      	cbnz	r3, 8000f7c <HAL_SPI_Init+0x30>
 8000f72:	4620      	mov	r0, r4
 8000f74:	f884 2050 	strb.w	r2, [r4, #80]	@ 0x50
 8000f78:	f7ff fa34 	bl	80003e4 <HAL_SPI_MspInit>
 8000f7c:	2302      	movs	r3, #2
 8000f7e:	6822      	ldr	r2, [r4, #0]
 8000f80:	f884 3051 	strb.w	r3, [r4, #81]	@ 0x51
 8000f84:	6813      	ldr	r3, [r2, #0]
 8000f86:	68a0      	ldr	r0, [r4, #8]
 8000f88:	f023 0340 	bic.w	r3, r3, #64	@ 0x40
 8000f8c:	6013      	str	r3, [r2, #0]
 8000f8e:	6863      	ldr	r3, [r4, #4]
 8000f90:	f400 4004 	and.w	r0, r0, #33792	@ 0x8400
 8000f94:	f403 7382 	and.w	r3, r3, #260	@ 0x104
 8000f98:	4303      	orrs	r3, r0
 8000f9a:	68e0      	ldr	r0, [r4, #12]
 8000f9c:	69a1      	ldr	r1, [r4, #24]
 8000f9e:	f400 6000 	and.w	r0, r0, #2048	@ 0x800
 8000fa2:	4303      	orrs	r3, r0
 8000fa4:	6920      	ldr	r0, [r4, #16]
 8000fa6:	f000 0002 	and.w	r0, r0, #2
 8000faa:	4303      	orrs	r3, r0
 8000fac:	6960      	ldr	r0, [r4, #20]
 8000fae:	f000 0001 	and.w	r0, r0, #1
 8000fb2:	4303      	orrs	r3, r0
 8000fb4:	f401 7000 	and.w	r0, r1, #512	@ 0x200
 8000fb8:	4303      	orrs	r3, r0
 8000fba:	69e0      	ldr	r0, [r4, #28]
 8000fbc:	0c09      	lsrs	r1, r1, #16
 8000fbe:	f000 0038 	and.w	r0, r0, #56	@ 0x38
 8000fc2:	4303      	orrs	r3, r0
 8000fc4:	6a20      	ldr	r0, [r4, #32]
 8000fc6:	f001 0104 	and.w	r1, r1, #4
 8000fca:	f000 0080 	and.w	r0, r0, #128	@ 0x80
 8000fce:	4303      	orrs	r3, r0
 8000fd0:	6aa0      	ldr	r0, [r4, #40]	@ 0x28
 8000fd2:	f400 5000 	and.w	r0, r0, #8192	@ 0x2000
 8000fd6:	4303      	orrs	r3, r0
 8000fd8:	6013      	str	r3, [r2, #0]
 8000fda:	6051      	str	r1, [r2, #4]
 8000fdc:	69d3      	ldr	r3, [r2, #28]
 8000fde:	2000      	movs	r0, #0
 8000fe0:	f423 6300 	bic.w	r3, r3, #2048	@ 0x800
 8000fe4:	61d3      	str	r3, [r2, #28]
 8000fe6:	2301      	movs	r3, #1
 8000fe8:	6560      	str	r0, [r4, #84]	@ 0x54
 8000fea:	f884 3051 	strb.w	r3, [r4, #81]	@ 0x51
 8000fee:	bd10      	pop	{r4, pc}
 8000ff0:	2300      	movs	r3, #0
 8000ff2:	e9c0 3304 	strd	r3, r3, [r0, #16]
 8000ff6:	e7b5      	b.n	8000f64 <HAL_SPI_Init+0x18>
 8000ff8:	2001      	movs	r0, #1
 8000ffa:	e7f8      	b.n	8000fee <HAL_SPI_Init+0xa2>

08000ffc <UART_EndRxTransfer>:
 8000ffc:	6802      	ldr	r2, [r0, #0]
 8000ffe:	f102 030c 	add.w	r3, r2, #12
 8001002:	e853 3f00 	ldrex	r3, [r3]
 8001006:	f423 7390 	bic.w	r3, r3, #288	@ 0x120
 800100a:	320c      	adds	r2, #12
 800100c:	e842 3100 	strex	r1, r3, [r2]
 8001010:	6802      	ldr	r2, [r0, #0]
 8001012:	2900      	cmp	r1, #0
 8001014:	d1f2      	bne.n	8000ffc <UART_EndRxTransfer>
 8001016:	f102 0314 	add.w	r3, r2, #20
 800101a:	e853 3f00 	ldrex	r3, [r3]
 800101e:	f023 0301 	bic.w	r3, r3, #1
 8001022:	f102 0c14 	add.w	ip, r2, #20
 8001026:	e84c 3100 	strex	r1, r3, [ip]
 800102a:	2900      	cmp	r1, #0
 800102c:	d1f3      	bne.n	8001016 <UART_EndRxTransfer+0x1a>
 800102e:	6b03      	ldr	r3, [r0, #48]	@ 0x30
 8001030:	2b01      	cmp	r3, #1
 8001032:	d10b      	bne.n	800104c <UART_EndRxTransfer+0x50>
 8001034:	f102 030c 	add.w	r3, r2, #12
 8001038:	e853 3f00 	ldrex	r3, [r3]
 800103c:	f023 0310 	bic.w	r3, r3, #16
 8001040:	f102 0c0c 	add.w	ip, r2, #12
 8001044:	e84c 3100 	strex	r1, r3, [ip]
 8001048:	2900      	cmp	r1, #0
 800104a:	d1f3      	bne.n	8001034 <UART_EndRxTransfer+0x38>
 800104c:	2320      	movs	r3, #32
 800104e:	f880 3042 	strb.w	r3, [r0, #66]	@ 0x42
 8001052:	2300      	movs	r3, #0
 8001054:	6303      	str	r3, [r0, #48]	@ 0x30
 8001056:	4770      	bx	lr

08001058 <UART_SetConfig>:
 8001058:	b510      	push	{r4, lr}
 800105a:	4604      	mov	r4, r0
 800105c:	6803      	ldr	r3, [r0, #0]
 800105e:	68c1      	ldr	r1, [r0, #12]
 8001060:	691a      	ldr	r2, [r3, #16]
 8001062:	f422 5240 	bic.w	r2, r2, #12288	@ 0x3000
 8001066:	430a      	orrs	r2, r1
 8001068:	611a      	str	r2, [r3, #16]
 800106a:	6882      	ldr	r2, [r0, #8]
 800106c:	6900      	ldr	r0, [r0, #16]
 800106e:	68d9      	ldr	r1, [r3, #12]
 8001070:	4302      	orrs	r2, r0
 8001072:	6960      	ldr	r0, [r4, #20]
 8001074:	f421 51b0 	bic.w	r1, r1, #5632	@ 0x1600
 8001078:	f021 010c 	bic.w	r1, r1, #12
 800107c:	4302      	orrs	r2, r0
 800107e:	430a      	orrs	r2, r1
 8001080:	60da      	str	r2, [r3, #12]
 8001082:	695a      	ldr	r2, [r3, #20]
 8001084:	69a1      	ldr	r1, [r4, #24]
 8001086:	f422 7240 	bic.w	r2, r2, #768	@ 0x300
 800108a:	430a      	orrs	r2, r1
 800108c:	615a      	str	r2, [r3, #20]
 800108e:	4a0e      	ldr	r2, [pc, #56]	@ (80010c8 <UART_SetConfig+0x70>)
 8001090:	4293      	cmp	r3, r2
 8001092:	d115      	bne.n	80010c0 <UART_SetConfig+0x68>
 8001094:	f7ff ff4a 	bl	8000f2c <HAL_RCC_GetPCLK2Freq>
 8001098:	2319      	movs	r3, #25
 800109a:	4343      	muls	r3, r0
 800109c:	6862      	ldr	r2, [r4, #4]
 800109e:	6820      	ldr	r0, [r4, #0]
 80010a0:	0092      	lsls	r2, r2, #2
 80010a2:	fbb3 f3f2 	udiv	r3, r3, r2
 80010a6:	2264      	movs	r2, #100	@ 0x64
 80010a8:	fbb3 f1f2 	udiv	r1, r3, r2
 80010ac:	fb02 3311 	mls	r3, r2, r1, r3
 80010b0:	011b      	lsls	r3, r3, #4
 80010b2:	3332      	adds	r3, #50	@ 0x32
 80010b4:	fbb3 f3f2 	udiv	r3, r3, r2
 80010b8:	eb03 1301 	add.w	r3, r3, r1, lsl #4
 80010bc:	6083      	str	r3, [r0, #8]
 80010be:	bd10      	pop	{r4, pc}
 80010c0:	f7ff ff24 	bl	8000f0c <HAL_RCC_GetPCLK1Freq>
 80010c4:	e7e8      	b.n	8001098 <UART_SetConfig+0x40>
 80010c6:	bf00      	nop
 80010c8:	40013800 	.word	0x40013800

080010cc <UART_WaitOnFlagUntilTimeout.constprop.0>:
 80010cc:	b5f8      	push	{r3, r4, r5, r6, r7, lr}
 80010ce:	4604      	mov	r4, r0
 80010d0:	460e      	mov	r6, r1
 80010d2:	4617      	mov	r7, r2
 80010d4:	461d      	mov	r5, r3
 80010d6:	6822      	ldr	r2, [r4, #0]
 80010d8:	6813      	ldr	r3, [r2, #0]
 80010da:	ea36 0303 	bics.w	r3, r6, r3
 80010de:	d101      	bne.n	80010e4 <UART_WaitOnFlagUntilTimeout.constprop.0+0x18>
 80010e0:	2000      	movs	r0, #0
 80010e2:	e028      	b.n	8001136 <UART_WaitOnFlagUntilTimeout.constprop.0+0x6a>
 80010e4:	1c6b      	adds	r3, r5, #1
 80010e6:	d0f7      	beq.n	80010d8 <UART_WaitOnFlagUntilTimeout.constprop.0+0xc>
 80010e8:	b125      	cbz	r5, 80010f4 <UART_WaitOnFlagUntilTimeout.constprop.0+0x28>
 80010ea:	f7ff fa87 	bl	80005fc <HAL_GetTick>
 80010ee:	1bc0      	subs	r0, r0, r7
 80010f0:	4285      	cmp	r5, r0
 80010f2:	d2f0      	bcs.n	80010d6 <UART_WaitOnFlagUntilTimeout.constprop.0+0xa>
 80010f4:	6822      	ldr	r2, [r4, #0]
 80010f6:	f102 030c 	add.w	r3, r2, #12
 80010fa:	e853 3f00 	ldrex	r3, [r3]
 80010fe:	f423 73d0 	bic.w	r3, r3, #416	@ 0x1a0
 8001102:	320c      	adds	r2, #12
 8001104:	e842 3000 	strex	r0, r3, [r2]
 8001108:	6821      	ldr	r1, [r4, #0]
 800110a:	2800      	cmp	r0, #0
 800110c:	d1f2      	bne.n	80010f4 <UART_WaitOnFlagUntilTimeout.constprop.0+0x28>
 800110e:	f101 0314 	add.w	r3, r1, #20
 8001112:	e853 3f00 	ldrex	r3, [r3]
 8001116:	f023 0301 	bic.w	r3, r3, #1
 800111a:	f101 0014 	add.w	r0, r1, #20
 800111e:	e840 3200 	strex	r2, r3, [r0]
 8001122:	2a00      	cmp	r2, #0
 8001124:	d1f3      	bne.n	800110e <UART_WaitOnFlagUntilTimeout.constprop.0+0x42>
 8001126:	2320      	movs	r3, #32
 8001128:	2003      	movs	r0, #3
 800112a:	f884 3041 	strb.w	r3, [r4, #65]	@ 0x41
 800112e:	f884 2040 	strb.w	r2, [r4, #64]	@ 0x40
 8001132:	f884 3042 	strb.w	r3, [r4, #66]	@ 0x42
 8001136:	bdf8      	pop	{r3, r4, r5, r6, r7, pc}

08001138 <HAL_UART_Init>:
 8001138:	b510      	push	{r4, lr}
 800113a:	4604      	mov	r4, r0
 800113c:	b348      	cbz	r0, 8001192 <HAL_UART_Init+0x5a>
 800113e:	f890 3041 	ldrb.w	r3, [r0, #65]	@ 0x41
 8001142:	f003 02ff 	and.w	r2, r3, #255	@ 0xff
 8001146:	b91b      	cbnz	r3, 8001150 <HAL_UART_Init+0x18>
 8001148:	f880 2040 	strb.w	r2, [r0, #64]	@ 0x40
 800114c:	f7ff f984 	bl	8000458 <HAL_UART_MspInit>
 8001150:	2324      	movs	r3, #36	@ 0x24
 8001152:	6822      	ldr	r2, [r4, #0]
 8001154:	f884 3041 	strb.w	r3, [r4, #65]	@ 0x41
 8001158:	68d3      	ldr	r3, [r2, #12]
 800115a:	4620      	mov	r0, r4
 800115c:	f423 5300 	bic.w	r3, r3, #8192	@ 0x2000
 8001160:	60d3      	str	r3, [r2, #12]
 8001162:	f7ff ff79 	bl	8001058 <UART_SetConfig>
 8001166:	6823      	ldr	r3, [r4, #0]
 8001168:	2000      	movs	r0, #0
 800116a:	691a      	ldr	r2, [r3, #16]
 800116c:	f422 4290 	bic.w	r2, r2, #18432	@ 0x4800
 8001170:	611a      	str	r2, [r3, #16]
 8001172:	695a      	ldr	r2, [r3, #20]
 8001174:	f022 022a 	bic.w	r2, r2, #42	@ 0x2a
 8001178:	615a      	str	r2, [r3, #20]
 800117a:	68da      	ldr	r2, [r3, #12]
 800117c:	f442 5200 	orr.w	r2, r2, #8192	@ 0x2000
 8001180:	60da      	str	r2, [r3, #12]
 8001182:	2320      	movs	r3, #32
 8001184:	6460      	str	r0, [r4, #68]	@ 0x44
 8001186:	f884 3041 	strb.w	r3, [r4, #65]	@ 0x41
 800118a:	f884 3042 	strb.w	r3, [r4, #66]	@ 0x42
 800118e:	6360      	str	r0, [r4, #52]	@ 0x34
 8001190:	bd10      	pop	{r4, pc}
 8001192:	2001      	movs	r0, #1
 8001194:	e7fc      	b.n	8001190 <HAL_UART_Init+0x58>

08001196 <HAL_HalfDuplex_Init>:
 8001196:	b510      	push	{r4, lr}
 8001198:	4604      	mov	r4, r0
 800119a:	b368      	cbz	r0, 80011f8 <HAL_HalfDuplex_Init+0x62>
 800119c:	f890 3041 	ldrb.w	r3, [r0, #65]	@ 0x41
 80011a0:	f003 02ff 	and.w	r2, r3, #255	@ 0xff
 80011a4:	b91b      	cbnz	r3, 80011ae <HAL_HalfDuplex_Init+0x18>
 80011a6:	f880 2040 	strb.w	r2, [r0, #64]	@ 0x40
 80011aa:	f7ff f955 	bl	8000458 <HAL_UART_MspInit>
 80011ae:	2324      	movs	r3, #36	@ 0x24
 80011b0:	6822      	ldr	r2, [r4, #0]
 80011b2:	f884 3041 	strb.w	r3, [r4, #65]	@ 0x41
 80011b6:	68d3      	ldr	r3, [r2, #12]
 80011b8:	4620      	mov	r0, r4
 80011ba:	f423 5300 	bic.w	r3, r3, #8192	@ 0x2000
 80011be:	60d3      	str	r3, [r2, #12]
 80011c0:	f7ff ff4a 	bl	8001058 <UART_SetConfig>
 80011c4:	6823      	ldr	r3, [r4, #0]
 80011c6:	2000      	movs	r0, #0
 80011c8:	691a      	ldr	r2, [r3, #16]
 80011ca:	f422 4290 	bic.w	r2, r2, #18432	@ 0x4800
 80011ce:	611a      	str	r2, [r3, #16]
 80011d0:	695a      	ldr	r2, [r3, #20]
 80011d2:	f022 0222 	bic.w	r2, r2, #34	@ 0x22
 80011d6:	615a      	str	r2, [r3, #20]
 80011d8:	695a      	ldr	r2, [r3, #20]
 80011da:	f042 0208 	orr.w	r2, r2, #8
 80011de:	615a      	str	r2, [r3, #20]
 80011e0:	68da      	ldr	r2, [r3, #12]
 80011e2:	f442 5200 	orr.w	r2, r2, #8192	@ 0x2000
 80011e6:	60da      	str	r2, [r3, #12]
 80011e8:	2320      	movs	r3, #32
 80011ea:	6460      	str	r0, [r4, #68]	@ 0x44
 80011ec:	f884 3041 	strb.w	r3, [r4, #65]	@ 0x41
 80011f0:	f884 3042 	strb.w	r3, [r4, #66]	@ 0x42
 80011f4:	6360      	str	r0, [r4, #52]	@ 0x34
 80011f6:	bd10      	pop	{r4, pc}
 80011f8:	2001      	movs	r0, #1
 80011fa:	e7fc      	b.n	80011f6 <HAL_HalfDuplex_Init+0x60>

080011fc <HAL_UART_Transmit>:
 80011fc:	e92d 43f8 	stmdb	sp!, {r3, r4, r5, r6, r7, r8, r9, lr}
 8001200:	4698      	mov	r8, r3
 8001202:	f890 3041 	ldrb.w	r3, [r0, #65]	@ 0x41
 8001206:	4604      	mov	r4, r0
 8001208:	2b20      	cmp	r3, #32
 800120a:	460e      	mov	r6, r1
 800120c:	4617      	mov	r7, r2
 800120e:	d13c      	bne.n	800128a <HAL_UART_Transmit+0x8e>
 8001210:	2900      	cmp	r1, #0
 8001212:	d03c      	beq.n	800128e <HAL_UART_Transmit+0x92>
 8001214:	2a00      	cmp	r2, #0
 8001216:	d03a      	beq.n	800128e <HAL_UART_Transmit+0x92>
 8001218:	2321      	movs	r3, #33	@ 0x21
 800121a:	2500      	movs	r5, #0
 800121c:	6445      	str	r5, [r0, #68]	@ 0x44
 800121e:	f880 3041 	strb.w	r3, [r0, #65]	@ 0x41
 8001222:	f7ff f9eb 	bl	80005fc <HAL_GetTick>
 8001226:	68a3      	ldr	r3, [r4, #8]
 8001228:	4681      	mov	r9, r0
 800122a:	f5b3 5f80 	cmp.w	r3, #4096	@ 0x1000
 800122e:	84a7      	strh	r7, [r4, #36]	@ 0x24
 8001230:	84e7      	strh	r7, [r4, #38]	@ 0x26
 8001232:	d103      	bne.n	800123c <HAL_UART_Transmit+0x40>
 8001234:	6923      	ldr	r3, [r4, #16]
 8001236:	b90b      	cbnz	r3, 800123c <HAL_UART_Transmit+0x40>
 8001238:	4635      	mov	r5, r6
 800123a:	461e      	mov	r6, r3
 800123c:	8ce3      	ldrh	r3, [r4, #38]	@ 0x26
 800123e:	b29b      	uxth	r3, r3
 8001240:	b953      	cbnz	r3, 8001258 <HAL_UART_Transmit+0x5c>
 8001242:	4643      	mov	r3, r8
 8001244:	464a      	mov	r2, r9
 8001246:	2140      	movs	r1, #64	@ 0x40
 8001248:	4620      	mov	r0, r4
 800124a:	f7ff ff3f 	bl	80010cc <UART_WaitOnFlagUntilTimeout.constprop.0>
 800124e:	b950      	cbnz	r0, 8001266 <HAL_UART_Transmit+0x6a>
 8001250:	2320      	movs	r3, #32
 8001252:	f884 3041 	strb.w	r3, [r4, #65]	@ 0x41
 8001256:	e007      	b.n	8001268 <HAL_UART_Transmit+0x6c>
 8001258:	4643      	mov	r3, r8
 800125a:	464a      	mov	r2, r9
 800125c:	2180      	movs	r1, #128	@ 0x80
 800125e:	4620      	mov	r0, r4
 8001260:	f7ff ff34 	bl	80010cc <UART_WaitOnFlagUntilTimeout.constprop.0>
 8001264:	b110      	cbz	r0, 800126c <HAL_UART_Transmit+0x70>
 8001266:	2003      	movs	r0, #3
 8001268:	e8bd 83f8 	ldmia.w	sp!, {r3, r4, r5, r6, r7, r8, r9, pc}
 800126c:	6822      	ldr	r2, [r4, #0]
 800126e:	b94e      	cbnz	r6, 8001284 <HAL_UART_Transmit+0x88>
 8001270:	f835 3b02 	ldrh.w	r3, [r5], #2
 8001274:	f3c3 0308 	ubfx	r3, r3, #0, #9
 8001278:	6053      	str	r3, [r2, #4]
 800127a:	8ce1      	ldrh	r1, [r4, #38]	@ 0x26
 800127c:	3901      	subs	r1, #1
 800127e:	b289      	uxth	r1, r1
 8001280:	84e1      	strh	r1, [r4, #38]	@ 0x26
 8001282:	e7db      	b.n	800123c <HAL_UART_Transmit+0x40>
 8001284:	f816 3b01 	ldrb.w	r3, [r6], #1
 8001288:	e7f6      	b.n	8001278 <HAL_UART_Transmit+0x7c>
 800128a:	2002      	movs	r0, #2
 800128c:	e7ec      	b.n	8001268 <HAL_UART_Transmit+0x6c>
 800128e:	2001      	movs	r0, #1
 8001290:	e7ea      	b.n	8001268 <HAL_UART_Transmit+0x6c>

08001292 <HAL_UART_RxCpltCallback>:
 8001292:	4770      	bx	lr

08001294 <HAL_UART_RxHalfCpltCallback>:
 8001294:	4770      	bx	lr

08001296 <HAL_UART_ErrorCallback>:
 8001296:	4770      	bx	lr

08001298 <UART_DMAError>:
 8001298:	b508      	push	{r3, lr}
 800129a:	6a40      	ldr	r0, [r0, #36]	@ 0x24
 800129c:	6803      	ldr	r3, [r0, #0]
 800129e:	695a      	ldr	r2, [r3, #20]
 80012a0:	f890 1041 	ldrb.w	r1, [r0, #65]	@ 0x41
 80012a4:	2921      	cmp	r1, #33	@ 0x21
 80012a6:	d112      	bne.n	80012ce <UART_DMAError+0x36>
 80012a8:	0612      	lsls	r2, r2, #24
 80012aa:	d510      	bpl.n	80012ce <UART_DMAError+0x36>
 80012ac:	2200      	movs	r2, #0
 80012ae:	84c2      	strh	r2, [r0, #38]	@ 0x26
 80012b0:	f103 020c 	add.w	r2, r3, #12
 80012b4:	e852 2f00 	ldrex	r2, [r2]
 80012b8:	f022 02c0 	bic.w	r2, r2, #192	@ 0xc0
 80012bc:	f103 0c0c 	add.w	ip, r3, #12
 80012c0:	e84c 2100 	strex	r1, r2, [ip]
 80012c4:	2900      	cmp	r1, #0
 80012c6:	d1f3      	bne.n	80012b0 <UART_DMAError+0x18>
 80012c8:	2220      	movs	r2, #32
 80012ca:	f880 2041 	strb.w	r2, [r0, #65]	@ 0x41
 80012ce:	695b      	ldr	r3, [r3, #20]
 80012d0:	f890 2042 	ldrb.w	r2, [r0, #66]	@ 0x42
 80012d4:	2a22      	cmp	r2, #34	@ 0x22
 80012d6:	d105      	bne.n	80012e4 <UART_DMAError+0x4c>
 80012d8:	065b      	lsls	r3, r3, #25
 80012da:	d503      	bpl.n	80012e4 <UART_DMAError+0x4c>
 80012dc:	2300      	movs	r3, #0
 80012de:	85c3      	strh	r3, [r0, #46]	@ 0x2e
 80012e0:	f7ff fe8c 	bl	8000ffc <UART_EndRxTransfer>
 80012e4:	6c43      	ldr	r3, [r0, #68]	@ 0x44
 80012e6:	f043 0310 	orr.w	r3, r3, #16
 80012ea:	6443      	str	r3, [r0, #68]	@ 0x44
 80012ec:	f7ff ffd3 	bl	8001296 <HAL_UART_ErrorCallback>
 80012f0:	bd08      	pop	{r3, pc}

080012f2 <HAL_UARTEx_RxEventCallback>:
 80012f2:	4770      	bx	lr

080012f4 <UART_DMARxHalfCplt>:
 80012f4:	b508      	push	{r3, lr}
 80012f6:	2301      	movs	r3, #1
 80012f8:	6a40      	ldr	r0, [r0, #36]	@ 0x24
 80012fa:	6343      	str	r3, [r0, #52]	@ 0x34
 80012fc:	6b03      	ldr	r3, [r0, #48]	@ 0x30
 80012fe:	2b01      	cmp	r3, #1
 8001300:	d104      	bne.n	800130c <UART_DMARxHalfCplt+0x18>
 8001302:	8d81      	ldrh	r1, [r0, #44]	@ 0x2c
 8001304:	0849      	lsrs	r1, r1, #1
 8001306:	f7ff fff4 	bl	80012f2 <HAL_UARTEx_RxEventCallback>
 800130a:	bd08      	pop	{r3, pc}
 800130c:	f7ff ffc2 	bl	8001294 <HAL_UART_RxHalfCpltCallback>
 8001310:	e7fb      	b.n	800130a <UART_DMARxHalfCplt+0x16>

08001312 <UART_DMAReceiveCplt>:
 8001312:	b508      	push	{r3, lr}
 8001314:	4603      	mov	r3, r0
 8001316:	681b      	ldr	r3, [r3, #0]
 8001318:	6a40      	ldr	r0, [r0, #36]	@ 0x24
 800131a:	681b      	ldr	r3, [r3, #0]
 800131c:	f013 0320 	ands.w	r3, r3, #32
 8001320:	d137      	bne.n	8001392 <UART_DMAReceiveCplt+0x80>
 8001322:	85c3      	strh	r3, [r0, #46]	@ 0x2e
 8001324:	6802      	ldr	r2, [r0, #0]
 8001326:	f102 030c 	add.w	r3, r2, #12
 800132a:	e853 3f00 	ldrex	r3, [r3]
 800132e:	f423 7380 	bic.w	r3, r3, #256	@ 0x100
 8001332:	320c      	adds	r2, #12
 8001334:	e842 3100 	strex	r1, r3, [r2]
 8001338:	6803      	ldr	r3, [r0, #0]
 800133a:	2900      	cmp	r1, #0
 800133c:	d1f2      	bne.n	8001324 <UART_DMAReceiveCplt+0x12>
 800133e:	f103 0214 	add.w	r2, r3, #20
 8001342:	e852 2f00 	ldrex	r2, [r2]
 8001346:	f022 0201 	bic.w	r2, r2, #1
 800134a:	f103 0c14 	add.w	ip, r3, #20
 800134e:	e84c 2100 	strex	r1, r2, [ip]
 8001352:	2900      	cmp	r1, #0
 8001354:	d1f3      	bne.n	800133e <UART_DMAReceiveCplt+0x2c>
 8001356:	f103 0214 	add.w	r2, r3, #20
 800135a:	e852 2f00 	ldrex	r2, [r2]
 800135e:	f022 0240 	bic.w	r2, r2, #64	@ 0x40
 8001362:	f103 0c14 	add.w	ip, r3, #20
 8001366:	e84c 2100 	strex	r1, r2, [ip]
 800136a:	2900      	cmp	r1, #0
 800136c:	d1f3      	bne.n	8001356 <UART_DMAReceiveCplt+0x44>
 800136e:	2220      	movs	r2, #32
 8001370:	f880 2042 	strb.w	r2, [r0, #66]	@ 0x42
 8001374:	6b02      	ldr	r2, [r0, #48]	@ 0x30
 8001376:	2a01      	cmp	r2, #1
 8001378:	d10b      	bne.n	8001392 <UART_DMAReceiveCplt+0x80>
 800137a:	f103 020c 	add.w	r2, r3, #12
 800137e:	e852 2f00 	ldrex	r2, [r2]
 8001382:	f022 0210 	bic.w	r2, r2, #16
 8001386:	f103 0c0c 	add.w	ip, r3, #12
 800138a:	e84c 2100 	strex	r1, r2, [ip]
 800138e:	2900      	cmp	r1, #0
 8001390:	d1f3      	bne.n	800137a <UART_DMAReceiveCplt+0x68>
 8001392:	2300      	movs	r3, #0
 8001394:	6343      	str	r3, [r0, #52]	@ 0x34
 8001396:	6b03      	ldr	r3, [r0, #48]	@ 0x30
 8001398:	2b01      	cmp	r3, #1
 800139a:	d103      	bne.n	80013a4 <UART_DMAReceiveCplt+0x92>
 800139c:	8d81      	ldrh	r1, [r0, #44]	@ 0x2c
 800139e:	f7ff ffa8 	bl	80012f2 <HAL_UARTEx_RxEventCallback>
 80013a2:	bd08      	pop	{r3, pc}
 80013a4:	f7ff ff75 	bl	8001292 <HAL_UART_RxCpltCallback>
 80013a8:	e7fb      	b.n	80013a2 <UART_DMAReceiveCplt+0x90>
	...

080013ac <UART_Start_Receive_DMA>:
 80013ac:	b573      	push	{r0, r1, r4, r5, r6, lr}
 80013ae:	4613      	mov	r3, r2
 80013b0:	8582      	strh	r2, [r0, #44]	@ 0x2c
 80013b2:	2500      	movs	r5, #0
 80013b4:	2222      	movs	r2, #34	@ 0x22
 80013b6:	4604      	mov	r4, r0
 80013b8:	6281      	str	r1, [r0, #40]	@ 0x28
 80013ba:	6445      	str	r5, [r0, #68]	@ 0x44
 80013bc:	f880 2042 	strb.w	r2, [r0, #66]	@ 0x42
 80013c0:	6bc0      	ldr	r0, [r0, #60]	@ 0x3c
 80013c2:	4a1d      	ldr	r2, [pc, #116]	@ (8001438 <UART_Start_Receive_DMA+0x8c>)
 80013c4:	6826      	ldr	r6, [r4, #0]
 80013c6:	6282      	str	r2, [r0, #40]	@ 0x28
 80013c8:	4a1c      	ldr	r2, [pc, #112]	@ (800143c <UART_Start_Receive_DMA+0x90>)
 80013ca:	62c2      	str	r2, [r0, #44]	@ 0x2c
 80013cc:	4a1c      	ldr	r2, [pc, #112]	@ (8001440 <UART_Start_Receive_DMA+0x94>)
 80013ce:	e9c0 250c 	strd	r2, r5, [r0, #48]	@ 0x30
 80013d2:	460a      	mov	r2, r1
 80013d4:	1d31      	adds	r1, r6, #4
 80013d6:	f7ff f97f 	bl	80006d8 <HAL_DMA_Start_IT>
 80013da:	6823      	ldr	r3, [r4, #0]
 80013dc:	9501      	str	r5, [sp, #4]
 80013de:	681a      	ldr	r2, [r3, #0]
 80013e0:	9201      	str	r2, [sp, #4]
 80013e2:	685a      	ldr	r2, [r3, #4]
 80013e4:	9201      	str	r2, [sp, #4]
 80013e6:	9a01      	ldr	r2, [sp, #4]
 80013e8:	6922      	ldr	r2, [r4, #16]
 80013ea:	b15a      	cbz	r2, 8001404 <UART_Start_Receive_DMA+0x58>
 80013ec:	f103 020c 	add.w	r2, r3, #12
 80013f0:	e852 2f00 	ldrex	r2, [r2]
 80013f4:	f442 7280 	orr.w	r2, r2, #256	@ 0x100
 80013f8:	f103 000c 	add.w	r0, r3, #12
 80013fc:	e840 2100 	strex	r1, r2, [r0]
 8001400:	2900      	cmp	r1, #0
 8001402:	d1f3      	bne.n	80013ec <UART_Start_Receive_DMA+0x40>
 8001404:	f103 0214 	add.w	r2, r3, #20
 8001408:	e852 2f00 	ldrex	r2, [r2]
 800140c:	f042 0201 	orr.w	r2, r2, #1
 8001410:	f103 0014 	add.w	r0, r3, #20
 8001414:	e840 2100 	strex	r1, r2, [r0]
 8001418:	2900      	cmp	r1, #0
 800141a:	d1f3      	bne.n	8001404 <UART_Start_Receive_DMA+0x58>
 800141c:	f103 0214 	add.w	r2, r3, #20
 8001420:	e852 2f00 	ldrex	r2, [r2]
 8001424:	f042 0240 	orr.w	r2, r2, #64	@ 0x40
 8001428:	f103 0114 	add.w	r1, r3, #20
 800142c:	e841 2000 	strex	r0, r2, [r1]
 8001430:	2800      	cmp	r0, #0
 8001432:	d1f3      	bne.n	800141c <UART_Start_Receive_DMA+0x70>
 8001434:	b002      	add	sp, #8
 8001436:	bd70      	pop	{r4, r5, r6, pc}
 8001438:	08001313 	.word	0x08001313
 800143c:	080012f5 	.word	0x080012f5
 8001440:	08001299 	.word	0x08001299

08001444 <HAL_UART_Receive_DMA>:
 8001444:	b470      	push	{r4, r5, r6}
 8001446:	f890 6042 	ldrb.w	r6, [r0, #66]	@ 0x42
 800144a:	2e20      	cmp	r6, #32
 800144c:	d106      	bne.n	800145c <HAL_UART_Receive_DMA+0x18>
 800144e:	b141      	cbz	r1, 8001462 <HAL_UART_Receive_DMA+0x1e>
 8001450:	b13a      	cbz	r2, 8001462 <HAL_UART_Receive_DMA+0x1e>
 8001452:	2400      	movs	r4, #0
 8001454:	6304      	str	r4, [r0, #48]	@ 0x30
 8001456:	bc70      	pop	{r4, r5, r6}
 8001458:	f7ff bfa8 	b.w	80013ac <UART_Start_Receive_DMA>
 800145c:	2002      	movs	r0, #2
 800145e:	bc70      	pop	{r4, r5, r6}
 8001460:	4770      	bx	lr
 8001462:	2001      	movs	r0, #1
 8001464:	e7fb      	b.n	800145e <HAL_UART_Receive_DMA+0x1a>

08001466 <memset>:
 8001466:	4603      	mov	r3, r0
 8001468:	4402      	add	r2, r0
 800146a:	4293      	cmp	r3, r2
 800146c:	d100      	bne.n	8001470 <memset+0xa>
 800146e:	4770      	bx	lr
 8001470:	f803 1b01 	strb.w	r1, [r3], #1
 8001474:	e7f9      	b.n	800146a <memset+0x4>
	...

08001478 <__libc_init_array>:
 8001478:	b570      	push	{r4, r5, r6, lr}
 800147a:	2600      	movs	r6, #0
 800147c:	4d0c      	ldr	r5, [pc, #48]	@ (80014b0 <__libc_init_array+0x38>)
 800147e:	4c0d      	ldr	r4, [pc, #52]	@ (80014b4 <__libc_init_array+0x3c>)
 8001480:	1b64      	subs	r4, r4, r5
 8001482:	10a4      	asrs	r4, r4, #2
 8001484:	42a6      	cmp	r6, r4
 8001486:	d109      	bne.n	800149c <__libc_init_array+0x24>
 8001488:	f000 f81a 	bl	80014c0 <_init>
 800148c:	2600      	movs	r6, #0
 800148e:	4d0a      	ldr	r5, [pc, #40]	@ (80014b8 <__libc_init_array+0x40>)
 8001490:	4c0a      	ldr	r4, [pc, #40]	@ (80014bc <__libc_init_array+0x44>)
 8001492:	1b64      	subs	r4, r4, r5
 8001494:	10a4      	asrs	r4, r4, #2
 8001496:	42a6      	cmp	r6, r4
 8001498:	d105      	bne.n	80014a6 <__libc_init_array+0x2e>
 800149a:	bd70      	pop	{r4, r5, r6, pc}
 800149c:	f855 3b04 	ldr.w	r3, [r5], #4
 80014a0:	4798      	blx	r3
 80014a2:	3601      	adds	r6, #1
 80014a4:	e7ee      	b.n	8001484 <__libc_init_array+0xc>
 80014a6:	f855 3b04 	ldr.w	r3, [r5], #4
 80014aa:	4798      	blx	r3
 80014ac:	3601      	adds	r6, #1
 80014ae:	e7f2      	b.n	8001496 <__libc_init_array+0x1e>
 80014b0:	08001514 	.word	0x08001514
 80014b4:	08001514 	.word	0x08001514
 80014b8:	08001514 	.word	0x08001514
 80014bc:	08001518 	.word	0x08001518

080014c0 <_init>:
 80014c0:	b5f8      	push	{r3, r4, r5, r6, r7, lr}
 80014c2:	bf00      	nop
 80014c4:	bcf8      	pop	{r3, r4, r5, r6, r7}
 80014c6:	bc08      	pop	{r3}
 80014c8:	469e      	mov	lr, r3
 80014ca:	4770      	bx	lr

080014cc <_fini>:
 80014cc:	b5f8      	push	{r3, r4, r5, r6, r7, lr}
 80014ce:	bf00      	nop
 80014d0:	bcf8      	pop	{r3, r4, r5, r6, r7}
 80014d2:	bc08      	pop	{r3}
 80014d4:	469e      	mov	lr, r3
 80014d6:	4770      	bx	lr
