
F103C6_project.elf:     file format elf32-littlearm

Sections:
Idx Name          Size      VMA       LMA       File off  Algn
  0 .isr_vector   0000010c  08000000  08000000  00001000  2**0
                  CONTENTS, ALLOC, LOAD, READONLY, DATA
  1 .text         000015d0  0800010c  0800010c  0000110c  2**2
                  CONTENTS, ALLOC, LOAD, READONLY, CODE
  2 .rodata       0000003c  080016dc  080016dc  000026dc  2**2
                  CONTENTS, ALLOC, LOAD, READONLY, DATA
  3 .ARM.extab    00000000  08001718  08001718  0000300c  2**0
                  CONTENTS
  4 .ARM          00000000  08001718  08001718  0000300c  2**0
                  CONTENTS
  5 .preinit_array 00000000  08001718  08001718  0000300c  2**0
                  CONTENTS, ALLOC, LOAD, DATA
  6 .init_array   00000004  08001718  08001718  00002718  2**2
                  CONTENTS, ALLOC, LOAD, READONLY, DATA
  7 .fini_array   00000004  0800171c  0800171c  0000271c  2**2
                  CONTENTS, ALLOC, LOAD, READONLY, DATA
  8 .data         0000000c  20000000  08001720  00003000  2**2
                  CONTENTS, ALLOC, LOAD, DATA
  9 .bss          00000068  2000000c  0800172c  0000300c  2**2
                  ALLOC
 10 ._user_heap_stack 00000604  20000074  0800172c  00003074  2**0
                  ALLOC
 11 .ARM.attributes 00000029  00000000  00000000  0000300c  2**0
                  CONTENTS, READONLY
 12 .debug_info   0000636c  00000000  00000000  00003035  2**0
                  CONTENTS, READONLY, DEBUGGING, OCTETS
 13 .debug_abbrev 00001240  00000000  00000000  000093a1  2**0
                  CONTENTS, READONLY, DEBUGGING, OCTETS
 14 .debug_aranges 000005f0  00000000  00000000  0000a5e8  2**3
                  CONTENTS, READONLY, DEBUGGING, OCTETS
 15 .debug_rnglists 00000486  00000000  00000000  0000abd8  2**0
                  CONTENTS, READONLY, DEBUGGING, OCTETS
 16 .debug_macro  000159bf  00000000  00000000  0000b05e  2**0
                  CONTENTS, READONLY, DEBUGGING, OCTETS
 17 .debug_line   00007381  00000000  00000000  00020a1d  2**0
                  CONTENTS, READONLY, DEBUGGING, OCTETS
 18 .debug_str    0007be9c  00000000  00000000  00027d9e  2**0
                  CONTENTS, READONLY, DEBUGGING, OCTETS
 19 .comment      00000043  00000000  00000000  000a3c3a  2**0
                  CONTENTS, READONLY
 20 .debug_frame  000016d8  00000000  00000000  000a3c80  2**2
                  CONTENTS, READONLY, DEBUGGING, OCTETS
 21 .debug_line_str 0000005d  00000000  00000000  000a5358  2**0
                  CONTENTS, READONLY, DEBUGGING, OCTETS

Disassembly of section .text:

0800010c <__do_global_dtors_aux>:
 800010c:	b510      	push	{r4, lr}
 800010e:	4c05      	ldr	r4, [pc, #20]	@ (8000124 <__do_global_dtors_aux+0x18>)
 8000110:	7823      	ldrb	r3, [r4, #0]
 8000112:	b933      	cbnz	r3, 8000122 <__do_global_dtors_aux+0x16>
 8000114:	4b04      	ldr	r3, [pc, #16]	@ (8000128 <__do_global_dtors_aux+0x1c>)
 8000116:	b113      	cbz	r3, 800011e <__do_global_dtors_aux+0x12>
 8000118:	4804      	ldr	r0, [pc, #16]	@ (800012c <__do_global_dtors_aux+0x20>)
 800011a:	f3af 8000 	nop.w
 800011e:	2301      	movs	r3, #1
 8000120:	7023      	strb	r3, [r4, #0]
 8000122:	bd10      	pop	{r4, pc}
 8000124:	2000000c 	.word	0x2000000c
 8000128:	00000000 	.word	0x00000000
 800012c:	080016c4 	.word	0x080016c4

08000130 <frame_dummy>:
 8000130:	b508      	push	{r3, lr}
 8000132:	4b03      	ldr	r3, [pc, #12]	@ (8000140 <frame_dummy+0x10>)
 8000134:	b11b      	cbz	r3, 800013e <frame_dummy+0xe>
 8000136:	4903      	ldr	r1, [pc, #12]	@ (8000144 <frame_dummy+0x14>)
 8000138:	4803      	ldr	r0, [pc, #12]	@ (8000148 <frame_dummy+0x18>)
 800013a:	f3af 8000 	nop.w
 800013e:	bd08      	pop	{r3, pc}
 8000140:	00000000 	.word	0x00000000
 8000144:	20000010 	.word	0x20000010
 8000148:	080016c4 	.word	0x080016c4

0800014c <main>:
/**
  * @brief  The application entry point.
  * @retval int
  */
int main(void)
{
 800014c:	b590      	push	{r4, r7, lr}
 800014e:	b085      	sub	sp, #20
 8000150:	af00      	add	r7, sp, #0

  /* USER CODE BEGIN 1 */
	const uint8_t hello[] = "Hello, World\r\n";
 8000152:	4b1a      	ldr	r3, [pc, #104]	@ (80001bc <main+0x70>)
 8000154:	463c      	mov	r4, r7
 8000156:	cb0f      	ldmia	r3, {r0, r1, r2, r3}
 8000158:	c407      	stmia	r4!, {r0, r1, r2}
 800015a:	8023      	strh	r3, [r4, #0]
 800015c:	3402      	adds	r4, #2
 800015e:	0c1b      	lsrs	r3, r3, #16
 8000160:	7023      	strb	r3, [r4, #0]
  /* USER CODE END 1 */

  /* MCU Configuration--------------------------------------------------------*/

  /* Reset of all peripherals, Initializes the Flash interface and the Systick. */
  HAL_Init();
 8000162:	f000 f9a5 	bl	80004b0 <HAL_Init>
  /* USER CODE BEGIN Init */

  /* USER CODE END Init */

  /* Configure the system clock */
  SystemClock_Config();
 8000166:	f000 f82f 	bl	80001c8 <SystemClock_Config>
  /* USER CODE BEGIN SysInit */

  /* USER CODE END SysInit */

  /* Initialize all configured peripherals */
  MX_GPIO_Init();
 800016a:	f000 f893 	bl	8000294 <MX_GPIO_Init>
  MX_USART1_UART_Init();
 800016e:	f000 f867 	bl	8000240 <MX_USART1_UART_Init>
  /* USER CODE BEGIN 2 */
  HAL_UART_Transmit(&huart1, hello, sizeof(hello) - 1, 1000);
 8000172:	4639      	mov	r1, r7
 8000174:	f44f 737a 	mov.w	r3, #1000	@ 0x3e8
 8000178:	220e      	movs	r2, #14
 800017a:	4811      	ldr	r0, [pc, #68]	@ (80001c0 <main+0x74>)
 800017c:	f001 f8f6 	bl	800136c <HAL_UART_Transmit>
  /* Infinite loop */
  /* USER CODE BEGIN WHILE */
  while (1)
  {
    /* USER CODE END WHILE */
	  HAL_Delay(500);
 8000180:	f44f 70fa 	mov.w	r0, #500	@ 0x1f4
 8000184:	f000 f9f6 	bl	8000574 <HAL_Delay>
	  HAL_GPIO_WritePin(GPIOA, Led1_Pin, GPIO_PIN_SET);
 8000188:	2201      	movs	r2, #1
 800018a:	2102      	movs	r1, #2
 800018c:	480d      	ldr	r0, [pc, #52]	@ (80001c4 <main+0x78>)
 800018e:	f000 fc75 	bl	8000a7c <HAL_GPIO_WritePin>
	  HAL_Delay(500);
 8000192:	f44f 70fa 	mov.w	r0, #500	@ 0x1f4
 8000196:	f000 f9ed 	bl	8000574 <HAL_Delay>
	  HAL_GPIO_WritePin(GPIOA, Led1_Pin, GPIO_PIN_SET);
 800019a:	2201      	movs	r2, #1
 800019c:	2102      	movs	r1, #2
 800019e:	4809      	ldr	r0, [pc, #36]	@ (80001c4 <main+0x78>)
 80001a0:	f000 fc6c 	bl	8000a7c <HAL_GPIO_WritePin>
	  HAL_Delay(500);
 80001a4:	f44f 70fa 	mov.w	r0, #500	@ 0x1f4
 80001a8:	f000 f9e4 	bl	8000574 <HAL_Delay>
	  HAL_GPIO_WritePin(GPIOA, Led1_Pin, GPIO_PIN_SET);
 80001ac:	2201      	movs	r2, #1
 80001ae:	2102      	movs	r1, #2
 80001b0:	4804      	ldr	r0, [pc, #16]	@ (80001c4 <main+0x78>)
 80001b2:	f000 fc63 	bl	8000a7c <HAL_GPIO_WritePin>
	  HAL_Delay(500);
 80001b6:	bf00      	nop
 80001b8:	e7e2      	b.n	8000180 <main+0x34>
 80001ba:	bf00      	nop
 80001bc:	080016dc 	.word	0x080016dc
 80001c0:	20000028 	.word	0x20000028
 80001c4:	40010800 	.word	0x40010800

080001c8 <SystemClock_Config>:
/**
  * @brief System Clock Configuration
  * @retval None
  */
void SystemClock_Config(void)
{
 80001c8:	b580      	push	{r7, lr}
 80001ca:	b090      	sub	sp, #64	@ 0x40
 80001cc:	af00      	add	r7, sp, #0
  RCC_OscInitTypeDef RCC_OscInitStruct = {0};
 80001ce:	f107 0318 	add.w	r3, r7, #24
 80001d2:	2228      	movs	r2, #40	@ 0x28
 80001d4:	2100      	movs	r1, #0
 80001d6:	4618      	mov	r0, r3
 80001d8:	f001 fa48 	bl	800166c <memset>
  RCC_ClkInitTypeDef RCC_ClkInitStruct = {0};
 80001dc:	1d3b      	adds	r3, r7, #4
 80001de:	2200      	movs	r2, #0
 80001e0:	601a      	str	r2, [r3, #0]
 80001e2:	605a      	str	r2, [r3, #4]
 80001e4:	609a      	str	r2, [r3, #8]
 80001e6:	60da      	str	r2, [r3, #12]
 80001e8:	611a      	str	r2, [r3, #16]

  /** Initializes the RCC Oscillators according to the specified parameters
  * in the RCC_OscInitTypeDef structure.
  */
  RCC_OscInitStruct.OscillatorType = RCC_OSCILLATORTYPE_HSI;
 80001ea:	2302      	movs	r3, #2
 80001ec:	61bb      	str	r3, [r7, #24]
  RCC_OscInitStruct.HSIState = RCC_HSI_ON;
 80001ee:	2301      	movs	r3, #1
 80001f0:	62bb      	str	r3, [r7, #40]	@ 0x28
  RCC_OscInitStruct.HSICalibrationValue = RCC_HSICALIBRATION_DEFAULT;
 80001f2:	2310      	movs	r3, #16
 80001f4:	62fb      	str	r3, [r7, #44]	@ 0x2c
  RCC_OscInitStruct.PLL.PLLState = RCC_PLL_NONE;
 80001f6:	2300      	movs	r3, #0
 80001f8:	637b      	str	r3, [r7, #52]	@ 0x34
  if (HAL_RCC_OscConfig(&RCC_OscInitStruct) != HAL_OK)
 80001fa:	f107 0318 	add.w	r3, r7, #24
 80001fe:	4618      	mov	r0, r3
 8000200:	f000 fc54 	bl	8000aac <HAL_RCC_OscConfig>
 8000204:	4603      	mov	r3, r0
 8000206:	2b00      	cmp	r3, #0
 8000208:	d001      	beq.n	800020e <SystemClock_Config+0x46>
  {
    Error_Handler();
 800020a:	f000 f875 	bl	80002f8 <Error_Handler>
  }

  /** Initializes the CPU, AHB and APB buses clocks
  */
  RCC_ClkInitStruct.ClockType = RCC_CLOCKTYPE_HCLK|RCC_CLOCKTYPE_SYSCLK
 800020e:	230f      	movs	r3, #15
 8000210:	607b      	str	r3, [r7, #4]
                              |RCC_CLOCKTYPE_PCLK1|RCC_CLOCKTYPE_PCLK2;
  RCC_ClkInitStruct.SYSCLKSource = RCC_SYSCLKSOURCE_HSI;
 8000212:	2300      	movs	r3, #0
 8000214:	60bb      	str	r3, [r7, #8]
  RCC_ClkInitStruct.AHBCLKDivider = RCC_SYSCLK_DIV1;
 8000216:	2300      	movs	r3, #0
 8000218:	60fb      	str	r3, [r7, #12]
  RCC_ClkInitStruct.APB1CLKDivider = RCC_HCLK_DIV1;
 800021a:	2300      	movs	r3, #0
 800021c:	613b      	str	r3, [r7, #16]
  RCC_ClkInitStruct.APB2CLKDivider = RCC_HCLK_DIV1;
 800021e:	2300      	movs	r3, #0
 8000220:	617b      	str	r3, [r7, #20]

  if (HAL_RCC_ClockConfig(&RCC_ClkInitStruct, FLASH_LATENCY_0) != HAL_OK)
 8000222:	1d3b      	adds	r3, r7, #4
 8000224:	2100      	movs	r1, #0
 8000226:	4618      	mov	r0, r3
 8000228:	f000 fec2 	bl	8000fb0 <HAL_RCC_ClockConfig>
 800022c:	4603      	mov	r3, r0
 800022e:	2b00      	cmp	r3, #0
 8000230:	d001      	beq.n	8000236 <SystemClock_Config+0x6e>
  {
    Error_Handler();
 8000232:	f000 f861 	bl	80002f8 <Error_Handler>
  }
}
 8000236:	bf00      	nop
 8000238:	3740      	adds	r7, #64	@ 0x40
 800023a:	46bd      	mov	sp, r7
 800023c:	bd80      	pop	{r7, pc}
	...

08000240 <MX_USART1_UART_Init>:
  * @brief USART1 Initialization Function
  * @param None
  * @retval None
  */
static void MX_USART1_UART_Init(void)
{
 8000240:	b580      	push	{r7, lr}
 8000242:	af00      	add	r7, sp, #0
  /* USER CODE END USART1_Init 0 */

  /* USER CODE BEGIN USART1_Init 1 */

  /* USER CODE END USART1_Init 1 */
  huart1.Instance = USART1;
 8000244:	4b11      	ldr	r3, [pc, #68]	@ (800028c <MX_USART1_UART_Init+0x4c>)
 8000246:	4a12      	ldr	r2, [pc, #72]	@ (8000290 <MX_USART1_UART_Init+0x50>)
 8000248:	601a      	str	r2, [r3, #0]
  huart1.Init.BaudRate = 115200;
 800024a:	4b10      	ldr	r3, [pc, #64]	@ (800028c <MX_USART1_UART_Init+0x4c>)
 800024c:	f44f 32e1 	mov.w	r2, #115200	@ 0x1c200
 8000250:	605a      	str	r2, [r3, #4]
  huart1.Init.WordLength = UART_WORDLENGTH_8B;
 8000252:	4b0e      	ldr	r3, [pc, #56]	@ (800028c <MX_USART1_UART_Init+0x4c>)
 8000254:	2200      	movs	r2, #0
 8000256:	609a      	str	r2, [r3, #8]
  huart1.Init.StopBits = UART_STOPBITS_1;
 8000258:	4b0c      	ldr	r3, [pc, #48]	@ (800028c <MX_USART1_UART_Init+0x4c>)
 800025a:	2200      	movs	r2, #0
 800025c:	60da      	str	r2, [r3, #12]
  huart1.Init.Parity = UART_PARITY_NONE;
 800025e:	4b0b      	ldr	r3, [pc, #44]	@ (800028c <MX_USART1_UART_Init+0x4c>)
 8000260:	2200      	movs	r2, #0
 8000262:	611a      	str	r2, [r3, #16]
  huart1.Init.Mode = UART_MODE_TX_RX;
 8000264:	4b09      	ldr	r3, [pc, #36]	@ (800028c <MX_USART1_UART_Init+0x4c>)
 8000266:	220c      	movs	r2, #12
 8000268:	615a      	str	r2, [r3, #20]
  huart1.Init.HwFlowCtl = UART_HWCONTROL_NONE;
 800026a:	4b08      	ldr	r3, [pc, #32]	@ (800028c <MX_USART1_UART_Init+0x4c>)
 800026c:	2200      	movs	r2, #0
 800026e:	619a      	str	r2, [r3, #24]
  huart1.Init.OverSampling = UART_OVERSAMPLING_16;
 8000270:	4b06      	ldr	r3, [pc, #24]	@ (800028c <MX_USART1_UART_Init+0x4c>)
 8000272:	2200      	movs	r2, #0
 8000274:	61da      	str	r2, [r3, #28]
  if (HAL_UART_Init(&huart1) != HAL_OK)
 8000276:	4805      	ldr	r0, [pc, #20]	@ (800028c <MX_USART1_UART_Init+0x4c>)
 8000278:	f001 f828 	bl	80012cc <HAL_UART_Init>
 800027c:	4603      	mov	r3, r0
 800027e:	2b00      	cmp	r3, #0
 8000280:	d001      	beq.n	8000286 <MX_USART1_UART_Init+0x46>
  {
    Error_Handler();
 8000282:	f000 f839 	bl	80002f8 <Error_Handler>
  }
  /* USER CODE BEGIN USART1_Init 2 */

  /* USER CODE END USART1_Init 2 */

}
 8000286:	bf00      	nop
 8000288:	bd80      	pop	{r7, pc}
 800028a:	bf00      	nop
 800028c:	20000028 	.word	0x20000028
 8000290:	40013800 	.word	0x40013800

08000294 <MX_GPIO_Init>:
  * @brief GPIO Initialization Function
  * @param None
  * @retval None
  */
static void MX_GPIO_Init(void)
{
 8000294:	b580      	push	{r7, lr}
 8000296:	b086      	sub	sp, #24
 8000298:	af00      	add	r7, sp, #0
  GPIO_InitTypeDef GPIO_InitStruct = {0};
 800029a:	f107 0308 	add.w	r3, r7, #8
 800029e:	2200      	movs	r2, #0
 80002a0:	601a      	str	r2, [r3, #0]
 80002a2:	605a      	str	r2, [r3, #4]
 80002a4:	609a      	str	r2, [r3, #8]
 80002a6:	60da      	str	r2, [r3, #12]
/* USER CODE BEGIN MX_GPIO_Init_1 */
/* USER CODE END MX_GPIO_Init_1 */

  /* GPIO Ports Clock Enable */
  __HAL_RCC_GPIOA_CLK_ENABLE();
 80002a8:	4b11      	ldr	r3, [pc, #68]	@ (80002f0 <MX_GPIO_Init+0x5c>)
 80002aa:	699b      	ldr	r3, [r3, #24]
 80002ac:	4a10      	ldr	r2, [pc, #64]	@ (80002f0 <MX_GPIO_Init+0x5c>)
 80002ae:	f043 0304 	orr.w	r3, r3, #4
 80002b2:	6193      	str	r3, [r2, #24]
 80002b4:	4b0e      	ldr	r3, [pc, #56]	@ (80002f0 <MX_GPIO_Init+0x5c>)
 80002b6:	699b      	ldr	r3, [r3, #24]
 80002b8:	f003 0304 	and.w	r3, r3, #4
 80002bc:	607b      	str	r3, [r7, #4]
 80002be:	687b      	ldr	r3, [r7, #4]

  /*Configure GPIO pin Output Level */
  HAL_GPIO_WritePin(Led1_GPIO_Port, Led1_Pin, GPIO_PIN_RESET);
 80002c0:	2200      	movs	r2, #0
 80002c2:	2102      	movs	r1, #2
 80002c4:	480b      	ldr	r0, [pc, #44]	@ (80002f4 <MX_GPIO_Init+0x60>)
 80002c6:	f000 fbd9 	bl	8000a7c <HAL_GPIO_WritePin>

  /*Configure GPIO pin : Led1_Pin */
  GPIO_InitStruct.Pin = Led1_Pin;
 80002ca:	2302      	movs	r3, #2
 80002cc:	60bb      	str	r3, [r7, #8]
  GPIO_InitStruct.Mode = GPIO_MODE_OUTPUT_PP;
 80002ce:	2301      	movs	r3, #1
 80002d0:	60fb      	str	r3, [r7, #12]
  GPIO_InitStruct.Pull = GPIO_NOPULL;
 80002d2:	2300      	movs	r3, #0
 80002d4:	613b      	str	r3, [r7, #16]
  GPIO_InitStruct.Speed = GPIO_SPEED_FREQ_LOW;
 80002d6:	2302      	movs	r3, #2
 80002d8:	617b      	str	r3, [r7, #20]
  HAL_GPIO_Init(Led1_GPIO_Port, &GPIO_InitStruct);
 80002da:	f107 0308 	add.w	r3, r7, #8
 80002de:	4619      	mov	r1, r3
 80002e0:	4804      	ldr	r0, [pc, #16]	@ (80002f4 <MX_GPIO_Init+0x60>)
 80002e2:	f000 fa4f 	bl	8000784 <HAL_GPIO_Init>

/* USER CODE BEGIN MX_GPIO_Init_2 */
/* USER CODE END MX_GPIO_Init_2 */
}
 80002e6:	bf00      	nop
 80002e8:	3718      	adds	r7, #24
 80002ea:	46bd      	mov	sp, r7
 80002ec:	bd80      	pop	{r7, pc}
 80002ee:	bf00      	nop
 80002f0:	40021000 	.word	0x40021000
 80002f4:	40010800 	.word	0x40010800

080002f8 <Error_Handler>:
/**
  * @brief  This function is executed in case of error occurrence.
  * @retval None
  */
void Error_Handler(void)
{
 80002f8:	b480      	push	{r7}
 80002fa:	af00      	add	r7, sp, #0
  \details Disables IRQ interrupts by setting the I-bit in the CPSR.
           Can only be executed in Privileged modes.
 */
__STATIC_FORCEINLINE void __disable_irq(void)
{
  __ASM volatile ("cpsid i" : : : "memory");
 80002fc:	b672      	cpsid	i
}
 80002fe:	bf00      	nop
  /* USER CODE BEGIN Error_Handler_Debug */
  /* User can add his own implementation to report the HAL error return state */
  __disable_irq();
  while (1)
 8000300:	bf00      	nop
 8000302:	e7fd      	b.n	8000300 <Error_Handler+0x8>

08000304 <HAL_MspInit>:
/* USER CODE END 0 */
/**
  * Initializes the Global MSP.
  */
void HAL_MspInit(void)
{
 8000304:	b480      	push	{r7}
 8000306:	b085      	sub	sp, #20
 8000308:	af00      	add	r7, sp, #0

  /* USER CODE BEGIN MspInit 0 */

  /* USER CODE END MspInit 0 */

  __HAL_RCC_AFIO_CLK_ENABLE();
 800030a:	4b15      	ldr	r3, [pc, #84]	@ (8000360 <HAL_MspInit+0x5c>)
 800030c:	699b      	ldr	r3, [r3, #24]
 800030e:	4a14      	ldr	r2, [pc, #80]	@ (8000360 <HAL_MspInit+0x5c>)
 8000310:	f043 0301 	orr.w	r3, r3, #1
 8000314:	6193      	str	r3, [r2, #24]
 8000316:	4b12      	ldr	r3, [pc, #72]	@ (8000360 <HAL_MspInit+0x5c>)
 8000318:	699b      	ldr	r3, [r3, #24]
 800031a:	f003 0301 	and.w	r3, r3, #1
 800031e:	60bb      	str	r3, [r7, #8]
 8000320:	68bb      	ldr	r3, [r7, #8]
  __HAL_RCC_PWR_CLK_ENABLE();
 8000322:	4b0f      	ldr	r3, [pc, #60]	@ (8000360 <HAL_MspInit+0x5c>)
 8000324:	69db      	ldr	r3, [r3, #28]
 8000326:	4a0e      	ldr	r2, [pc, #56]	@ (8000360 <HAL_MspInit+0x5c>)
 8000328:	f043 5380 	orr.w	r3, r3, #268435456	@ 0x10000000
 800032c:	61d3      	str	r3, [r2, #28]
 800032e:	4b0c      	ldr	r3, [pc, #48]	@ (8000360 <HAL_MspInit+0x5c>)
 8000330:	69db      	ldr	r3, [r3, #28]
 8000332:	f003 5380 	and.w	r3, r3, #268435456	@ 0x10000000
 8000336:	607b      	str	r3, [r7, #4]
 8000338:	687b      	ldr	r3, [r7, #4]

  /* System interrupt init*/

  /** NOJTAG: JTAG-DP Disabled and SW-DP Enabled
  */
  __HAL_AFIO_REMAP_SWJ_NOJTAG();
 800033a:	4b0a      	ldr	r3, [pc, #40]	@ (8000364 <HAL_MspInit+0x60>)
 800033c:	685b      	ldr	r3, [r3, #4]
 800033e:	60fb      	str	r3, [r7, #12]
 8000340:	68fb      	ldr	r3, [r7, #12]
 8000342:	f023 63e0 	bic.w	r3, r3, #117440512	@ 0x7000000
 8000346:	60fb      	str	r3, [r7, #12]
 8000348:	68fb      	ldr	r3, [r7, #12]
 800034a:	f043 7300 	orr.w	r3, r3, #33554432	@ 0x2000000
 800034e:	60fb      	str	r3, [r7, #12]
 8000350:	4a04      	ldr	r2, [pc, #16]	@ (8000364 <HAL_MspInit+0x60>)
 8000352:	68fb      	ldr	r3, [r7, #12]
 8000354:	6053      	str	r3, [r2, #4]

  /* USER CODE BEGIN MspInit 1 */

  /* USER CODE END MspInit 1 */
}
 8000356:	bf00      	nop
 8000358:	3714      	adds	r7, #20
 800035a:	46bd      	mov	sp, r7
 800035c:	bc80      	pop	{r7}
 800035e:	4770      	bx	lr
 8000360:	40021000 	.word	0x40021000
 8000364:	40010000 	.word	0x40010000

08000368 <HAL_UART_MspInit>:
* This function configures the hardware resources used in this example
* @param huart: UART handle pointer
* @retval None
*/
void HAL_UART_MspInit(UART_HandleTypeDef* huart)
{
 8000368:	b580      	push	{r7, lr}
 800036a:	b088      	sub	sp, #32
 800036c:	af00      	add	r7, sp, #0
 800036e:	6078      	str	r0, [r7, #4]
  GPIO_InitTypeDef GPIO_InitStruct = {0};
 8000370:	f107 0310 	add.w	r3, r7, #16
 8000374:	2200      	movs	r2, #0
 8000376:	601a      	str	r2, [r3, #0]
 8000378:	605a      	str	r2, [r3, #4]
 800037a:	609a      	str	r2, [r3, #8]
 800037c:	60da      	str	r2, [r3, #12]
  if(huart->Instance==USART1)
 800037e:	687b      	ldr	r3, [r7, #4]
 8000380:	681b      	ldr	r3, [r3, #0]
 8000382:	4a1c      	ldr	r2, [pc, #112]	@ (80003f4 <HAL_UART_MspInit+0x8c>)
 8000384:	4293      	cmp	r3, r2
 8000386:	d131      	bne.n	80003ec <HAL_UART_MspInit+0x84>
  {
  /* USER CODE BEGIN USART1_MspInit 0 */

  /* USER CODE END USART1_MspInit 0 */
    /* Peripheral clock enable */
    __HAL_RCC_USART1_CLK_ENABLE();
 8000388:	4b1b      	ldr	r3, [pc, #108]	@ (80003f8 <HAL_UART_MspInit+0x90>)
 800038a:	699b      	ldr	r3, [r3, #24]
 800038c:	4a1a      	ldr	r2, [pc, #104]	@ (80003f8 <HAL_UART_MspInit+0x90>)
 800038e:	f443 4380 	orr.w	r3, r3, #16384	@ 0x4000
 8000392:	6193      	str	r3, [r2, #24]
 8000394:	4b18      	ldr	r3, [pc, #96]	@ (80003f8 <HAL_UART_MspInit+0x90>)
 8000396:	699b      	ldr	r3, [r3, #24]
 8000398:	f403 4380 	and.w	r3, r3, #16384	@ 0x4000
 800039c:	60fb      	str	r3, [r7, #12]
 800039e:	68fb      	ldr	r3, [r7, #12]

    __HAL_RCC_GPIOA_CLK_ENABLE();
 80003a0:	4b15      	ldr	r3, [pc, #84]	@ (80003f8 <HAL_UART_MspInit+0x90>)
 80003a2:	699b      	ldr	r3, [r3, #24]
 80003a4:	4a14      	ldr	r2, [pc, #80]	@ (80003f8 <HAL_UART_MspInit+0x90>)
 80003a6:	f043 0304 	orr.w	r3, r3, #4
 80003aa:	6193      	str	r3, [r2, #24]
 80003ac:	4b12      	ldr	r3, [pc, #72]	@ (80003f8 <HAL_UART_MspInit+0x90>)
 80003ae:	699b      	ldr	r3, [r3, #24]
 80003b0:	f003 0304 	and.w	r3, r3, #4
 80003b4:	60bb      	str	r3, [r7, #8]
 80003b6:	68bb      	ldr	r3, [r7, #8]
    /**USART1 GPIO Configuration
    PA9     ------> USART1_TX
    PA10     ------> USART1_RX
    */
    GPIO_InitStruct.Pin = GPIO_PIN_9;
 80003b8:	f44f 7300 	mov.w	r3, #512	@ 0x200
 80003bc:	613b      	str	r3, [r7, #16]
    GPIO_InitStruct.Mode = GPIO_MODE_AF_PP;
 80003be:	2302      	movs	r3, #2
 80003c0:	617b      	str	r3, [r7, #20]
    GPIO_InitStruct.Speed = GPIO_SPEED_FREQ_HIGH;
 80003c2:	2303      	movs	r3, #3
 80003c4:	61fb      	str	r3, [r7, #28]
    HAL_GPIO_Init(GPIOA, &GPIO_InitStruct);
 80003c6:	f107 0310 	add.w	r3, r7, #16
 80003ca:	4619      	mov	r1, r3
 80003cc:	480b      	ldr	r0, [pc, #44]	@ (80003fc <HAL_UART_MspInit+0x94>)
 80003ce:	f000 f9d9 	bl	8000784 <HAL_GPIO_Init>

    GPIO_InitStruct.Pin = GPIO_PIN_10;
 80003d2:	f44f 6380 	mov.w	r3, #1024	@ 0x400
 80003d6:	613b      	str	r3, [r7, #16]
    GPIO_InitStruct.Mode = GPIO_MODE_INPUT;
 80003d8:	2300      	movs	r3, #0
 80003da:	617b      	str	r3, [r7, #20]
    GPIO_InitStruct.Pull = GPIO_NOPULL;
 80003dc:	2300      	movs	r3, #0
 80003de:	61bb      	str	r3, [r7, #24]
    HAL_GPIO_Init(GPIOA, &GPIO_InitStruct);
 80003e0:	f107 0310 	add.w	r3, r7, #16
 80003e4:	4619      	mov	r1, r3
 80003e6:	4805      	ldr	r0, [pc, #20]	@ (80003fc <HAL_UART_MspInit+0x94>)
 80003e8:	f000 f9cc 	bl	8000784 <HAL_GPIO_Init>
  /* USER CODE BEGIN USART1_MspInit 1 */

  /* USER CODE END USART1_MspInit 1 */
  }

}
 80003ec:	bf00      	nop
 80003ee:	3720      	adds	r7, #32
 80003f0:	46bd      	mov	sp, r7
 80003f2:	bd80      	pop	{r7, pc}
 80003f4:	40013800 	.word	0x40013800
 80003f8:	40021000 	.word	0x40021000
 80003fc:	40010800 	.word	0x40010800

08000400 <NMI_Handler>:
/******************************************************************************/
/**
  * @brief This function handles Non maskable interrupt.
  */
void NMI_Handler(void)
{
 8000400:	b480      	push	{r7}
 8000402:	af00      	add	r7, sp, #0
  /* USER CODE BEGIN NonMaskableInt_IRQn 0 */

  /* USER CODE END NonMaskableInt_IRQn 0 */
  /* USER CODE BEGIN NonMaskableInt_IRQn 1 */
   while (1)
 8000404:	bf00      	nop
 8000406:	e7fd      	b.n	8000404 <NMI_Handler+0x4>

08000408 <HardFault_Handler>:

/**
  * @brief This function handles Hard fault interrupt.
  */
void HardFault_Handler(void)
{
 8000408:	b480      	push	{r7}
 800040a:	af00      	add	r7, sp, #0
  /* USER CODE BEGIN HardFault_IRQn 0 */

  /* USER CODE END HardFault_IRQn 0 */
  while (1)
 800040c:	bf00      	nop
 800040e:	e7fd      	b.n	800040c <HardFault_Handler+0x4>

08000410 <MemManage_Handler>:

/**
  * @brief This function handles Memory management fault.
  */
void MemManage_Handler(void)
{
 8000410:	b480      	push	{r7}
 8000412:	af00      	add	r7, sp, #0
  /* USER CODE BEGIN MemoryManagement_IRQn 0 */

  /* USER CODE END MemoryManagement_IRQn 0 */
  while (1)
 8000414:	bf00      	nop
 8000416:	e7fd      	b.n	8000414 <MemManage_Handler+0x4>

08000418 <BusFault_Handler>:

/**
  * @brief This function handles Prefetch fault, memory access fault.
  */
void BusFault_Handler(void)
{
 8000418:	b480      	push	{r7}
 800041a:	af00      	add	r7, sp, #0
  /* USER CODE BEGIN BusFault_IRQn 0 */

  /* USER CODE END BusFault_IRQn 0 */
  while (1)
 800041c:	bf00      	nop
 800041e:	e7fd      	b.n	800041c <BusFault_Handler+0x4>

08000420 <UsageFault_Handler>:

/**
  * @brief This function handles Undefined instruction or illegal state.
  */
void UsageFault_Handler(void)
{
 8000420:	b480      	push	{r7}
 8000422:	af00      	add	r7, sp, #0
  /* USER CODE BEGIN UsageFault_IRQn 0 */

  /* USER CODE END UsageFault_IRQn 0 */
  while (1)
 8000424:	bf00      	nop
 8000426:	e7fd      	b.n	8000424 <UsageFault_Handler+0x4>

08000428 <SVC_Handler>:

/**
  * @brief This function handles System service call via SWI instruction.
  */
void SVC_Handler(void)
{
 8000428:	b480      	push	{r7}
 800042a:	af00      	add	r7, sp, #0

  /* USER CODE END SVCall_IRQn 0 */
  /* USER CODE BEGIN SVCall_IRQn 1 */

  /* USER CODE END SVCall_IRQn 1 */
}
 800042c:	bf00      	nop
 800042e:	46bd      	mov	sp, r7
 8000430:	bc80      	pop	{r7}
 8000432:	4770      	bx	lr

08000434 <DebugMon_Handler>:

/**
  * @brief This function handles Debug monitor.
  */
void DebugMon_Handler(void)
{
 8000434:	b480      	push	{r7}
 8000436:	af00      	add	r7, sp, #0

  /* USER CODE END DebugMonitor_IRQn 0 */
  /* USER CODE BEGIN DebugMonitor_IRQn 1 */

  /* USER CODE END DebugMonitor_IRQn 1 */
}
 8000438:	bf00      	nop
 800043a:	46bd      	mov	sp, r7
 800043c:	bc80      	pop	{r7}
 800043e:	4770      	bx	lr

08000440 <PendSV_Handler>:

/**
  * @brief This function handles Pendable request for system service.
  */
void PendSV_Handler(void)
{
 8000440:	b480      	push	{r7}
 8000442:	af00      	add	r7, sp, #0

  /* USER CODE END PendSV_IRQn 0 */
  /* USER CODE BEGIN PendSV_IRQn 1 */

  /* USER CODE END PendSV_IRQn 1 */
}
 8000444:	bf00      	nop
 8000446:	46bd      	mov	sp, r7
 8000448:	bc80      	pop	{r7}
 800044a:	4770      	bx	lr

0800044c <SysTick_Handler>:

/**
  * @brief This function handles System tick timer.
  */
void SysTick_Handler(void)
{
 800044c:	b580      	push	{r7, lr}
 800044e:	af00      	add	r7, sp, #0
  /* USER CODE BEGIN SysTick_IRQn 0 */

  /* USER CODE END SysTick_IRQn 0 */
  HAL_IncTick();
 8000450:	f000 f874 	bl	800053c <HAL_IncTick>
  /* USER CODE BEGIN SysTick_IRQn 1 */

  /* USER CODE END SysTick_IRQn 1 */
}
 8000454:	bf00      	nop
 8000456:	bd80      	pop	{r7, pc}

08000458 <SystemInit>:
 8000458:	b480      	push	{r7}
 800045a:	af00      	add	r7, sp, #0
 800045c:	bf00      	nop
 800045e:	46bd      	mov	sp, r7
 8000460:	bc80      	pop	{r7}
 8000462:	4770      	bx	lr

08000464 <Reset_Handler>:
 8000464:	f7ff fff8 	bl	8000458 <SystemInit>
 8000468:	480b      	ldr	r0, [pc, #44]	@ (8000498 <LoopFillZerobss+0xe>)
 800046a:	490c      	ldr	r1, [pc, #48]	@ (800049c <LoopFillZerobss+0x12>)
 800046c:	4a0c      	ldr	r2, [pc, #48]	@ (80004a0 <LoopFillZerobss+0x16>)
 800046e:	2300      	movs	r3, #0
 8000470:	e002      	b.n	8000478 <LoopCopyDataInit>

08000472 <CopyDataInit>:
 8000472:	58d4      	ldr	r4, [r2, r3]
 8000474:	50c4      	str	r4, [r0, r3]
 8000476:	3304      	adds	r3, #4

08000478 <LoopCopyDataInit>:
 8000478:	18c4      	adds	r4, r0, r3
 800047a:	428c      	cmp	r4, r1
 800047c:	d3f9      	bcc.n	8000472 <CopyDataInit>
 800047e:	4a09      	ldr	r2, [pc, #36]	@ (80004a4 <LoopFillZerobss+0x1a>)
 8000480:	4c09      	ldr	r4, [pc, #36]	@ (80004a8 <LoopFillZerobss+0x1e>)
 8000482:	2300      	movs	r3, #0
 8000484:	e001      	b.n	800048a <LoopFillZerobss>

08000486 <FillZerobss>:
 8000486:	6013      	str	r3, [r2, #0]
 8000488:	3204      	adds	r2, #4

0800048a <LoopFillZerobss>:
 800048a:	42a2      	cmp	r2, r4
 800048c:	d3fb      	bcc.n	8000486 <FillZerobss>
 800048e:	f001 f8f5 	bl	800167c <__libc_init_array>
 8000492:	f7ff fe5b 	bl	800014c <main>
 8000496:	4770      	bx	lr
 8000498:	20000000 	.word	0x20000000
 800049c:	2000000c 	.word	0x2000000c
 80004a0:	08001720 	.word	0x08001720
 80004a4:	2000000c 	.word	0x2000000c
 80004a8:	20000074 	.word	0x20000074

080004ac <ADC1_2_IRQHandler>:
 80004ac:	e7fe      	b.n	80004ac <ADC1_2_IRQHandler>
	...

080004b0 <HAL_Init>:
 80004b0:	b580      	push	{r7, lr}
 80004b2:	af00      	add	r7, sp, #0
 80004b4:	4b08      	ldr	r3, [pc, #32]	@ (80004d8 <HAL_Init+0x28>)
 80004b6:	681b      	ldr	r3, [r3, #0]
 80004b8:	4a07      	ldr	r2, [pc, #28]	@ (80004d8 <HAL_Init+0x28>)
 80004ba:	f043 0310 	orr.w	r3, r3, #16
 80004be:	6013      	str	r3, [r2, #0]
 80004c0:	2003      	movs	r0, #3
 80004c2:	f000 f92b 	bl	800071c <HAL_NVIC_SetPriorityGrouping>
 80004c6:	200f      	movs	r0, #15
 80004c8:	f000 f808 	bl	80004dc <HAL_InitTick>
 80004cc:	f7ff ff1a 	bl	8000304 <HAL_MspInit>
 80004d0:	2300      	movs	r3, #0
 80004d2:	4618      	mov	r0, r3
 80004d4:	bd80      	pop	{r7, pc}
 80004d6:	bf00      	nop
 80004d8:	40022000 	.word	0x40022000

080004dc <HAL_InitTick>:
 80004dc:	b580      	push	{r7, lr}
 80004de:	b082      	sub	sp, #8
 80004e0:	af00      	add	r7, sp, #0
 80004e2:	6078      	str	r0, [r7, #4]
 80004e4:	4b12      	ldr	r3, [pc, #72]	@ (8000530 <HAL_InitTick+0x54>)
 80004e6:	681a      	ldr	r2, [r3, #0]
 80004e8:	4b12      	ldr	r3, [pc, #72]	@ (8000534 <HAL_InitTick+0x58>)
 80004ea:	781b      	ldrb	r3, [r3, #0]
 80004ec:	4619      	mov	r1, r3
 80004ee:	f44f 737a 	mov.w	r3, #1000	@ 0x3e8
 80004f2:	fbb3 f3f1 	udiv	r3, r3, r1
 80004f6:	fbb2 f3f3 	udiv	r3, r2, r3
 80004fa:	4618      	mov	r0, r3
 80004fc:	f000 f935 	bl	800076a <HAL_SYSTICK_Config>
 8000500:	4603      	mov	r3, r0
 8000502:	2b00      	cmp	r3, #0
 8000504:	d001      	beq.n	800050a <HAL_InitTick+0x2e>
 8000506:	2301      	movs	r3, #1
 8000508:	e00e      	b.n	8000528 <HAL_InitTick+0x4c>
 800050a:	687b      	ldr	r3, [r7, #4]
 800050c:	2b0f      	cmp	r3, #15
 800050e:	d80a      	bhi.n	8000526 <HAL_InitTick+0x4a>
 8000510:	2200      	movs	r2, #0
 8000512:	6879      	ldr	r1, [r7, #4]
 8000514:	f04f 30ff 	mov.w	r0, #4294967295
 8000518:	f000 f90b 	bl	8000732 <HAL_NVIC_SetPriority>
 800051c:	4a06      	ldr	r2, [pc, #24]	@ (8000538 <HAL_InitTick+0x5c>)
 800051e:	687b      	ldr	r3, [r7, #4]
 8000520:	6013      	str	r3, [r2, #0]
 8000522:	2300      	movs	r3, #0
 8000524:	e000      	b.n	8000528 <HAL_InitTick+0x4c>
 8000526:	2301      	movs	r3, #1
 8000528:	4618      	mov	r0, r3
 800052a:	3708      	adds	r7, #8
 800052c:	46bd      	mov	sp, r7
 800052e:	bd80      	pop	{r7, pc}
 8000530:	20000000 	.word	0x20000000
 8000534:	20000008 	.word	0x20000008
 8000538:	20000004 	.word	0x20000004

0800053c <HAL_IncTick>:
 800053c:	b480      	push	{r7}
 800053e:	af00      	add	r7, sp, #0
 8000540:	4b05      	ldr	r3, [pc, #20]	@ (8000558 <HAL_IncTick+0x1c>)
 8000542:	781b      	ldrb	r3, [r3, #0]
 8000544:	461a      	mov	r2, r3
 8000546:	4b05      	ldr	r3, [pc, #20]	@ (800055c <HAL_IncTick+0x20>)
 8000548:	681b      	ldr	r3, [r3, #0]
 800054a:	4413      	add	r3, r2
 800054c:	4a03      	ldr	r2, [pc, #12]	@ (800055c <HAL_IncTick+0x20>)
 800054e:	6013      	str	r3, [r2, #0]
 8000550:	bf00      	nop
 8000552:	46bd      	mov	sp, r7
 8000554:	bc80      	pop	{r7}
 8000556:	4770      	bx	lr
 8000558:	20000008 	.word	0x20000008
 800055c:	20000070 	.word	0x20000070

08000560 <HAL_GetTick>:
 8000560:	b480      	push	{r7}
 8000562:	af00      	add	r7, sp, #0
 8000564:	4b02      	ldr	r3, [pc, #8]	@ (8000570 <HAL_GetTick+0x10>)
 8000566:	681b      	ldr	r3, [r3, #0]
 8000568:	4618      	mov	r0, r3
 800056a:	46bd      	mov	sp, r7
 800056c:	bc80      	pop	{r7}
 800056e:	4770      	bx	lr
 8000570:	20000070 	.word	0x20000070

08000574 <HAL_Delay>:
 8000574:	b580      	push	{r7, lr}
 8000576:	b084      	sub	sp, #16
 8000578:	af00      	add	r7, sp, #0
 800057a:	6078      	str	r0, [r7, #4]
 800057c:	f7ff fff0 	bl	8000560 <HAL_GetTick>
 8000580:	60b8      	str	r0, [r7, #8]
 8000582:	687b      	ldr	r3, [r7, #4]
 8000584:	60fb      	str	r3, [r7, #12]
 8000586:	68fb      	ldr	r3, [r7, #12]
 8000588:	f1b3 3fff 	cmp.w	r3, #4294967295
 800058c:	d005      	beq.n	800059a <HAL_Delay+0x26>
 800058e:	4b0a      	ldr	r3, [pc, #40]	@ (80005b8 <HAL_Delay+0x44>)
 8000590:	781b      	ldrb	r3, [r3, #0]
 8000592:	461a      	mov	r2, r3
 8000594:	68fb      	ldr	r3, [r7, #12]
 8000596:	4413      	add	r3, r2
 8000598:	60fb      	str	r3, [r7, #12]
 800059a:	bf00      	nop
 800059c:	f7ff ffe0 	bl	8000560 <HAL_GetTick>
 80005a0:	4602      	mov	r2, r0
 80005a2:	68bb      	ldr	r3, [r7, #8]
 80005a4:	1ad3      	subs	r3, r2, r3
 80005a6:	68fa      	ldr	r2, [r7, #12]
 80005a8:	429a      	cmp	r2, r3
 80005aa:	d8f7      	bhi.n	800059c <HAL_Delay+0x28>
 80005ac:	bf00      	nop
 80005ae:	bf00      	nop
 80005b0:	3710      	adds	r7, #16
 80005b2:	46bd      	mov	sp, r7
 80005b4:	bd80      	pop	{r7, pc}
 80005b6:	bf00      	nop
 80005b8:	20000008 	.word	0x20000008

080005bc <__NVIC_SetPriorityGrouping>:
 80005bc:	b480      	push	{r7}
 80005be:	b085      	sub	sp, #20
 80005c0:	af00      	add	r7, sp, #0
 80005c2:	6078      	str	r0, [r7, #4]
 80005c4:	687b      	ldr	r3, [r7, #4]
 80005c6:	f003 0307 	and.w	r3, r3, #7
 80005ca:	60fb      	str	r3, [r7, #12]
 80005cc:	4b0c      	ldr	r3, [pc, #48]	@ (8000600 <__NVIC_SetPriorityGrouping+0x44>)
 80005ce:	68db      	ldr	r3, [r3, #12]
 80005d0:	60bb      	str	r3, [r7, #8]
 80005d2:	68ba      	ldr	r2, [r7, #8]
 80005d4:	f64f 03ff 	movw	r3, #63743	@ 0xf8ff
 80005d8:	4013      	ands	r3, r2
 80005da:	60bb      	str	r3, [r7, #8]
 80005dc:	68fb      	ldr	r3, [r7, #12]
 80005de:	021a      	lsls	r2, r3, #8
 80005e0:	68bb      	ldr	r3, [r7, #8]
 80005e2:	4313      	orrs	r3, r2
 80005e4:	f043 63bf 	orr.w	r3, r3, #100139008	@ 0x5f80000
 80005e8:	f443 3300 	orr.w	r3, r3, #131072	@ 0x20000
 80005ec:	60bb      	str	r3, [r7, #8]
 80005ee:	4a04      	ldr	r2, [pc, #16]	@ (8000600 <__NVIC_SetPriorityGrouping+0x44>)
 80005f0:	68bb      	ldr	r3, [r7, #8]
 80005f2:	60d3      	str	r3, [r2, #12]
 80005f4:	bf00      	nop
 80005f6:	3714      	adds	r7, #20
 80005f8:	46bd      	mov	sp, r7
 80005fa:	bc80      	pop	{r7}
 80005fc:	4770      	bx	lr
 80005fe:	bf00      	nop
 8000600:	e000ed00 	.word	0xe000ed00

08000604 <__NVIC_GetPriorityGrouping>:
 8000604:	b480      	push	{r7}
 8000606:	af00      	add	r7, sp, #0
 8000608:	4b04      	ldr	r3, [pc, #16]	@ (800061c <__NVIC_GetPriorityGrouping+0x18>)
 800060a:	68db      	ldr	r3, [r3, #12]
 800060c:	0a1b      	lsrs	r3, r3, #8
 800060e:	f003 0307 	and.w	r3, r3, #7
 8000612:	4618      	mov	r0, r3
 8000614:	46bd      	mov	sp, r7
 8000616:	bc80      	pop	{r7}
 8000618:	4770      	bx	lr
 800061a:	bf00      	nop
 800061c:	e000ed00 	.word	0xe000ed00

08000620 <__NVIC_SetPriority>:
 8000620:	b480      	push	{r7}
 8000622:	b083      	sub	sp, #12
 8000624:	af00      	add	r7, sp, #0
 8000626:	4603      	mov	r3, r0
 8000628:	6039      	str	r1, [r7, #0]
 800062a:	71fb      	strb	r3, [r7, #7]
 800062c:	f997 3007 	ldrsb.w	r3, [r7, #7]
 8000630:	2b00      	cmp	r3, #0
 8000632:	db0a      	blt.n	800064a <__NVIC_SetPriority+0x2a>
 8000634:	683b      	ldr	r3, [r7, #0]
 8000636:	b2da      	uxtb	r2, r3
 8000638:	490c      	ldr	r1, [pc, #48]	@ (800066c <__NVIC_SetPriority+0x4c>)
 800063a:	f997 3007 	ldrsb.w	r3, [r7, #7]
 800063e:	0112      	lsls	r2, r2, #4
 8000640:	b2d2      	uxtb	r2, r2
 8000642:	440b      	add	r3, r1
 8000644:	f883 2300 	strb.w	r2, [r3, #768]	@ 0x300
 8000648:	e00a      	b.n	8000660 <__NVIC_SetPriority+0x40>
 800064a:	683b      	ldr	r3, [r7, #0]
 800064c:	b2da      	uxtb	r2, r3
 800064e:	4908      	ldr	r1, [pc, #32]	@ (8000670 <__NVIC_SetPriority+0x50>)
 8000650:	79fb      	ldrb	r3, [r7, #7]
 8000652:	f003 030f 	and.w	r3, r3, #15
 8000656:	3b04      	subs	r3, #4
 8000658:	0112      	lsls	r2, r2, #4
 800065a:	b2d2      	uxtb	r2, r2
 800065c:	440b      	add	r3, r1
 800065e:	761a      	strb	r2, [r3, #24]
 8000660:	bf00      	nop
 8000662:	370c      	adds	r7, #12
 8000664:	46bd      	mov	sp, r7
 8000666:	bc80      	pop	{r7}
 8000668:	4770      	bx	lr
 800066a:	bf00      	nop
 800066c:	e000e100 	.word	0xe000e100
 8000670:	e000ed00 	.word	0xe000ed00

08000674 <NVIC_EncodePriority>:
 8000674:	b480      	push	{r7}
 8000676:	b089      	sub	sp, #36	@ 0x24
 8000678:	af00      	add	r7, sp, #0
 800067a:	60f8      	str	r0, [r7, #12]
 800067c:	60b9      	str	r1, [r7, #8]
 800067e:	607a      	str	r2, [r7, #4]
 8000680:	68fb      	ldr	r3, [r7, #12]
 8000682:	f003 0307 	and.w	r3, r3, #7
 8000686:	61fb      	str	r3, [r7, #28]
 8000688:	69fb      	ldr	r3, [r7, #28]
 800068a:	f1c3 0307 	rsb	r3, r3, #7
 800068e:	2b04      	cmp	r3, #4
 8000690:	bf28      	it	cs
 8000692:	2304      	movcs	r3, #4
 8000694:	61bb      	str	r3, [r7, #24]
 8000696:	69fb      	ldr	r3, [r7, #28]
 8000698:	3304      	adds	r3, #4
 800069a:	2b06      	cmp	r3, #6
 800069c:	d902      	bls.n	80006a4 <NVIC_EncodePriority+0x30>
 800069e:	69fb      	ldr	r3, [r7, #28]
 80006a0:	3b03      	subs	r3, #3
 80006a2:	e000      	b.n	80006a6 <NVIC_EncodePriority+0x32>
 80006a4:	2300      	movs	r3, #0
 80006a6:	617b      	str	r3, [r7, #20]
 80006a8:	f04f 32ff 	mov.w	r2, #4294967295
 80006ac:	69bb      	ldr	r3, [r7, #24]
 80006ae:	fa02 f303 	lsl.w	r3, r2, r3
 80006b2:	43da      	mvns	r2, r3
 80006b4:	68bb      	ldr	r3, [r7, #8]
 80006b6:	401a      	ands	r2, r3
 80006b8:	697b      	ldr	r3, [r7, #20]
 80006ba:	409a      	lsls	r2, r3
 80006bc:	f04f 31ff 	mov.w	r1, #4294967295
 80006c0:	697b      	ldr	r3, [r7, #20]
 80006c2:	fa01 f303 	lsl.w	r3, r1, r3
 80006c6:	43d9      	mvns	r1, r3
 80006c8:	687b      	ldr	r3, [r7, #4]
 80006ca:	400b      	ands	r3, r1
 80006cc:	4313      	orrs	r3, r2
 80006ce:	4618      	mov	r0, r3
 80006d0:	3724      	adds	r7, #36	@ 0x24
 80006d2:	46bd      	mov	sp, r7
 80006d4:	bc80      	pop	{r7}
 80006d6:	4770      	bx	lr

080006d8 <SysTick_Config>:
 80006d8:	b580      	push	{r7, lr}
 80006da:	b082      	sub	sp, #8
 80006dc:	af00      	add	r7, sp, #0
 80006de:	6078      	str	r0, [r7, #4]
 80006e0:	687b      	ldr	r3, [r7, #4]
 80006e2:	3b01      	subs	r3, #1
 80006e4:	f1b3 7f80 	cmp.w	r3, #16777216	@ 0x1000000
 80006e8:	d301      	bcc.n	80006ee <SysTick_Config+0x16>
 80006ea:	2301      	movs	r3, #1
 80006ec:	e00f      	b.n	800070e <SysTick_Config+0x36>
 80006ee:	4a0a      	ldr	r2, [pc, #40]	@ (8000718 <SysTick_Config+0x40>)
 80006f0:	687b      	ldr	r3, [r7, #4]
 80006f2:	3b01      	subs	r3, #1
 80006f4:	6053      	str	r3, [r2, #4]
 80006f6:	210f      	movs	r1, #15
 80006f8:	f04f 30ff 	mov.w	r0, #4294967295
 80006fc:	f7ff ff90 	bl	8000620 <__NVIC_SetPriority>
 8000700:	4b05      	ldr	r3, [pc, #20]	@ (8000718 <SysTick_Config+0x40>)
 8000702:	2200      	movs	r2, #0
 8000704:	609a      	str	r2, [r3, #8]
 8000706:	4b04      	ldr	r3, [pc, #16]	@ (8000718 <SysTick_Config+0x40>)
 8000708:	2207      	movs	r2, #7
 800070a:	601a      	str	r2, [r3, #0]
 800070c:	2300      	movs	r3, #0
 800070e:	4618      	mov	r0, r3
 8000710:	3708      	adds	r7, #8
 8000712:	46bd      	mov	sp, r7
 8000714:	bd80      	pop	{r7, pc}
 8000716:	bf00      	nop
 8000718:	e000e010 	.word	0xe000e010

0800071c <HAL_NVIC_SetPriorityGrouping>:
 800071c:	b580      	push	{r7, lr}
 800071e:	b082      	sub	sp, #8
 8000720:	af00      	add	r7, sp, #0
 8000722:	6078      	str	r0, [r7, #4]
 8000724:	6878      	ldr	r0, [r7, #4]
 8000726:	f7ff ff49 	bl	80005bc <__NVIC_SetPriorityGrouping>
 800072a:	bf00      	nop
 800072c:	3708      	adds	r7, #8
 800072e:	46bd      	mov	sp, r7
 8000730:	bd80      	pop	{r7, pc}

08000732 <HAL_NVIC_SetPriority>:
 8000732:	b580      	push	{r7, lr}
 8000734:	b086      	sub	sp, #24
 8000736:	af00      	add	r7, sp, #0
 8000738:	4603      	mov	r3, r0
 800073a:	60b9      	str	r1, [r7, #8]
 800073c:	607a      	str	r2, [r7, #4]
 800073e:	73fb      	strb	r3, [r7, #15]
 8000740:	2300      	movs	r3, #0
 8000742:	617b      	str	r3, [r7, #20]
 8000744:	f7ff ff5e 	bl	8000604 <__NVIC_GetPriorityGrouping>
 8000748:	6178      	str	r0, [r7, #20]
 800074a:	687a      	ldr	r2, [r7, #4]
 800074c:	68b9      	ldr	r1, [r7, #8]
 800074e:	6978      	ldr	r0, [r7, #20]
 8000750:	f7ff ff90 	bl	8000674 <NVIC_EncodePriority>
 8000754:	4602      	mov	r2, r0
 8000756:	f997 300f 	ldrsb.w	r3, [r7, #15]
 800075a:	4611      	mov	r1, r2
 800075c:	4618      	mov	r0, r3
 800075e:	f7ff ff5f 	bl	8000620 <__NVIC_SetPriority>
 8000762:	bf00      	nop
 8000764:	3718      	adds	r7, #24
 8000766:	46bd      	mov	sp, r7
 8000768:	bd80      	pop	{r7, pc}

0800076a <HAL_SYSTICK_Config>:
 800076a:	b580      	push	{r7, lr}
 800076c:	b082      	sub	sp, #8
 800076e:	af00      	add	r7, sp, #0
 8000770:	6078      	str	r0, [r7, #4]
 8000772:	6878      	ldr	r0, [r7, #4]
 8000774:	f7ff ffb0 	bl	80006d8 <SysTick_Config>
 8000778:	4603      	mov	r3, r0
 800077a:	4618      	mov	r0, r3
 800077c:	3708      	adds	r7, #8
 800077e:	46bd      	mov	sp, r7
 8000780:	bd80      	pop	{r7, pc}
	...

08000784 <HAL_GPIO_Init>:
 8000784:	b480      	push	{r7}
 8000786:	b08b      	sub	sp, #44	@ 0x2c
 8000788:	af00      	add	r7, sp, #0
 800078a:	6078      	str	r0, [r7, #4]
 800078c:	6039      	str	r1, [r7, #0]
 800078e:	2300      	movs	r3, #0
 8000790:	627b      	str	r3, [r7, #36]	@ 0x24
 8000792:	2300      	movs	r3, #0
 8000794:	623b      	str	r3, [r7, #32]
 8000796:	e161      	b.n	8000a5c <HAL_GPIO_Init+0x2d8>
 8000798:	2201      	movs	r2, #1
 800079a:	6a7b      	ldr	r3, [r7, #36]	@ 0x24
 800079c:	fa02 f303 	lsl.w	r3, r2, r3
 80007a0:	61fb      	str	r3, [r7, #28]
 80007a2:	683b      	ldr	r3, [r7, #0]
 80007a4:	681b      	ldr	r3, [r3, #0]
 80007a6:	69fa      	ldr	r2, [r7, #28]
 80007a8:	4013      	ands	r3, r2
 80007aa:	61bb      	str	r3, [r7, #24]
 80007ac:	69ba      	ldr	r2, [r7, #24]
 80007ae:	69fb      	ldr	r3, [r7, #28]
 80007b0:	429a      	cmp	r2, r3
 80007b2:	f040 8150 	bne.w	8000a56 <HAL_GPIO_Init+0x2d2>
 80007b6:	683b      	ldr	r3, [r7, #0]
 80007b8:	685b      	ldr	r3, [r3, #4]
 80007ba:	4a97      	ldr	r2, [pc, #604]	@ (8000a18 <HAL_GPIO_Init+0x294>)
 80007bc:	4293      	cmp	r3, r2
 80007be:	d05e      	beq.n	800087e <HAL_GPIO_Init+0xfa>
 80007c0:	4a95      	ldr	r2, [pc, #596]	@ (8000a18 <HAL_GPIO_Init+0x294>)
 80007c2:	4293      	cmp	r3, r2
 80007c4:	d875      	bhi.n	80008b2 <HAL_GPIO_Init+0x12e>
 80007c6:	4a95      	ldr	r2, [pc, #596]	@ (8000a1c <HAL_GPIO_Init+0x298>)
 80007c8:	4293      	cmp	r3, r2
 80007ca:	d058      	beq.n	800087e <HAL_GPIO_Init+0xfa>
 80007cc:	4a93      	ldr	r2, [pc, #588]	@ (8000a1c <HAL_GPIO_Init+0x298>)
 80007ce:	4293      	cmp	r3, r2
 80007d0:	d86f      	bhi.n	80008b2 <HAL_GPIO_Init+0x12e>
 80007d2:	4a93      	ldr	r2, [pc, #588]	@ (8000a20 <HAL_GPIO_Init+0x29c>)
 80007d4:	4293      	cmp	r3, r2
 80007d6:	d052      	beq.n	800087e <HAL_GPIO_Init+0xfa>
 80007d8:	4a91      	ldr	r2, [pc, #580]	@ (8000a20 <HAL_GPIO_Init+0x29c>)
 80007da:	4293      	cmp	r3, r2
 80007dc:	d869      	bhi.n	80008b2 <HAL_GPIO_Init+0x12e>
 80007de:	4a91      	ldr	r2, [pc, #580]	@ (8000a24 <HAL_GPIO_Init+0x2a0>)
 80007e0:	4293      	cmp	r3, r2
 80007e2:	d04c      	beq.n	800087e <HAL_GPIO_Init+0xfa>
 80007e4:	4a8f      	ldr	r2, [pc, #572]	@ (8000a24 <HAL_GPIO_Init+0x2a0>)
 80007e6:	4293      	cmp	r3, r2
 80007e8:	d863      	bhi.n	80008b2 <HAL_GPIO_Init+0x12e>
 80007ea:	4a8f      	ldr	r2, [pc, #572]	@ (8000a28 <HAL_GPIO_Init+0x2a4>)
 80007ec:	4293      	cmp	r3, r2
 80007ee:	d046      	beq.n	800087e <HAL_GPIO_Init+0xfa>
 80007f0:	4a8d      	ldr	r2, [pc, #564]	@ (8000a28 <HAL_GPIO_Init+0x2a4>)
 80007f2:	4293      	cmp	r3, r2
 80007f4:	d85d      	bhi.n	80008b2 <HAL_GPIO_Init+0x12e>
 80007f6:	2b12      	cmp	r3, #18
 80007f8:	d82a      	bhi.n	8000850 <HAL_GPIO_Init+0xcc>
 80007fa:	2b12      	cmp	r3, #18
 80007fc:	d859      	bhi.n	80008b2 <HAL_GPIO_Init+0x12e>
 80007fe:	a201      	add	r2, pc, #4	@ (adr r2, 8000804 <HAL_GPIO_Init+0x80>)
 8000800:	f852 f023 	ldr.w	pc, [r2, r3, lsl #2]
 8000804:	0800087f 	.word	0x0800087f
 8000808:	08000859 	.word	0x08000859
 800080c:	0800086b 	.word	0x0800086b
 8000810:	080008ad 	.word	0x080008ad
 8000814:	080008b3 	.word	0x080008b3
 8000818:	080008b3 	.word	0x080008b3
 800081c:	080008b3 	.word	0x080008b3
 8000820:	080008b3 	.word	0x080008b3
 8000824:	080008b3 	.word	0x080008b3
 8000828:	080008b3 	.word	0x080008b3
 800082c:	080008b3 	.word	0x080008b3
 8000830:	080008b3 	.word	0x080008b3
 8000834:	080008b3 	.word	0x080008b3
 8000838:	080008b3 	.word	0x080008b3
 800083c:	080008b3 	.word	0x080008b3
 8000840:	080008b3 	.word	0x080008b3
 8000844:	080008b3 	.word	0x080008b3
 8000848:	08000861 	.word	0x08000861
 800084c:	08000875 	.word	0x08000875
 8000850:	4a76      	ldr	r2, [pc, #472]	@ (8000a2c <HAL_GPIO_Init+0x2a8>)
 8000852:	4293      	cmp	r3, r2
 8000854:	d013      	beq.n	800087e <HAL_GPIO_Init+0xfa>
 8000856:	e02c      	b.n	80008b2 <HAL_GPIO_Init+0x12e>
 8000858:	683b      	ldr	r3, [r7, #0]
 800085a:	68db      	ldr	r3, [r3, #12]
 800085c:	623b      	str	r3, [r7, #32]
 800085e:	e029      	b.n	80008b4 <HAL_GPIO_Init+0x130>
 8000860:	683b      	ldr	r3, [r7, #0]
 8000862:	68db      	ldr	r3, [r3, #12]
 8000864:	3304      	adds	r3, #4
 8000866:	623b      	str	r3, [r7, #32]
 8000868:	e024      	b.n	80008b4 <HAL_GPIO_Init+0x130>
 800086a:	683b      	ldr	r3, [r7, #0]
 800086c:	68db      	ldr	r3, [r3, #12]
 800086e:	3308      	adds	r3, #8
 8000870:	623b      	str	r3, [r7, #32]
 8000872:	e01f      	b.n	80008b4 <HAL_GPIO_Init+0x130>
 8000874:	683b      	ldr	r3, [r7, #0]
 8000876:	68db      	ldr	r3, [r3, #12]
 8000878:	330c      	adds	r3, #12
 800087a:	623b      	str	r3, [r7, #32]
 800087c:	e01a      	b.n	80008b4 <HAL_GPIO_Init+0x130>
 800087e:	683b      	ldr	r3, [r7, #0]
 8000880:	689b      	ldr	r3, [r3, #8]
 8000882:	2b00      	cmp	r3, #0
 8000884:	d102      	bne.n	800088c <HAL_GPIO_Init+0x108>
 8000886:	2304      	movs	r3, #4
 8000888:	623b      	str	r3, [r7, #32]
 800088a:	e013      	b.n	80008b4 <HAL_GPIO_Init+0x130>
 800088c:	683b      	ldr	r3, [r7, #0]
 800088e:	689b      	ldr	r3, [r3, #8]
 8000890:	2b01      	cmp	r3, #1
 8000892:	d105      	bne.n	80008a0 <HAL_GPIO_Init+0x11c>
 8000894:	2308      	movs	r3, #8
 8000896:	623b      	str	r3, [r7, #32]
 8000898:	687b      	ldr	r3, [r7, #4]
 800089a:	69fa      	ldr	r2, [r7, #28]
 800089c:	611a      	str	r2, [r3, #16]
 800089e:	e009      	b.n	80008b4 <HAL_GPIO_Init+0x130>
 80008a0:	2308      	movs	r3, #8
 80008a2:	623b      	str	r3, [r7, #32]
 80008a4:	687b      	ldr	r3, [r7, #4]
 80008a6:	69fa      	ldr	r2, [r7, #28]
 80008a8:	615a      	str	r2, [r3, #20]
 80008aa:	e003      	b.n	80008b4 <HAL_GPIO_Init+0x130>
 80008ac:	2300      	movs	r3, #0
 80008ae:	623b      	str	r3, [r7, #32]
 80008b0:	e000      	b.n	80008b4 <HAL_GPIO_Init+0x130>
 80008b2:	bf00      	nop
 80008b4:	69bb      	ldr	r3, [r7, #24]
 80008b6:	2bff      	cmp	r3, #255	@ 0xff
 80008b8:	d801      	bhi.n	80008be <HAL_GPIO_Init+0x13a>
 80008ba:	687b      	ldr	r3, [r7, #4]
 80008bc:	e001      	b.n	80008c2 <HAL_GPIO_Init+0x13e>
 80008be:	687b      	ldr	r3, [r7, #4]
 80008c0:	3304      	adds	r3, #4
 80008c2:	617b      	str	r3, [r7, #20]
 80008c4:	69bb      	ldr	r3, [r7, #24]
 80008c6:	2bff      	cmp	r3, #255	@ 0xff
 80008c8:	d802      	bhi.n	80008d0 <HAL_GPIO_Init+0x14c>
 80008ca:	6a7b      	ldr	r3, [r7, #36]	@ 0x24
 80008cc:	009b      	lsls	r3, r3, #2
 80008ce:	e002      	b.n	80008d6 <HAL_GPIO_Init+0x152>
 80008d0:	6a7b      	ldr	r3, [r7, #36]	@ 0x24
 80008d2:	3b08      	subs	r3, #8
 80008d4:	009b      	lsls	r3, r3, #2
 80008d6:	613b      	str	r3, [r7, #16]
 80008d8:	697b      	ldr	r3, [r7, #20]
 80008da:	681a      	ldr	r2, [r3, #0]
 80008dc:	210f      	movs	r1, #15
 80008de:	693b      	ldr	r3, [r7, #16]
 80008e0:	fa01 f303 	lsl.w	r3, r1, r3
 80008e4:	43db      	mvns	r3, r3
 80008e6:	401a      	ands	r2, r3
 80008e8:	6a39      	ldr	r1, [r7, #32]
 80008ea:	693b      	ldr	r3, [r7, #16]
 80008ec:	fa01 f303 	lsl.w	r3, r1, r3
 80008f0:	431a      	orrs	r2, r3
 80008f2:	697b      	ldr	r3, [r7, #20]
 80008f4:	601a      	str	r2, [r3, #0]
 80008f6:	683b      	ldr	r3, [r7, #0]
 80008f8:	685b      	ldr	r3, [r3, #4]
 80008fa:	f003 5380 	and.w	r3, r3, #268435456	@ 0x10000000
 80008fe:	2b00      	cmp	r3, #0
 8000900:	f000 80a9 	beq.w	8000a56 <HAL_GPIO_Init+0x2d2>
 8000904:	4b4a      	ldr	r3, [pc, #296]	@ (8000a30 <HAL_GPIO_Init+0x2ac>)
 8000906:	699b      	ldr	r3, [r3, #24]
 8000908:	4a49      	ldr	r2, [pc, #292]	@ (8000a30 <HAL_GPIO_Init+0x2ac>)
 800090a:	f043 0301 	orr.w	r3, r3, #1
 800090e:	6193      	str	r3, [r2, #24]
 8000910:	4b47      	ldr	r3, [pc, #284]	@ (8000a30 <HAL_GPIO_Init+0x2ac>)
 8000912:	699b      	ldr	r3, [r3, #24]
 8000914:	f003 0301 	and.w	r3, r3, #1
 8000918:	60bb      	str	r3, [r7, #8]
 800091a:	68bb      	ldr	r3, [r7, #8]
 800091c:	4a45      	ldr	r2, [pc, #276]	@ (8000a34 <HAL_GPIO_Init+0x2b0>)
 800091e:	6a7b      	ldr	r3, [r7, #36]	@ 0x24
 8000920:	089b      	lsrs	r3, r3, #2
 8000922:	3302      	adds	r3, #2
 8000924:	f852 3023 	ldr.w	r3, [r2, r3, lsl #2]
 8000928:	60fb      	str	r3, [r7, #12]
 800092a:	6a7b      	ldr	r3, [r7, #36]	@ 0x24
 800092c:	f003 0303 	and.w	r3, r3, #3
 8000930:	009b      	lsls	r3, r3, #2
 8000932:	220f      	movs	r2, #15
 8000934:	fa02 f303 	lsl.w	r3, r2, r3
 8000938:	43db      	mvns	r3, r3
 800093a:	68fa      	ldr	r2, [r7, #12]
 800093c:	4013      	ands	r3, r2
 800093e:	60fb      	str	r3, [r7, #12]
 8000940:	687b      	ldr	r3, [r7, #4]
 8000942:	4a3d      	ldr	r2, [pc, #244]	@ (8000a38 <HAL_GPIO_Init+0x2b4>)
 8000944:	4293      	cmp	r3, r2
 8000946:	d00d      	beq.n	8000964 <HAL_GPIO_Init+0x1e0>
 8000948:	687b      	ldr	r3, [r7, #4]
 800094a:	4a3c      	ldr	r2, [pc, #240]	@ (8000a3c <HAL_GPIO_Init+0x2b8>)
 800094c:	4293      	cmp	r3, r2
 800094e:	d007      	beq.n	8000960 <HAL_GPIO_Init+0x1dc>
 8000950:	687b      	ldr	r3, [r7, #4]
 8000952:	4a3b      	ldr	r2, [pc, #236]	@ (8000a40 <HAL_GPIO_Init+0x2bc>)
 8000954:	4293      	cmp	r3, r2
 8000956:	d101      	bne.n	800095c <HAL_GPIO_Init+0x1d8>
 8000958:	2302      	movs	r3, #2
 800095a:	e004      	b.n	8000966 <HAL_GPIO_Init+0x1e2>
 800095c:	2303      	movs	r3, #3
 800095e:	e002      	b.n	8000966 <HAL_GPIO_Init+0x1e2>
 8000960:	2301      	movs	r3, #1
 8000962:	e000      	b.n	8000966 <HAL_GPIO_Init+0x1e2>
 8000964:	2300      	movs	r3, #0
 8000966:	6a7a      	ldr	r2, [r7, #36]	@ 0x24
 8000968:	f002 0203 	and.w	r2, r2, #3
 800096c:	0092      	lsls	r2, r2, #2
 800096e:	4093      	lsls	r3, r2
 8000970:	68fa      	ldr	r2, [r7, #12]
 8000972:	4313      	orrs	r3, r2
 8000974:	60fb      	str	r3, [r7, #12]
 8000976:	492f      	ldr	r1, [pc, #188]	@ (8000a34 <HAL_GPIO_Init+0x2b0>)
 8000978:	6a7b      	ldr	r3, [r7, #36]	@ 0x24
 800097a:	089b      	lsrs	r3, r3, #2
 800097c:	3302      	adds	r3, #2
 800097e:	68fa      	ldr	r2, [r7, #12]
 8000980:	f841 2023 	str.w	r2, [r1, r3, lsl #2]
 8000984:	683b      	ldr	r3, [r7, #0]
 8000986:	685b      	ldr	r3, [r3, #4]
 8000988:	f403 1380 	and.w	r3, r3, #1048576	@ 0x100000
 800098c:	2b00      	cmp	r3, #0
 800098e:	d006      	beq.n	800099e <HAL_GPIO_Init+0x21a>
 8000990:	4b2c      	ldr	r3, [pc, #176]	@ (8000a44 <HAL_GPIO_Init+0x2c0>)
 8000992:	689a      	ldr	r2, [r3, #8]
 8000994:	492b      	ldr	r1, [pc, #172]	@ (8000a44 <HAL_GPIO_Init+0x2c0>)
 8000996:	69bb      	ldr	r3, [r7, #24]
 8000998:	4313      	orrs	r3, r2
 800099a:	608b      	str	r3, [r1, #8]
 800099c:	e006      	b.n	80009ac <HAL_GPIO_Init+0x228>
 800099e:	4b29      	ldr	r3, [pc, #164]	@ (8000a44 <HAL_GPIO_Init+0x2c0>)
 80009a0:	689a      	ldr	r2, [r3, #8]
 80009a2:	69bb      	ldr	r3, [r7, #24]
 80009a4:	43db      	mvns	r3, r3
 80009a6:	4927      	ldr	r1, [pc, #156]	@ (8000a44 <HAL_GPIO_Init+0x2c0>)
 80009a8:	4013      	ands	r3, r2
 80009aa:	608b      	str	r3, [r1, #8]
 80009ac:	683b      	ldr	r3, [r7, #0]
 80009ae:	685b      	ldr	r3, [r3, #4]
 80009b0:	f403 1300 	and.w	r3, r3, #2097152	@ 0x200000
 80009b4:	2b00      	cmp	r3, #0
 80009b6:	d006      	beq.n	80009c6 <HAL_GPIO_Init+0x242>
 80009b8:	4b22      	ldr	r3, [pc, #136]	@ (8000a44 <HAL_GPIO_Init+0x2c0>)
 80009ba:	68da      	ldr	r2, [r3, #12]
 80009bc:	4921      	ldr	r1, [pc, #132]	@ (8000a44 <HAL_GPIO_Init+0x2c0>)
 80009be:	69bb      	ldr	r3, [r7, #24]
 80009c0:	4313      	orrs	r3, r2
 80009c2:	60cb      	str	r3, [r1, #12]
 80009c4:	e006      	b.n	80009d4 <HAL_GPIO_Init+0x250>
 80009c6:	4b1f      	ldr	r3, [pc, #124]	@ (8000a44 <HAL_GPIO_Init+0x2c0>)
 80009c8:	68da      	ldr	r2, [r3, #12]
 80009ca:	69bb      	ldr	r3, [r7, #24]
 80009cc:	43db      	mvns	r3, r3
 80009ce:	491d      	ldr	r1, [pc, #116]	@ (8000a44 <HAL_GPIO_Init+0x2c0>)
 80009d0:	4013      	ands	r3, r2
 80009d2:	60cb      	str	r3, [r1, #12]
 80009d4:	683b      	ldr	r3, [r7, #0]
 80009d6:	685b      	ldr	r3, [r3, #4]
 80009d8:	f403 3300 	and.w	r3, r3, #131072	@ 0x20000
 80009dc:	2b00      	cmp	r3, #0
 80009de:	d006      	beq.n	80009ee <HAL_GPIO_Init+0x26a>
 80009e0:	4b18      	ldr	r3, [pc, #96]	@ (8000a44 <HAL_GPIO_Init+0x2c0>)
 80009e2:	685a      	ldr	r2, [r3, #4]
 80009e4:	4917      	ldr	r1, [pc, #92]	@ (8000a44 <HAL_GPIO_Init+0x2c0>)
 80009e6:	69bb      	ldr	r3, [r7, #24]
 80009e8:	4313      	orrs	r3, r2
 80009ea:	604b      	str	r3, [r1, #4]
 80009ec:	e006      	b.n	80009fc <HAL_GPIO_Init+0x278>
 80009ee:	4b15      	ldr	r3, [pc, #84]	@ (8000a44 <HAL_GPIO_Init+0x2c0>)
 80009f0:	685a      	ldr	r2, [r3, #4]
 80009f2:	69bb      	ldr	r3, [r7, #24]
 80009f4:	43db      	mvns	r3, r3
 80009f6:	4913      	ldr	r1, [pc, #76]	@ (8000a44 <HAL_GPIO_Init+0x2c0>)
 80009f8:	4013      	ands	r3, r2
 80009fa:	604b      	str	r3, [r1, #4]
 80009fc:	683b      	ldr	r3, [r7, #0]
 80009fe:	685b      	ldr	r3, [r3, #4]
 8000a00:	f403 3380 	and.w	r3, r3, #65536	@ 0x10000
 8000a04:	2b00      	cmp	r3, #0
 8000a06:	d01f      	beq.n	8000a48 <HAL_GPIO_Init+0x2c4>
 8000a08:	4b0e      	ldr	r3, [pc, #56]	@ (8000a44 <HAL_GPIO_Init+0x2c0>)
 8000a0a:	681a      	ldr	r2, [r3, #0]
 8000a0c:	490d      	ldr	r1, [pc, #52]	@ (8000a44 <HAL_GPIO_Init+0x2c0>)
 8000a0e:	69bb      	ldr	r3, [r7, #24]
 8000a10:	4313      	orrs	r3, r2
 8000a12:	600b      	str	r3, [r1, #0]
 8000a14:	e01f      	b.n	8000a56 <HAL_GPIO_Init+0x2d2>
 8000a16:	bf00      	nop
 8000a18:	10320000 	.word	0x10320000
 8000a1c:	10310000 	.word	0x10310000
 8000a20:	10220000 	.word	0x10220000
 8000a24:	10210000 	.word	0x10210000
 8000a28:	10120000 	.word	0x10120000
 8000a2c:	10110000 	.word	0x10110000
 8000a30:	40021000 	.word	0x40021000
 8000a34:	40010000 	.word	0x40010000
 8000a38:	40010800 	.word	0x40010800
 8000a3c:	40010c00 	.word	0x40010c00
 8000a40:	40011000 	.word	0x40011000
 8000a44:	40010400 	.word	0x40010400
 8000a48:	4b0b      	ldr	r3, [pc, #44]	@ (8000a78 <HAL_GPIO_Init+0x2f4>)
 8000a4a:	681a      	ldr	r2, [r3, #0]
 8000a4c:	69bb      	ldr	r3, [r7, #24]
 8000a4e:	43db      	mvns	r3, r3
 8000a50:	4909      	ldr	r1, [pc, #36]	@ (8000a78 <HAL_GPIO_Init+0x2f4>)
 8000a52:	4013      	ands	r3, r2
 8000a54:	600b      	str	r3, [r1, #0]
 8000a56:	6a7b      	ldr	r3, [r7, #36]	@ 0x24
 8000a58:	3301      	adds	r3, #1
 8000a5a:	627b      	str	r3, [r7, #36]	@ 0x24
 8000a5c:	683b      	ldr	r3, [r7, #0]
 8000a5e:	681a      	ldr	r2, [r3, #0]
 8000a60:	6a7b      	ldr	r3, [r7, #36]	@ 0x24
 8000a62:	fa22 f303 	lsr.w	r3, r2, r3
 8000a66:	2b00      	cmp	r3, #0
 8000a68:	f47f ae96 	bne.w	8000798 <HAL_GPIO_Init+0x14>
 8000a6c:	bf00      	nop
 8000a6e:	bf00      	nop
 8000a70:	372c      	adds	r7, #44	@ 0x2c
 8000a72:	46bd      	mov	sp, r7
 8000a74:	bc80      	pop	{r7}
 8000a76:	4770      	bx	lr
 8000a78:	40010400 	.word	0x40010400

08000a7c <HAL_GPIO_WritePin>:
 8000a7c:	b480      	push	{r7}
 8000a7e:	b083      	sub	sp, #12
 8000a80:	af00      	add	r7, sp, #0
 8000a82:	6078      	str	r0, [r7, #4]
 8000a84:	460b      	mov	r3, r1
 8000a86:	807b      	strh	r3, [r7, #2]
 8000a88:	4613      	mov	r3, r2
 8000a8a:	707b      	strb	r3, [r7, #1]
 8000a8c:	787b      	ldrb	r3, [r7, #1]
 8000a8e:	2b00      	cmp	r3, #0
 8000a90:	d003      	beq.n	8000a9a <HAL_GPIO_WritePin+0x1e>
 8000a92:	887a      	ldrh	r2, [r7, #2]
 8000a94:	687b      	ldr	r3, [r7, #4]
 8000a96:	611a      	str	r2, [r3, #16]
 8000a98:	e003      	b.n	8000aa2 <HAL_GPIO_WritePin+0x26>
 8000a9a:	887b      	ldrh	r3, [r7, #2]
 8000a9c:	041a      	lsls	r2, r3, #16
 8000a9e:	687b      	ldr	r3, [r7, #4]
 8000aa0:	611a      	str	r2, [r3, #16]
 8000aa2:	bf00      	nop
 8000aa4:	370c      	adds	r7, #12
 8000aa6:	46bd      	mov	sp, r7
 8000aa8:	bc80      	pop	{r7}
 8000aaa:	4770      	bx	lr

08000aac <HAL_RCC_OscConfig>:
 8000aac:	b580      	push	{r7, lr}
 8000aae:	b086      	sub	sp, #24
 8000ab0:	af00      	add	r7, sp, #0
 8000ab2:	6078      	str	r0, [r7, #4]
 8000ab4:	687b      	ldr	r3, [r7, #4]
 8000ab6:	2b00      	cmp	r3, #0
 8000ab8:	d101      	bne.n	8000abe <HAL_RCC_OscConfig+0x12>
 8000aba:	2301      	movs	r3, #1
 8000abc:	e272      	b.n	8000fa4 <HAL_RCC_OscConfig+0x4f8>
 8000abe:	687b      	ldr	r3, [r7, #4]
 8000ac0:	681b      	ldr	r3, [r3, #0]
 8000ac2:	f003 0301 	and.w	r3, r3, #1
 8000ac6:	2b00      	cmp	r3, #0
 8000ac8:	f000 8087 	beq.w	8000bda <HAL_RCC_OscConfig+0x12e>
 8000acc:	4b92      	ldr	r3, [pc, #584]	@ (8000d18 <HAL_RCC_OscConfig+0x26c>)
 8000ace:	685b      	ldr	r3, [r3, #4]
 8000ad0:	f003 030c 	and.w	r3, r3, #12
 8000ad4:	2b04      	cmp	r3, #4
 8000ad6:	d00c      	beq.n	8000af2 <HAL_RCC_OscConfig+0x46>
 8000ad8:	4b8f      	ldr	r3, [pc, #572]	@ (8000d18 <HAL_RCC_OscConfig+0x26c>)
 8000ada:	685b      	ldr	r3, [r3, #4]
 8000adc:	f003 030c 	and.w	r3, r3, #12
 8000ae0:	2b08      	cmp	r3, #8
 8000ae2:	d112      	bne.n	8000b0a <HAL_RCC_OscConfig+0x5e>
 8000ae4:	4b8c      	ldr	r3, [pc, #560]	@ (8000d18 <HAL_RCC_OscConfig+0x26c>)
 8000ae6:	685b      	ldr	r3, [r3, #4]
 8000ae8:	f403 3380 	and.w	r3, r3, #65536	@ 0x10000
 8000aec:	f5b3 3f80 	cmp.w	r3, #65536	@ 0x10000
 8000af0:	d10b      	bne.n	8000b0a <HAL_RCC_OscConfig+0x5e>
 8000af2:	4b89      	ldr	r3, [pc, #548]	@ (8000d18 <HAL_RCC_OscConfig+0x26c>)
 8000af4:	681b      	ldr	r3, [r3, #0]
 8000af6:	f403 3300 	and.w	r3, r3, #131072	@ 0x20000
 8000afa:	2b00      	cmp	r3, #0
 8000afc:	d06c      	beq.n	8000bd8 <HAL_RCC_OscConfig+0x12c>
 8000afe:	687b      	ldr	r3, [r7, #4]
 8000b00:	685b      	ldr	r3, [r3, #4]
 8000b02:	2b00      	cmp	r3, #0
 8000b04:	d168      	bne.n	8000bd8 <HAL_RCC_OscConfig+0x12c>
 8000b06:	2301      	movs	r3, #1
 8000b08:	e24c      	b.n	8000fa4 <HAL_RCC_OscConfig+0x4f8>
 8000b0a:	687b      	ldr	r3, [r7, #4]
 8000b0c:	685b      	ldr	r3, [r3, #4]
 8000b0e:	f5b3 3f80 	cmp.w	r3, #65536	@ 0x10000
 8000b12:	d106      	bne.n	8000b22 <HAL_RCC_OscConfig+0x76>
 8000b14:	4b80      	ldr	r3, [pc, #512]	@ (8000d18 <HAL_RCC_OscConfig+0x26c>)
 8000b16:	681b      	ldr	r3, [r3, #0]
 8000b18:	4a7f      	ldr	r2, [pc, #508]	@ (8000d18 <HAL_RCC_OscConfig+0x26c>)
 8000b1a:	f443 3380 	orr.w	r3, r3, #65536	@ 0x10000
 8000b1e:	6013      	str	r3, [r2, #0]
 8000b20:	e02e      	b.n	8000b80 <HAL_RCC_OscConfig+0xd4>
 8000b22:	687b      	ldr	r3, [r7, #4]
 8000b24:	685b      	ldr	r3, [r3, #4]
 8000b26:	2b00      	cmp	r3, #0
 8000b28:	d10c      	bne.n	8000b44 <HAL_RCC_OscConfig+0x98>
 8000b2a:	4b7b      	ldr	r3, [pc, #492]	@ (8000d18 <HAL_RCC_OscConfig+0x26c>)
 8000b2c:	681b      	ldr	r3, [r3, #0]
 8000b2e:	4a7a      	ldr	r2, [pc, #488]	@ (8000d18 <HAL_RCC_OscConfig+0x26c>)
 8000b30:	f423 3380 	bic.w	r3, r3, #65536	@ 0x10000
 8000b34:	6013      	str	r3, [r2, #0]
 8000b36:	4b78      	ldr	r3, [pc, #480]	@ (8000d18 <HAL_RCC_OscConfig+0x26c>)
 8000b38:	681b      	ldr	r3, [r3, #0]
 8000b3a:	4a77      	ldr	r2, [pc, #476]	@ (8000d18 <HAL_RCC_OscConfig+0x26c>)
 8000b3c:	f423 2380 	bic.w	r3, r3, #262144	@ 0x40000
 8000b40:	6013      	str	r3, [r2, #0]
 8000b42:	e01d      	b.n	8000b80 <HAL_RCC_OscConfig+0xd4>
 8000b44:	687b      	ldr	r3, [r7, #4]
 8000b46:	685b      	ldr	r3, [r3, #4]
 8000b48:	f5b3 2fa0 	cmp.w	r3, #327680	@ 0x50000
 8000b4c:	d10c      	bne.n	8000b68 <HAL_RCC_OscConfig+0xbc>
 8000b4e:	4b72      	ldr	r3, [pc, #456]	@ (8000d18 <HAL_RCC_OscConfig+0x26c>)
 8000b50:	681b      	ldr	r3, [r3, #0]
 8000b52:	4a71      	ldr	r2, [pc, #452]	@ (8000d18 <HAL_RCC_OscConfig+0x26c>)
 8000b54:	f443 2380 	orr.w	r3, r3, #262144	@ 0x40000
 8000b58:	6013      	str	r3, [r2, #0]
 8000b5a:	4b6f      	ldr	r3, [pc, #444]	@ (8000d18 <HAL_RCC_OscConfig+0x26c>)
 8000b5c:	681b      	ldr	r3, [r3, #0]
 8000b5e:	4a6e      	ldr	r2, [pc, #440]	@ (8000d18 <HAL_RCC_OscConfig+0x26c>)
 8000b60:	f443 3380 	orr.w	r3, r3, #65536	@ 0x10000
 8000b64:	6013      	str	r3, [r2, #0]
 8000b66:	e00b      	b.n	8000b80 <HAL_RCC_OscConfig+0xd4>
 8000b68:	4b6b      	ldr	r3, [pc, #428]	@ (8000d18 <HAL_RCC_OscConfig+0x26c>)
 8000b6a:	681b      	ldr	r3, [r3, #0]
 8000b6c:	4a6a      	ldr	r2, [pc, #424]	@ (8000d18 <HAL_RCC_OscConfig+0x26c>)
 8000b6e:	f423 3380 	bic.w	r3, r3, #65536	@ 0x10000
 8000b72:	6013      	str	r3, [r2, #0]
 8000b74:	4b68      	ldr	r3, [pc, #416]	@ (8000d18 <HAL_RCC_OscConfig+0x26c>)
 8000b76:	681b      	ldr	r3, [r3, #0]
 8000b78:	4a67      	ldr	r2, [pc, #412]	@ (8000d18 <HAL_RCC_OscConfig+0x26c>)
 8000b7a:	f423 2380 	bic.w	r3, r3, #262144	@ 0x40000
 8000b7e:	6013      	str	r3, [r2, #0]
 8000b80:	687b      	ldr	r3, [r7, #4]
 8000b82:	685b      	ldr	r3, [r3, #4]
 8000b84:	2b00      	cmp	r3, #0
 8000b86:	d013      	beq.n	8000bb0 <HAL_RCC_OscConfig+0x104>
 8000b88:	f7ff fcea 	bl	8000560 <HAL_GetTick>
 8000b8c:	6138      	str	r0, [r7, #16]
 8000b8e:	e008      	b.n	8000ba2 <HAL_RCC_OscConfig+0xf6>
 8000b90:	f7ff fce6 	bl	8000560 <HAL_GetTick>
 8000b94:	4602      	mov	r2, r0
 8000b96:	693b      	ldr	r3, [r7, #16]
 8000b98:	1ad3      	subs	r3, r2, r3
 8000b9a:	2b64      	cmp	r3, #100	@ 0x64
 8000b9c:	d901      	bls.n	8000ba2 <HAL_RCC_OscConfig+0xf6>
 8000b9e:	2303      	movs	r3, #3
 8000ba0:	e200      	b.n	8000fa4 <HAL_RCC_OscConfig+0x4f8>
 8000ba2:	4b5d      	ldr	r3, [pc, #372]	@ (8000d18 <HAL_RCC_OscConfig+0x26c>)
 8000ba4:	681b      	ldr	r3, [r3, #0]
 8000ba6:	f403 3300 	and.w	r3, r3, #131072	@ 0x20000
 8000baa:	2b00      	cmp	r3, #0
 8000bac:	d0f0      	beq.n	8000b90 <HAL_RCC_OscConfig+0xe4>
 8000bae:	e014      	b.n	8000bda <HAL_RCC_OscConfig+0x12e>
 8000bb0:	f7ff fcd6 	bl	8000560 <HAL_GetTick>
 8000bb4:	6138      	str	r0, [r7, #16]
 8000bb6:	e008      	b.n	8000bca <HAL_RCC_OscConfig+0x11e>
 8000bb8:	f7ff fcd2 	bl	8000560 <HAL_GetTick>
 8000bbc:	4602      	mov	r2, r0
 8000bbe:	693b      	ldr	r3, [r7, #16]
 8000bc0:	1ad3      	subs	r3, r2, r3
 8000bc2:	2b64      	cmp	r3, #100	@ 0x64
 8000bc4:	d901      	bls.n	8000bca <HAL_RCC_OscConfig+0x11e>
 8000bc6:	2303      	movs	r3, #3
 8000bc8:	e1ec      	b.n	8000fa4 <HAL_RCC_OscConfig+0x4f8>
 8000bca:	4b53      	ldr	r3, [pc, #332]	@ (8000d18 <HAL_RCC_OscConfig+0x26c>)
 8000bcc:	681b      	ldr	r3, [r3, #0]
 8000bce:	f403 3300 	and.w	r3, r3, #131072	@ 0x20000
 8000bd2:	2b00      	cmp	r3, #0
 8000bd4:	d1f0      	bne.n	8000bb8 <HAL_RCC_OscConfig+0x10c>
 8000bd6:	e000      	b.n	8000bda <HAL_RCC_OscConfig+0x12e>
 8000bd8:	bf00      	nop
 8000bda:	687b      	ldr	r3, [r7, #4]
 8000bdc:	681b      	ldr	r3, [r3, #0]
 8000bde:	f003 0302 	and.w	r3, r3, #2
 8000be2:	2b00      	cmp	r3, #0
 8000be4:	d063      	beq.n	8000cae <HAL_RCC_OscConfig+0x202>
 8000be6:	4b4c      	ldr	r3, [pc, #304]	@ (8000d18 <HAL_RCC_OscConfig+0x26c>)
 8000be8:	685b      	ldr	r3, [r3, #4]
 8000bea:	f003 030c 	and.w	r3, r3, #12
 8000bee:	2b00      	cmp	r3, #0
 8000bf0:	d00b      	beq.n	8000c0a <HAL_RCC_OscConfig+0x15e>
 8000bf2:	4b49      	ldr	r3, [pc, #292]	@ (8000d18 <HAL_RCC_OscConfig+0x26c>)
 8000bf4:	685b      	ldr	r3, [r3, #4]
 8000bf6:	f003 030c 	and.w	r3, r3, #12
 8000bfa:	2b08      	cmp	r3, #8
 8000bfc:	d11c      	bne.n	8000c38 <HAL_RCC_OscConfig+0x18c>
 8000bfe:	4b46      	ldr	r3, [pc, #280]	@ (8000d18 <HAL_RCC_OscConfig+0x26c>)
 8000c00:	685b      	ldr	r3, [r3, #4]
 8000c02:	f403 3380 	and.w	r3, r3, #65536	@ 0x10000
 8000c06:	2b00      	cmp	r3, #0
 8000c08:	d116      	bne.n	8000c38 <HAL_RCC_OscConfig+0x18c>
 8000c0a:	4b43      	ldr	r3, [pc, #268]	@ (8000d18 <HAL_RCC_OscConfig+0x26c>)
 8000c0c:	681b      	ldr	r3, [r3, #0]
 8000c0e:	f003 0302 	and.w	r3, r3, #2
 8000c12:	2b00      	cmp	r3, #0
 8000c14:	d005      	beq.n	8000c22 <HAL_RCC_OscConfig+0x176>
 8000c16:	687b      	ldr	r3, [r7, #4]
 8000c18:	691b      	ldr	r3, [r3, #16]
 8000c1a:	2b01      	cmp	r3, #1
 8000c1c:	d001      	beq.n	8000c22 <HAL_RCC_OscConfig+0x176>
 8000c1e:	2301      	movs	r3, #1
 8000c20:	e1c0      	b.n	8000fa4 <HAL_RCC_OscConfig+0x4f8>
 8000c22:	4b3d      	ldr	r3, [pc, #244]	@ (8000d18 <HAL_RCC_OscConfig+0x26c>)
 8000c24:	681b      	ldr	r3, [r3, #0]
 8000c26:	f023 02f8 	bic.w	r2, r3, #248	@ 0xf8
 8000c2a:	687b      	ldr	r3, [r7, #4]
 8000c2c:	695b      	ldr	r3, [r3, #20]
 8000c2e:	00db      	lsls	r3, r3, #3
 8000c30:	4939      	ldr	r1, [pc, #228]	@ (8000d18 <HAL_RCC_OscConfig+0x26c>)
 8000c32:	4313      	orrs	r3, r2
 8000c34:	600b      	str	r3, [r1, #0]
 8000c36:	e03a      	b.n	8000cae <HAL_RCC_OscConfig+0x202>
 8000c38:	687b      	ldr	r3, [r7, #4]
 8000c3a:	691b      	ldr	r3, [r3, #16]
 8000c3c:	2b00      	cmp	r3, #0
 8000c3e:	d020      	beq.n	8000c82 <HAL_RCC_OscConfig+0x1d6>
 8000c40:	4b36      	ldr	r3, [pc, #216]	@ (8000d1c <HAL_RCC_OscConfig+0x270>)
 8000c42:	2201      	movs	r2, #1
 8000c44:	601a      	str	r2, [r3, #0]
 8000c46:	f7ff fc8b 	bl	8000560 <HAL_GetTick>
 8000c4a:	6138      	str	r0, [r7, #16]
 8000c4c:	e008      	b.n	8000c60 <HAL_RCC_OscConfig+0x1b4>
 8000c4e:	f7ff fc87 	bl	8000560 <HAL_GetTick>
 8000c52:	4602      	mov	r2, r0
 8000c54:	693b      	ldr	r3, [r7, #16]
 8000c56:	1ad3      	subs	r3, r2, r3
 8000c58:	2b02      	cmp	r3, #2
 8000c5a:	d901      	bls.n	8000c60 <HAL_RCC_OscConfig+0x1b4>
 8000c5c:	2303      	movs	r3, #3
 8000c5e:	e1a1      	b.n	8000fa4 <HAL_RCC_OscConfig+0x4f8>
 8000c60:	4b2d      	ldr	r3, [pc, #180]	@ (8000d18 <HAL_RCC_OscConfig+0x26c>)
 8000c62:	681b      	ldr	r3, [r3, #0]
 8000c64:	f003 0302 	and.w	r3, r3, #2
 8000c68:	2b00      	cmp	r3, #0
 8000c6a:	d0f0      	beq.n	8000c4e <HAL_RCC_OscConfig+0x1a2>
 8000c6c:	4b2a      	ldr	r3, [pc, #168]	@ (8000d18 <HAL_RCC_OscConfig+0x26c>)
 8000c6e:	681b      	ldr	r3, [r3, #0]
 8000c70:	f023 02f8 	bic.w	r2, r3, #248	@ 0xf8
 8000c74:	687b      	ldr	r3, [r7, #4]
 8000c76:	695b      	ldr	r3, [r3, #20]
 8000c78:	00db      	lsls	r3, r3, #3
 8000c7a:	4927      	ldr	r1, [pc, #156]	@ (8000d18 <HAL_RCC_OscConfig+0x26c>)
 8000c7c:	4313      	orrs	r3, r2
 8000c7e:	600b      	str	r3, [r1, #0]
 8000c80:	e015      	b.n	8000cae <HAL_RCC_OscConfig+0x202>
 8000c82:	4b26      	ldr	r3, [pc, #152]	@ (8000d1c <HAL_RCC_OscConfig+0x270>)
 8000c84:	2200      	movs	r2, #0
 8000c86:	601a      	str	r2, [r3, #0]
 8000c88:	f7ff fc6a 	bl	8000560 <HAL_GetTick>
 8000c8c:	6138      	str	r0, [r7, #16]
 8000c8e:	e008      	b.n	8000ca2 <HAL_RCC_OscConfig+0x1f6>
 8000c90:	f7ff fc66 	bl	8000560 <HAL_GetTick>
 8000c94:	4602      	mov	r2, r0
 8000c96:	693b      	ldr	r3, [r7, #16]
 8000c98:	1ad3      	subs	r3, r2, r3
 8000c9a:	2b02      	cmp	r3, #2
 8000c9c:	d901      	bls.n	8000ca2 <HAL_RCC_OscConfig+0x1f6>
 8000c9e:	2303      	movs	r3, #3
 8000ca0:	e180      	b.n	8000fa4 <HAL_RCC_OscConfig+0x4f8>
 8000ca2:	4b1d      	ldr	r3, [pc, #116]	@ (8000d18 <HAL_RCC_OscConfig+0x26c>)
 8000ca4:	681b      	ldr	r3, [r3, #0]
 8000ca6:	f003 0302 	and.w	r3, r3, #2
 8000caa:	2b00      	cmp	r3, #0
 8000cac:	d1f0      	bne.n	8000c90 <HAL_RCC_OscConfig+0x1e4>
 8000cae:	687b      	ldr	r3, [r7, #4]
 8000cb0:	681b      	ldr	r3, [r3, #0]
 8000cb2:	f003 0308 	and.w	r3, r3, #8
 8000cb6:	2b00      	cmp	r3, #0
 8000cb8:	d03a      	beq.n	8000d30 <HAL_RCC_OscConfig+0x284>
 8000cba:	687b      	ldr	r3, [r7, #4]
 8000cbc:	699b      	ldr	r3, [r3, #24]
 8000cbe:	2b00      	cmp	r3, #0
 8000cc0:	d019      	beq.n	8000cf6 <HAL_RCC_OscConfig+0x24a>
 8000cc2:	4b17      	ldr	r3, [pc, #92]	@ (8000d20 <HAL_RCC_OscConfig+0x274>)
 8000cc4:	2201      	movs	r2, #1
 8000cc6:	601a      	str	r2, [r3, #0]
 8000cc8:	f7ff fc4a 	bl	8000560 <HAL_GetTick>
 8000ccc:	6138      	str	r0, [r7, #16]
 8000cce:	e008      	b.n	8000ce2 <HAL_RCC_OscConfig+0x236>
 8000cd0:	f7ff fc46 	bl	8000560 <HAL_GetTick>
 8000cd4:	4602      	mov	r2, r0
 8000cd6:	693b      	ldr	r3, [r7, #16]
 8000cd8:	1ad3      	subs	r3, r2, r3
 8000cda:	2b02      	cmp	r3, #2
 8000cdc:	d901      	bls.n	8000ce2 <HAL_RCC_OscConfig+0x236>
 8000cde:	2303      	movs	r3, #3
 8000ce0:	e160      	b.n	8000fa4 <HAL_RCC_OscConfig+0x4f8>
 8000ce2:	4b0d      	ldr	r3, [pc, #52]	@ (8000d18 <HAL_RCC_OscConfig+0x26c>)
 8000ce4:	6a5b      	ldr	r3, [r3, #36]	@ 0x24
 8000ce6:	f003 0302 	and.w	r3, r3, #2
 8000cea:	2b00      	cmp	r3, #0
 8000cec:	d0f0      	beq.n	8000cd0 <HAL_RCC_OscConfig+0x224>
 8000cee:	2001      	movs	r0, #1
 8000cf0:	f000 face 	bl	8001290 <RCC_Delay>
 8000cf4:	e01c      	b.n	8000d30 <HAL_RCC_OscConfig+0x284>
 8000cf6:	4b0a      	ldr	r3, [pc, #40]	@ (8000d20 <HAL_RCC_OscConfig+0x274>)
 8000cf8:	2200      	movs	r2, #0
 8000cfa:	601a      	str	r2, [r3, #0]
 8000cfc:	f7ff fc30 	bl	8000560 <HAL_GetTick>
 8000d00:	6138      	str	r0, [r7, #16]
 8000d02:	e00f      	b.n	8000d24 <HAL_RCC_OscConfig+0x278>
 8000d04:	f7ff fc2c 	bl	8000560 <HAL_GetTick>
 8000d08:	4602      	mov	r2, r0
 8000d0a:	693b      	ldr	r3, [r7, #16]
 8000d0c:	1ad3      	subs	r3, r2, r3
 8000d0e:	2b02      	cmp	r3, #2
 8000d10:	d908      	bls.n	8000d24 <HAL_RCC_OscConfig+0x278>
 8000d12:	2303      	movs	r3, #3
 8000d14:	e146      	b.n	8000fa4 <HAL_RCC_OscConfig+0x4f8>
 8000d16:	bf00      	nop
 8000d18:	40021000 	.word	0x40021000
 8000d1c:	42420000 	.word	0x42420000
 8000d20:	42420480 	.word	0x42420480
 8000d24:	4b92      	ldr	r3, [pc, #584]	@ (8000f70 <HAL_RCC_OscConfig+0x4c4>)
 8000d26:	6a5b      	ldr	r3, [r3, #36]	@ 0x24
 8000d28:	f003 0302 	and.w	r3, r3, #2
 8000d2c:	2b00      	cmp	r3, #0
 8000d2e:	d1e9      	bne.n	8000d04 <HAL_RCC_OscConfig+0x258>
 8000d30:	687b      	ldr	r3, [r7, #4]
 8000d32:	681b      	ldr	r3, [r3, #0]
 8000d34:	f003 0304 	and.w	r3, r3, #4
 8000d38:	2b00      	cmp	r3, #0
 8000d3a:	f000 80a6 	beq.w	8000e8a <HAL_RCC_OscConfig+0x3de>
 8000d3e:	2300      	movs	r3, #0
 8000d40:	75fb      	strb	r3, [r7, #23]
 8000d42:	4b8b      	ldr	r3, [pc, #556]	@ (8000f70 <HAL_RCC_OscConfig+0x4c4>)
 8000d44:	69db      	ldr	r3, [r3, #28]
 8000d46:	f003 5380 	and.w	r3, r3, #268435456	@ 0x10000000
 8000d4a:	2b00      	cmp	r3, #0
 8000d4c:	d10d      	bne.n	8000d6a <HAL_RCC_OscConfig+0x2be>
 8000d4e:	4b88      	ldr	r3, [pc, #544]	@ (8000f70 <HAL_RCC_OscConfig+0x4c4>)
 8000d50:	69db      	ldr	r3, [r3, #28]
 8000d52:	4a87      	ldr	r2, [pc, #540]	@ (8000f70 <HAL_RCC_OscConfig+0x4c4>)
 8000d54:	f043 5380 	orr.w	r3, r3, #268435456	@ 0x10000000
 8000d58:	61d3      	str	r3, [r2, #28]
 8000d5a:	4b85      	ldr	r3, [pc, #532]	@ (8000f70 <HAL_RCC_OscConfig+0x4c4>)
 8000d5c:	69db      	ldr	r3, [r3, #28]
 8000d5e:	f003 5380 	and.w	r3, r3, #268435456	@ 0x10000000
 8000d62:	60bb      	str	r3, [r7, #8]
 8000d64:	68bb      	ldr	r3, [r7, #8]
 8000d66:	2301      	movs	r3, #1
 8000d68:	75fb      	strb	r3, [r7, #23]
 8000d6a:	4b82      	ldr	r3, [pc, #520]	@ (8000f74 <HAL_RCC_OscConfig+0x4c8>)
 8000d6c:	681b      	ldr	r3, [r3, #0]
 8000d6e:	f403 7380 	and.w	r3, r3, #256	@ 0x100
 8000d72:	2b00      	cmp	r3, #0
 8000d74:	d118      	bne.n	8000da8 <HAL_RCC_OscConfig+0x2fc>
 8000d76:	4b7f      	ldr	r3, [pc, #508]	@ (8000f74 <HAL_RCC_OscConfig+0x4c8>)
 8000d78:	681b      	ldr	r3, [r3, #0]
 8000d7a:	4a7e      	ldr	r2, [pc, #504]	@ (8000f74 <HAL_RCC_OscConfig+0x4c8>)
 8000d7c:	f443 7380 	orr.w	r3, r3, #256	@ 0x100
 8000d80:	6013      	str	r3, [r2, #0]
 8000d82:	f7ff fbed 	bl	8000560 <HAL_GetTick>
 8000d86:	6138      	str	r0, [r7, #16]
 8000d88:	e008      	b.n	8000d9c <HAL_RCC_OscConfig+0x2f0>
 8000d8a:	f7ff fbe9 	bl	8000560 <HAL_GetTick>
 8000d8e:	4602      	mov	r2, r0
 8000d90:	693b      	ldr	r3, [r7, #16]
 8000d92:	1ad3      	subs	r3, r2, r3
 8000d94:	2b64      	cmp	r3, #100	@ 0x64
 8000d96:	d901      	bls.n	8000d9c <HAL_RCC_OscConfig+0x2f0>
 8000d98:	2303      	movs	r3, #3
 8000d9a:	e103      	b.n	8000fa4 <HAL_RCC_OscConfig+0x4f8>
 8000d9c:	4b75      	ldr	r3, [pc, #468]	@ (8000f74 <HAL_RCC_OscConfig+0x4c8>)
 8000d9e:	681b      	ldr	r3, [r3, #0]
 8000da0:	f403 7380 	and.w	r3, r3, #256	@ 0x100
 8000da4:	2b00      	cmp	r3, #0
 8000da6:	d0f0      	beq.n	8000d8a <HAL_RCC_OscConfig+0x2de>
 8000da8:	687b      	ldr	r3, [r7, #4]
 8000daa:	68db      	ldr	r3, [r3, #12]
 8000dac:	2b01      	cmp	r3, #1
 8000dae:	d106      	bne.n	8000dbe <HAL_RCC_OscConfig+0x312>
 8000db0:	4b6f      	ldr	r3, [pc, #444]	@ (8000f70 <HAL_RCC_OscConfig+0x4c4>)
 8000db2:	6a1b      	ldr	r3, [r3, #32]
 8000db4:	4a6e      	ldr	r2, [pc, #440]	@ (8000f70 <HAL_RCC_OscConfig+0x4c4>)
 8000db6:	f043 0301 	orr.w	r3, r3, #1
 8000dba:	6213      	str	r3, [r2, #32]
 8000dbc:	e02d      	b.n	8000e1a <HAL_RCC_OscConfig+0x36e>
 8000dbe:	687b      	ldr	r3, [r7, #4]
 8000dc0:	68db      	ldr	r3, [r3, #12]
 8000dc2:	2b00      	cmp	r3, #0
 8000dc4:	d10c      	bne.n	8000de0 <HAL_RCC_OscConfig+0x334>
 8000dc6:	4b6a      	ldr	r3, [pc, #424]	@ (8000f70 <HAL_RCC_OscConfig+0x4c4>)
 8000dc8:	6a1b      	ldr	r3, [r3, #32]
 8000dca:	4a69      	ldr	r2, [pc, #420]	@ (8000f70 <HAL_RCC_OscConfig+0x4c4>)
 8000dcc:	f023 0301 	bic.w	r3, r3, #1
 8000dd0:	6213      	str	r3, [r2, #32]
 8000dd2:	4b67      	ldr	r3, [pc, #412]	@ (8000f70 <HAL_RCC_OscConfig+0x4c4>)
 8000dd4:	6a1b      	ldr	r3, [r3, #32]
 8000dd6:	4a66      	ldr	r2, [pc, #408]	@ (8000f70 <HAL_RCC_OscConfig+0x4c4>)
 8000dd8:	f023 0304 	bic.w	r3, r3, #4
 8000ddc:	6213      	str	r3, [r2, #32]
 8000dde:	e01c      	b.n	8000e1a <HAL_RCC_OscConfig+0x36e>
 8000de0:	687b      	ldr	r3, [r7, #4]
 8000de2:	68db      	ldr	r3, [r3, #12]
 8000de4:	2b05      	cmp	r3, #5
 8000de6:	d10c      	bne.n	8000e02 <HAL_RCC_OscConfig+0x356>
 8000de8:	4b61      	ldr	r3, [pc, #388]	@ (8000f70 <HAL_RCC_OscConfig+0x4c4>)
 8000dea:	6a1b      	ldr	r3, [r3, #32]
 8000dec:	4a60      	ldr	r2, [pc, #384]	@ (8000f70 <HAL_RCC_OscConfig+0x4c4>)
 8000dee:	f043 0304 	orr.w	r3, r3, #4
 8000df2:	6213      	str	r3, [r2, #32]
 8000df4:	4b5e      	ldr	r3, [pc, #376]	@ (8000f70 <HAL_RCC_OscConfig+0x4c4>)
 8000df6:	6a1b      	ldr	r3, [r3, #32]
 8000df8:	4a5d      	ldr	r2, [pc, #372]	@ (8000f70 <HAL_RCC_OscConfig+0x4c4>)
 8000dfa:	f043 0301 	orr.w	r3, r3, #1
 8000dfe:	6213      	str	r3, [r2, #32]
 8000e00:	e00b      	b.n	8000e1a <HAL_RCC_OscConfig+0x36e>
 8000e02:	4b5b      	ldr	r3, [pc, #364]	@ (8000f70 <HAL_RCC_OscConfig+0x4c4>)
 8000e04:	6a1b      	ldr	r3, [r3, #32]
 8000e06:	4a5a      	ldr	r2, [pc, #360]	@ (8000f70 <HAL_RCC_OscConfig+0x4c4>)
 8000e08:	f023 0301 	bic.w	r3, r3, #1
 8000e0c:	6213      	str	r3, [r2, #32]
 8000e0e:	4b58      	ldr	r3, [pc, #352]	@ (8000f70 <HAL_RCC_OscConfig+0x4c4>)
 8000e10:	6a1b      	ldr	r3, [r3, #32]
 8000e12:	4a57      	ldr	r2, [pc, #348]	@ (8000f70 <HAL_RCC_OscConfig+0x4c4>)
 8000e14:	f023 0304 	bic.w	r3, r3, #4
 8000e18:	6213      	str	r3, [r2, #32]
 8000e1a:	687b      	ldr	r3, [r7, #4]
 8000e1c:	68db      	ldr	r3, [r3, #12]
 8000e1e:	2b00      	cmp	r3, #0
 8000e20:	d015      	beq.n	8000e4e <HAL_RCC_OscConfig+0x3a2>
 8000e22:	f7ff fb9d 	bl	8000560 <HAL_GetTick>
 8000e26:	6138      	str	r0, [r7, #16]
 8000e28:	e00a      	b.n	8000e40 <HAL_RCC_OscConfig+0x394>
 8000e2a:	f7ff fb99 	bl	8000560 <HAL_GetTick>
 8000e2e:	4602      	mov	r2, r0
 8000e30:	693b      	ldr	r3, [r7, #16]
 8000e32:	1ad3      	subs	r3, r2, r3
 8000e34:	f241 3288 	movw	r2, #5000	@ 0x1388
 8000e38:	4293      	cmp	r3, r2
 8000e3a:	d901      	bls.n	8000e40 <HAL_RCC_OscConfig+0x394>
 8000e3c:	2303      	movs	r3, #3
 8000e3e:	e0b1      	b.n	8000fa4 <HAL_RCC_OscConfig+0x4f8>
 8000e40:	4b4b      	ldr	r3, [pc, #300]	@ (8000f70 <HAL_RCC_OscConfig+0x4c4>)
 8000e42:	6a1b      	ldr	r3, [r3, #32]
 8000e44:	f003 0302 	and.w	r3, r3, #2
 8000e48:	2b00      	cmp	r3, #0
 8000e4a:	d0ee      	beq.n	8000e2a <HAL_RCC_OscConfig+0x37e>
 8000e4c:	e014      	b.n	8000e78 <HAL_RCC_OscConfig+0x3cc>
 8000e4e:	f7ff fb87 	bl	8000560 <HAL_GetTick>
 8000e52:	6138      	str	r0, [r7, #16]
 8000e54:	e00a      	b.n	8000e6c <HAL_RCC_OscConfig+0x3c0>
 8000e56:	f7ff fb83 	bl	8000560 <HAL_GetTick>
 8000e5a:	4602      	mov	r2, r0
 8000e5c:	693b      	ldr	r3, [r7, #16]
 8000e5e:	1ad3      	subs	r3, r2, r3
 8000e60:	f241 3288 	movw	r2, #5000	@ 0x1388
 8000e64:	4293      	cmp	r3, r2
 8000e66:	d901      	bls.n	8000e6c <HAL_RCC_OscConfig+0x3c0>
 8000e68:	2303      	movs	r3, #3
 8000e6a:	e09b      	b.n	8000fa4 <HAL_RCC_OscConfig+0x4f8>
 8000e6c:	4b40      	ldr	r3, [pc, #256]	@ (8000f70 <HAL_RCC_OscConfig+0x4c4>)
 8000e6e:	6a1b      	ldr	r3, [r3, #32]
 8000e70:	f003 0302 	and.w	r3, r3, #2
 8000e74:	2b00      	cmp	r3, #0
 8000e76:	d1ee      	bne.n	8000e56 <HAL_RCC_OscConfig+0x3aa>
 8000e78:	7dfb      	ldrb	r3, [r7, #23]
 8000e7a:	2b01      	cmp	r3, #1
 8000e7c:	d105      	bne.n	8000e8a <HAL_RCC_OscConfig+0x3de>
 8000e7e:	4b3c      	ldr	r3, [pc, #240]	@ (8000f70 <HAL_RCC_OscConfig+0x4c4>)
 8000e80:	69db      	ldr	r3, [r3, #28]
 8000e82:	4a3b      	ldr	r2, [pc, #236]	@ (8000f70 <HAL_RCC_OscConfig+0x4c4>)
 8000e84:	f023 5380 	bic.w	r3, r3, #268435456	@ 0x10000000
 8000e88:	61d3      	str	r3, [r2, #28]
 8000e8a:	687b      	ldr	r3, [r7, #4]
 8000e8c:	69db      	ldr	r3, [r3, #28]
 8000e8e:	2b00      	cmp	r3, #0
 8000e90:	f000 8087 	beq.w	8000fa2 <HAL_RCC_OscConfig+0x4f6>
 8000e94:	4b36      	ldr	r3, [pc, #216]	@ (8000f70 <HAL_RCC_OscConfig+0x4c4>)
 8000e96:	685b      	ldr	r3, [r3, #4]
 8000e98:	f003 030c 	and.w	r3, r3, #12
 8000e9c:	2b08      	cmp	r3, #8
 8000e9e:	d061      	beq.n	8000f64 <HAL_RCC_OscConfig+0x4b8>
 8000ea0:	687b      	ldr	r3, [r7, #4]
 8000ea2:	69db      	ldr	r3, [r3, #28]
 8000ea4:	2b02      	cmp	r3, #2
 8000ea6:	d146      	bne.n	8000f36 <HAL_RCC_OscConfig+0x48a>
 8000ea8:	4b33      	ldr	r3, [pc, #204]	@ (8000f78 <HAL_RCC_OscConfig+0x4cc>)
 8000eaa:	2200      	movs	r2, #0
 8000eac:	601a      	str	r2, [r3, #0]
 8000eae:	f7ff fb57 	bl	8000560 <HAL_GetTick>
 8000eb2:	6138      	str	r0, [r7, #16]
 8000eb4:	e008      	b.n	8000ec8 <HAL_RCC_OscConfig+0x41c>
 8000eb6:	f7ff fb53 	bl	8000560 <HAL_GetTick>
 8000eba:	4602      	mov	r2, r0
 8000ebc:	693b      	ldr	r3, [r7, #16]
 8000ebe:	1ad3      	subs	r3, r2, r3
 8000ec0:	2b02      	cmp	r3, #2
 8000ec2:	d901      	bls.n	8000ec8 <HAL_RCC_OscConfig+0x41c>
 8000ec4:	2303      	movs	r3, #3
 8000ec6:	e06d      	b.n	8000fa4 <HAL_RCC_OscConfig+0x4f8>
 8000ec8:	4b29      	ldr	r3, [pc, #164]	@ (8000f70 <HAL_RCC_OscConfig+0x4c4>)
 8000eca:	681b      	ldr	r3, [r3, #0]
 8000ecc:	f003 7300 	and.w	r3, r3, #33554432	@ 0x2000000
 8000ed0:	2b00      	cmp	r3, #0
 8000ed2:	d1f0      	bne.n	8000eb6 <HAL_RCC_OscConfig+0x40a>
 8000ed4:	687b      	ldr	r3, [r7, #4]
 8000ed6:	6a1b      	ldr	r3, [r3, #32]
 8000ed8:	f5b3 3f80 	cmp.w	r3, #65536	@ 0x10000
 8000edc:	d108      	bne.n	8000ef0 <HAL_RCC_OscConfig+0x444>
 8000ede:	4b24      	ldr	r3, [pc, #144]	@ (8000f70 <HAL_RCC_OscConfig+0x4c4>)
 8000ee0:	685b      	ldr	r3, [r3, #4]
 8000ee2:	f423 3200 	bic.w	r2, r3, #131072	@ 0x20000
 8000ee6:	687b      	ldr	r3, [r7, #4]
 8000ee8:	689b      	ldr	r3, [r3, #8]
 8000eea:	4921      	ldr	r1, [pc, #132]	@ (8000f70 <HAL_RCC_OscConfig+0x4c4>)
 8000eec:	4313      	orrs	r3, r2
 8000eee:	604b      	str	r3, [r1, #4]
 8000ef0:	4b1f      	ldr	r3, [pc, #124]	@ (8000f70 <HAL_RCC_OscConfig+0x4c4>)
 8000ef2:	685b      	ldr	r3, [r3, #4]
 8000ef4:	f423 1274 	bic.w	r2, r3, #3997696	@ 0x3d0000
 8000ef8:	687b      	ldr	r3, [r7, #4]
 8000efa:	6a19      	ldr	r1, [r3, #32]
 8000efc:	687b      	ldr	r3, [r7, #4]
 8000efe:	6a5b      	ldr	r3, [r3, #36]	@ 0x24
 8000f00:	430b      	orrs	r3, r1
 8000f02:	491b      	ldr	r1, [pc, #108]	@ (8000f70 <HAL_RCC_OscConfig+0x4c4>)
 8000f04:	4313      	orrs	r3, r2
 8000f06:	604b      	str	r3, [r1, #4]
 8000f08:	4b1b      	ldr	r3, [pc, #108]	@ (8000f78 <HAL_RCC_OscConfig+0x4cc>)
 8000f0a:	2201      	movs	r2, #1
 8000f0c:	601a      	str	r2, [r3, #0]
 8000f0e:	f7ff fb27 	bl	8000560 <HAL_GetTick>
 8000f12:	6138      	str	r0, [r7, #16]
 8000f14:	e008      	b.n	8000f28 <HAL_RCC_OscConfig+0x47c>
 8000f16:	f7ff fb23 	bl	8000560 <HAL_GetTick>
 8000f1a:	4602      	mov	r2, r0
 8000f1c:	693b      	ldr	r3, [r7, #16]
 8000f1e:	1ad3      	subs	r3, r2, r3
 8000f20:	2b02      	cmp	r3, #2
 8000f22:	d901      	bls.n	8000f28 <HAL_RCC_OscConfig+0x47c>
 8000f24:	2303      	movs	r3, #3
 8000f26:	e03d      	b.n	8000fa4 <HAL_RCC_OscConfig+0x4f8>
 8000f28:	4b11      	ldr	r3, [pc, #68]	@ (8000f70 <HAL_RCC_OscConfig+0x4c4>)
 8000f2a:	681b      	ldr	r3, [r3, #0]
 8000f2c:	f003 7300 	and.w	r3, r3, #33554432	@ 0x2000000
 8000f30:	2b00      	cmp	r3, #0
 8000f32:	d0f0      	beq.n	8000f16 <HAL_RCC_OscConfig+0x46a>
 8000f34:	e035      	b.n	8000fa2 <HAL_RCC_OscConfig+0x4f6>
 8000f36:	4b10      	ldr	r3, [pc, #64]	@ (8000f78 <HAL_RCC_OscConfig+0x4cc>)
 8000f38:	2200      	movs	r2, #0
 8000f3a:	601a      	str	r2, [r3, #0]
 8000f3c:	f7ff fb10 	bl	8000560 <HAL_GetTick>
 8000f40:	6138      	str	r0, [r7, #16]
 8000f42:	e008      	b.n	8000f56 <HAL_RCC_OscConfig+0x4aa>
 8000f44:	f7ff fb0c 	bl	8000560 <HAL_GetTick>
 8000f48:	4602      	mov	r2, r0
 8000f4a:	693b      	ldr	r3, [r7, #16]
 8000f4c:	1ad3      	subs	r3, r2, r3
 8000f4e:	2b02      	cmp	r3, #2
 8000f50:	d901      	bls.n	8000f56 <HAL_RCC_OscConfig+0x4aa>
 8000f52:	2303      	movs	r3, #3
 8000f54:	e026      	b.n	8000fa4 <HAL_RCC_OscConfig+0x4f8>
 8000f56:	4b06      	ldr	r3, [pc, #24]	@ (8000f70 <HAL_RCC_OscConfig+0x4c4>)
 8000f58:	681b      	ldr	r3, [r3, #0]
 8000f5a:	f003 7300 	and.w	r3, r3, #33554432	@ 0x2000000
 8000f5e:	2b00      	cmp	r3, #0
 8000f60:	d1f0      	bne.n	8000f44 <HAL_RCC_OscConfig+0x498>
 8000f62:	e01e      	b.n	8000fa2 <HAL_RCC_OscConfig+0x4f6>
 8000f64:	687b      	ldr	r3, [r7, #4]
 8000f66:	69db      	ldr	r3, [r3, #28]
 8000f68:	2b01      	cmp	r3, #1
 8000f6a:	d107      	bne.n	8000f7c <HAL_RCC_OscConfig+0x4d0>
 8000f6c:	2301      	movs	r3, #1
 8000f6e:	e019      	b.n	8000fa4 <HAL_RCC_OscConfig+0x4f8>
 8000f70:	40021000 	.word	0x40021000
 8000f74:	40007000 	.word	0x40007000
 8000f78:	42420060 	.word	0x42420060
 8000f7c:	4b0b      	ldr	r3, [pc, #44]	@ (8000fac <HAL_RCC_OscConfig+0x500>)
 8000f7e:	685b      	ldr	r3, [r3, #4]
 8000f80:	60fb      	str	r3, [r7, #12]
 8000f82:	68fb      	ldr	r3, [r7, #12]
 8000f84:	f403 3280 	and.w	r2, r3, #65536	@ 0x10000
 8000f88:	687b      	ldr	r3, [r7, #4]
 8000f8a:	6a1b      	ldr	r3, [r3, #32]
 8000f8c:	429a      	cmp	r2, r3
 8000f8e:	d106      	bne.n	8000f9e <HAL_RCC_OscConfig+0x4f2>
 8000f90:	68fb      	ldr	r3, [r7, #12]
 8000f92:	f403 1270 	and.w	r2, r3, #3932160	@ 0x3c0000
 8000f96:	687b      	ldr	r3, [r7, #4]
 8000f98:	6a5b      	ldr	r3, [r3, #36]	@ 0x24
 8000f9a:	429a      	cmp	r2, r3
 8000f9c:	d001      	beq.n	8000fa2 <HAL_RCC_OscConfig+0x4f6>
 8000f9e:	2301      	movs	r3, #1
 8000fa0:	e000      	b.n	8000fa4 <HAL_RCC_OscConfig+0x4f8>
 8000fa2:	2300      	movs	r3, #0
 8000fa4:	4618      	mov	r0, r3
 8000fa6:	3718      	adds	r7, #24
 8000fa8:	46bd      	mov	sp, r7
 8000faa:	bd80      	pop	{r7, pc}
 8000fac:	40021000 	.word	0x40021000

08000fb0 <HAL_RCC_ClockConfig>:
 8000fb0:	b580      	push	{r7, lr}
 8000fb2:	b084      	sub	sp, #16
 8000fb4:	af00      	add	r7, sp, #0
 8000fb6:	6078      	str	r0, [r7, #4]
 8000fb8:	6039      	str	r1, [r7, #0]
 8000fba:	687b      	ldr	r3, [r7, #4]
 8000fbc:	2b00      	cmp	r3, #0
 8000fbe:	d101      	bne.n	8000fc4 <HAL_RCC_ClockConfig+0x14>
 8000fc0:	2301      	movs	r3, #1
 8000fc2:	e0d0      	b.n	8001166 <HAL_RCC_ClockConfig+0x1b6>
 8000fc4:	4b6a      	ldr	r3, [pc, #424]	@ (8001170 <HAL_RCC_ClockConfig+0x1c0>)
 8000fc6:	681b      	ldr	r3, [r3, #0]
 8000fc8:	f003 0307 	and.w	r3, r3, #7
 8000fcc:	683a      	ldr	r2, [r7, #0]
 8000fce:	429a      	cmp	r2, r3
 8000fd0:	d910      	bls.n	8000ff4 <HAL_RCC_ClockConfig+0x44>
 8000fd2:	4b67      	ldr	r3, [pc, #412]	@ (8001170 <HAL_RCC_ClockConfig+0x1c0>)
 8000fd4:	681b      	ldr	r3, [r3, #0]
 8000fd6:	f023 0207 	bic.w	r2, r3, #7
 8000fda:	4965      	ldr	r1, [pc, #404]	@ (8001170 <HAL_RCC_ClockConfig+0x1c0>)
 8000fdc:	683b      	ldr	r3, [r7, #0]
 8000fde:	4313      	orrs	r3, r2
 8000fe0:	600b      	str	r3, [r1, #0]
 8000fe2:	4b63      	ldr	r3, [pc, #396]	@ (8001170 <HAL_RCC_ClockConfig+0x1c0>)
 8000fe4:	681b      	ldr	r3, [r3, #0]
 8000fe6:	f003 0307 	and.w	r3, r3, #7
 8000fea:	683a      	ldr	r2, [r7, #0]
 8000fec:	429a      	cmp	r2, r3
 8000fee:	d001      	beq.n	8000ff4 <HAL_RCC_ClockConfig+0x44>
 8000ff0:	2301      	movs	r3, #1
 8000ff2:	e0b8      	b.n	8001166 <HAL_RCC_ClockConfig+0x1b6>
 8000ff4:	687b      	ldr	r3, [r7, #4]
 8000ff6:	681b      	ldr	r3, [r3, #0]
 8000ff8:	f003 0302 	and.w	r3, r3, #2
 8000ffc:	2b00      	cmp	r3, #0
 8000ffe:	d020      	beq.n	8001042 <HAL_RCC_ClockConfig+0x92>
 8001000:	687b      	ldr	r3, [r7, #4]
 8001002:	681b      	ldr	r3, [r3, #0]
 8001004:	f003 0304 	and.w	r3, r3, #4
 8001008:	2b00      	cmp	r3, #0
 800100a:	d005      	beq.n	8001018 <HAL_RCC_ClockConfig+0x68>
 800100c:	4b59      	ldr	r3, [pc, #356]	@ (8001174 <HAL_RCC_ClockConfig+0x1c4>)
 800100e:	685b      	ldr	r3, [r3, #4]
 8001010:	4a58      	ldr	r2, [pc, #352]	@ (8001174 <HAL_RCC_ClockConfig+0x1c4>)
 8001012:	f443 63e0 	orr.w	r3, r3, #1792	@ 0x700
 8001016:	6053      	str	r3, [r2, #4]
 8001018:	687b      	ldr	r3, [r7, #4]
 800101a:	681b      	ldr	r3, [r3, #0]
 800101c:	f003 0308 	and.w	r3, r3, #8
 8001020:	2b00      	cmp	r3, #0
 8001022:	d005      	beq.n	8001030 <HAL_RCC_ClockConfig+0x80>
 8001024:	4b53      	ldr	r3, [pc, #332]	@ (8001174 <HAL_RCC_ClockConfig+0x1c4>)
 8001026:	685b      	ldr	r3, [r3, #4]
 8001028:	4a52      	ldr	r2, [pc, #328]	@ (8001174 <HAL_RCC_ClockConfig+0x1c4>)
 800102a:	f443 5360 	orr.w	r3, r3, #14336	@ 0x3800
 800102e:	6053      	str	r3, [r2, #4]
 8001030:	4b50      	ldr	r3, [pc, #320]	@ (8001174 <HAL_RCC_ClockConfig+0x1c4>)
 8001032:	685b      	ldr	r3, [r3, #4]
 8001034:	f023 02f0 	bic.w	r2, r3, #240	@ 0xf0
 8001038:	687b      	ldr	r3, [r7, #4]
 800103a:	689b      	ldr	r3, [r3, #8]
 800103c:	494d      	ldr	r1, [pc, #308]	@ (8001174 <HAL_RCC_ClockConfig+0x1c4>)
 800103e:	4313      	orrs	r3, r2
 8001040:	604b      	str	r3, [r1, #4]
 8001042:	687b      	ldr	r3, [r7, #4]
 8001044:	681b      	ldr	r3, [r3, #0]
 8001046:	f003 0301 	and.w	r3, r3, #1
 800104a:	2b00      	cmp	r3, #0
 800104c:	d040      	beq.n	80010d0 <HAL_RCC_ClockConfig+0x120>
 800104e:	687b      	ldr	r3, [r7, #4]
 8001050:	685b      	ldr	r3, [r3, #4]
 8001052:	2b01      	cmp	r3, #1
 8001054:	d107      	bne.n	8001066 <HAL_RCC_ClockConfig+0xb6>
 8001056:	4b47      	ldr	r3, [pc, #284]	@ (8001174 <HAL_RCC_ClockConfig+0x1c4>)
 8001058:	681b      	ldr	r3, [r3, #0]
 800105a:	f403 3300 	and.w	r3, r3, #131072	@ 0x20000
 800105e:	2b00      	cmp	r3, #0
 8001060:	d115      	bne.n	800108e <HAL_RCC_ClockConfig+0xde>
 8001062:	2301      	movs	r3, #1
 8001064:	e07f      	b.n	8001166 <HAL_RCC_ClockConfig+0x1b6>
 8001066:	687b      	ldr	r3, [r7, #4]
 8001068:	685b      	ldr	r3, [r3, #4]
 800106a:	2b02      	cmp	r3, #2
 800106c:	d107      	bne.n	800107e <HAL_RCC_ClockConfig+0xce>
 800106e:	4b41      	ldr	r3, [pc, #260]	@ (8001174 <HAL_RCC_ClockConfig+0x1c4>)
 8001070:	681b      	ldr	r3, [r3, #0]
 8001072:	f003 7300 	and.w	r3, r3, #33554432	@ 0x2000000
 8001076:	2b00      	cmp	r3, #0
 8001078:	d109      	bne.n	800108e <HAL_RCC_ClockConfig+0xde>
 800107a:	2301      	movs	r3, #1
 800107c:	e073      	b.n	8001166 <HAL_RCC_ClockConfig+0x1b6>
 800107e:	4b3d      	ldr	r3, [pc, #244]	@ (8001174 <HAL_RCC_ClockConfig+0x1c4>)
 8001080:	681b      	ldr	r3, [r3, #0]
 8001082:	f003 0302 	and.w	r3, r3, #2
 8001086:	2b00      	cmp	r3, #0
 8001088:	d101      	bne.n	800108e <HAL_RCC_ClockConfig+0xde>
 800108a:	2301      	movs	r3, #1
 800108c:	e06b      	b.n	8001166 <HAL_RCC_ClockConfig+0x1b6>
 800108e:	4b39      	ldr	r3, [pc, #228]	@ (8001174 <HAL_RCC_ClockConfig+0x1c4>)
 8001090:	685b      	ldr	r3, [r3, #4]
 8001092:	f023 0203 	bic.w	r2, r3, #3
 8001096:	687b      	ldr	r3, [r7, #4]
 8001098:	685b      	ldr	r3, [r3, #4]
 800109a:	4936      	ldr	r1, [pc, #216]	@ (8001174 <HAL_RCC_ClockConfig+0x1c4>)
 800109c:	4313      	orrs	r3, r2
 800109e:	604b      	str	r3, [r1, #4]
 80010a0:	f7ff fa5e 	bl	8000560 <HAL_GetTick>
 80010a4:	60f8      	str	r0, [r7, #12]
 80010a6:	e00a      	b.n	80010be <HAL_RCC_ClockConfig+0x10e>
 80010a8:	f7ff fa5a 	bl	8000560 <HAL_GetTick>
 80010ac:	4602      	mov	r2, r0
 80010ae:	68fb      	ldr	r3, [r7, #12]
 80010b0:	1ad3      	subs	r3, r2, r3
 80010b2:	f241 3288 	movw	r2, #5000	@ 0x1388
 80010b6:	4293      	cmp	r3, r2
 80010b8:	d901      	bls.n	80010be <HAL_RCC_ClockConfig+0x10e>
 80010ba:	2303      	movs	r3, #3
 80010bc:	e053      	b.n	8001166 <HAL_RCC_ClockConfig+0x1b6>
 80010be:	4b2d      	ldr	r3, [pc, #180]	@ (8001174 <HAL_RCC_ClockConfig+0x1c4>)
 80010c0:	685b      	ldr	r3, [r3, #4]
 80010c2:	f003 020c 	and.w	r2, r3, #12
 80010c6:	687b      	ldr	r3, [r7, #4]
 80010c8:	685b      	ldr	r3, [r3, #4]
 80010ca:	009b      	lsls	r3, r3, #2
 80010cc:	429a      	cmp	r2, r3
 80010ce:	d1eb      	bne.n	80010a8 <HAL_RCC_ClockConfig+0xf8>
 80010d0:	4b27      	ldr	r3, [pc, #156]	@ (8001170 <HAL_RCC_ClockConfig+0x1c0>)
 80010d2:	681b      	ldr	r3, [r3, #0]
 80010d4:	f003 0307 	and.w	r3, r3, #7
 80010d8:	683a      	ldr	r2, [r7, #0]
 80010da:	429a      	cmp	r2, r3
 80010dc:	d210      	bcs.n	8001100 <HAL_RCC_ClockConfig+0x150>
 80010de:	4b24      	ldr	r3, [pc, #144]	@ (8001170 <HAL_RCC_ClockConfig+0x1c0>)
 80010e0:	681b      	ldr	r3, [r3, #0]
 80010e2:	f023 0207 	bic.w	r2, r3, #7
 80010e6:	4922      	ldr	r1, [pc, #136]	@ (8001170 <HAL_RCC_ClockConfig+0x1c0>)
 80010e8:	683b      	ldr	r3, [r7, #0]
 80010ea:	4313      	orrs	r3, r2
 80010ec:	600b      	str	r3, [r1, #0]
 80010ee:	4b20      	ldr	r3, [pc, #128]	@ (8001170 <HAL_RCC_ClockConfig+0x1c0>)
 80010f0:	681b      	ldr	r3, [r3, #0]
 80010f2:	f003 0307 	and.w	r3, r3, #7
 80010f6:	683a      	ldr	r2, [r7, #0]
 80010f8:	429a      	cmp	r2, r3
 80010fa:	d001      	beq.n	8001100 <HAL_RCC_ClockConfig+0x150>
 80010fc:	2301      	movs	r3, #1
 80010fe:	e032      	b.n	8001166 <HAL_RCC_ClockConfig+0x1b6>
 8001100:	687b      	ldr	r3, [r7, #4]
 8001102:	681b      	ldr	r3, [r3, #0]
 8001104:	f003 0304 	and.w	r3, r3, #4
 8001108:	2b00      	cmp	r3, #0
 800110a:	d008      	beq.n	800111e <HAL_RCC_ClockConfig+0x16e>
 800110c:	4b19      	ldr	r3, [pc, #100]	@ (8001174 <HAL_RCC_ClockConfig+0x1c4>)
 800110e:	685b      	ldr	r3, [r3, #4]
 8001110:	f423 62e0 	bic.w	r2, r3, #1792	@ 0x700
 8001114:	687b      	ldr	r3, [r7, #4]
 8001116:	68db      	ldr	r3, [r3, #12]
 8001118:	4916      	ldr	r1, [pc, #88]	@ (8001174 <HAL_RCC_ClockConfig+0x1c4>)
 800111a:	4313      	orrs	r3, r2
 800111c:	604b      	str	r3, [r1, #4]
 800111e:	687b      	ldr	r3, [r7, #4]
 8001120:	681b      	ldr	r3, [r3, #0]
 8001122:	f003 0308 	and.w	r3, r3, #8
 8001126:	2b00      	cmp	r3, #0
 8001128:	d009      	beq.n	800113e <HAL_RCC_ClockConfig+0x18e>
 800112a:	4b12      	ldr	r3, [pc, #72]	@ (8001174 <HAL_RCC_ClockConfig+0x1c4>)
 800112c:	685b      	ldr	r3, [r3, #4]
 800112e:	f423 5260 	bic.w	r2, r3, #14336	@ 0x3800
 8001132:	687b      	ldr	r3, [r7, #4]
 8001134:	691b      	ldr	r3, [r3, #16]
 8001136:	00db      	lsls	r3, r3, #3
 8001138:	490e      	ldr	r1, [pc, #56]	@ (8001174 <HAL_RCC_ClockConfig+0x1c4>)
 800113a:	4313      	orrs	r3, r2
 800113c:	604b      	str	r3, [r1, #4]
 800113e:	f000 f821 	bl	8001184 <HAL_RCC_GetSysClockFreq>
 8001142:	4602      	mov	r2, r0
 8001144:	4b0b      	ldr	r3, [pc, #44]	@ (8001174 <HAL_RCC_ClockConfig+0x1c4>)
 8001146:	685b      	ldr	r3, [r3, #4]
 8001148:	091b      	lsrs	r3, r3, #4
 800114a:	f003 030f 	and.w	r3, r3, #15
 800114e:	490a      	ldr	r1, [pc, #40]	@ (8001178 <HAL_RCC_ClockConfig+0x1c8>)
 8001150:	5ccb      	ldrb	r3, [r1, r3]
 8001152:	fa22 f303 	lsr.w	r3, r2, r3
 8001156:	4a09      	ldr	r2, [pc, #36]	@ (800117c <HAL_RCC_ClockConfig+0x1cc>)
 8001158:	6013      	str	r3, [r2, #0]
 800115a:	4b09      	ldr	r3, [pc, #36]	@ (8001180 <HAL_RCC_ClockConfig+0x1d0>)
 800115c:	681b      	ldr	r3, [r3, #0]
 800115e:	4618      	mov	r0, r3
 8001160:	f7ff f9bc 	bl	80004dc <HAL_InitTick>
 8001164:	2300      	movs	r3, #0
 8001166:	4618      	mov	r0, r3
 8001168:	3710      	adds	r7, #16
 800116a:	46bd      	mov	sp, r7
 800116c:	bd80      	pop	{r7, pc}
 800116e:	bf00      	nop
 8001170:	40022000 	.word	0x40022000
 8001174:	40021000 	.word	0x40021000
 8001178:	080016ec 	.word	0x080016ec
 800117c:	20000000 	.word	0x20000000
 8001180:	20000004 	.word	0x20000004

08001184 <HAL_RCC_GetSysClockFreq>:
 8001184:	b480      	push	{r7}
 8001186:	b087      	sub	sp, #28
 8001188:	af00      	add	r7, sp, #0
 800118a:	2300      	movs	r3, #0
 800118c:	60fb      	str	r3, [r7, #12]
 800118e:	2300      	movs	r3, #0
 8001190:	60bb      	str	r3, [r7, #8]
 8001192:	2300      	movs	r3, #0
 8001194:	617b      	str	r3, [r7, #20]
 8001196:	2300      	movs	r3, #0
 8001198:	607b      	str	r3, [r7, #4]
 800119a:	2300      	movs	r3, #0
 800119c:	613b      	str	r3, [r7, #16]
 800119e:	4b1e      	ldr	r3, [pc, #120]	@ (8001218 <HAL_RCC_GetSysClockFreq+0x94>)
 80011a0:	685b      	ldr	r3, [r3, #4]
 80011a2:	60fb      	str	r3, [r7, #12]
 80011a4:	68fb      	ldr	r3, [r7, #12]
 80011a6:	f003 030c 	and.w	r3, r3, #12
 80011aa:	2b04      	cmp	r3, #4
 80011ac:	d002      	beq.n	80011b4 <HAL_RCC_GetSysClockFreq+0x30>
 80011ae:	2b08      	cmp	r3, #8
 80011b0:	d003      	beq.n	80011ba <HAL_RCC_GetSysClockFreq+0x36>
 80011b2:	e027      	b.n	8001204 <HAL_RCC_GetSysClockFreq+0x80>
 80011b4:	4b19      	ldr	r3, [pc, #100]	@ (800121c <HAL_RCC_GetSysClockFreq+0x98>)
 80011b6:	613b      	str	r3, [r7, #16]
 80011b8:	e027      	b.n	800120a <HAL_RCC_GetSysClockFreq+0x86>
 80011ba:	68fb      	ldr	r3, [r7, #12]
 80011bc:	0c9b      	lsrs	r3, r3, #18
 80011be:	f003 030f 	and.w	r3, r3, #15
 80011c2:	4a17      	ldr	r2, [pc, #92]	@ (8001220 <HAL_RCC_GetSysClockFreq+0x9c>)
 80011c4:	5cd3      	ldrb	r3, [r2, r3]
 80011c6:	607b      	str	r3, [r7, #4]
 80011c8:	68fb      	ldr	r3, [r7, #12]
 80011ca:	f403 3380 	and.w	r3, r3, #65536	@ 0x10000
 80011ce:	2b00      	cmp	r3, #0
 80011d0:	d010      	beq.n	80011f4 <HAL_RCC_GetSysClockFreq+0x70>
 80011d2:	4b11      	ldr	r3, [pc, #68]	@ (8001218 <HAL_RCC_GetSysClockFreq+0x94>)
 80011d4:	685b      	ldr	r3, [r3, #4]
 80011d6:	0c5b      	lsrs	r3, r3, #17
 80011d8:	f003 0301 	and.w	r3, r3, #1
 80011dc:	4a11      	ldr	r2, [pc, #68]	@ (8001224 <HAL_RCC_GetSysClockFreq+0xa0>)
 80011de:	5cd3      	ldrb	r3, [r2, r3]
 80011e0:	60bb      	str	r3, [r7, #8]
 80011e2:	687b      	ldr	r3, [r7, #4]
 80011e4:	4a0d      	ldr	r2, [pc, #52]	@ (800121c <HAL_RCC_GetSysClockFreq+0x98>)
 80011e6:	fb03 f202 	mul.w	r2, r3, r2
 80011ea:	68bb      	ldr	r3, [r7, #8]
 80011ec:	fbb2 f3f3 	udiv	r3, r2, r3
 80011f0:	617b      	str	r3, [r7, #20]
 80011f2:	e004      	b.n	80011fe <HAL_RCC_GetSysClockFreq+0x7a>
 80011f4:	687b      	ldr	r3, [r7, #4]
 80011f6:	4a0c      	ldr	r2, [pc, #48]	@ (8001228 <HAL_RCC_GetSysClockFreq+0xa4>)
 80011f8:	fb02 f303 	mul.w	r3, r2, r3
 80011fc:	617b      	str	r3, [r7, #20]
 80011fe:	697b      	ldr	r3, [r7, #20]
 8001200:	613b      	str	r3, [r7, #16]
 8001202:	e002      	b.n	800120a <HAL_RCC_GetSysClockFreq+0x86>
 8001204:	4b05      	ldr	r3, [pc, #20]	@ (800121c <HAL_RCC_GetSysClockFreq+0x98>)
 8001206:	613b      	str	r3, [r7, #16]
 8001208:	bf00      	nop
 800120a:	693b      	ldr	r3, [r7, #16]
 800120c:	4618      	mov	r0, r3
 800120e:	371c      	adds	r7, #28
 8001210:	46bd      	mov	sp, r7
 8001212:	bc80      	pop	{r7}
 8001214:	4770      	bx	lr
 8001216:	bf00      	nop
 8001218:	40021000 	.word	0x40021000
 800121c:	007a1200 	.word	0x007a1200
 8001220:	08001704 	.word	0x08001704
 8001224:	08001714 	.word	0x08001714
 8001228:	003d0900 	.word	0x003d0900

0800122c <HAL_RCC_GetHCLKFreq>:
 800122c:	b480      	push	{r7}
 800122e:	af00      	add	r7, sp, #0
 8001230:	4b02      	ldr	r3, [pc, #8]	@ (800123c <HAL_RCC_GetHCLKFreq+0x10>)
 8001232:	681b      	ldr	r3, [r3, #0]
 8001234:	4618      	mov	r0, r3
 8001236:	46bd      	mov	sp, r7
 8001238:	bc80      	pop	{r7}
 800123a:	4770      	bx	lr
 800123c:	20000000 	.word	0x20000000

08001240 <HAL_RCC_GetPCLK1Freq>:
 8001240:	b580      	push	{r7, lr}
 8001242:	af00      	add	r7, sp, #0
 8001244:	f7ff fff2 	bl	800122c <HAL_RCC_GetHCLKFreq>
 8001248:	4602      	mov	r2, r0
 800124a:	4b05      	ldr	r3, [pc, #20]	@ (8001260 <HAL_RCC_GetPCLK1Freq+0x20>)
 800124c:	685b      	ldr	r3, [r3, #4]
 800124e:	0a1b      	lsrs	r3, r3, #8
 8001250:	f003 0307 	and.w	r3, r3, #7
 8001254:	4903      	ldr	r1, [pc, #12]	@ (8001264 <HAL_RCC_GetPCLK1Freq+0x24>)
 8001256:	5ccb      	ldrb	r3, [r1, r3]
 8001258:	fa22 f303 	lsr.w	r3, r2, r3
 800125c:	4618      	mov	r0, r3
 800125e:	bd80      	pop	{r7, pc}
 8001260:	40021000 	.word	0x40021000
 8001264:	080016fc 	.word	0x080016fc

08001268 <HAL_RCC_GetPCLK2Freq>:
 8001268:	b580      	push	{r7, lr}
 800126a:	af00      	add	r7, sp, #0
 800126c:	f7ff ffde 	bl	800122c <HAL_RCC_GetHCLKFreq>
 8001270:	4602      	mov	r2, r0
 8001272:	4b05      	ldr	r3, [pc, #20]	@ (8001288 <HAL_RCC_GetPCLK2Freq+0x20>)
 8001274:	685b      	ldr	r3, [r3, #4]
 8001276:	0adb      	lsrs	r3, r3, #11
 8001278:	f003 0307 	and.w	r3, r3, #7
 800127c:	4903      	ldr	r1, [pc, #12]	@ (800128c <HAL_RCC_GetPCLK2Freq+0x24>)
 800127e:	5ccb      	ldrb	r3, [r1, r3]
 8001280:	fa22 f303 	lsr.w	r3, r2, r3
 8001284:	4618      	mov	r0, r3
 8001286:	bd80      	pop	{r7, pc}
 8001288:	40021000 	.word	0x40021000
 800128c:	080016fc 	.word	0x080016fc

08001290 <RCC_Delay>:
 8001290:	b480      	push	{r7}
 8001292:	b085      	sub	sp, #20
 8001294:	af00      	add	r7, sp, #0
 8001296:	6078      	str	r0, [r7, #4]
 8001298:	4b0a      	ldr	r3, [pc, #40]	@ (80012c4 <RCC_Delay+0x34>)
 800129a:	681b      	ldr	r3, [r3, #0]
 800129c:	4a0a      	ldr	r2, [pc, #40]	@ (80012c8 <RCC_Delay+0x38>)
 800129e:	fba2 2303 	umull	r2, r3, r2, r3
 80012a2:	0a5b      	lsrs	r3, r3, #9
 80012a4:	687a      	ldr	r2, [r7, #4]
 80012a6:	fb02 f303 	mul.w	r3, r2, r3
 80012aa:	60fb      	str	r3, [r7, #12]
 80012ac:	bf00      	nop
 80012ae:	68fb      	ldr	r3, [r7, #12]
 80012b0:	1e5a      	subs	r2, r3, #1
 80012b2:	60fa      	str	r2, [r7, #12]
 80012b4:	2b00      	cmp	r3, #0
 80012b6:	d1f9      	bne.n	80012ac <RCC_Delay+0x1c>
 80012b8:	bf00      	nop
 80012ba:	bf00      	nop
 80012bc:	3714      	adds	r7, #20
 80012be:	46bd      	mov	sp, r7
 80012c0:	bc80      	pop	{r7}
 80012c2:	4770      	bx	lr
 80012c4:	20000000 	.word	0x20000000
 80012c8:	10624dd3 	.word	0x10624dd3

080012cc <HAL_UART_Init>:
 80012cc:	b580      	push	{r7, lr}
 80012ce:	b082      	sub	sp, #8
 80012d0:	af00      	add	r7, sp, #0
 80012d2:	6078      	str	r0, [r7, #4]
 80012d4:	687b      	ldr	r3, [r7, #4]
 80012d6:	2b00      	cmp	r3, #0
 80012d8:	d101      	bne.n	80012de <HAL_UART_Init+0x12>
 80012da:	2301      	movs	r3, #1
 80012dc:	e042      	b.n	8001364 <HAL_UART_Init+0x98>
 80012de:	687b      	ldr	r3, [r7, #4]
 80012e0:	f893 3041 	ldrb.w	r3, [r3, #65]	@ 0x41
 80012e4:	b2db      	uxtb	r3, r3
 80012e6:	2b00      	cmp	r3, #0
 80012e8:	d106      	bne.n	80012f8 <HAL_UART_Init+0x2c>
 80012ea:	687b      	ldr	r3, [r7, #4]
 80012ec:	2200      	movs	r2, #0
 80012ee:	f883 2040 	strb.w	r2, [r3, #64]	@ 0x40
 80012f2:	6878      	ldr	r0, [r7, #4]
 80012f4:	f7ff f838 	bl	8000368 <HAL_UART_MspInit>
 80012f8:	687b      	ldr	r3, [r7, #4]
 80012fa:	2224      	movs	r2, #36	@ 0x24
 80012fc:	f883 2041 	strb.w	r2, [r3, #65]	@ 0x41
 8001300:	687b      	ldr	r3, [r7, #4]
 8001302:	681b      	ldr	r3, [r3, #0]
 8001304:	68da      	ldr	r2, [r3, #12]
 8001306:	687b      	ldr	r3, [r7, #4]
 8001308:	681b      	ldr	r3, [r3, #0]
 800130a:	f422 5200 	bic.w	r2, r2, #8192	@ 0x2000
 800130e:	60da      	str	r2, [r3, #12]
 8001310:	6878      	ldr	r0, [r7, #4]
 8001312:	f000 f91d 	bl	8001550 <UART_SetConfig>
 8001316:	687b      	ldr	r3, [r7, #4]
 8001318:	681b      	ldr	r3, [r3, #0]
 800131a:	691a      	ldr	r2, [r3, #16]
 800131c:	687b      	ldr	r3, [r7, #4]
 800131e:	681b      	ldr	r3, [r3, #0]
 8001320:	f422 4290 	bic.w	r2, r2, #18432	@ 0x4800
 8001324:	611a      	str	r2, [r3, #16]
 8001326:	687b      	ldr	r3, [r7, #4]
 8001328:	681b      	ldr	r3, [r3, #0]
 800132a:	695a      	ldr	r2, [r3, #20]
 800132c:	687b      	ldr	r3, [r7, #4]
 800132e:	681b      	ldr	r3, [r3, #0]
 8001330:	f022 022a 	bic.w	r2, r2, #42	@ 0x2a
 8001334:	615a      	str	r2, [r3, #20]
 8001336:	687b      	ldr	r3, [r7, #4]
 8001338:	681b      	ldr	r3, [r3, #0]
 800133a:	68da      	ldr	r2, [r3, #12]
 800133c:	687b      	ldr	r3, [r7, #4]
 800133e:	681b      	ldr	r3, [r3, #0]
 8001340:	f442 5200 	orr.w	r2, r2, #8192	@ 0x2000
 8001344:	60da      	str	r2, [r3, #12]
 8001346:	687b      	ldr	r3, [r7, #4]
 8001348:	2200      	movs	r2, #0
 800134a:	645a      	str	r2, [r3, #68]	@ 0x44
 800134c:	687b      	ldr	r3, [r7, #4]
 800134e:	2220      	movs	r2, #32
 8001350:	f883 2041 	strb.w	r2, [r3, #65]	@ 0x41
 8001354:	687b      	ldr	r3, [r7, #4]
 8001356:	2220      	movs	r2, #32
 8001358:	f883 2042 	strb.w	r2, [r3, #66]	@ 0x42
 800135c:	687b      	ldr	r3, [r7, #4]
 800135e:	2200      	movs	r2, #0
 8001360:	635a      	str	r2, [r3, #52]	@ 0x34
 8001362:	2300      	movs	r3, #0
 8001364:	4618      	mov	r0, r3
 8001366:	3708      	adds	r7, #8
 8001368:	46bd      	mov	sp, r7
 800136a:	bd80      	pop	{r7, pc}

0800136c <HAL_UART_Transmit>:
 800136c:	b580      	push	{r7, lr}
 800136e:	b08a      	sub	sp, #40	@ 0x28
 8001370:	af02      	add	r7, sp, #8
 8001372:	60f8      	str	r0, [r7, #12]
 8001374:	60b9      	str	r1, [r7, #8]
 8001376:	603b      	str	r3, [r7, #0]
 8001378:	4613      	mov	r3, r2
 800137a:	80fb      	strh	r3, [r7, #6]
 800137c:	2300      	movs	r3, #0
 800137e:	617b      	str	r3, [r7, #20]
 8001380:	68fb      	ldr	r3, [r7, #12]
 8001382:	f893 3041 	ldrb.w	r3, [r3, #65]	@ 0x41
 8001386:	b2db      	uxtb	r3, r3
 8001388:	2b20      	cmp	r3, #32
 800138a:	d16d      	bne.n	8001468 <HAL_UART_Transmit+0xfc>
 800138c:	68bb      	ldr	r3, [r7, #8]
 800138e:	2b00      	cmp	r3, #0
 8001390:	d002      	beq.n	8001398 <HAL_UART_Transmit+0x2c>
 8001392:	88fb      	ldrh	r3, [r7, #6]
 8001394:	2b00      	cmp	r3, #0
 8001396:	d101      	bne.n	800139c <HAL_UART_Transmit+0x30>
 8001398:	2301      	movs	r3, #1
 800139a:	e066      	b.n	800146a <HAL_UART_Transmit+0xfe>
 800139c:	68fb      	ldr	r3, [r7, #12]
 800139e:	2200      	movs	r2, #0
 80013a0:	645a      	str	r2, [r3, #68]	@ 0x44
 80013a2:	68fb      	ldr	r3, [r7, #12]
 80013a4:	2221      	movs	r2, #33	@ 0x21
 80013a6:	f883 2041 	strb.w	r2, [r3, #65]	@ 0x41
 80013aa:	f7ff f8d9 	bl	8000560 <HAL_GetTick>
 80013ae:	6178      	str	r0, [r7, #20]
 80013b0:	68fb      	ldr	r3, [r7, #12]
 80013b2:	88fa      	ldrh	r2, [r7, #6]
 80013b4:	849a      	strh	r2, [r3, #36]	@ 0x24
 80013b6:	68fb      	ldr	r3, [r7, #12]
 80013b8:	88fa      	ldrh	r2, [r7, #6]
 80013ba:	84da      	strh	r2, [r3, #38]	@ 0x26
 80013bc:	68fb      	ldr	r3, [r7, #12]
 80013be:	689b      	ldr	r3, [r3, #8]
 80013c0:	f5b3 5f80 	cmp.w	r3, #4096	@ 0x1000
 80013c4:	d108      	bne.n	80013d8 <HAL_UART_Transmit+0x6c>
 80013c6:	68fb      	ldr	r3, [r7, #12]
 80013c8:	691b      	ldr	r3, [r3, #16]
 80013ca:	2b00      	cmp	r3, #0
 80013cc:	d104      	bne.n	80013d8 <HAL_UART_Transmit+0x6c>
 80013ce:	2300      	movs	r3, #0
 80013d0:	61fb      	str	r3, [r7, #28]
 80013d2:	68bb      	ldr	r3, [r7, #8]
 80013d4:	61bb      	str	r3, [r7, #24]
 80013d6:	e003      	b.n	80013e0 <HAL_UART_Transmit+0x74>
 80013d8:	68bb      	ldr	r3, [r7, #8]
 80013da:	61fb      	str	r3, [r7, #28]
 80013dc:	2300      	movs	r3, #0
 80013de:	61bb      	str	r3, [r7, #24]
 80013e0:	e02a      	b.n	8001438 <HAL_UART_Transmit+0xcc>
 80013e2:	683b      	ldr	r3, [r7, #0]
 80013e4:	9300      	str	r3, [sp, #0]
 80013e6:	697b      	ldr	r3, [r7, #20]
 80013e8:	2200      	movs	r2, #0
 80013ea:	2180      	movs	r1, #128	@ 0x80
 80013ec:	68f8      	ldr	r0, [r7, #12]
 80013ee:	f000 f840 	bl	8001472 <UART_WaitOnFlagUntilTimeout>
 80013f2:	4603      	mov	r3, r0
 80013f4:	2b00      	cmp	r3, #0
 80013f6:	d001      	beq.n	80013fc <HAL_UART_Transmit+0x90>
 80013f8:	2303      	movs	r3, #3
 80013fa:	e036      	b.n	800146a <HAL_UART_Transmit+0xfe>
 80013fc:	69fb      	ldr	r3, [r7, #28]
 80013fe:	2b00      	cmp	r3, #0
 8001400:	d10b      	bne.n	800141a <HAL_UART_Transmit+0xae>
 8001402:	69bb      	ldr	r3, [r7, #24]
 8001404:	881b      	ldrh	r3, [r3, #0]
 8001406:	461a      	mov	r2, r3
 8001408:	68fb      	ldr	r3, [r7, #12]
 800140a:	681b      	ldr	r3, [r3, #0]
 800140c:	f3c2 0208 	ubfx	r2, r2, #0, #9
 8001410:	605a      	str	r2, [r3, #4]
 8001412:	69bb      	ldr	r3, [r7, #24]
 8001414:	3302      	adds	r3, #2
 8001416:	61bb      	str	r3, [r7, #24]
 8001418:	e007      	b.n	800142a <HAL_UART_Transmit+0xbe>
 800141a:	69fb      	ldr	r3, [r7, #28]
 800141c:	781a      	ldrb	r2, [r3, #0]
 800141e:	68fb      	ldr	r3, [r7, #12]
 8001420:	681b      	ldr	r3, [r3, #0]
 8001422:	605a      	str	r2, [r3, #4]
 8001424:	69fb      	ldr	r3, [r7, #28]
 8001426:	3301      	adds	r3, #1
 8001428:	61fb      	str	r3, [r7, #28]
 800142a:	68fb      	ldr	r3, [r7, #12]
 800142c:	8cdb      	ldrh	r3, [r3, #38]	@ 0x26
 800142e:	b29b      	uxth	r3, r3
 8001430:	3b01      	subs	r3, #1
 8001432:	b29a      	uxth	r2, r3
 8001434:	68fb      	ldr	r3, [r7, #12]
 8001436:	84da      	strh	r2, [r3, #38]	@ 0x26
 8001438:	68fb      	ldr	r3, [r7, #12]
 800143a:	8cdb      	ldrh	r3, [r3, #38]	@ 0x26
 800143c:	b29b      	uxth	r3, r3
 800143e:	2b00      	cmp	r3, #0
 8001440:	d1cf      	bne.n	80013e2 <HAL_UART_Transmit+0x76>
 8001442:	683b      	ldr	r3, [r7, #0]
 8001444:	9300      	str	r3, [sp, #0]
 8001446:	697b      	ldr	r3, [r7, #20]
 8001448:	2200      	movs	r2, #0
 800144a:	2140      	movs	r1, #64	@ 0x40
 800144c:	68f8      	ldr	r0, [r7, #12]
 800144e:	f000 f810 	bl	8001472 <UART_WaitOnFlagUntilTimeout>
 8001452:	4603      	mov	r3, r0
 8001454:	2b00      	cmp	r3, #0
 8001456:	d001      	beq.n	800145c <HAL_UART_Transmit+0xf0>
 8001458:	2303      	movs	r3, #3
 800145a:	e006      	b.n	800146a <HAL_UART_Transmit+0xfe>
 800145c:	68fb      	ldr	r3, [r7, #12]
 800145e:	2220      	movs	r2, #32
 8001460:	f883 2041 	strb.w	r2, [r3, #65]	@ 0x41
 8001464:	2300      	movs	r3, #0
 8001466:	e000      	b.n	800146a <HAL_UART_Transmit+0xfe>
 8001468:	2302      	movs	r3, #2
 800146a:	4618      	mov	r0, r3
 800146c:	3720      	adds	r7, #32
 800146e:	46bd      	mov	sp, r7
 8001470:	bd80      	pop	{r7, pc}

08001472 <UART_WaitOnFlagUntilTimeout>:
 8001472:	b580      	push	{r7, lr}
 8001474:	b090      	sub	sp, #64	@ 0x40
 8001476:	af00      	add	r7, sp, #0
 8001478:	60f8      	str	r0, [r7, #12]
 800147a:	60b9      	str	r1, [r7, #8]
 800147c:	603b      	str	r3, [r7, #0]
 800147e:	4613      	mov	r3, r2
 8001480:	71fb      	strb	r3, [r7, #7]
 8001482:	e050      	b.n	8001526 <UART_WaitOnFlagUntilTimeout+0xb4>
 8001484:	6cbb      	ldr	r3, [r7, #72]	@ 0x48
 8001486:	f1b3 3fff 	cmp.w	r3, #4294967295
 800148a:	d04c      	beq.n	8001526 <UART_WaitOnFlagUntilTimeout+0xb4>
 800148c:	6cbb      	ldr	r3, [r7, #72]	@ 0x48
 800148e:	2b00      	cmp	r3, #0
 8001490:	d007      	beq.n	80014a2 <UART_WaitOnFlagUntilTimeout+0x30>
 8001492:	f7ff f865 	bl	8000560 <HAL_GetTick>
 8001496:	4602      	mov	r2, r0
 8001498:	683b      	ldr	r3, [r7, #0]
 800149a:	1ad3      	subs	r3, r2, r3
 800149c:	6cba      	ldr	r2, [r7, #72]	@ 0x48
 800149e:	429a      	cmp	r2, r3
 80014a0:	d241      	bcs.n	8001526 <UART_WaitOnFlagUntilTimeout+0xb4>
 80014a2:	68fb      	ldr	r3, [r7, #12]
 80014a4:	681b      	ldr	r3, [r3, #0]
 80014a6:	330c      	adds	r3, #12
 80014a8:	62bb      	str	r3, [r7, #40]	@ 0x28
 80014aa:	6abb      	ldr	r3, [r7, #40]	@ 0x28
 80014ac:	e853 3f00 	ldrex	r3, [r3]
 80014b0:	627b      	str	r3, [r7, #36]	@ 0x24
 80014b2:	6a7b      	ldr	r3, [r7, #36]	@ 0x24
 80014b4:	f423 73d0 	bic.w	r3, r3, #416	@ 0x1a0
 80014b8:	63fb      	str	r3, [r7, #60]	@ 0x3c
 80014ba:	68fb      	ldr	r3, [r7, #12]
 80014bc:	681b      	ldr	r3, [r3, #0]
 80014be:	330c      	adds	r3, #12
 80014c0:	6bfa      	ldr	r2, [r7, #60]	@ 0x3c
 80014c2:	637a      	str	r2, [r7, #52]	@ 0x34
 80014c4:	633b      	str	r3, [r7, #48]	@ 0x30
 80014c6:	6b39      	ldr	r1, [r7, #48]	@ 0x30
 80014c8:	6b7a      	ldr	r2, [r7, #52]	@ 0x34
 80014ca:	e841 2300 	strex	r3, r2, [r1]
 80014ce:	62fb      	str	r3, [r7, #44]	@ 0x2c
 80014d0:	6afb      	ldr	r3, [r7, #44]	@ 0x2c
 80014d2:	2b00      	cmp	r3, #0
 80014d4:	d1e5      	bne.n	80014a2 <UART_WaitOnFlagUntilTimeout+0x30>
 80014d6:	68fb      	ldr	r3, [r7, #12]
 80014d8:	681b      	ldr	r3, [r3, #0]
 80014da:	3314      	adds	r3, #20
 80014dc:	617b      	str	r3, [r7, #20]
 80014de:	697b      	ldr	r3, [r7, #20]
 80014e0:	e853 3f00 	ldrex	r3, [r3]
 80014e4:	613b      	str	r3, [r7, #16]
 80014e6:	693b      	ldr	r3, [r7, #16]
 80014e8:	f023 0301 	bic.w	r3, r3, #1
 80014ec:	63bb      	str	r3, [r7, #56]	@ 0x38
 80014ee:	68fb      	ldr	r3, [r7, #12]
 80014f0:	681b      	ldr	r3, [r3, #0]
 80014f2:	3314      	adds	r3, #20
 80014f4:	6bba      	ldr	r2, [r7, #56]	@ 0x38
 80014f6:	623a      	str	r2, [r7, #32]
 80014f8:	61fb      	str	r3, [r7, #28]
 80014fa:	69f9      	ldr	r1, [r7, #28]
 80014fc:	6a3a      	ldr	r2, [r7, #32]
 80014fe:	e841 2300 	strex	r3, r2, [r1]
 8001502:	61bb      	str	r3, [r7, #24]
 8001504:	69bb      	ldr	r3, [r7, #24]
 8001506:	2b00      	cmp	r3, #0
 8001508:	d1e5      	bne.n	80014d6 <UART_WaitOnFlagUntilTimeout+0x64>
 800150a:	68fb      	ldr	r3, [r7, #12]
 800150c:	2220      	movs	r2, #32
 800150e:	f883 2041 	strb.w	r2, [r3, #65]	@ 0x41
 8001512:	68fb      	ldr	r3, [r7, #12]
 8001514:	2220      	movs	r2, #32
 8001516:	f883 2042 	strb.w	r2, [r3, #66]	@ 0x42
 800151a:	68fb      	ldr	r3, [r7, #12]
 800151c:	2200      	movs	r2, #0
 800151e:	f883 2040 	strb.w	r2, [r3, #64]	@ 0x40
 8001522:	2303      	movs	r3, #3
 8001524:	e00f      	b.n	8001546 <UART_WaitOnFlagUntilTimeout+0xd4>
 8001526:	68fb      	ldr	r3, [r7, #12]
 8001528:	681b      	ldr	r3, [r3, #0]
 800152a:	681a      	ldr	r2, [r3, #0]
 800152c:	68bb      	ldr	r3, [r7, #8]
 800152e:	4013      	ands	r3, r2
 8001530:	68ba      	ldr	r2, [r7, #8]
 8001532:	429a      	cmp	r2, r3
 8001534:	bf0c      	ite	eq
 8001536:	2301      	moveq	r3, #1
 8001538:	2300      	movne	r3, #0
 800153a:	b2db      	uxtb	r3, r3
 800153c:	461a      	mov	r2, r3
 800153e:	79fb      	ldrb	r3, [r7, #7]
 8001540:	429a      	cmp	r2, r3
 8001542:	d09f      	beq.n	8001484 <UART_WaitOnFlagUntilTimeout+0x12>
 8001544:	2300      	movs	r3, #0
 8001546:	4618      	mov	r0, r3
 8001548:	3740      	adds	r7, #64	@ 0x40
 800154a:	46bd      	mov	sp, r7
 800154c:	bd80      	pop	{r7, pc}
	...

08001550 <UART_SetConfig>:
 8001550:	b580      	push	{r7, lr}
 8001552:	b084      	sub	sp, #16
 8001554:	af00      	add	r7, sp, #0
 8001556:	6078      	str	r0, [r7, #4]
 8001558:	687b      	ldr	r3, [r7, #4]
 800155a:	681b      	ldr	r3, [r3, #0]
 800155c:	691b      	ldr	r3, [r3, #16]
 800155e:	f423 5140 	bic.w	r1, r3, #12288	@ 0x3000
 8001562:	687b      	ldr	r3, [r7, #4]
 8001564:	68da      	ldr	r2, [r3, #12]
 8001566:	687b      	ldr	r3, [r7, #4]
 8001568:	681b      	ldr	r3, [r3, #0]
 800156a:	430a      	orrs	r2, r1
 800156c:	611a      	str	r2, [r3, #16]
 800156e:	687b      	ldr	r3, [r7, #4]
 8001570:	689a      	ldr	r2, [r3, #8]
 8001572:	687b      	ldr	r3, [r7, #4]
 8001574:	691b      	ldr	r3, [r3, #16]
 8001576:	431a      	orrs	r2, r3
 8001578:	687b      	ldr	r3, [r7, #4]
 800157a:	695b      	ldr	r3, [r3, #20]
 800157c:	4313      	orrs	r3, r2
 800157e:	60bb      	str	r3, [r7, #8]
 8001580:	687b      	ldr	r3, [r7, #4]
 8001582:	681b      	ldr	r3, [r3, #0]
 8001584:	68db      	ldr	r3, [r3, #12]
 8001586:	f423 53b0 	bic.w	r3, r3, #5632	@ 0x1600
 800158a:	f023 030c 	bic.w	r3, r3, #12
 800158e:	687a      	ldr	r2, [r7, #4]
 8001590:	6812      	ldr	r2, [r2, #0]
 8001592:	68b9      	ldr	r1, [r7, #8]
 8001594:	430b      	orrs	r3, r1
 8001596:	60d3      	str	r3, [r2, #12]
 8001598:	687b      	ldr	r3, [r7, #4]
 800159a:	681b      	ldr	r3, [r3, #0]
 800159c:	695b      	ldr	r3, [r3, #20]
 800159e:	f423 7140 	bic.w	r1, r3, #768	@ 0x300
 80015a2:	687b      	ldr	r3, [r7, #4]
 80015a4:	699a      	ldr	r2, [r3, #24]
 80015a6:	687b      	ldr	r3, [r7, #4]
 80015a8:	681b      	ldr	r3, [r3, #0]
 80015aa:	430a      	orrs	r2, r1
 80015ac:	615a      	str	r2, [r3, #20]
 80015ae:	687b      	ldr	r3, [r7, #4]
 80015b0:	681b      	ldr	r3, [r3, #0]
 80015b2:	4a2c      	ldr	r2, [pc, #176]	@ (8001664 <UART_SetConfig+0x114>)
 80015b4:	4293      	cmp	r3, r2
 80015b6:	d103      	bne.n	80015c0 <UART_SetConfig+0x70>
 80015b8:	f7ff fe56 	bl	8001268 <HAL_RCC_GetPCLK2Freq>
 80015bc:	60f8      	str	r0, [r7, #12]
 80015be:	e002      	b.n	80015c6 <UART_SetConfig+0x76>
 80015c0:	f7ff fe3e 	bl	8001240 <HAL_RCC_GetPCLK1Freq>
 80015c4:	60f8      	str	r0, [r7, #12]
 80015c6:	68fa      	ldr	r2, [r7, #12]
 80015c8:	4613      	mov	r3, r2
 80015ca:	009b      	lsls	r3, r3, #2
 80015cc:	4413      	add	r3, r2
 80015ce:	009a      	lsls	r2, r3, #2
 80015d0:	441a      	add	r2, r3
 80015d2:	687b      	ldr	r3, [r7, #4]
 80015d4:	685b      	ldr	r3, [r3, #4]
 80015d6:	009b      	lsls	r3, r3, #2
 80015d8:	fbb2 f3f3 	udiv	r3, r2, r3
 80015dc:	4a22      	ldr	r2, [pc, #136]	@ (8001668 <UART_SetConfig+0x118>)
 80015de:	fba2 2303 	umull	r2, r3, r2, r3
 80015e2:	095b      	lsrs	r3, r3, #5
 80015e4:	0119      	lsls	r1, r3, #4
 80015e6:	68fa      	ldr	r2, [r7, #12]
 80015e8:	4613      	mov	r3, r2
 80015ea:	009b      	lsls	r3, r3, #2
 80015ec:	4413      	add	r3, r2
 80015ee:	009a      	lsls	r2, r3, #2
 80015f0:	441a      	add	r2, r3
 80015f2:	687b      	ldr	r3, [r7, #4]
 80015f4:	685b      	ldr	r3, [r3, #4]
 80015f6:	009b      	lsls	r3, r3, #2
 80015f8:	fbb2 f2f3 	udiv	r2, r2, r3
 80015fc:	4b1a      	ldr	r3, [pc, #104]	@ (8001668 <UART_SetConfig+0x118>)
 80015fe:	fba3 0302 	umull	r0, r3, r3, r2
 8001602:	095b      	lsrs	r3, r3, #5
 8001604:	2064      	movs	r0, #100	@ 0x64
 8001606:	fb00 f303 	mul.w	r3, r0, r3
 800160a:	1ad3      	subs	r3, r2, r3
 800160c:	011b      	lsls	r3, r3, #4
 800160e:	3332      	adds	r3, #50	@ 0x32
 8001610:	4a15      	ldr	r2, [pc, #84]	@ (8001668 <UART_SetConfig+0x118>)
 8001612:	fba2 2303 	umull	r2, r3, r2, r3
 8001616:	095b      	lsrs	r3, r3, #5
 8001618:	f003 03f0 	and.w	r3, r3, #240	@ 0xf0
 800161c:	4419      	add	r1, r3
 800161e:	68fa      	ldr	r2, [r7, #12]
 8001620:	4613      	mov	r3, r2
 8001622:	009b      	lsls	r3, r3, #2
 8001624:	4413      	add	r3, r2
 8001626:	009a      	lsls	r2, r3, #2
 8001628:	441a      	add	r2, r3
 800162a:	687b      	ldr	r3, [r7, #4]
 800162c:	685b      	ldr	r3, [r3, #4]
 800162e:	009b      	lsls	r3, r3, #2
 8001630:	fbb2 f2f3 	udiv	r2, r2, r3
 8001634:	4b0c      	ldr	r3, [pc, #48]	@ (8001668 <UART_SetConfig+0x118>)
 8001636:	fba3 0302 	umull	r0, r3, r3, r2
 800163a:	095b      	lsrs	r3, r3, #5
 800163c:	2064      	movs	r0, #100	@ 0x64
 800163e:	fb00 f303 	mul.w	r3, r0, r3
 8001642:	1ad3      	subs	r3, r2, r3
 8001644:	011b      	lsls	r3, r3, #4
 8001646:	3332      	adds	r3, #50	@ 0x32
 8001648:	4a07      	ldr	r2, [pc, #28]	@ (8001668 <UART_SetConfig+0x118>)
 800164a:	fba2 2303 	umull	r2, r3, r2, r3
 800164e:	095b      	lsrs	r3, r3, #5
 8001650:	f003 020f 	and.w	r2, r3, #15
 8001654:	687b      	ldr	r3, [r7, #4]
 8001656:	681b      	ldr	r3, [r3, #0]
 8001658:	440a      	add	r2, r1
 800165a:	609a      	str	r2, [r3, #8]
 800165c:	bf00      	nop
 800165e:	3710      	adds	r7, #16
 8001660:	46bd      	mov	sp, r7
 8001662:	bd80      	pop	{r7, pc}
 8001664:	40013800 	.word	0x40013800
 8001668:	51eb851f 	.word	0x51eb851f

0800166c <memset>:
 800166c:	4603      	mov	r3, r0
 800166e:	4402      	add	r2, r0
 8001670:	4293      	cmp	r3, r2
 8001672:	d100      	bne.n	8001676 <memset+0xa>
 8001674:	4770      	bx	lr
 8001676:	f803 1b01 	strb.w	r1, [r3], #1
 800167a:	e7f9      	b.n	8001670 <memset+0x4>

0800167c <__libc_init_array>:
 800167c:	b570      	push	{r4, r5, r6, lr}
 800167e:	2600      	movs	r6, #0
 8001680:	4d0c      	ldr	r5, [pc, #48]	@ (80016b4 <__libc_init_array+0x38>)
 8001682:	4c0d      	ldr	r4, [pc, #52]	@ (80016b8 <__libc_init_array+0x3c>)
 8001684:	1b64      	subs	r4, r4, r5
 8001686:	10a4      	asrs	r4, r4, #2
 8001688:	42a6      	cmp	r6, r4
 800168a:	d109      	bne.n	80016a0 <__libc_init_array+0x24>
 800168c:	f000 f81a 	bl	80016c4 <_init>
 8001690:	2600      	movs	r6, #0
 8001692:	4d0a      	ldr	r5, [pc, #40]	@ (80016bc <__libc_init_array+0x40>)
 8001694:	4c0a      	ldr	r4, [pc, #40]	@ (80016c0 <__libc_init_array+0x44>)
 8001696:	1b64      	subs	r4, r4, r5
 8001698:	10a4      	asrs	r4, r4, #2
 800169a:	42a6      	cmp	r6, r4
 800169c:	d105      	bne.n	80016aa <__libc_init_array+0x2e>
 800169e:	bd70      	pop	{r4, r5, r6, pc}
 80016a0:	f855 3b04 	ldr.w	r3, [r5], #4
 80016a4:	4798      	blx	r3
 80016a6:	3601      	adds	r6, #1
 80016a8:	e7ee      	b.n	8001688 <__libc_init_array+0xc>
 80016aa:	f855 3b04 	ldr.w	r3, [r5], #4
 80016ae:	4798      	blx	r3
 80016b0:	3601      	adds	r6, #1
 80016b2:	e7f2      	b.n	800169a <__libc_init_array+0x1e>
 80016b4:	08001718 	.word	0x08001718
 80016b8:	08001718 	.word	0x08001718
 80016bc:	08001718 	.word	0x08001718
 80016c0:	0800171c 	.word	0x0800171c

080016c4 <_init>:
 80016c4:	b5f8      	push	{r3, r4, r5, r6, r7, lr}
 80016c6:	bf00      	nop
 80016c8:	bcf8      	pop	{r3, r4, r5, r6, r7}
 80016ca:	bc08      	pop	{r3}
 80016cc:	469e      	mov	lr, r3
 80016ce:	4770      	bx	lr

080016d0 <_fini>:
 80016d0:	b5f8      	push	{r3, r4, r5, r6, r7, lr}
 80016d2:	bf00      	nop
 80016d4:	bcf8      	pop	{r3, r4, r5, r6, r7}
 80016d6:	bc08      	pop	{r3}
 80016d8:	469e      	mov	lr, r3
 80016da:	4770      	bx	lr
