
F103C6_project.elf:     file format elf32-littlearm

Sections:
Idx Name          Size      VMA       LMA       File off  Algn
  0 .isr_vector   0000010c  08000000  08000000  00001000  2**0
                  CONTENTS, ALLOC, LOAD, READONLY, DATA
  1 .text         00001c80  0800010c  0800010c  0000110c  2**2
                  CONTENTS, ALLOC, LOAD, READONLY, CODE
  2 .rodata       00000040  08001d8c  08001d8c  00002d8c  2**2
                  CONTENTS, ALLOC, LOAD, READONLY, DATA
  3 .ARM.extab    00000000  08001dcc  08001dcc  0000300c  2**0
                  CONTENTS
  4 .ARM          00000000  08001dcc  08001dcc  0000300c  2**0
                  CONTENTS
  5 .preinit_array 00000000  08001dcc  08001dcc  0000300c  2**0
                  CONTENTS, ALLOC, LOAD, DATA
  6 .init_array   00000004  08001dcc  08001dcc  00002dcc  2**2
                  CONTENTS, ALLOC, LOAD, READONLY, DATA
  7 .fini_array   00000004  08001dd0  08001dd0  00002dd0  2**2
                  CONTENTS, ALLOC, LOAD, READONLY, DATA
  8 .data         0000000c  20000000  08001dd4  00003000  2**2
                  CONTENTS, ALLOC, LOAD, DATA
  9 .bss          0000015c  2000000c  08001de0  0000300c  2**2
                  ALLOC
 10 ._user_heap_stack 00000600  20000168  08001de0  00003168  2**0
                  ALLOC
 11 .ARM.attributes 00000029  00000000  00000000  0000300c  2**0
                  CONTENTS, READONLY
 12 .debug_info   0000a97d  00000000  00000000  00003035  2**0
                  CONTENTS, READONLY, DEBUGGING, OCTETS
 13 .debug_abbrev 000017c9  00000000  00000000  0000d9b2  2**0
                  CONTENTS, READONLY, DEBUGGING, OCTETS
 14 .debug_aranges 00000aa0  00000000  00000000  0000f180  2**3
                  CONTENTS, READONLY, DEBUGGING, OCTETS
 15 .debug_rnglists 0000085d  00000000  00000000  0000fc20  2**0
                  CONTENTS, READONLY, DEBUGGING, OCTETS
 16 .debug_macro  000162bf  00000000  00000000  0001047d  2**0
                  CONTENTS, READONLY, DEBUGGING, OCTETS
 17 .debug_line   0000cf0e  00000000  00000000  0002673c  2**0
                  CONTENTS, READONLY, DEBUGGING, OCTETS
 18 .debug_str    000800b2  00000000  00000000  0003364a  2**0
                  CONTENTS, READONLY, DEBUGGING, OCTETS
 19 .comment      00000043  00000000  00000000  000b36fc  2**0
                  CONTENTS, READONLY
 20 .debug_frame  00002c68  00000000  00000000  000b3740  2**2
                  CONTENTS, READONLY, DEBUGGING, OCTETS
 21 .debug_line_str 0000005d  00000000  00000000  000b63a8  2**0
                  CONTENTS, READONLY, DEBUGGING, OCTETS

Disassembly of section .text:

0800010c <__do_global_dtors_aux>:
 800010c:	b510      	push	{r4, lr}
 800010e:	4c05      	ldr	r4, [pc, #20]	@ (8000124 <__do_global_dtors_aux+0x18>)
 8000110:	7823      	ldrb	r3, [r4, #0]
 8000112:	b933      	cbnz	r3, 8000122 <__do_global_dtors_aux+0x16>
 8000114:	4b04      	ldr	r3, [pc, #16]	@ (8000128 <__do_global_dtors_aux+0x1c>)
 8000116:	b113      	cbz	r3, 800011e <__do_global_dtors_aux+0x12>
 8000118:	4804      	ldr	r0, [pc, #16]	@ (800012c <__do_global_dtors_aux+0x20>)
 800011a:	f3af 8000 	nop.w
 800011e:	2301      	movs	r3, #1
 8000120:	7023      	strb	r3, [r4, #0]
 8000122:	bd10      	pop	{r4, pc}
 8000124:	2000000c 	.word	0x2000000c
 8000128:	00000000 	.word	0x00000000
 800012c:	08001d74 	.word	0x08001d74

08000130 <frame_dummy>:
 8000130:	b508      	push	{r3, lr}
 8000132:	4b03      	ldr	r3, [pc, #12]	@ (8000140 <frame_dummy+0x10>)
 8000134:	b11b      	cbz	r3, 800013e <frame_dummy+0xe>
 8000136:	4903      	ldr	r1, [pc, #12]	@ (8000144 <frame_dummy+0x14>)
 8000138:	4803      	ldr	r0, [pc, #12]	@ (8000148 <frame_dummy+0x18>)
 800013a:	f3af 8000 	nop.w
 800013e:	bd08      	pop	{r3, pc}
 8000140:	00000000 	.word	0x00000000
 8000144:	20000010 	.word	0x20000010
 8000148:	08001d74 	.word	0x08001d74

0800014c <main>:
/**
  * @brief  The application entry point.
  * @retval int
  */
int main(void)
{
 800014c:	b5b0      	push	{r4, r5, r7, lr}
 800014e:	b086      	sub	sp, #24
 8000150:	af00      	add	r7, sp, #0

  /* USER CODE BEGIN 1 */
	const uint8_t hello[] = "Comitas Akademya\r\n";
 8000152:	4b11      	ldr	r3, [pc, #68]	@ (8000198 <main+0x4c>)
 8000154:	1d3c      	adds	r4, r7, #4
 8000156:	461d      	mov	r5, r3
 8000158:	cd0f      	ldmia	r5!, {r0, r1, r2, r3}
 800015a:	c40f      	stmia	r4!, {r0, r1, r2, r3}
 800015c:	682b      	ldr	r3, [r5, #0]
 800015e:	461a      	mov	r2, r3
 8000160:	8022      	strh	r2, [r4, #0]
 8000162:	3402      	adds	r4, #2
 8000164:	0c1b      	lsrs	r3, r3, #16
 8000166:	7023      	strb	r3, [r4, #0]
  /* USER CODE END 1 */

  /* MCU Configuration--------------------------------------------------------*/

  /* Reset of all peripherals, Initializes the Flash interface and the Systick. */
  HAL_Init();
 8000168:	f000 fafe 	bl	8000768 <HAL_Init>
  /* USER CODE BEGIN Init */

  /* USER CODE END Init */

  /* Configure the system clock */
  SystemClock_Config();
 800016c:	f000 f818 	bl	80001a0 <SystemClock_Config>
  /* USER CODE BEGIN SysInit */

  /* USER CODE END SysInit */

  /* Initialize all configured peripherals */
  MX_GPIO_Init();
 8000170:	f000 f908 	bl	8000384 <MX_GPIO_Init>
  MX_USART1_UART_Init();
 8000174:	f000 f8b2 	bl	80002dc <MX_USART1_UART_Init>
  MX_USART2_UART_Init();
 8000178:	f000 f8da 	bl	8000330 <MX_USART2_UART_Init>
  MX_SPI1_Init();
 800017c:	f000 f878 	bl	8000270 <MX_SPI1_Init>
  MX_I2C1_Init();
 8000180:	f000 f848 	bl	8000214 <MX_I2C1_Init>
  /* USER CODE BEGIN 2 */
  HAL_UART_Transmit(&huart1, hello, sizeof(hello) - 1, 1000);
 8000184:	1d39      	adds	r1, r7, #4
 8000186:	f44f 737a 	mov.w	r3, #1000	@ 0x3e8
 800018a:	2212      	movs	r2, #18
 800018c:	4803      	ldr	r0, [pc, #12]	@ (800019c <main+0x50>)
 800018e:	f001 fc45 	bl	8001a1c <HAL_UART_Transmit>
  /* USER CODE END 2 */

  /* Infinite loop */
  /* USER CODE BEGIN WHILE */
  while (1)
 8000192:	bf00      	nop
 8000194:	e7fd      	b.n	8000192 <main+0x46>
 8000196:	bf00      	nop
 8000198:	08001d8c 	.word	0x08001d8c
 800019c:	200000d4 	.word	0x200000d4

080001a0 <SystemClock_Config>:
/**
  * @brief System Clock Configuration
  * @retval None
  */
void SystemClock_Config(void)
{
 80001a0:	b580      	push	{r7, lr}
 80001a2:	b090      	sub	sp, #64	@ 0x40
 80001a4:	af00      	add	r7, sp, #0
  RCC_OscInitTypeDef RCC_OscInitStruct = {0};
 80001a6:	f107 0318 	add.w	r3, r7, #24
 80001aa:	2228      	movs	r2, #40	@ 0x28
 80001ac:	2100      	movs	r1, #0
 80001ae:	4618      	mov	r0, r3
 80001b0:	f001 fdb4 	bl	8001d1c <memset>
  RCC_ClkInitTypeDef RCC_ClkInitStruct = {0};
 80001b4:	1d3b      	adds	r3, r7, #4
 80001b6:	2200      	movs	r2, #0
 80001b8:	601a      	str	r2, [r3, #0]
 80001ba:	605a      	str	r2, [r3, #4]
 80001bc:	609a      	str	r2, [r3, #8]
 80001be:	60da      	str	r2, [r3, #12]
 80001c0:	611a      	str	r2, [r3, #16]

  /** Initializes the RCC Oscillators according to the specified parameters
  * in the RCC_OscInitTypeDef structure.
  */
  RCC_OscInitStruct.OscillatorType = RCC_OSCILLATORTYPE_HSE;
 80001c2:	2301      	movs	r3, #1
 80001c4:	61bb      	str	r3, [r7, #24]
  RCC_OscInitStruct.HSEState = RCC_HSE_ON;
 80001c6:	f44f 3380 	mov.w	r3, #65536	@ 0x10000
 80001ca:	61fb      	str	r3, [r7, #28]
  RCC_OscInitStruct.PLL.PLLState = RCC_PLL_NONE;
 80001cc:	2300      	movs	r3, #0
 80001ce:	637b      	str	r3, [r7, #52]	@ 0x34
  if (HAL_RCC_OscConfig(&RCC_OscInitStruct) != HAL_OK)
 80001d0:	f107 0318 	add.w	r3, r7, #24
 80001d4:	4618      	mov	r0, r3
 80001d6:	f000 fee5 	bl	8000fa4 <HAL_RCC_OscConfig>
 80001da:	4603      	mov	r3, r0
 80001dc:	2b00      	cmp	r3, #0
 80001de:	d001      	beq.n	80001e4 <SystemClock_Config+0x44>
  {
    Error_Handler();
 80001e0:	f000 f92e 	bl	8000440 <Error_Handler>
  }

  /** Initializes the CPU, AHB and APB buses clocks
  */
  RCC_ClkInitStruct.ClockType = RCC_CLOCKTYPE_HCLK|RCC_CLOCKTYPE_SYSCLK
 80001e4:	230f      	movs	r3, #15
 80001e6:	607b      	str	r3, [r7, #4]
                              |RCC_CLOCKTYPE_PCLK1|RCC_CLOCKTYPE_PCLK2;
  RCC_ClkInitStruct.SYSCLKSource = RCC_SYSCLKSOURCE_HSE;
 80001e8:	2301      	movs	r3, #1
 80001ea:	60bb      	str	r3, [r7, #8]
  RCC_ClkInitStruct.AHBCLKDivider = RCC_SYSCLK_DIV1;
 80001ec:	2300      	movs	r3, #0
 80001ee:	60fb      	str	r3, [r7, #12]
  RCC_ClkInitStruct.APB1CLKDivider = RCC_HCLK_DIV1;
 80001f0:	2300      	movs	r3, #0
 80001f2:	613b      	str	r3, [r7, #16]
  RCC_ClkInitStruct.APB2CLKDivider = RCC_HCLK_DIV1;
 80001f4:	2300      	movs	r3, #0
 80001f6:	617b      	str	r3, [r7, #20]

  if (HAL_RCC_ClockConfig(&RCC_ClkInitStruct, FLASH_LATENCY_0) != HAL_OK)
 80001f8:	1d3b      	adds	r3, r7, #4
 80001fa:	2100      	movs	r1, #0
 80001fc:	4618      	mov	r0, r3
 80001fe:	f001 f953 	bl	80014a8 <HAL_RCC_ClockConfig>
 8000202:	4603      	mov	r3, r0
 8000204:	2b00      	cmp	r3, #0
 8000206:	d001      	beq.n	800020c <SystemClock_Config+0x6c>
  {
    Error_Handler();
 8000208:	f000 f91a 	bl	8000440 <Error_Handler>
  }
}
 800020c:	bf00      	nop
 800020e:	3740      	adds	r7, #64	@ 0x40
 8000210:	46bd      	mov	sp, r7
 8000212:	bd80      	pop	{r7, pc}

08000214 <MX_I2C1_Init>:
  * @brief I2C1 Initialization Function
  * @param None
  * @retval None
  */
static void MX_I2C1_Init(void)
{
 8000214:	b580      	push	{r7, lr}
 8000216:	af00      	add	r7, sp, #0
  /* USER CODE END I2C1_Init 0 */

  /* USER CODE BEGIN I2C1_Init 1 */

  /* USER CODE END I2C1_Init 1 */
  hi2c1.Instance = I2C1;
 8000218:	4b12      	ldr	r3, [pc, #72]	@ (8000264 <MX_I2C1_Init+0x50>)
 800021a:	4a13      	ldr	r2, [pc, #76]	@ (8000268 <MX_I2C1_Init+0x54>)
 800021c:	601a      	str	r2, [r3, #0]
  hi2c1.Init.ClockSpeed = 100000;
 800021e:	4b11      	ldr	r3, [pc, #68]	@ (8000264 <MX_I2C1_Init+0x50>)
 8000220:	4a12      	ldr	r2, [pc, #72]	@ (800026c <MX_I2C1_Init+0x58>)
 8000222:	605a      	str	r2, [r3, #4]
  hi2c1.Init.DutyCycle = I2C_DUTYCYCLE_2;
 8000224:	4b0f      	ldr	r3, [pc, #60]	@ (8000264 <MX_I2C1_Init+0x50>)
 8000226:	2200      	movs	r2, #0
 8000228:	609a      	str	r2, [r3, #8]
  hi2c1.Init.OwnAddress1 = 0;
 800022a:	4b0e      	ldr	r3, [pc, #56]	@ (8000264 <MX_I2C1_Init+0x50>)
 800022c:	2200      	movs	r2, #0
 800022e:	60da      	str	r2, [r3, #12]
  hi2c1.Init.AddressingMode = I2C_ADDRESSINGMODE_7BIT;
 8000230:	4b0c      	ldr	r3, [pc, #48]	@ (8000264 <MX_I2C1_Init+0x50>)
 8000232:	f44f 4280 	mov.w	r2, #16384	@ 0x4000
 8000236:	611a      	str	r2, [r3, #16]
  hi2c1.Init.DualAddressMode = I2C_DUALADDRESS_DISABLE;
 8000238:	4b0a      	ldr	r3, [pc, #40]	@ (8000264 <MX_I2C1_Init+0x50>)
 800023a:	2200      	movs	r2, #0
 800023c:	615a      	str	r2, [r3, #20]
  hi2c1.Init.OwnAddress2 = 0;
 800023e:	4b09      	ldr	r3, [pc, #36]	@ (8000264 <MX_I2C1_Init+0x50>)
 8000240:	2200      	movs	r2, #0
 8000242:	619a      	str	r2, [r3, #24]
  hi2c1.Init.GeneralCallMode = I2C_GENERALCALL_DISABLE;
 8000244:	4b07      	ldr	r3, [pc, #28]	@ (8000264 <MX_I2C1_Init+0x50>)
 8000246:	2200      	movs	r2, #0
 8000248:	61da      	str	r2, [r3, #28]
  hi2c1.Init.NoStretchMode = I2C_NOSTRETCH_DISABLE;
 800024a:	4b06      	ldr	r3, [pc, #24]	@ (8000264 <MX_I2C1_Init+0x50>)
 800024c:	2200      	movs	r2, #0
 800024e:	621a      	str	r2, [r3, #32]
  if (HAL_I2C_Init(&hi2c1) != HAL_OK)
 8000250:	4804      	ldr	r0, [pc, #16]	@ (8000264 <MX_I2C1_Init+0x50>)
 8000252:	f000 fd63 	bl	8000d1c <HAL_I2C_Init>
 8000256:	4603      	mov	r3, r0
 8000258:	2b00      	cmp	r3, #0
 800025a:	d001      	beq.n	8000260 <MX_I2C1_Init+0x4c>
  {
    Error_Handler();
 800025c:	f000 f8f0 	bl	8000440 <Error_Handler>
  }
  /* USER CODE BEGIN I2C1_Init 2 */

  /* USER CODE END I2C1_Init 2 */

}
 8000260:	bf00      	nop
 8000262:	bd80      	pop	{r7, pc}
 8000264:	20000028 	.word	0x20000028
 8000268:	40005400 	.word	0x40005400
 800026c:	000186a0 	.word	0x000186a0

08000270 <MX_SPI1_Init>:
  * @brief SPI1 Initialization Function
  * @param None
  * @retval None
  */
static void MX_SPI1_Init(void)
{
 8000270:	b580      	push	{r7, lr}
 8000272:	af00      	add	r7, sp, #0

  /* USER CODE BEGIN SPI1_Init 1 */

  /* USER CODE END SPI1_Init 1 */
  /* SPI1 parameter configuration*/
  hspi1.Instance = SPI1;
 8000274:	4b17      	ldr	r3, [pc, #92]	@ (80002d4 <MX_SPI1_Init+0x64>)
 8000276:	4a18      	ldr	r2, [pc, #96]	@ (80002d8 <MX_SPI1_Init+0x68>)
 8000278:	601a      	str	r2, [r3, #0]
  hspi1.Init.Mode = SPI_MODE_MASTER;
 800027a:	4b16      	ldr	r3, [pc, #88]	@ (80002d4 <MX_SPI1_Init+0x64>)
 800027c:	f44f 7282 	mov.w	r2, #260	@ 0x104
 8000280:	605a      	str	r2, [r3, #4]
  hspi1.Init.Direction = SPI_DIRECTION_2LINES;
 8000282:	4b14      	ldr	r3, [pc, #80]	@ (80002d4 <MX_SPI1_Init+0x64>)
 8000284:	2200      	movs	r2, #0
 8000286:	609a      	str	r2, [r3, #8]
  hspi1.Init.DataSize = SPI_DATASIZE_8BIT;
 8000288:	4b12      	ldr	r3, [pc, #72]	@ (80002d4 <MX_SPI1_Init+0x64>)
 800028a:	2200      	movs	r2, #0
 800028c:	60da      	str	r2, [r3, #12]
  hspi1.Init.CLKPolarity = SPI_POLARITY_LOW;
 800028e:	4b11      	ldr	r3, [pc, #68]	@ (80002d4 <MX_SPI1_Init+0x64>)
 8000290:	2200      	movs	r2, #0
 8000292:	611a      	str	r2, [r3, #16]
  hspi1.Init.CLKPhase = SPI_PHASE_1EDGE;
 8000294:	4b0f      	ldr	r3, [pc, #60]	@ (80002d4 <MX_SPI1_Init+0x64>)
 8000296:	2200      	movs	r2, #0
 8000298:	615a      	str	r2, [r3, #20]
  hspi1.Init.NSS = SPI_NSS_SOFT;
 800029a:	4b0e      	ldr	r3, [pc, #56]	@ (80002d4 <MX_SPI1_Init+0x64>)
 800029c:	f44f 7200 	mov.w	r2, #512	@ 0x200
 80002a0:	619a      	str	r2, [r3, #24]
  hspi1.Init.BaudRatePrescaler = SPI_BAUDRATEPRESCALER_2;
 80002a2:	4b0c      	ldr	r3, [pc, #48]	@ (80002d4 <MX_SPI1_Init+0x64>)
 80002a4:	2200      	movs	r2, #0
 80002a6:	61da      	str	r2, [r3, #28]
  hspi1.Init.FirstBit = SPI_FIRSTBIT_MSB;
 80002a8:	4b0a      	ldr	r3, [pc, #40]	@ (80002d4 <MX_SPI1_Init+0x64>)
 80002aa:	2200      	movs	r2, #0
 80002ac:	621a      	str	r2, [r3, #32]
  hspi1.Init.TIMode = SPI_TIMODE_DISABLE;
 80002ae:	4b09      	ldr	r3, [pc, #36]	@ (80002d4 <MX_SPI1_Init+0x64>)
 80002b0:	2200      	movs	r2, #0
 80002b2:	625a      	str	r2, [r3, #36]	@ 0x24
  hspi1.Init.CRCCalculation = SPI_CRCCALCULATION_DISABLE;
 80002b4:	4b07      	ldr	r3, [pc, #28]	@ (80002d4 <MX_SPI1_Init+0x64>)
 80002b6:	2200      	movs	r2, #0
 80002b8:	629a      	str	r2, [r3, #40]	@ 0x28
  hspi1.Init.CRCPolynomial = 10;
 80002ba:	4b06      	ldr	r3, [pc, #24]	@ (80002d4 <MX_SPI1_Init+0x64>)
 80002bc:	220a      	movs	r2, #10
 80002be:	62da      	str	r2, [r3, #44]	@ 0x2c
  if (HAL_SPI_Init(&hspi1) != HAL_OK)
 80002c0:	4804      	ldr	r0, [pc, #16]	@ (80002d4 <MX_SPI1_Init+0x64>)
 80002c2:	f001 fa7f 	bl	80017c4 <HAL_SPI_Init>
 80002c6:	4603      	mov	r3, r0
 80002c8:	2b00      	cmp	r3, #0
 80002ca:	d001      	beq.n	80002d0 <MX_SPI1_Init+0x60>
  {
    Error_Handler();
 80002cc:	f000 f8b8 	bl	8000440 <Error_Handler>
  }
  /* USER CODE BEGIN SPI1_Init 2 */

  /* USER CODE END SPI1_Init 2 */

}
 80002d0:	bf00      	nop
 80002d2:	bd80      	pop	{r7, pc}
 80002d4:	2000007c 	.word	0x2000007c
 80002d8:	40013000 	.word	0x40013000

080002dc <MX_USART1_UART_Init>:
  * @brief USART1 Initialization Function
  * @param None
  * @retval None
  */
static void MX_USART1_UART_Init(void)
{
 80002dc:	b580      	push	{r7, lr}
 80002de:	af00      	add	r7, sp, #0
  /* USER CODE END USART1_Init 0 */

  /* USER CODE BEGIN USART1_Init 1 */

  /* USER CODE END USART1_Init 1 */
  huart1.Instance = USART1;
 80002e0:	4b11      	ldr	r3, [pc, #68]	@ (8000328 <MX_USART1_UART_Init+0x4c>)
 80002e2:	4a12      	ldr	r2, [pc, #72]	@ (800032c <MX_USART1_UART_Init+0x50>)
 80002e4:	601a      	str	r2, [r3, #0]
  huart1.Init.BaudRate = 115200;
 80002e6:	4b10      	ldr	r3, [pc, #64]	@ (8000328 <MX_USART1_UART_Init+0x4c>)
 80002e8:	f44f 32e1 	mov.w	r2, #115200	@ 0x1c200
 80002ec:	605a      	str	r2, [r3, #4]
  huart1.Init.WordLength = UART_WORDLENGTH_8B;
 80002ee:	4b0e      	ldr	r3, [pc, #56]	@ (8000328 <MX_USART1_UART_Init+0x4c>)
 80002f0:	2200      	movs	r2, #0
 80002f2:	609a      	str	r2, [r3, #8]
  huart1.Init.StopBits = UART_STOPBITS_1;
 80002f4:	4b0c      	ldr	r3, [pc, #48]	@ (8000328 <MX_USART1_UART_Init+0x4c>)
 80002f6:	2200      	movs	r2, #0
 80002f8:	60da      	str	r2, [r3, #12]
  huart1.Init.Parity = UART_PARITY_NONE;
 80002fa:	4b0b      	ldr	r3, [pc, #44]	@ (8000328 <MX_USART1_UART_Init+0x4c>)
 80002fc:	2200      	movs	r2, #0
 80002fe:	611a      	str	r2, [r3, #16]
  huart1.Init.Mode = UART_MODE_TX_RX;
 8000300:	4b09      	ldr	r3, [pc, #36]	@ (8000328 <MX_USART1_UART_Init+0x4c>)
 8000302:	220c      	movs	r2, #12
 8000304:	615a      	str	r2, [r3, #20]
  huart1.Init.HwFlowCtl = UART_HWCONTROL_NONE;
 8000306:	4b08      	ldr	r3, [pc, #32]	@ (8000328 <MX_USART1_UART_Init+0x4c>)
 8000308:	2200      	movs	r2, #0
 800030a:	619a      	str	r2, [r3, #24]
  huart1.Init.OverSampling = UART_OVERSAMPLING_16;
 800030c:	4b06      	ldr	r3, [pc, #24]	@ (8000328 <MX_USART1_UART_Init+0x4c>)
 800030e:	2200      	movs	r2, #0
 8000310:	61da      	str	r2, [r3, #28]
  if (HAL_UART_Init(&huart1) != HAL_OK)
 8000312:	4805      	ldr	r0, [pc, #20]	@ (8000328 <MX_USART1_UART_Init+0x4c>)
 8000314:	f001 fada 	bl	80018cc <HAL_UART_Init>
 8000318:	4603      	mov	r3, r0
 800031a:	2b00      	cmp	r3, #0
 800031c:	d001      	beq.n	8000322 <MX_USART1_UART_Init+0x46>
  {
    Error_Handler();
 800031e:	f000 f88f 	bl	8000440 <Error_Handler>
  }
  /* USER CODE BEGIN USART1_Init 2 */

  /* USER CODE END USART1_Init 2 */

}
 8000322:	bf00      	nop
 8000324:	bd80      	pop	{r7, pc}
 8000326:	bf00      	nop
 8000328:	200000d4 	.word	0x200000d4
 800032c:	40013800 	.word	0x40013800

08000330 <MX_USART2_UART_Init>:
  * @brief USART2 Initialization Function
  * @param None
  * @retval None
  */
static void MX_USART2_UART_Init(void)
{
 8000330:	b580      	push	{r7, lr}
 8000332:	af00      	add	r7, sp, #0
  /* USER CODE END USART2_Init 0 */

  /* USER CODE BEGIN USART2_Init 1 */

  /* USER CODE END USART2_Init 1 */
  huart2.Instance = USART2;
 8000334:	4b11      	ldr	r3, [pc, #68]	@ (800037c <MX_USART2_UART_Init+0x4c>)
 8000336:	4a12      	ldr	r2, [pc, #72]	@ (8000380 <MX_USART2_UART_Init+0x50>)
 8000338:	601a      	str	r2, [r3, #0]
  huart2.Init.BaudRate = 115200;
 800033a:	4b10      	ldr	r3, [pc, #64]	@ (800037c <MX_USART2_UART_Init+0x4c>)
 800033c:	f44f 32e1 	mov.w	r2, #115200	@ 0x1c200
 8000340:	605a      	str	r2, [r3, #4]
  huart2.Init.WordLength = UART_WORDLENGTH_8B;
 8000342:	4b0e      	ldr	r3, [pc, #56]	@ (800037c <MX_USART2_UART_Init+0x4c>)
 8000344:	2200      	movs	r2, #0
 8000346:	609a      	str	r2, [r3, #8]
  huart2.Init.StopBits = UART_STOPBITS_1;
 8000348:	4b0c      	ldr	r3, [pc, #48]	@ (800037c <MX_USART2_UART_Init+0x4c>)
 800034a:	2200      	movs	r2, #0
 800034c:	60da      	str	r2, [r3, #12]
  huart2.Init.Parity = UART_PARITY_NONE;
 800034e:	4b0b      	ldr	r3, [pc, #44]	@ (800037c <MX_USART2_UART_Init+0x4c>)
 8000350:	2200      	movs	r2, #0
 8000352:	611a      	str	r2, [r3, #16]
  huart2.Init.Mode = UART_MODE_TX_RX;
 8000354:	4b09      	ldr	r3, [pc, #36]	@ (800037c <MX_USART2_UART_Init+0x4c>)
 8000356:	220c      	movs	r2, #12
 8000358:	615a      	str	r2, [r3, #20]
  huart2.Init.HwFlowCtl = UART_HWCONTROL_NONE;
 800035a:	4b08      	ldr	r3, [pc, #32]	@ (800037c <MX_USART2_UART_Init+0x4c>)
 800035c:	2200      	movs	r2, #0
 800035e:	619a      	str	r2, [r3, #24]
  huart2.Init.OverSampling = UART_OVERSAMPLING_16;
 8000360:	4b06      	ldr	r3, [pc, #24]	@ (800037c <MX_USART2_UART_Init+0x4c>)
 8000362:	2200      	movs	r2, #0
 8000364:	61da      	str	r2, [r3, #28]
  if (HAL_HalfDuplex_Init(&huart2) != HAL_OK)
 8000366:	4805      	ldr	r0, [pc, #20]	@ (800037c <MX_USART2_UART_Init+0x4c>)
 8000368:	f001 fb00 	bl	800196c <HAL_HalfDuplex_Init>
 800036c:	4603      	mov	r3, r0
 800036e:	2b00      	cmp	r3, #0
 8000370:	d001      	beq.n	8000376 <MX_USART2_UART_Init+0x46>
  {
    Error_Handler();
 8000372:	f000 f865 	bl	8000440 <Error_Handler>
  }
  /* USER CODE BEGIN USART2_Init 2 */

  /* USER CODE END USART2_Init 2 */

}
 8000376:	bf00      	nop
 8000378:	bd80      	pop	{r7, pc}
 800037a:	bf00      	nop
 800037c:	2000011c 	.word	0x2000011c
 8000380:	40004400 	.word	0x40004400

08000384 <MX_GPIO_Init>:
  * @brief GPIO Initialization Function
  * @param None
  * @retval None
  */
static void MX_GPIO_Init(void)
{
 8000384:	b580      	push	{r7, lr}
 8000386:	b088      	sub	sp, #32
 8000388:	af00      	add	r7, sp, #0
  GPIO_InitTypeDef GPIO_InitStruct = {0};
 800038a:	f107 0310 	add.w	r3, r7, #16
 800038e:	2200      	movs	r2, #0
 8000390:	601a      	str	r2, [r3, #0]
 8000392:	605a      	str	r2, [r3, #4]
 8000394:	609a      	str	r2, [r3, #8]
 8000396:	60da      	str	r2, [r3, #12]
/* USER CODE BEGIN MX_GPIO_Init_1 */
/* USER CODE END MX_GPIO_Init_1 */

  /* GPIO Ports Clock Enable */
  __HAL_RCC_GPIOD_CLK_ENABLE();
 8000398:	4b26      	ldr	r3, [pc, #152]	@ (8000434 <MX_GPIO_Init+0xb0>)
 800039a:	699b      	ldr	r3, [r3, #24]
 800039c:	4a25      	ldr	r2, [pc, #148]	@ (8000434 <MX_GPIO_Init+0xb0>)
 800039e:	f043 0320 	orr.w	r3, r3, #32
 80003a2:	6193      	str	r3, [r2, #24]
 80003a4:	4b23      	ldr	r3, [pc, #140]	@ (8000434 <MX_GPIO_Init+0xb0>)
 80003a6:	699b      	ldr	r3, [r3, #24]
 80003a8:	f003 0320 	and.w	r3, r3, #32
 80003ac:	60fb      	str	r3, [r7, #12]
 80003ae:	68fb      	ldr	r3, [r7, #12]
  __HAL_RCC_GPIOA_CLK_ENABLE();
 80003b0:	4b20      	ldr	r3, [pc, #128]	@ (8000434 <MX_GPIO_Init+0xb0>)
 80003b2:	699b      	ldr	r3, [r3, #24]
 80003b4:	4a1f      	ldr	r2, [pc, #124]	@ (8000434 <MX_GPIO_Init+0xb0>)
 80003b6:	f043 0304 	orr.w	r3, r3, #4
 80003ba:	6193      	str	r3, [r2, #24]
 80003bc:	4b1d      	ldr	r3, [pc, #116]	@ (8000434 <MX_GPIO_Init+0xb0>)
 80003be:	699b      	ldr	r3, [r3, #24]
 80003c0:	f003 0304 	and.w	r3, r3, #4
 80003c4:	60bb      	str	r3, [r7, #8]
 80003c6:	68bb      	ldr	r3, [r7, #8]
  __HAL_RCC_GPIOB_CLK_ENABLE();
 80003c8:	4b1a      	ldr	r3, [pc, #104]	@ (8000434 <MX_GPIO_Init+0xb0>)
 80003ca:	699b      	ldr	r3, [r3, #24]
 80003cc:	4a19      	ldr	r2, [pc, #100]	@ (8000434 <MX_GPIO_Init+0xb0>)
 80003ce:	f043 0308 	orr.w	r3, r3, #8
 80003d2:	6193      	str	r3, [r2, #24]
 80003d4:	4b17      	ldr	r3, [pc, #92]	@ (8000434 <MX_GPIO_Init+0xb0>)
 80003d6:	699b      	ldr	r3, [r3, #24]
 80003d8:	f003 0308 	and.w	r3, r3, #8
 80003dc:	607b      	str	r3, [r7, #4]
 80003de:	687b      	ldr	r3, [r7, #4]

  /*Configure GPIO pin Output Level */
  HAL_GPIO_WritePin(SPI1_CSB_GPIO_Port, SPI1_CSB_Pin, GPIO_PIN_RESET);
 80003e0:	2200      	movs	r2, #0
 80003e2:	2110      	movs	r1, #16
 80003e4:	4814      	ldr	r0, [pc, #80]	@ (8000438 <MX_GPIO_Init+0xb4>)
 80003e6:	f000 fc81 	bl	8000cec <HAL_GPIO_WritePin>

  /*Configure GPIO pin Output Level */
  HAL_GPIO_WritePin(I2C1_CS_GPIO_Port, I2C1_CS_Pin, GPIO_PIN_RESET);
 80003ea:	2200      	movs	r2, #0
 80003ec:	2120      	movs	r1, #32
 80003ee:	4813      	ldr	r0, [pc, #76]	@ (800043c <MX_GPIO_Init+0xb8>)
 80003f0:	f000 fc7c 	bl	8000cec <HAL_GPIO_WritePin>

  /*Configure GPIO pin : SPI1_CSB_Pin */
  GPIO_InitStruct.Pin = SPI1_CSB_Pin;
 80003f4:	2310      	movs	r3, #16
 80003f6:	613b      	str	r3, [r7, #16]
  GPIO_InitStruct.Mode = GPIO_MODE_OUTPUT_PP;
 80003f8:	2301      	movs	r3, #1
 80003fa:	617b      	str	r3, [r7, #20]
  GPIO_InitStruct.Pull = GPIO_NOPULL;
 80003fc:	2300      	movs	r3, #0
 80003fe:	61bb      	str	r3, [r7, #24]
  GPIO_InitStruct.Speed = GPIO_SPEED_FREQ_LOW;
 8000400:	2302      	movs	r3, #2
 8000402:	61fb      	str	r3, [r7, #28]
  HAL_GPIO_Init(SPI1_CSB_GPIO_Port, &GPIO_InitStruct);
 8000404:	f107 0310 	add.w	r3, r7, #16
 8000408:	4619      	mov	r1, r3
 800040a:	480b      	ldr	r0, [pc, #44]	@ (8000438 <MX_GPIO_Init+0xb4>)
 800040c:	f000 faf2 	bl	80009f4 <HAL_GPIO_Init>

  /*Configure GPIO pin : I2C1_CS_Pin */
  GPIO_InitStruct.Pin = I2C1_CS_Pin;
 8000410:	2320      	movs	r3, #32
 8000412:	613b      	str	r3, [r7, #16]
  GPIO_InitStruct.Mode = GPIO_MODE_OUTPUT_PP;
 8000414:	2301      	movs	r3, #1
 8000416:	617b      	str	r3, [r7, #20]
  GPIO_InitStruct.Pull = GPIO_NOPULL;
 8000418:	2300      	movs	r3, #0
 800041a:	61bb      	str	r3, [r7, #24]
  GPIO_InitStruct.Speed = GPIO_SPEED_FREQ_LOW;
 800041c:	2302      	movs	r3, #2
 800041e:	61fb      	str	r3, [r7, #28]
  HAL_GPIO_Init(I2C1_CS_GPIO_Port, &GPIO_InitStruct);
 8000420:	f107 0310 	add.w	r3, r7, #16
 8000424:	4619      	mov	r1, r3
 8000426:	4805      	ldr	r0, [pc, #20]	@ (800043c <MX_GPIO_Init+0xb8>)
 8000428:	f000 fae4 	bl	80009f4 <HAL_GPIO_Init>

/* USER CODE BEGIN MX_GPIO_Init_2 */
/* USER CODE END MX_GPIO_Init_2 */
}
 800042c:	bf00      	nop
 800042e:	3720      	adds	r7, #32
 8000430:	46bd      	mov	sp, r7
 8000432:	bd80      	pop	{r7, pc}
 8000434:	40021000 	.word	0x40021000
 8000438:	40010800 	.word	0x40010800
 800043c:	40010c00 	.word	0x40010c00

08000440 <Error_Handler>:
/**
  * @brief  This function is executed in case of error occurrence.
  * @retval None
  */
void Error_Handler(void)
{
 8000440:	b480      	push	{r7}
 8000442:	af00      	add	r7, sp, #0
  \details Disables IRQ interrupts by setting the I-bit in the CPSR.
           Can only be executed in Privileged modes.
 */
__STATIC_FORCEINLINE void __disable_irq(void)
{
  __ASM volatile ("cpsid i" : : : "memory");
 8000444:	b672      	cpsid	i
}
 8000446:	bf00      	nop
  /* USER CODE BEGIN Error_Handler_Debug */
  /* User can add his own implementation to report the HAL error return state */
  __disable_irq();
  while (1)
 8000448:	bf00      	nop
 800044a:	e7fd      	b.n	8000448 <Error_Handler+0x8>

0800044c <HAL_MspInit>:
/* USER CODE END 0 */
/**
  * Initializes the Global MSP.
  */
void HAL_MspInit(void)
{
 800044c:	b480      	push	{r7}
 800044e:	b085      	sub	sp, #20
 8000450:	af00      	add	r7, sp, #0

  /* USER CODE BEGIN MspInit 0 */

  /* USER CODE END MspInit 0 */

  __HAL_RCC_AFIO_CLK_ENABLE();
 8000452:	4b15      	ldr	r3, [pc, #84]	@ (80004a8 <HAL_MspInit+0x5c>)
 8000454:	699b      	ldr	r3, [r3, #24]
 8000456:	4a14      	ldr	r2, [pc, #80]	@ (80004a8 <HAL_MspInit+0x5c>)
 8000458:	f043 0301 	orr.w	r3, r3, #1
 800045c:	6193      	str	r3, [r2, #24]
 800045e:	4b12      	ldr	r3, [pc, #72]	@ (80004a8 <HAL_MspInit+0x5c>)
 8000460:	699b      	ldr	r3, [r3, #24]
 8000462:	f003 0301 	and.w	r3, r3, #1
 8000466:	60bb      	str	r3, [r7, #8]
 8000468:	68bb      	ldr	r3, [r7, #8]
  __HAL_RCC_PWR_CLK_ENABLE();
 800046a:	4b0f      	ldr	r3, [pc, #60]	@ (80004a8 <HAL_MspInit+0x5c>)
 800046c:	69db      	ldr	r3, [r3, #28]
 800046e:	4a0e      	ldr	r2, [pc, #56]	@ (80004a8 <HAL_MspInit+0x5c>)
 8000470:	f043 5380 	orr.w	r3, r3, #268435456	@ 0x10000000
 8000474:	61d3      	str	r3, [r2, #28]
 8000476:	4b0c      	ldr	r3, [pc, #48]	@ (80004a8 <HAL_MspInit+0x5c>)
 8000478:	69db      	ldr	r3, [r3, #28]
 800047a:	f003 5380 	and.w	r3, r3, #268435456	@ 0x10000000
 800047e:	607b      	str	r3, [r7, #4]
 8000480:	687b      	ldr	r3, [r7, #4]

  /* System interrupt init*/

  /** NOJTAG: JTAG-DP Disabled and SW-DP Enabled
  */
  __HAL_AFIO_REMAP_SWJ_NOJTAG();
 8000482:	4b0a      	ldr	r3, [pc, #40]	@ (80004ac <HAL_MspInit+0x60>)
 8000484:	685b      	ldr	r3, [r3, #4]
 8000486:	60fb      	str	r3, [r7, #12]
 8000488:	68fb      	ldr	r3, [r7, #12]
 800048a:	f023 63e0 	bic.w	r3, r3, #117440512	@ 0x7000000
 800048e:	60fb      	str	r3, [r7, #12]
 8000490:	68fb      	ldr	r3, [r7, #12]
 8000492:	f043 7300 	orr.w	r3, r3, #33554432	@ 0x2000000
 8000496:	60fb      	str	r3, [r7, #12]
 8000498:	4a04      	ldr	r2, [pc, #16]	@ (80004ac <HAL_MspInit+0x60>)
 800049a:	68fb      	ldr	r3, [r7, #12]
 800049c:	6053      	str	r3, [r2, #4]

  /* USER CODE BEGIN MspInit 1 */

  /* USER CODE END MspInit 1 */
}
 800049e:	bf00      	nop
 80004a0:	3714      	adds	r7, #20
 80004a2:	46bd      	mov	sp, r7
 80004a4:	bc80      	pop	{r7}
 80004a6:	4770      	bx	lr
 80004a8:	40021000 	.word	0x40021000
 80004ac:	40010000 	.word	0x40010000

080004b0 <HAL_I2C_MspInit>:
* This function configures the hardware resources used in this example
* @param hi2c: I2C handle pointer
* @retval None
*/
void HAL_I2C_MspInit(I2C_HandleTypeDef* hi2c)
{
 80004b0:	b580      	push	{r7, lr}
 80004b2:	b088      	sub	sp, #32
 80004b4:	af00      	add	r7, sp, #0
 80004b6:	6078      	str	r0, [r7, #4]
  GPIO_InitTypeDef GPIO_InitStruct = {0};
 80004b8:	f107 0310 	add.w	r3, r7, #16
 80004bc:	2200      	movs	r2, #0
 80004be:	601a      	str	r2, [r3, #0]
 80004c0:	605a      	str	r2, [r3, #4]
 80004c2:	609a      	str	r2, [r3, #8]
 80004c4:	60da      	str	r2, [r3, #12]
  if(hi2c->Instance==I2C1)
 80004c6:	687b      	ldr	r3, [r7, #4]
 80004c8:	681b      	ldr	r3, [r3, #0]
 80004ca:	4a16      	ldr	r2, [pc, #88]	@ (8000524 <HAL_I2C_MspInit+0x74>)
 80004cc:	4293      	cmp	r3, r2
 80004ce:	d125      	bne.n	800051c <HAL_I2C_MspInit+0x6c>
  {
  /* USER CODE BEGIN I2C1_MspInit 0 */

  /* USER CODE END I2C1_MspInit 0 */

    __HAL_RCC_GPIOB_CLK_ENABLE();
 80004d0:	4b15      	ldr	r3, [pc, #84]	@ (8000528 <HAL_I2C_MspInit+0x78>)
 80004d2:	699b      	ldr	r3, [r3, #24]
 80004d4:	4a14      	ldr	r2, [pc, #80]	@ (8000528 <HAL_I2C_MspInit+0x78>)
 80004d6:	f043 0308 	orr.w	r3, r3, #8
 80004da:	6193      	str	r3, [r2, #24]
 80004dc:	4b12      	ldr	r3, [pc, #72]	@ (8000528 <HAL_I2C_MspInit+0x78>)
 80004de:	699b      	ldr	r3, [r3, #24]
 80004e0:	f003 0308 	and.w	r3, r3, #8
 80004e4:	60fb      	str	r3, [r7, #12]
 80004e6:	68fb      	ldr	r3, [r7, #12]
    /**I2C1 GPIO Configuration
    PB6     ------> I2C1_SCL
    PB7     ------> I2C1_SDA
    */
    GPIO_InitStruct.Pin = GPIO_PIN_6|GPIO_PIN_7;
 80004e8:	23c0      	movs	r3, #192	@ 0xc0
 80004ea:	613b      	str	r3, [r7, #16]
    GPIO_InitStruct.Mode = GPIO_MODE_AF_OD;
 80004ec:	2312      	movs	r3, #18
 80004ee:	617b      	str	r3, [r7, #20]
    GPIO_InitStruct.Pull = GPIO_NOPULL;
 80004f0:	2300      	movs	r3, #0
 80004f2:	61bb      	str	r3, [r7, #24]
    GPIO_InitStruct.Speed = GPIO_SPEED_FREQ_HIGH;
 80004f4:	2303      	movs	r3, #3
 80004f6:	61fb      	str	r3, [r7, #28]
    HAL_GPIO_Init(GPIOB, &GPIO_InitStruct);
 80004f8:	f107 0310 	add.w	r3, r7, #16
 80004fc:	4619      	mov	r1, r3
 80004fe:	480b      	ldr	r0, [pc, #44]	@ (800052c <HAL_I2C_MspInit+0x7c>)
 8000500:	f000 fa78 	bl	80009f4 <HAL_GPIO_Init>

    /* Peripheral clock enable */
    __HAL_RCC_I2C1_CLK_ENABLE();
 8000504:	4b08      	ldr	r3, [pc, #32]	@ (8000528 <HAL_I2C_MspInit+0x78>)
 8000506:	69db      	ldr	r3, [r3, #28]
 8000508:	4a07      	ldr	r2, [pc, #28]	@ (8000528 <HAL_I2C_MspInit+0x78>)
 800050a:	f443 1300 	orr.w	r3, r3, #2097152	@ 0x200000
 800050e:	61d3      	str	r3, [r2, #28]
 8000510:	4b05      	ldr	r3, [pc, #20]	@ (8000528 <HAL_I2C_MspInit+0x78>)
 8000512:	69db      	ldr	r3, [r3, #28]
 8000514:	f403 1300 	and.w	r3, r3, #2097152	@ 0x200000
 8000518:	60bb      	str	r3, [r7, #8]
 800051a:	68bb      	ldr	r3, [r7, #8]
  /* USER CODE BEGIN I2C1_MspInit 1 */

  /* USER CODE END I2C1_MspInit 1 */
  }

}
 800051c:	bf00      	nop
 800051e:	3720      	adds	r7, #32
 8000520:	46bd      	mov	sp, r7
 8000522:	bd80      	pop	{r7, pc}
 8000524:	40005400 	.word	0x40005400
 8000528:	40021000 	.word	0x40021000
 800052c:	40010c00 	.word	0x40010c00

08000530 <HAL_SPI_MspInit>:
* This function configures the hardware resources used in this example
* @param hspi: SPI handle pointer
* @retval None
*/
void HAL_SPI_MspInit(SPI_HandleTypeDef* hspi)
{
 8000530:	b580      	push	{r7, lr}
 8000532:	b088      	sub	sp, #32
 8000534:	af00      	add	r7, sp, #0
 8000536:	6078      	str	r0, [r7, #4]
  GPIO_InitTypeDef GPIO_InitStruct = {0};
 8000538:	f107 0310 	add.w	r3, r7, #16
 800053c:	2200      	movs	r2, #0
 800053e:	601a      	str	r2, [r3, #0]
 8000540:	605a      	str	r2, [r3, #4]
 8000542:	609a      	str	r2, [r3, #8]
 8000544:	60da      	str	r2, [r3, #12]
  if(hspi->Instance==SPI1)
 8000546:	687b      	ldr	r3, [r7, #4]
 8000548:	681b      	ldr	r3, [r3, #0]
 800054a:	4a1b      	ldr	r2, [pc, #108]	@ (80005b8 <HAL_SPI_MspInit+0x88>)
 800054c:	4293      	cmp	r3, r2
 800054e:	d12f      	bne.n	80005b0 <HAL_SPI_MspInit+0x80>
  {
  /* USER CODE BEGIN SPI1_MspInit 0 */

  /* USER CODE END SPI1_MspInit 0 */
    /* Peripheral clock enable */
    __HAL_RCC_SPI1_CLK_ENABLE();
 8000550:	4b1a      	ldr	r3, [pc, #104]	@ (80005bc <HAL_SPI_MspInit+0x8c>)
 8000552:	699b      	ldr	r3, [r3, #24]
 8000554:	4a19      	ldr	r2, [pc, #100]	@ (80005bc <HAL_SPI_MspInit+0x8c>)
 8000556:	f443 5380 	orr.w	r3, r3, #4096	@ 0x1000
 800055a:	6193      	str	r3, [r2, #24]
 800055c:	4b17      	ldr	r3, [pc, #92]	@ (80005bc <HAL_SPI_MspInit+0x8c>)
 800055e:	699b      	ldr	r3, [r3, #24]
 8000560:	f403 5380 	and.w	r3, r3, #4096	@ 0x1000
 8000564:	60fb      	str	r3, [r7, #12]
 8000566:	68fb      	ldr	r3, [r7, #12]

    __HAL_RCC_GPIOA_CLK_ENABLE();
 8000568:	4b14      	ldr	r3, [pc, #80]	@ (80005bc <HAL_SPI_MspInit+0x8c>)
 800056a:	699b      	ldr	r3, [r3, #24]
 800056c:	4a13      	ldr	r2, [pc, #76]	@ (80005bc <HAL_SPI_MspInit+0x8c>)
 800056e:	f043 0304 	orr.w	r3, r3, #4
 8000572:	6193      	str	r3, [r2, #24]
 8000574:	4b11      	ldr	r3, [pc, #68]	@ (80005bc <HAL_SPI_MspInit+0x8c>)
 8000576:	699b      	ldr	r3, [r3, #24]
 8000578:	f003 0304 	and.w	r3, r3, #4
 800057c:	60bb      	str	r3, [r7, #8]
 800057e:	68bb      	ldr	r3, [r7, #8]
    /**SPI1 GPIO Configuration
    PA5     ------> SPI1_SCK
    PA6     ------> SPI1_MISO
    PA7     ------> SPI1_MOSI
    */
    GPIO_InitStruct.Pin = GPIO_PIN_5|GPIO_PIN_7;
 8000580:	23a0      	movs	r3, #160	@ 0xa0
 8000582:	613b      	str	r3, [r7, #16]
    GPIO_InitStruct.Mode = GPIO_MODE_AF_PP;
 8000584:	2302      	movs	r3, #2
 8000586:	617b      	str	r3, [r7, #20]
    GPIO_InitStruct.Speed = GPIO_SPEED_FREQ_HIGH;
 8000588:	2303      	movs	r3, #3
 800058a:	61fb      	str	r3, [r7, #28]
    HAL_GPIO_Init(GPIOA, &GPIO_InitStruct);
 800058c:	f107 0310 	add.w	r3, r7, #16
 8000590:	4619      	mov	r1, r3
 8000592:	480b      	ldr	r0, [pc, #44]	@ (80005c0 <HAL_SPI_MspInit+0x90>)
 8000594:	f000 fa2e 	bl	80009f4 <HAL_GPIO_Init>

    GPIO_InitStruct.Pin = GPIO_PIN_6;
 8000598:	2340      	movs	r3, #64	@ 0x40
 800059a:	613b      	str	r3, [r7, #16]
    GPIO_InitStruct.Mode = GPIO_MODE_INPUT;
 800059c:	2300      	movs	r3, #0
 800059e:	617b      	str	r3, [r7, #20]
    GPIO_InitStruct.Pull = GPIO_NOPULL;
 80005a0:	2300      	movs	r3, #0
 80005a2:	61bb      	str	r3, [r7, #24]
    HAL_GPIO_Init(GPIOA, &GPIO_InitStruct);
 80005a4:	f107 0310 	add.w	r3, r7, #16
 80005a8:	4619      	mov	r1, r3
 80005aa:	4805      	ldr	r0, [pc, #20]	@ (80005c0 <HAL_SPI_MspInit+0x90>)
 80005ac:	f000 fa22 	bl	80009f4 <HAL_GPIO_Init>
  /* USER CODE BEGIN SPI1_MspInit 1 */

  /* USER CODE END SPI1_MspInit 1 */
  }

}
 80005b0:	bf00      	nop
 80005b2:	3720      	adds	r7, #32
 80005b4:	46bd      	mov	sp, r7
 80005b6:	bd80      	pop	{r7, pc}
 80005b8:	40013000 	.word	0x40013000
 80005bc:	40021000 	.word	0x40021000
 80005c0:	40010800 	.word	0x40010800

080005c4 <HAL_UART_MspInit>:
* This function configures the hardware resources used in this example
* @param huart: UART handle pointer
* @retval None
*/
void HAL_UART_MspInit(UART_HandleTypeDef* huart)
{
 80005c4:	b580      	push	{r7, lr}
 80005c6:	b08a      	sub	sp, #40	@ 0x28
 80005c8:	af00      	add	r7, sp, #0
 80005ca:	6078      	str	r0, [r7, #4]
  GPIO_InitTypeDef GPIO_InitStruct = {0};
 80005cc:	f107 0318 	add.w	r3, r7, #24
 80005d0:	2200      	movs	r2, #0
 80005d2:	601a      	str	r2, [r3, #0]
 80005d4:	605a      	str	r2, [r3, #4]
 80005d6:	609a      	str	r2, [r3, #8]
 80005d8:	60da      	str	r2, [r3, #12]
  if(huart->Instance==USART1)
 80005da:	687b      	ldr	r3, [r7, #4]
 80005dc:	681b      	ldr	r3, [r3, #0]
 80005de:	4a32      	ldr	r2, [pc, #200]	@ (80006a8 <HAL_UART_MspInit+0xe4>)
 80005e0:	4293      	cmp	r3, r2
 80005e2:	d132      	bne.n	800064a <HAL_UART_MspInit+0x86>
  {
  /* USER CODE BEGIN USART1_MspInit 0 */

  /* USER CODE END USART1_MspInit 0 */
    /* Peripheral clock enable */
    __HAL_RCC_USART1_CLK_ENABLE();
 80005e4:	4b31      	ldr	r3, [pc, #196]	@ (80006ac <HAL_UART_MspInit+0xe8>)
 80005e6:	699b      	ldr	r3, [r3, #24]
 80005e8:	4a30      	ldr	r2, [pc, #192]	@ (80006ac <HAL_UART_MspInit+0xe8>)
 80005ea:	f443 4380 	orr.w	r3, r3, #16384	@ 0x4000
 80005ee:	6193      	str	r3, [r2, #24]
 80005f0:	4b2e      	ldr	r3, [pc, #184]	@ (80006ac <HAL_UART_MspInit+0xe8>)
 80005f2:	699b      	ldr	r3, [r3, #24]
 80005f4:	f403 4380 	and.w	r3, r3, #16384	@ 0x4000
 80005f8:	617b      	str	r3, [r7, #20]
 80005fa:	697b      	ldr	r3, [r7, #20]

    __HAL_RCC_GPIOA_CLK_ENABLE();
 80005fc:	4b2b      	ldr	r3, [pc, #172]	@ (80006ac <HAL_UART_MspInit+0xe8>)
 80005fe:	699b      	ldr	r3, [r3, #24]
 8000600:	4a2a      	ldr	r2, [pc, #168]	@ (80006ac <HAL_UART_MspInit+0xe8>)
 8000602:	f043 0304 	orr.w	r3, r3, #4
 8000606:	6193      	str	r3, [r2, #24]
 8000608:	4b28      	ldr	r3, [pc, #160]	@ (80006ac <HAL_UART_MspInit+0xe8>)
 800060a:	699b      	ldr	r3, [r3, #24]
 800060c:	f003 0304 	and.w	r3, r3, #4
 8000610:	613b      	str	r3, [r7, #16]
 8000612:	693b      	ldr	r3, [r7, #16]
    /**USART1 GPIO Configuration
    PA9     ------> USART1_TX
    PA10     ------> USART1_RX
    */
    GPIO_InitStruct.Pin = GPIO_PIN_9;
 8000614:	f44f 7300 	mov.w	r3, #512	@ 0x200
 8000618:	61bb      	str	r3, [r7, #24]
    GPIO_InitStruct.Mode = GPIO_MODE_AF_PP;
 800061a:	2302      	movs	r3, #2
 800061c:	61fb      	str	r3, [r7, #28]
    GPIO_InitStruct.Speed = GPIO_SPEED_FREQ_HIGH;
 800061e:	2303      	movs	r3, #3
 8000620:	627b      	str	r3, [r7, #36]	@ 0x24
    HAL_GPIO_Init(GPIOA, &GPIO_InitStruct);
 8000622:	f107 0318 	add.w	r3, r7, #24
 8000626:	4619      	mov	r1, r3
 8000628:	4821      	ldr	r0, [pc, #132]	@ (80006b0 <HAL_UART_MspInit+0xec>)
 800062a:	f000 f9e3 	bl	80009f4 <HAL_GPIO_Init>

    GPIO_InitStruct.Pin = GPIO_PIN_10;
 800062e:	f44f 6380 	mov.w	r3, #1024	@ 0x400
 8000632:	61bb      	str	r3, [r7, #24]
    GPIO_InitStruct.Mode = GPIO_MODE_INPUT;
 8000634:	2300      	movs	r3, #0
 8000636:	61fb      	str	r3, [r7, #28]
    GPIO_InitStruct.Pull = GPIO_NOPULL;
 8000638:	2300      	movs	r3, #0
 800063a:	623b      	str	r3, [r7, #32]
    HAL_GPIO_Init(GPIOA, &GPIO_InitStruct);
 800063c:	f107 0318 	add.w	r3, r7, #24
 8000640:	4619      	mov	r1, r3
 8000642:	481b      	ldr	r0, [pc, #108]	@ (80006b0 <HAL_UART_MspInit+0xec>)
 8000644:	f000 f9d6 	bl	80009f4 <HAL_GPIO_Init>
  /* USER CODE BEGIN USART2_MspInit 1 */

  /* USER CODE END USART2_MspInit 1 */
  }

}
 8000648:	e02a      	b.n	80006a0 <HAL_UART_MspInit+0xdc>
  else if(huart->Instance==USART2)
 800064a:	687b      	ldr	r3, [r7, #4]
 800064c:	681b      	ldr	r3, [r3, #0]
 800064e:	4a19      	ldr	r2, [pc, #100]	@ (80006b4 <HAL_UART_MspInit+0xf0>)
 8000650:	4293      	cmp	r3, r2
 8000652:	d125      	bne.n	80006a0 <HAL_UART_MspInit+0xdc>
    __HAL_RCC_USART2_CLK_ENABLE();
 8000654:	4b15      	ldr	r3, [pc, #84]	@ (80006ac <HAL_UART_MspInit+0xe8>)
 8000656:	69db      	ldr	r3, [r3, #28]
 8000658:	4a14      	ldr	r2, [pc, #80]	@ (80006ac <HAL_UART_MspInit+0xe8>)
 800065a:	f443 3300 	orr.w	r3, r3, #131072	@ 0x20000
 800065e:	61d3      	str	r3, [r2, #28]
 8000660:	4b12      	ldr	r3, [pc, #72]	@ (80006ac <HAL_UART_MspInit+0xe8>)
 8000662:	69db      	ldr	r3, [r3, #28]
 8000664:	f403 3300 	and.w	r3, r3, #131072	@ 0x20000
 8000668:	60fb      	str	r3, [r7, #12]
 800066a:	68fb      	ldr	r3, [r7, #12]
    __HAL_RCC_GPIOA_CLK_ENABLE();
 800066c:	4b0f      	ldr	r3, [pc, #60]	@ (80006ac <HAL_UART_MspInit+0xe8>)
 800066e:	699b      	ldr	r3, [r3, #24]
 8000670:	4a0e      	ldr	r2, [pc, #56]	@ (80006ac <HAL_UART_MspInit+0xe8>)
 8000672:	f043 0304 	orr.w	r3, r3, #4
 8000676:	6193      	str	r3, [r2, #24]
 8000678:	4b0c      	ldr	r3, [pc, #48]	@ (80006ac <HAL_UART_MspInit+0xe8>)
 800067a:	699b      	ldr	r3, [r3, #24]
 800067c:	f003 0304 	and.w	r3, r3, #4
 8000680:	60bb      	str	r3, [r7, #8]
 8000682:	68bb      	ldr	r3, [r7, #8]
    GPIO_InitStruct.Pin = GPIO_PIN_2;
 8000684:	2304      	movs	r3, #4
 8000686:	61bb      	str	r3, [r7, #24]
    GPIO_InitStruct.Mode = GPIO_MODE_AF_OD;
 8000688:	2312      	movs	r3, #18
 800068a:	61fb      	str	r3, [r7, #28]
    GPIO_InitStruct.Pull = GPIO_PULLUP;
 800068c:	2301      	movs	r3, #1
 800068e:	623b      	str	r3, [r7, #32]
    GPIO_InitStruct.Speed = GPIO_SPEED_FREQ_HIGH;
 8000690:	2303      	movs	r3, #3
 8000692:	627b      	str	r3, [r7, #36]	@ 0x24
    HAL_GPIO_Init(GPIOA, &GPIO_InitStruct);
 8000694:	f107 0318 	add.w	r3, r7, #24
 8000698:	4619      	mov	r1, r3
 800069a:	4805      	ldr	r0, [pc, #20]	@ (80006b0 <HAL_UART_MspInit+0xec>)
 800069c:	f000 f9aa 	bl	80009f4 <HAL_GPIO_Init>
}
 80006a0:	bf00      	nop
 80006a2:	3728      	adds	r7, #40	@ 0x28
 80006a4:	46bd      	mov	sp, r7
 80006a6:	bd80      	pop	{r7, pc}
 80006a8:	40013800 	.word	0x40013800
 80006ac:	40021000 	.word	0x40021000
 80006b0:	40010800 	.word	0x40010800
 80006b4:	40004400 	.word	0x40004400

080006b8 <NMI_Handler>:
/******************************************************************************/
/**
  * @brief This function handles Non maskable interrupt.
  */
void NMI_Handler(void)
{
 80006b8:	b480      	push	{r7}
 80006ba:	af00      	add	r7, sp, #0
  /* USER CODE BEGIN NonMaskableInt_IRQn 0 */

  /* USER CODE END NonMaskableInt_IRQn 0 */
  /* USER CODE BEGIN NonMaskableInt_IRQn 1 */
   while (1)
 80006bc:	bf00      	nop
 80006be:	e7fd      	b.n	80006bc <NMI_Handler+0x4>

080006c0 <HardFault_Handler>:

/**
  * @brief This function handles Hard fault interrupt.
  */
void HardFault_Handler(void)
{
 80006c0:	b480      	push	{r7}
 80006c2:	af00      	add	r7, sp, #0
  /* USER CODE BEGIN HardFault_IRQn 0 */

  /* USER CODE END HardFault_IRQn 0 */
  while (1)
 80006c4:	bf00      	nop
 80006c6:	e7fd      	b.n	80006c4 <HardFault_Handler+0x4>

080006c8 <MemManage_Handler>:

/**
  * @brief This function handles Memory management fault.
  */
void MemManage_Handler(void)
{
 80006c8:	b480      	push	{r7}
 80006ca:	af00      	add	r7, sp, #0
  /* USER CODE BEGIN MemoryManagement_IRQn 0 */

  /* USER CODE END MemoryManagement_IRQn 0 */
  while (1)
 80006cc:	bf00      	nop
 80006ce:	e7fd      	b.n	80006cc <MemManage_Handler+0x4>

080006d0 <BusFault_Handler>:

/**
  * @brief This function handles Prefetch fault, memory access fault.
  */
void BusFault_Handler(void)
{
 80006d0:	b480      	push	{r7}
 80006d2:	af00      	add	r7, sp, #0
  /* USER CODE BEGIN BusFault_IRQn 0 */

  /* USER CODE END BusFault_IRQn 0 */
  while (1)
 80006d4:	bf00      	nop
 80006d6:	e7fd      	b.n	80006d4 <BusFault_Handler+0x4>

080006d8 <UsageFault_Handler>:

/**
  * @brief This function handles Undefined instruction or illegal state.
  */
void UsageFault_Handler(void)
{
 80006d8:	b480      	push	{r7}
 80006da:	af00      	add	r7, sp, #0
  /* USER CODE BEGIN UsageFault_IRQn 0 */

  /* USER CODE END UsageFault_IRQn 0 */
  while (1)
 80006dc:	bf00      	nop
 80006de:	e7fd      	b.n	80006dc <UsageFault_Handler+0x4>

080006e0 <SVC_Handler>:

/**
  * @brief This function handles System service call via SWI instruction.
  */
void SVC_Handler(void)
{
 80006e0:	b480      	push	{r7}
 80006e2:	af00      	add	r7, sp, #0

  /* USER CODE END SVCall_IRQn 0 */
  /* USER CODE BEGIN SVCall_IRQn 1 */

  /* USER CODE END SVCall_IRQn 1 */
}
 80006e4:	bf00      	nop
 80006e6:	46bd      	mov	sp, r7
 80006e8:	bc80      	pop	{r7}
 80006ea:	4770      	bx	lr

080006ec <DebugMon_Handler>:

/**
  * @brief This function handles Debug monitor.
  */
void DebugMon_Handler(void)
{
 80006ec:	b480      	push	{r7}
 80006ee:	af00      	add	r7, sp, #0

  /* USER CODE END DebugMonitor_IRQn 0 */
  /* USER CODE BEGIN DebugMonitor_IRQn 1 */

  /* USER CODE END DebugMonitor_IRQn 1 */
}
 80006f0:	bf00      	nop
 80006f2:	46bd      	mov	sp, r7
 80006f4:	bc80      	pop	{r7}
 80006f6:	4770      	bx	lr

080006f8 <PendSV_Handler>:

/**
  * @brief This function handles Pendable request for system service.
  */
void PendSV_Handler(void)
{
 80006f8:	b480      	push	{r7}
 80006fa:	af00      	add	r7, sp, #0

  /* USER CODE END PendSV_IRQn 0 */
  /* USER CODE BEGIN PendSV_IRQn 1 */

  /* USER CODE END PendSV_IRQn 1 */
}
 80006fc:	bf00      	nop
 80006fe:	46bd      	mov	sp, r7
 8000700:	bc80      	pop	{r7}
 8000702:	4770      	bx	lr

08000704 <SysTick_Handler>:

/**
  * @brief This function handles System tick timer.
  */
void SysTick_Handler(void)
{
 8000704:	b580      	push	{r7, lr}
 8000706:	af00      	add	r7, sp, #0
  /* USER CODE BEGIN SysTick_IRQn 0 */

  /* USER CODE END SysTick_IRQn 0 */
  HAL_IncTick();
 8000708:	f000 f874 	bl	80007f4 <HAL_IncTick>
  /* USER CODE BEGIN SysTick_IRQn 1 */

  /* USER CODE END SysTick_IRQn 1 */
}
 800070c:	bf00      	nop
 800070e:	bd80      	pop	{r7, pc}

08000710 <SystemInit>:
  * @note   This function should be used only after reset.
  * @param  None
  * @retval None
  */
void SystemInit (void)
{
 8000710:	b480      	push	{r7}
 8000712:	af00      	add	r7, sp, #0

  /* Configure the Vector Table location -------------------------------------*/
#if defined(USER_VECT_TAB_ADDRESS)
  SCB->VTOR = VECT_TAB_BASE_ADDRESS | VECT_TAB_OFFSET; /* Vector Table Relocation in Internal SRAM. */
#endif /* USER_VECT_TAB_ADDRESS */
}
 8000714:	bf00      	nop
 8000716:	46bd      	mov	sp, r7
 8000718:	bc80      	pop	{r7}
 800071a:	4770      	bx	lr

0800071c <Reset_Handler>:
 800071c:	f7ff fff8 	bl	8000710 <SystemInit>
 8000720:	480b      	ldr	r0, [pc, #44]	@ (8000750 <LoopFillZerobss+0xe>)
 8000722:	490c      	ldr	r1, [pc, #48]	@ (8000754 <LoopFillZerobss+0x12>)
 8000724:	4a0c      	ldr	r2, [pc, #48]	@ (8000758 <LoopFillZerobss+0x16>)
 8000726:	2300      	movs	r3, #0
 8000728:	e002      	b.n	8000730 <LoopCopyDataInit>

0800072a <CopyDataInit>:
 800072a:	58d4      	ldr	r4, [r2, r3]
 800072c:	50c4      	str	r4, [r0, r3]
 800072e:	3304      	adds	r3, #4

08000730 <LoopCopyDataInit>:
 8000730:	18c4      	adds	r4, r0, r3
 8000732:	428c      	cmp	r4, r1
 8000734:	d3f9      	bcc.n	800072a <CopyDataInit>
 8000736:	4a09      	ldr	r2, [pc, #36]	@ (800075c <LoopFillZerobss+0x1a>)
 8000738:	4c09      	ldr	r4, [pc, #36]	@ (8000760 <LoopFillZerobss+0x1e>)
 800073a:	2300      	movs	r3, #0
 800073c:	e001      	b.n	8000742 <LoopFillZerobss>

0800073e <FillZerobss>:
 800073e:	6013      	str	r3, [r2, #0]
 8000740:	3204      	adds	r2, #4

08000742 <LoopFillZerobss>:
 8000742:	42a2      	cmp	r2, r4
 8000744:	d3fb      	bcc.n	800073e <FillZerobss>
 8000746:	f001 faf1 	bl	8001d2c <__libc_init_array>
 800074a:	f7ff fcff 	bl	800014c <main>
 800074e:	4770      	bx	lr
 8000750:	20000000 	.word	0x20000000
 8000754:	2000000c 	.word	0x2000000c
 8000758:	08001dd4 	.word	0x08001dd4
 800075c:	2000000c 	.word	0x2000000c
 8000760:	20000168 	.word	0x20000168

08000764 <ADC1_2_IRQHandler>:
 8000764:	e7fe      	b.n	8000764 <ADC1_2_IRQHandler>
	...

08000768 <HAL_Init>:
  *         need to ensure that the SysTick time base is always set to 1 millisecond
  *         to have correct HAL operation.
  * @retval HAL status
  */
HAL_StatusTypeDef HAL_Init(void)
{
 8000768:	b580      	push	{r7, lr}
 800076a:	af00      	add	r7, sp, #0
    defined(STM32F102x6) || defined(STM32F102xB) || \
    defined(STM32F103x6) || defined(STM32F103xB) || defined(STM32F103xE) || defined(STM32F103xG) || \
    defined(STM32F105xC) || defined(STM32F107xC)

  /* Prefetch buffer is not available on value line devices */
  __HAL_FLASH_PREFETCH_BUFFER_ENABLE();
 800076c:	4b08      	ldr	r3, [pc, #32]	@ (8000790 <HAL_Init+0x28>)
 800076e:	681b      	ldr	r3, [r3, #0]
 8000770:	4a07      	ldr	r2, [pc, #28]	@ (8000790 <HAL_Init+0x28>)
 8000772:	f043 0310 	orr.w	r3, r3, #16
 8000776:	6013      	str	r3, [r2, #0]
#endif
#endif /* PREFETCH_ENABLE */

  /* Set Interrupt Group Priority */
  HAL_NVIC_SetPriorityGrouping(NVIC_PRIORITYGROUP_4);
 8000778:	2003      	movs	r0, #3
 800077a:	f000 f907 	bl	800098c <HAL_NVIC_SetPriorityGrouping>

  /* Use systick as time base source and configure 1ms tick (default clock after Reset is HSI) */
  HAL_InitTick(TICK_INT_PRIORITY);
 800077e:	200f      	movs	r0, #15
 8000780:	f000 f808 	bl	8000794 <HAL_InitTick>

  /* Init the low level hardware */
  HAL_MspInit();
 8000784:	f7ff fe62 	bl	800044c <HAL_MspInit>

  /* Return function status */
  return HAL_OK;
 8000788:	2300      	movs	r3, #0
}
 800078a:	4618      	mov	r0, r3
 800078c:	bd80      	pop	{r7, pc}
 800078e:	bf00      	nop
 8000790:	40022000 	.word	0x40022000

08000794 <HAL_InitTick>:
  *       implementation  in user file.
  * @param TickPriority Tick interrupt priority.
  * @retval HAL status
  */
__weak HAL_StatusTypeDef HAL_InitTick(uint32_t TickPriority)
{
 8000794:	b580      	push	{r7, lr}
 8000796:	b082      	sub	sp, #8
 8000798:	af00      	add	r7, sp, #0
 800079a:	6078      	str	r0, [r7, #4]
  /* Configure the SysTick to have interrupt in 1ms time basis*/
  if (HAL_SYSTICK_Config(SystemCoreClock / (1000U / uwTickFreq)) > 0U)
 800079c:	4b12      	ldr	r3, [pc, #72]	@ (80007e8 <HAL_InitTick+0x54>)
 800079e:	681a      	ldr	r2, [r3, #0]
 80007a0:	4b12      	ldr	r3, [pc, #72]	@ (80007ec <HAL_InitTick+0x58>)
 80007a2:	781b      	ldrb	r3, [r3, #0]
 80007a4:	4619      	mov	r1, r3
 80007a6:	f44f 737a 	mov.w	r3, #1000	@ 0x3e8
 80007aa:	fbb3 f3f1 	udiv	r3, r3, r1
 80007ae:	fbb2 f3f3 	udiv	r3, r2, r3
 80007b2:	4618      	mov	r0, r3
 80007b4:	f000 f911 	bl	80009da <HAL_SYSTICK_Config>
 80007b8:	4603      	mov	r3, r0
 80007ba:	2b00      	cmp	r3, #0
 80007bc:	d001      	beq.n	80007c2 <HAL_InitTick+0x2e>
  {
    return HAL_ERROR;
 80007be:	2301      	movs	r3, #1
 80007c0:	e00e      	b.n	80007e0 <HAL_InitTick+0x4c>
  }

  /* Configure the SysTick IRQ priority */
  if (TickPriority < (1UL << __NVIC_PRIO_BITS))
 80007c2:	687b      	ldr	r3, [r7, #4]
 80007c4:	2b0f      	cmp	r3, #15
 80007c6:	d80a      	bhi.n	80007de <HAL_InitTick+0x4a>
  {
    HAL_NVIC_SetPriority(SysTick_IRQn, TickPriority, 0U);
 80007c8:	2200      	movs	r2, #0
 80007ca:	6879      	ldr	r1, [r7, #4]
 80007cc:	f04f 30ff 	mov.w	r0, #4294967295
 80007d0:	f000 f8e7 	bl	80009a2 <HAL_NVIC_SetPriority>
    uwTickPrio = TickPriority;
 80007d4:	4a06      	ldr	r2, [pc, #24]	@ (80007f0 <HAL_InitTick+0x5c>)
 80007d6:	687b      	ldr	r3, [r7, #4]
 80007d8:	6013      	str	r3, [r2, #0]
  {
    return HAL_ERROR;
  }

  /* Return function status */
  return HAL_OK;
 80007da:	2300      	movs	r3, #0
 80007dc:	e000      	b.n	80007e0 <HAL_InitTick+0x4c>
    return HAL_ERROR;
 80007de:	2301      	movs	r3, #1
}
 80007e0:	4618      	mov	r0, r3
 80007e2:	3708      	adds	r7, #8
 80007e4:	46bd      	mov	sp, r7
 80007e6:	bd80      	pop	{r7, pc}
 80007e8:	20000000 	.word	0x20000000
 80007ec:	20000008 	.word	0x20000008
 80007f0:	20000004 	.word	0x20000004

080007f4 <HAL_IncTick>:
  * @note This function is declared as __weak to be overwritten in case of other
  *      implementations in user file.
  * @retval None
  */
__weak void HAL_IncTick(void)
{
 80007f4:	b480      	push	{r7}
 80007f6:	af00      	add	r7, sp, #0
  uwTick += uwTickFreq;
 80007f8:	4b05      	ldr	r3, [pc, #20]	@ (8000810 <HAL_IncTick+0x1c>)
 80007fa:	781b      	ldrb	r3, [r3, #0]
 80007fc:	461a      	mov	r2, r3
 80007fe:	4b05      	ldr	r3, [pc, #20]	@ (8000814 <HAL_IncTick+0x20>)
 8000800:	681b      	ldr	r3, [r3, #0]
 8000802:	4413      	add	r3, r2
 8000804:	4a03      	ldr	r2, [pc, #12]	@ (8000814 <HAL_IncTick+0x20>)
 8000806:	6013      	str	r3, [r2, #0]
}
 8000808:	bf00      	nop
 800080a:	46bd      	mov	sp, r7
 800080c:	bc80      	pop	{r7}
 800080e:	4770      	bx	lr
 8000810:	20000008 	.word	0x20000008
 8000814:	20000164 	.word	0x20000164

08000818 <HAL_GetTick>:
  * @note  This function is declared as __weak to be overwritten in case of other
  *       implementations in user file.
  * @retval tick value
  */
__weak uint32_t HAL_GetTick(void)
{
 8000818:	b480      	push	{r7}
 800081a:	af00      	add	r7, sp, #0
  return uwTick;
 800081c:	4b02      	ldr	r3, [pc, #8]	@ (8000828 <HAL_GetTick+0x10>)
 800081e:	681b      	ldr	r3, [r3, #0]
}
 8000820:	4618      	mov	r0, r3
 8000822:	46bd      	mov	sp, r7
 8000824:	bc80      	pop	{r7}
 8000826:	4770      	bx	lr
 8000828:	20000164 	.word	0x20000164

0800082c <__NVIC_SetPriorityGrouping>:
           In case of a conflict between priority grouping and available
           priority bits (__NVIC_PRIO_BITS), the smallest possible priority group is set.
  \param [in]      PriorityGroup  Priority grouping field.
 */
__STATIC_INLINE void __NVIC_SetPriorityGrouping(uint32_t PriorityGroup)
{
 800082c:	b480      	push	{r7}
 800082e:	b085      	sub	sp, #20
 8000830:	af00      	add	r7, sp, #0
 8000832:	6078      	str	r0, [r7, #4]
  uint32_t reg_value;
  uint32_t PriorityGroupTmp = (PriorityGroup & (uint32_t)0x07UL);             /* only values 0..7 are used          */
 8000834:	687b      	ldr	r3, [r7, #4]
 8000836:	f003 0307 	and.w	r3, r3, #7
 800083a:	60fb      	str	r3, [r7, #12]

  reg_value  =  SCB->AIRCR;                                                   /* read old register configuration    */
 800083c:	4b0c      	ldr	r3, [pc, #48]	@ (8000870 <__NVIC_SetPriorityGrouping+0x44>)
 800083e:	68db      	ldr	r3, [r3, #12]
 8000840:	60bb      	str	r3, [r7, #8]
  reg_value &= ~((uint32_t)(SCB_AIRCR_VECTKEY_Msk | SCB_AIRCR_PRIGROUP_Msk)); /* clear bits to change               */
 8000842:	68ba      	ldr	r2, [r7, #8]
 8000844:	f64f 03ff 	movw	r3, #63743	@ 0xf8ff
 8000848:	4013      	ands	r3, r2
 800084a:	60bb      	str	r3, [r7, #8]
  reg_value  =  (reg_value                                   |
                ((uint32_t)0x5FAUL << SCB_AIRCR_VECTKEY_Pos) |
                (PriorityGroupTmp << SCB_AIRCR_PRIGROUP_Pos) );               /* Insert write key and priority group */
 800084c:	68fb      	ldr	r3, [r7, #12]
 800084e:	021a      	lsls	r2, r3, #8
                ((uint32_t)0x5FAUL << SCB_AIRCR_VECTKEY_Pos) |
 8000850:	68bb      	ldr	r3, [r7, #8]
 8000852:	4313      	orrs	r3, r2
  reg_value  =  (reg_value                                   |
 8000854:	f043 63bf 	orr.w	r3, r3, #100139008	@ 0x5f80000
 8000858:	f443 3300 	orr.w	r3, r3, #131072	@ 0x20000
 800085c:	60bb      	str	r3, [r7, #8]
  SCB->AIRCR =  reg_value;
 800085e:	4a04      	ldr	r2, [pc, #16]	@ (8000870 <__NVIC_SetPriorityGrouping+0x44>)
 8000860:	68bb      	ldr	r3, [r7, #8]
 8000862:	60d3      	str	r3, [r2, #12]
}
 8000864:	bf00      	nop
 8000866:	3714      	adds	r7, #20
 8000868:	46bd      	mov	sp, r7
 800086a:	bc80      	pop	{r7}
 800086c:	4770      	bx	lr
 800086e:	bf00      	nop
 8000870:	e000ed00 	.word	0xe000ed00

08000874 <__NVIC_GetPriorityGrouping>:
  \brief   Get Priority Grouping
  \details Reads the priority grouping field from the NVIC Interrupt Controller.
  \return                Priority grouping field (SCB->AIRCR [10:8] PRIGROUP field).
 */
__STATIC_INLINE uint32_t __NVIC_GetPriorityGrouping(void)
{
 8000874:	b480      	push	{r7}
 8000876:	af00      	add	r7, sp, #0
  return ((uint32_t)((SCB->AIRCR & SCB_AIRCR_PRIGROUP_Msk) >> SCB_AIRCR_PRIGROUP_Pos));
 8000878:	4b04      	ldr	r3, [pc, #16]	@ (800088c <__NVIC_GetPriorityGrouping+0x18>)
 800087a:	68db      	ldr	r3, [r3, #12]
 800087c:	0a1b      	lsrs	r3, r3, #8
 800087e:	f003 0307 	and.w	r3, r3, #7
}
 8000882:	4618      	mov	r0, r3
 8000884:	46bd      	mov	sp, r7
 8000886:	bc80      	pop	{r7}
 8000888:	4770      	bx	lr
 800088a:	bf00      	nop
 800088c:	e000ed00 	.word	0xe000ed00

08000890 <__NVIC_SetPriority>:
  \param [in]      IRQn  Interrupt number.
  \param [in]  priority  Priority to set.
  \note    The priority cannot be set for every processor exception.
 */
__STATIC_INLINE void __NVIC_SetPriority(IRQn_Type IRQn, uint32_t priority)
{
 8000890:	b480      	push	{r7}
 8000892:	b083      	sub	sp, #12
 8000894:	af00      	add	r7, sp, #0
 8000896:	4603      	mov	r3, r0
 8000898:	6039      	str	r1, [r7, #0]
 800089a:	71fb      	strb	r3, [r7, #7]
  if ((int32_t)(IRQn) >= 0)
 800089c:	f997 3007 	ldrsb.w	r3, [r7, #7]
 80008a0:	2b00      	cmp	r3, #0
 80008a2:	db0a      	blt.n	80008ba <__NVIC_SetPriority+0x2a>
  {
    NVIC->IP[((uint32_t)IRQn)]               = (uint8_t)((priority << (8U - __NVIC_PRIO_BITS)) & (uint32_t)0xFFUL);
 80008a4:	683b      	ldr	r3, [r7, #0]
 80008a6:	b2da      	uxtb	r2, r3
 80008a8:	490c      	ldr	r1, [pc, #48]	@ (80008dc <__NVIC_SetPriority+0x4c>)
 80008aa:	f997 3007 	ldrsb.w	r3, [r7, #7]
 80008ae:	0112      	lsls	r2, r2, #4
 80008b0:	b2d2      	uxtb	r2, r2
 80008b2:	440b      	add	r3, r1
 80008b4:	f883 2300 	strb.w	r2, [r3, #768]	@ 0x300
  }
  else
  {
    SCB->SHP[(((uint32_t)IRQn) & 0xFUL)-4UL] = (uint8_t)((priority << (8U - __NVIC_PRIO_BITS)) & (uint32_t)0xFFUL);
  }
}
 80008b8:	e00a      	b.n	80008d0 <__NVIC_SetPriority+0x40>
    SCB->SHP[(((uint32_t)IRQn) & 0xFUL)-4UL] = (uint8_t)((priority << (8U - __NVIC_PRIO_BITS)) & (uint32_t)0xFFUL);
 80008ba:	683b      	ldr	r3, [r7, #0]
 80008bc:	b2da      	uxtb	r2, r3
 80008be:	4908      	ldr	r1, [pc, #32]	@ (80008e0 <__NVIC_SetPriority+0x50>)
 80008c0:	79fb      	ldrb	r3, [r7, #7]
 80008c2:	f003 030f 	and.w	r3, r3, #15
 80008c6:	3b04      	subs	r3, #4
 80008c8:	0112      	lsls	r2, r2, #4
 80008ca:	b2d2      	uxtb	r2, r2
 80008cc:	440b      	add	r3, r1
 80008ce:	761a      	strb	r2, [r3, #24]
}
 80008d0:	bf00      	nop
 80008d2:	370c      	adds	r7, #12
 80008d4:	46bd      	mov	sp, r7
 80008d6:	bc80      	pop	{r7}
 80008d8:	4770      	bx	lr
 80008da:	bf00      	nop
 80008dc:	e000e100 	.word	0xe000e100
 80008e0:	e000ed00 	.word	0xe000ed00

080008e4 <NVIC_EncodePriority>:
  \param [in]   PreemptPriority  Preemptive priority value (starting from 0).
  \param [in]       SubPriority  Subpriority value (starting from 0).
  \return                        Encoded priority. Value can be used in the function \ref NVIC_SetPriority().
 */
__STATIC_INLINE uint32_t NVIC_EncodePriority (uint32_t PriorityGroup, uint32_t PreemptPriority, uint32_t SubPriority)
{
 80008e4:	b480      	push	{r7}
 80008e6:	b089      	sub	sp, #36	@ 0x24
 80008e8:	af00      	add	r7, sp, #0
 80008ea:	60f8      	str	r0, [r7, #12]
 80008ec:	60b9      	str	r1, [r7, #8]
 80008ee:	607a      	str	r2, [r7, #4]
  uint32_t PriorityGroupTmp = (PriorityGroup & (uint32_t)0x07UL);   /* only values 0..7 are used          */
 80008f0:	68fb      	ldr	r3, [r7, #12]
 80008f2:	f003 0307 	and.w	r3, r3, #7
 80008f6:	61fb      	str	r3, [r7, #28]
  uint32_t PreemptPriorityBits;
  uint32_t SubPriorityBits;

  PreemptPriorityBits = ((7UL - PriorityGroupTmp) > (uint32_t)(__NVIC_PRIO_BITS)) ? (uint32_t)(__NVIC_PRIO_BITS) : (uint32_t)(7UL - PriorityGroupTmp);
 80008f8:	69fb      	ldr	r3, [r7, #28]
 80008fa:	f1c3 0307 	rsb	r3, r3, #7
 80008fe:	2b04      	cmp	r3, #4
 8000900:	bf28      	it	cs
 8000902:	2304      	movcs	r3, #4
 8000904:	61bb      	str	r3, [r7, #24]
  SubPriorityBits     = ((PriorityGroupTmp + (uint32_t)(__NVIC_PRIO_BITS)) < (uint32_t)7UL) ? (uint32_t)0UL : (uint32_t)((PriorityGroupTmp - 7UL) + (uint32_t)(__NVIC_PRIO_BITS));
 8000906:	69fb      	ldr	r3, [r7, #28]
 8000908:	3304      	adds	r3, #4
 800090a:	2b06      	cmp	r3, #6
 800090c:	d902      	bls.n	8000914 <NVIC_EncodePriority+0x30>
 800090e:	69fb      	ldr	r3, [r7, #28]
 8000910:	3b03      	subs	r3, #3
 8000912:	e000      	b.n	8000916 <NVIC_EncodePriority+0x32>
 8000914:	2300      	movs	r3, #0
 8000916:	617b      	str	r3, [r7, #20]

  return (
           ((PreemptPriority & (uint32_t)((1UL << (PreemptPriorityBits)) - 1UL)) << SubPriorityBits) |
 8000918:	f04f 32ff 	mov.w	r2, #4294967295
 800091c:	69bb      	ldr	r3, [r7, #24]
 800091e:	fa02 f303 	lsl.w	r3, r2, r3
 8000922:	43da      	mvns	r2, r3
 8000924:	68bb      	ldr	r3, [r7, #8]
 8000926:	401a      	ands	r2, r3
 8000928:	697b      	ldr	r3, [r7, #20]
 800092a:	409a      	lsls	r2, r3
           ((SubPriority     & (uint32_t)((1UL << (SubPriorityBits    )) - 1UL)))
 800092c:	f04f 31ff 	mov.w	r1, #4294967295
 8000930:	697b      	ldr	r3, [r7, #20]
 8000932:	fa01 f303 	lsl.w	r3, r1, r3
 8000936:	43d9      	mvns	r1, r3
 8000938:	687b      	ldr	r3, [r7, #4]
 800093a:	400b      	ands	r3, r1
           ((PreemptPriority & (uint32_t)((1UL << (PreemptPriorityBits)) - 1UL)) << SubPriorityBits) |
 800093c:	4313      	orrs	r3, r2
         );
}
 800093e:	4618      	mov	r0, r3
 8000940:	3724      	adds	r7, #36	@ 0x24
 8000942:	46bd      	mov	sp, r7
 8000944:	bc80      	pop	{r7}
 8000946:	4770      	bx	lr

08000948 <SysTick_Config>:
  \note    When the variable <b>__Vendor_SysTickConfig</b> is set to 1, then the
           function <b>SysTick_Config</b> is not included. In this case, the file <b><i>device</i>.h</b>
           must contain a vendor-specific implementation of this function.
 */
__STATIC_INLINE uint32_t SysTick_Config(uint32_t ticks)
{
 8000948:	b580      	push	{r7, lr}
 800094a:	b082      	sub	sp, #8
 800094c:	af00      	add	r7, sp, #0
 800094e:	6078      	str	r0, [r7, #4]
  if ((ticks - 1UL) > SysTick_LOAD_RELOAD_Msk)
 8000950:	687b      	ldr	r3, [r7, #4]
 8000952:	3b01      	subs	r3, #1
 8000954:	f1b3 7f80 	cmp.w	r3, #16777216	@ 0x1000000
 8000958:	d301      	bcc.n	800095e <SysTick_Config+0x16>
  {
    return (1UL);                                                   /* Reload value impossible */
 800095a:	2301      	movs	r3, #1
 800095c:	e00f      	b.n	800097e <SysTick_Config+0x36>
  }

  SysTick->LOAD  = (uint32_t)(ticks - 1UL);                         /* set reload register */
 800095e:	4a0a      	ldr	r2, [pc, #40]	@ (8000988 <SysTick_Config+0x40>)
 8000960:	687b      	ldr	r3, [r7, #4]
 8000962:	3b01      	subs	r3, #1
 8000964:	6053      	str	r3, [r2, #4]
  NVIC_SetPriority (SysTick_IRQn, (1UL << __NVIC_PRIO_BITS) - 1UL); /* set Priority for Systick Interrupt */
 8000966:	210f      	movs	r1, #15
 8000968:	f04f 30ff 	mov.w	r0, #4294967295
 800096c:	f7ff ff90 	bl	8000890 <__NVIC_SetPriority>
  SysTick->VAL   = 0UL;                                             /* Load the SysTick Counter Value */
 8000970:	4b05      	ldr	r3, [pc, #20]	@ (8000988 <SysTick_Config+0x40>)
 8000972:	2200      	movs	r2, #0
 8000974:	609a      	str	r2, [r3, #8]
  SysTick->CTRL  = SysTick_CTRL_CLKSOURCE_Msk |
 8000976:	4b04      	ldr	r3, [pc, #16]	@ (8000988 <SysTick_Config+0x40>)
 8000978:	2207      	movs	r2, #7
 800097a:	601a      	str	r2, [r3, #0]
                   SysTick_CTRL_TICKINT_Msk   |
                   SysTick_CTRL_ENABLE_Msk;                         /* Enable SysTick IRQ and SysTick Timer */
  return (0UL);                                                     /* Function successful */
 800097c:	2300      	movs	r3, #0
}
 800097e:	4618      	mov	r0, r3
 8000980:	3708      	adds	r7, #8
 8000982:	46bd      	mov	sp, r7
 8000984:	bd80      	pop	{r7, pc}
 8000986:	bf00      	nop
 8000988:	e000e010 	.word	0xe000e010

0800098c <HAL_NVIC_SetPriorityGrouping>:
  * @note   When the NVIC_PriorityGroup_0 is selected, IRQ preemption is no more possible. 
  *         The pending IRQ priority will be managed only by the subpriority. 
  * @retval None
  */
void HAL_NVIC_SetPriorityGrouping(uint32_t PriorityGroup)
{
 800098c:	b580      	push	{r7, lr}
 800098e:	b082      	sub	sp, #8
 8000990:	af00      	add	r7, sp, #0
 8000992:	6078      	str	r0, [r7, #4]
  /* Check the parameters */
  assert_param(IS_NVIC_PRIORITY_GROUP(PriorityGroup));
  
  /* Set the PRIGROUP[10:8] bits according to the PriorityGroup parameter value */
  NVIC_SetPriorityGrouping(PriorityGroup);
 8000994:	6878      	ldr	r0, [r7, #4]
 8000996:	f7ff ff49 	bl	800082c <__NVIC_SetPriorityGrouping>
}
 800099a:	bf00      	nop
 800099c:	3708      	adds	r7, #8
 800099e:	46bd      	mov	sp, r7
 80009a0:	bd80      	pop	{r7, pc}

080009a2 <HAL_NVIC_SetPriority>:
  *         This parameter can be a value between 0 and 15
  *         A lower priority value indicates a higher priority.          
  * @retval None
  */
void HAL_NVIC_SetPriority(IRQn_Type IRQn, uint32_t PreemptPriority, uint32_t SubPriority)
{ 
 80009a2:	b580      	push	{r7, lr}
 80009a4:	b086      	sub	sp, #24
 80009a6:	af00      	add	r7, sp, #0
 80009a8:	4603      	mov	r3, r0
 80009aa:	60b9      	str	r1, [r7, #8]
 80009ac:	607a      	str	r2, [r7, #4]
 80009ae:	73fb      	strb	r3, [r7, #15]
  uint32_t prioritygroup = 0x00U;
 80009b0:	2300      	movs	r3, #0
 80009b2:	617b      	str	r3, [r7, #20]
  
  /* Check the parameters */
  assert_param(IS_NVIC_SUB_PRIORITY(SubPriority));
  assert_param(IS_NVIC_PREEMPTION_PRIORITY(PreemptPriority));
  
  prioritygroup = NVIC_GetPriorityGrouping();
 80009b4:	f7ff ff5e 	bl	8000874 <__NVIC_GetPriorityGrouping>
 80009b8:	6178      	str	r0, [r7, #20]
  
  NVIC_SetPriority(IRQn, NVIC_EncodePriority(prioritygroup, PreemptPriority, SubPriority));
 80009ba:	687a      	ldr	r2, [r7, #4]
 80009bc:	68b9      	ldr	r1, [r7, #8]
 80009be:	6978      	ldr	r0, [r7, #20]
 80009c0:	f7ff ff90 	bl	80008e4 <NVIC_EncodePriority>
 80009c4:	4602      	mov	r2, r0
 80009c6:	f997 300f 	ldrsb.w	r3, [r7, #15]
 80009ca:	4611      	mov	r1, r2
 80009cc:	4618      	mov	r0, r3
 80009ce:	f7ff ff5f 	bl	8000890 <__NVIC_SetPriority>
}
 80009d2:	bf00      	nop
 80009d4:	3718      	adds	r7, #24
 80009d6:	46bd      	mov	sp, r7
 80009d8:	bd80      	pop	{r7, pc}

080009da <HAL_SYSTICK_Config>:
  * @param  TicksNumb: Specifies the ticks Number of ticks between two interrupts.
  * @retval status:  - 0  Function succeeded.
  *                  - 1  Function failed.
  */
uint32_t HAL_SYSTICK_Config(uint32_t TicksNumb)
{
 80009da:	b580      	push	{r7, lr}
 80009dc:	b082      	sub	sp, #8
 80009de:	af00      	add	r7, sp, #0
 80009e0:	6078      	str	r0, [r7, #4]
   return SysTick_Config(TicksNumb);
 80009e2:	6878      	ldr	r0, [r7, #4]
 80009e4:	f7ff ffb0 	bl	8000948 <SysTick_Config>
 80009e8:	4603      	mov	r3, r0
}
 80009ea:	4618      	mov	r0, r3
 80009ec:	3708      	adds	r7, #8
 80009ee:	46bd      	mov	sp, r7
 80009f0:	bd80      	pop	{r7, pc}
	...

080009f4 <HAL_GPIO_Init>:
  * @param  GPIO_Init: pointer to a GPIO_InitTypeDef structure that contains
  *         the configuration information for the specified GPIO peripheral.
  * @retval None
  */
void HAL_GPIO_Init(GPIO_TypeDef  *GPIOx, GPIO_InitTypeDef *GPIO_Init)
{
 80009f4:	b480      	push	{r7}
 80009f6:	b08b      	sub	sp, #44	@ 0x2c
 80009f8:	af00      	add	r7, sp, #0
 80009fa:	6078      	str	r0, [r7, #4]
 80009fc:	6039      	str	r1, [r7, #0]
  uint32_t position = 0x00u;
 80009fe:	2300      	movs	r3, #0
 8000a00:	627b      	str	r3, [r7, #36]	@ 0x24
  uint32_t ioposition;
  uint32_t iocurrent;
  uint32_t temp;
  uint32_t config = 0x00u;
 8000a02:	2300      	movs	r3, #0
 8000a04:	623b      	str	r3, [r7, #32]
  assert_param(IS_GPIO_ALL_INSTANCE(GPIOx));
  assert_param(IS_GPIO_PIN(GPIO_Init->Pin));
  assert_param(IS_GPIO_MODE(GPIO_Init->Mode));

  /* Configure the port pins */
  while (((GPIO_Init->Pin) >> position) != 0x00u)
 8000a06:	e161      	b.n	8000ccc <HAL_GPIO_Init+0x2d8>
  {
    /* Get the IO position */
    ioposition = (0x01uL << position);
 8000a08:	2201      	movs	r2, #1
 8000a0a:	6a7b      	ldr	r3, [r7, #36]	@ 0x24
 8000a0c:	fa02 f303 	lsl.w	r3, r2, r3
 8000a10:	61fb      	str	r3, [r7, #28]

    /* Get the current IO position */
    iocurrent = (uint32_t)(GPIO_Init->Pin) & ioposition;
 8000a12:	683b      	ldr	r3, [r7, #0]
 8000a14:	681b      	ldr	r3, [r3, #0]
 8000a16:	69fa      	ldr	r2, [r7, #28]
 8000a18:	4013      	ands	r3, r2
 8000a1a:	61bb      	str	r3, [r7, #24]

    if (iocurrent == ioposition)
 8000a1c:	69ba      	ldr	r2, [r7, #24]
 8000a1e:	69fb      	ldr	r3, [r7, #28]
 8000a20:	429a      	cmp	r2, r3
 8000a22:	f040 8150 	bne.w	8000cc6 <HAL_GPIO_Init+0x2d2>
    {
      /* Check the Alternate function parameters */
      assert_param(IS_GPIO_AF_INSTANCE(GPIOx));

      /* Based on the required mode, filling config variable with MODEy[1:0] and CNFy[3:2] corresponding bits */
      switch (GPIO_Init->Mode)
 8000a26:	683b      	ldr	r3, [r7, #0]
 8000a28:	685b      	ldr	r3, [r3, #4]
 8000a2a:	4a97      	ldr	r2, [pc, #604]	@ (8000c88 <HAL_GPIO_Init+0x294>)
 8000a2c:	4293      	cmp	r3, r2
 8000a2e:	d05e      	beq.n	8000aee <HAL_GPIO_Init+0xfa>
 8000a30:	4a95      	ldr	r2, [pc, #596]	@ (8000c88 <HAL_GPIO_Init+0x294>)
 8000a32:	4293      	cmp	r3, r2
 8000a34:	d875      	bhi.n	8000b22 <HAL_GPIO_Init+0x12e>
 8000a36:	4a95      	ldr	r2, [pc, #596]	@ (8000c8c <HAL_GPIO_Init+0x298>)
 8000a38:	4293      	cmp	r3, r2
 8000a3a:	d058      	beq.n	8000aee <HAL_GPIO_Init+0xfa>
 8000a3c:	4a93      	ldr	r2, [pc, #588]	@ (8000c8c <HAL_GPIO_Init+0x298>)
 8000a3e:	4293      	cmp	r3, r2
 8000a40:	d86f      	bhi.n	8000b22 <HAL_GPIO_Init+0x12e>
 8000a42:	4a93      	ldr	r2, [pc, #588]	@ (8000c90 <HAL_GPIO_Init+0x29c>)
 8000a44:	4293      	cmp	r3, r2
 8000a46:	d052      	beq.n	8000aee <HAL_GPIO_Init+0xfa>
 8000a48:	4a91      	ldr	r2, [pc, #580]	@ (8000c90 <HAL_GPIO_Init+0x29c>)
 8000a4a:	4293      	cmp	r3, r2
 8000a4c:	d869      	bhi.n	8000b22 <HAL_GPIO_Init+0x12e>
 8000a4e:	4a91      	ldr	r2, [pc, #580]	@ (8000c94 <HAL_GPIO_Init+0x2a0>)
 8000a50:	4293      	cmp	r3, r2
 8000a52:	d04c      	beq.n	8000aee <HAL_GPIO_Init+0xfa>
 8000a54:	4a8f      	ldr	r2, [pc, #572]	@ (8000c94 <HAL_GPIO_Init+0x2a0>)
 8000a56:	4293      	cmp	r3, r2
 8000a58:	d863      	bhi.n	8000b22 <HAL_GPIO_Init+0x12e>
 8000a5a:	4a8f      	ldr	r2, [pc, #572]	@ (8000c98 <HAL_GPIO_Init+0x2a4>)
 8000a5c:	4293      	cmp	r3, r2
 8000a5e:	d046      	beq.n	8000aee <HAL_GPIO_Init+0xfa>
 8000a60:	4a8d      	ldr	r2, [pc, #564]	@ (8000c98 <HAL_GPIO_Init+0x2a4>)
 8000a62:	4293      	cmp	r3, r2
 8000a64:	d85d      	bhi.n	8000b22 <HAL_GPIO_Init+0x12e>
 8000a66:	2b12      	cmp	r3, #18
 8000a68:	d82a      	bhi.n	8000ac0 <HAL_GPIO_Init+0xcc>
 8000a6a:	2b12      	cmp	r3, #18
 8000a6c:	d859      	bhi.n	8000b22 <HAL_GPIO_Init+0x12e>
 8000a6e:	a201      	add	r2, pc, #4	@ (adr r2, 8000a74 <HAL_GPIO_Init+0x80>)
 8000a70:	f852 f023 	ldr.w	pc, [r2, r3, lsl #2]
 8000a74:	08000aef 	.word	0x08000aef
 8000a78:	08000ac9 	.word	0x08000ac9
 8000a7c:	08000adb 	.word	0x08000adb
 8000a80:	08000b1d 	.word	0x08000b1d
 8000a84:	08000b23 	.word	0x08000b23
 8000a88:	08000b23 	.word	0x08000b23
 8000a8c:	08000b23 	.word	0x08000b23
 8000a90:	08000b23 	.word	0x08000b23
 8000a94:	08000b23 	.word	0x08000b23
 8000a98:	08000b23 	.word	0x08000b23
 8000a9c:	08000b23 	.word	0x08000b23
 8000aa0:	08000b23 	.word	0x08000b23
 8000aa4:	08000b23 	.word	0x08000b23
 8000aa8:	08000b23 	.word	0x08000b23
 8000aac:	08000b23 	.word	0x08000b23
 8000ab0:	08000b23 	.word	0x08000b23
 8000ab4:	08000b23 	.word	0x08000b23
 8000ab8:	08000ad1 	.word	0x08000ad1
 8000abc:	08000ae5 	.word	0x08000ae5
 8000ac0:	4a76      	ldr	r2, [pc, #472]	@ (8000c9c <HAL_GPIO_Init+0x2a8>)
 8000ac2:	4293      	cmp	r3, r2
 8000ac4:	d013      	beq.n	8000aee <HAL_GPIO_Init+0xfa>
          config = GPIO_CR_MODE_INPUT + GPIO_CR_CNF_ANALOG;
          break;

        /* Parameters are checked with assert_param */
        default:
          break;
 8000ac6:	e02c      	b.n	8000b22 <HAL_GPIO_Init+0x12e>
          config = GPIO_Init->Speed + GPIO_CR_CNF_GP_OUTPUT_PP;
 8000ac8:	683b      	ldr	r3, [r7, #0]
 8000aca:	68db      	ldr	r3, [r3, #12]
 8000acc:	623b      	str	r3, [r7, #32]
          break;
 8000ace:	e029      	b.n	8000b24 <HAL_GPIO_Init+0x130>
          config = GPIO_Init->Speed + GPIO_CR_CNF_GP_OUTPUT_OD;
 8000ad0:	683b      	ldr	r3, [r7, #0]
 8000ad2:	68db      	ldr	r3, [r3, #12]
 8000ad4:	3304      	adds	r3, #4
 8000ad6:	623b      	str	r3, [r7, #32]
          break;
 8000ad8:	e024      	b.n	8000b24 <HAL_GPIO_Init+0x130>
          config = GPIO_Init->Speed + GPIO_CR_CNF_AF_OUTPUT_PP;
 8000ada:	683b      	ldr	r3, [r7, #0]
 8000adc:	68db      	ldr	r3, [r3, #12]
 8000ade:	3308      	adds	r3, #8
 8000ae0:	623b      	str	r3, [r7, #32]
          break;
 8000ae2:	e01f      	b.n	8000b24 <HAL_GPIO_Init+0x130>
          config = GPIO_Init->Speed + GPIO_CR_CNF_AF_OUTPUT_OD;
 8000ae4:	683b      	ldr	r3, [r7, #0]
 8000ae6:	68db      	ldr	r3, [r3, #12]
 8000ae8:	330c      	adds	r3, #12
 8000aea:	623b      	str	r3, [r7, #32]
          break;
 8000aec:	e01a      	b.n	8000b24 <HAL_GPIO_Init+0x130>
          if (GPIO_Init->Pull == GPIO_NOPULL)
 8000aee:	683b      	ldr	r3, [r7, #0]
 8000af0:	689b      	ldr	r3, [r3, #8]
 8000af2:	2b00      	cmp	r3, #0
 8000af4:	d102      	bne.n	8000afc <HAL_GPIO_Init+0x108>
            config = GPIO_CR_MODE_INPUT + GPIO_CR_CNF_INPUT_FLOATING;
 8000af6:	2304      	movs	r3, #4
 8000af8:	623b      	str	r3, [r7, #32]
          break;
 8000afa:	e013      	b.n	8000b24 <HAL_GPIO_Init+0x130>
          else if (GPIO_Init->Pull == GPIO_PULLUP)
 8000afc:	683b      	ldr	r3, [r7, #0]
 8000afe:	689b      	ldr	r3, [r3, #8]
 8000b00:	2b01      	cmp	r3, #1
 8000b02:	d105      	bne.n	8000b10 <HAL_GPIO_Init+0x11c>
            config = GPIO_CR_MODE_INPUT + GPIO_CR_CNF_INPUT_PU_PD;
 8000b04:	2308      	movs	r3, #8
 8000b06:	623b      	str	r3, [r7, #32]
            GPIOx->BSRR = ioposition;
 8000b08:	687b      	ldr	r3, [r7, #4]
 8000b0a:	69fa      	ldr	r2, [r7, #28]
 8000b0c:	611a      	str	r2, [r3, #16]
          break;
 8000b0e:	e009      	b.n	8000b24 <HAL_GPIO_Init+0x130>
            config = GPIO_CR_MODE_INPUT + GPIO_CR_CNF_INPUT_PU_PD;
 8000b10:	2308      	movs	r3, #8
 8000b12:	623b      	str	r3, [r7, #32]
            GPIOx->BRR = ioposition;
 8000b14:	687b      	ldr	r3, [r7, #4]
 8000b16:	69fa      	ldr	r2, [r7, #28]
 8000b18:	615a      	str	r2, [r3, #20]
          break;
 8000b1a:	e003      	b.n	8000b24 <HAL_GPIO_Init+0x130>
          config = GPIO_CR_MODE_INPUT + GPIO_CR_CNF_ANALOG;
 8000b1c:	2300      	movs	r3, #0
 8000b1e:	623b      	str	r3, [r7, #32]
          break;
 8000b20:	e000      	b.n	8000b24 <HAL_GPIO_Init+0x130>
          break;
 8000b22:	bf00      	nop
      }

      /* Check if the current bit belongs to first half or last half of the pin count number
       in order to address CRH or CRL register*/
      configregister = (iocurrent < GPIO_PIN_8) ? &GPIOx->CRL     : &GPIOx->CRH;
 8000b24:	69bb      	ldr	r3, [r7, #24]
 8000b26:	2bff      	cmp	r3, #255	@ 0xff
 8000b28:	d801      	bhi.n	8000b2e <HAL_GPIO_Init+0x13a>
 8000b2a:	687b      	ldr	r3, [r7, #4]
 8000b2c:	e001      	b.n	8000b32 <HAL_GPIO_Init+0x13e>
 8000b2e:	687b      	ldr	r3, [r7, #4]
 8000b30:	3304      	adds	r3, #4
 8000b32:	617b      	str	r3, [r7, #20]
      registeroffset = (iocurrent < GPIO_PIN_8) ? (position << 2u) : ((position - 8u) << 2u);
 8000b34:	69bb      	ldr	r3, [r7, #24]
 8000b36:	2bff      	cmp	r3, #255	@ 0xff
 8000b38:	d802      	bhi.n	8000b40 <HAL_GPIO_Init+0x14c>
 8000b3a:	6a7b      	ldr	r3, [r7, #36]	@ 0x24
 8000b3c:	009b      	lsls	r3, r3, #2
 8000b3e:	e002      	b.n	8000b46 <HAL_GPIO_Init+0x152>
 8000b40:	6a7b      	ldr	r3, [r7, #36]	@ 0x24
 8000b42:	3b08      	subs	r3, #8
 8000b44:	009b      	lsls	r3, r3, #2
 8000b46:	613b      	str	r3, [r7, #16]

      /* Apply the new configuration of the pin to the register */
      MODIFY_REG((*configregister), ((GPIO_CRL_MODE0 | GPIO_CRL_CNF0) << registeroffset), (config << registeroffset));
 8000b48:	697b      	ldr	r3, [r7, #20]
 8000b4a:	681a      	ldr	r2, [r3, #0]
 8000b4c:	210f      	movs	r1, #15
 8000b4e:	693b      	ldr	r3, [r7, #16]
 8000b50:	fa01 f303 	lsl.w	r3, r1, r3
 8000b54:	43db      	mvns	r3, r3
 8000b56:	401a      	ands	r2, r3
 8000b58:	6a39      	ldr	r1, [r7, #32]
 8000b5a:	693b      	ldr	r3, [r7, #16]
 8000b5c:	fa01 f303 	lsl.w	r3, r1, r3
 8000b60:	431a      	orrs	r2, r3
 8000b62:	697b      	ldr	r3, [r7, #20]
 8000b64:	601a      	str	r2, [r3, #0]

      /*--------------------- EXTI Mode Configuration ------------------------*/
      /* Configure the External Interrupt or event for the current IO */
      if ((GPIO_Init->Mode & EXTI_MODE) == EXTI_MODE)
 8000b66:	683b      	ldr	r3, [r7, #0]
 8000b68:	685b      	ldr	r3, [r3, #4]
 8000b6a:	f003 5380 	and.w	r3, r3, #268435456	@ 0x10000000
 8000b6e:	2b00      	cmp	r3, #0
 8000b70:	f000 80a9 	beq.w	8000cc6 <HAL_GPIO_Init+0x2d2>
      {
        /* Enable AFIO Clock */
        __HAL_RCC_AFIO_CLK_ENABLE();
 8000b74:	4b4a      	ldr	r3, [pc, #296]	@ (8000ca0 <HAL_GPIO_Init+0x2ac>)
 8000b76:	699b      	ldr	r3, [r3, #24]
 8000b78:	4a49      	ldr	r2, [pc, #292]	@ (8000ca0 <HAL_GPIO_Init+0x2ac>)
 8000b7a:	f043 0301 	orr.w	r3, r3, #1
 8000b7e:	6193      	str	r3, [r2, #24]
 8000b80:	4b47      	ldr	r3, [pc, #284]	@ (8000ca0 <HAL_GPIO_Init+0x2ac>)
 8000b82:	699b      	ldr	r3, [r3, #24]
 8000b84:	f003 0301 	and.w	r3, r3, #1
 8000b88:	60bb      	str	r3, [r7, #8]
 8000b8a:	68bb      	ldr	r3, [r7, #8]
        temp = AFIO->EXTICR[position >> 2u];
 8000b8c:	4a45      	ldr	r2, [pc, #276]	@ (8000ca4 <HAL_GPIO_Init+0x2b0>)
 8000b8e:	6a7b      	ldr	r3, [r7, #36]	@ 0x24
 8000b90:	089b      	lsrs	r3, r3, #2
 8000b92:	3302      	adds	r3, #2
 8000b94:	f852 3023 	ldr.w	r3, [r2, r3, lsl #2]
 8000b98:	60fb      	str	r3, [r7, #12]
        CLEAR_BIT(temp, (0x0Fu) << (4u * (position & 0x03u)));
 8000b9a:	6a7b      	ldr	r3, [r7, #36]	@ 0x24
 8000b9c:	f003 0303 	and.w	r3, r3, #3
 8000ba0:	009b      	lsls	r3, r3, #2
 8000ba2:	220f      	movs	r2, #15
 8000ba4:	fa02 f303 	lsl.w	r3, r2, r3
 8000ba8:	43db      	mvns	r3, r3
 8000baa:	68fa      	ldr	r2, [r7, #12]
 8000bac:	4013      	ands	r3, r2
 8000bae:	60fb      	str	r3, [r7, #12]
        SET_BIT(temp, (GPIO_GET_INDEX(GPIOx)) << (4u * (position & 0x03u)));
 8000bb0:	687b      	ldr	r3, [r7, #4]
 8000bb2:	4a3d      	ldr	r2, [pc, #244]	@ (8000ca8 <HAL_GPIO_Init+0x2b4>)
 8000bb4:	4293      	cmp	r3, r2
 8000bb6:	d00d      	beq.n	8000bd4 <HAL_GPIO_Init+0x1e0>
 8000bb8:	687b      	ldr	r3, [r7, #4]
 8000bba:	4a3c      	ldr	r2, [pc, #240]	@ (8000cac <HAL_GPIO_Init+0x2b8>)
 8000bbc:	4293      	cmp	r3, r2
 8000bbe:	d007      	beq.n	8000bd0 <HAL_GPIO_Init+0x1dc>
 8000bc0:	687b      	ldr	r3, [r7, #4]
 8000bc2:	4a3b      	ldr	r2, [pc, #236]	@ (8000cb0 <HAL_GPIO_Init+0x2bc>)
 8000bc4:	4293      	cmp	r3, r2
 8000bc6:	d101      	bne.n	8000bcc <HAL_GPIO_Init+0x1d8>
 8000bc8:	2302      	movs	r3, #2
 8000bca:	e004      	b.n	8000bd6 <HAL_GPIO_Init+0x1e2>
 8000bcc:	2303      	movs	r3, #3
 8000bce:	e002      	b.n	8000bd6 <HAL_GPIO_Init+0x1e2>
 8000bd0:	2301      	movs	r3, #1
 8000bd2:	e000      	b.n	8000bd6 <HAL_GPIO_Init+0x1e2>
 8000bd4:	2300      	movs	r3, #0
 8000bd6:	6a7a      	ldr	r2, [r7, #36]	@ 0x24
 8000bd8:	f002 0203 	and.w	r2, r2, #3
 8000bdc:	0092      	lsls	r2, r2, #2
 8000bde:	4093      	lsls	r3, r2
 8000be0:	68fa      	ldr	r2, [r7, #12]
 8000be2:	4313      	orrs	r3, r2
 8000be4:	60fb      	str	r3, [r7, #12]
        AFIO->EXTICR[position >> 2u] = temp;
 8000be6:	492f      	ldr	r1, [pc, #188]	@ (8000ca4 <HAL_GPIO_Init+0x2b0>)
 8000be8:	6a7b      	ldr	r3, [r7, #36]	@ 0x24
 8000bea:	089b      	lsrs	r3, r3, #2
 8000bec:	3302      	adds	r3, #2
 8000bee:	68fa      	ldr	r2, [r7, #12]
 8000bf0:	f841 2023 	str.w	r2, [r1, r3, lsl #2]


        /* Enable or disable the rising trigger */
        if ((GPIO_Init->Mode & RISING_EDGE) == RISING_EDGE)
 8000bf4:	683b      	ldr	r3, [r7, #0]
 8000bf6:	685b      	ldr	r3, [r3, #4]
 8000bf8:	f403 1380 	and.w	r3, r3, #1048576	@ 0x100000
 8000bfc:	2b00      	cmp	r3, #0
 8000bfe:	d006      	beq.n	8000c0e <HAL_GPIO_Init+0x21a>
        {
          SET_BIT(EXTI->RTSR, iocurrent);
 8000c00:	4b2c      	ldr	r3, [pc, #176]	@ (8000cb4 <HAL_GPIO_Init+0x2c0>)
 8000c02:	689a      	ldr	r2, [r3, #8]
 8000c04:	492b      	ldr	r1, [pc, #172]	@ (8000cb4 <HAL_GPIO_Init+0x2c0>)
 8000c06:	69bb      	ldr	r3, [r7, #24]
 8000c08:	4313      	orrs	r3, r2
 8000c0a:	608b      	str	r3, [r1, #8]
 8000c0c:	e006      	b.n	8000c1c <HAL_GPIO_Init+0x228>
        }
        else
        {
          CLEAR_BIT(EXTI->RTSR, iocurrent);
 8000c0e:	4b29      	ldr	r3, [pc, #164]	@ (8000cb4 <HAL_GPIO_Init+0x2c0>)
 8000c10:	689a      	ldr	r2, [r3, #8]
 8000c12:	69bb      	ldr	r3, [r7, #24]
 8000c14:	43db      	mvns	r3, r3
 8000c16:	4927      	ldr	r1, [pc, #156]	@ (8000cb4 <HAL_GPIO_Init+0x2c0>)
 8000c18:	4013      	ands	r3, r2
 8000c1a:	608b      	str	r3, [r1, #8]
        }

        /* Enable or disable the falling trigger */
        if ((GPIO_Init->Mode & FALLING_EDGE) == FALLING_EDGE)
 8000c1c:	683b      	ldr	r3, [r7, #0]
 8000c1e:	685b      	ldr	r3, [r3, #4]
 8000c20:	f403 1300 	and.w	r3, r3, #2097152	@ 0x200000
 8000c24:	2b00      	cmp	r3, #0
 8000c26:	d006      	beq.n	8000c36 <HAL_GPIO_Init+0x242>
        {
          SET_BIT(EXTI->FTSR, iocurrent);
 8000c28:	4b22      	ldr	r3, [pc, #136]	@ (8000cb4 <HAL_GPIO_Init+0x2c0>)
 8000c2a:	68da      	ldr	r2, [r3, #12]
 8000c2c:	4921      	ldr	r1, [pc, #132]	@ (8000cb4 <HAL_GPIO_Init+0x2c0>)
 8000c2e:	69bb      	ldr	r3, [r7, #24]
 8000c30:	4313      	orrs	r3, r2
 8000c32:	60cb      	str	r3, [r1, #12]
 8000c34:	e006      	b.n	8000c44 <HAL_GPIO_Init+0x250>
        }
        else
        {
          CLEAR_BIT(EXTI->FTSR, iocurrent);
 8000c36:	4b1f      	ldr	r3, [pc, #124]	@ (8000cb4 <HAL_GPIO_Init+0x2c0>)
 8000c38:	68da      	ldr	r2, [r3, #12]
 8000c3a:	69bb      	ldr	r3, [r7, #24]
 8000c3c:	43db      	mvns	r3, r3
 8000c3e:	491d      	ldr	r1, [pc, #116]	@ (8000cb4 <HAL_GPIO_Init+0x2c0>)
 8000c40:	4013      	ands	r3, r2
 8000c42:	60cb      	str	r3, [r1, #12]
        }

        /* Configure the event mask */
        if ((GPIO_Init->Mode & GPIO_MODE_EVT) == GPIO_MODE_EVT)
 8000c44:	683b      	ldr	r3, [r7, #0]
 8000c46:	685b      	ldr	r3, [r3, #4]
 8000c48:	f403 3300 	and.w	r3, r3, #131072	@ 0x20000
 8000c4c:	2b00      	cmp	r3, #0
 8000c4e:	d006      	beq.n	8000c5e <HAL_GPIO_Init+0x26a>
        {
          SET_BIT(EXTI->EMR, iocurrent);
 8000c50:	4b18      	ldr	r3, [pc, #96]	@ (8000cb4 <HAL_GPIO_Init+0x2c0>)
 8000c52:	685a      	ldr	r2, [r3, #4]
 8000c54:	4917      	ldr	r1, [pc, #92]	@ (8000cb4 <HAL_GPIO_Init+0x2c0>)
 8000c56:	69bb      	ldr	r3, [r7, #24]
 8000c58:	4313      	orrs	r3, r2
 8000c5a:	604b      	str	r3, [r1, #4]
 8000c5c:	e006      	b.n	8000c6c <HAL_GPIO_Init+0x278>
        }
        else
        {
          CLEAR_BIT(EXTI->EMR, iocurrent);
 8000c5e:	4b15      	ldr	r3, [pc, #84]	@ (8000cb4 <HAL_GPIO_Init+0x2c0>)
 8000c60:	685a      	ldr	r2, [r3, #4]
 8000c62:	69bb      	ldr	r3, [r7, #24]
 8000c64:	43db      	mvns	r3, r3
 8000c66:	4913      	ldr	r1, [pc, #76]	@ (8000cb4 <HAL_GPIO_Init+0x2c0>)
 8000c68:	4013      	ands	r3, r2
 8000c6a:	604b      	str	r3, [r1, #4]
        }

        /* Configure the interrupt mask */
        if ((GPIO_Init->Mode & GPIO_MODE_IT) == GPIO_MODE_IT)
 8000c6c:	683b      	ldr	r3, [r7, #0]
 8000c6e:	685b      	ldr	r3, [r3, #4]
 8000c70:	f403 3380 	and.w	r3, r3, #65536	@ 0x10000
 8000c74:	2b00      	cmp	r3, #0
 8000c76:	d01f      	beq.n	8000cb8 <HAL_GPIO_Init+0x2c4>
        {
          SET_BIT(EXTI->IMR, iocurrent);
 8000c78:	4b0e      	ldr	r3, [pc, #56]	@ (8000cb4 <HAL_GPIO_Init+0x2c0>)
 8000c7a:	681a      	ldr	r2, [r3, #0]
 8000c7c:	490d      	ldr	r1, [pc, #52]	@ (8000cb4 <HAL_GPIO_Init+0x2c0>)
 8000c7e:	69bb      	ldr	r3, [r7, #24]
 8000c80:	4313      	orrs	r3, r2
 8000c82:	600b      	str	r3, [r1, #0]
 8000c84:	e01f      	b.n	8000cc6 <HAL_GPIO_Init+0x2d2>
 8000c86:	bf00      	nop
 8000c88:	10320000 	.word	0x10320000
 8000c8c:	10310000 	.word	0x10310000
 8000c90:	10220000 	.word	0x10220000
 8000c94:	10210000 	.word	0x10210000
 8000c98:	10120000 	.word	0x10120000
 8000c9c:	10110000 	.word	0x10110000
 8000ca0:	40021000 	.word	0x40021000
 8000ca4:	40010000 	.word	0x40010000
 8000ca8:	40010800 	.word	0x40010800
 8000cac:	40010c00 	.word	0x40010c00
 8000cb0:	40011000 	.word	0x40011000
 8000cb4:	40010400 	.word	0x40010400
        }
        else
        {
          CLEAR_BIT(EXTI->IMR, iocurrent);
 8000cb8:	4b0b      	ldr	r3, [pc, #44]	@ (8000ce8 <HAL_GPIO_Init+0x2f4>)
 8000cba:	681a      	ldr	r2, [r3, #0]
 8000cbc:	69bb      	ldr	r3, [r7, #24]
 8000cbe:	43db      	mvns	r3, r3
 8000cc0:	4909      	ldr	r1, [pc, #36]	@ (8000ce8 <HAL_GPIO_Init+0x2f4>)
 8000cc2:	4013      	ands	r3, r2
 8000cc4:	600b      	str	r3, [r1, #0]
        }
      }
    }

	position++;
 8000cc6:	6a7b      	ldr	r3, [r7, #36]	@ 0x24
 8000cc8:	3301      	adds	r3, #1
 8000cca:	627b      	str	r3, [r7, #36]	@ 0x24
  while (((GPIO_Init->Pin) >> position) != 0x00u)
 8000ccc:	683b      	ldr	r3, [r7, #0]
 8000cce:	681a      	ldr	r2, [r3, #0]
 8000cd0:	6a7b      	ldr	r3, [r7, #36]	@ 0x24
 8000cd2:	fa22 f303 	lsr.w	r3, r2, r3
 8000cd6:	2b00      	cmp	r3, #0
 8000cd8:	f47f ae96 	bne.w	8000a08 <HAL_GPIO_Init+0x14>
  }
}
 8000cdc:	bf00      	nop
 8000cde:	bf00      	nop
 8000ce0:	372c      	adds	r7, #44	@ 0x2c
 8000ce2:	46bd      	mov	sp, r7
 8000ce4:	bc80      	pop	{r7}
 8000ce6:	4770      	bx	lr
 8000ce8:	40010400 	.word	0x40010400

08000cec <HAL_GPIO_WritePin>:
  *            @arg GPIO_PIN_RESET: to clear the port pin
  *            @arg GPIO_PIN_SET: to set the port pin
  * @retval None
  */
void HAL_GPIO_WritePin(GPIO_TypeDef *GPIOx, uint16_t GPIO_Pin, GPIO_PinState PinState)
{
 8000cec:	b480      	push	{r7}
 8000cee:	b083      	sub	sp, #12
 8000cf0:	af00      	add	r7, sp, #0
 8000cf2:	6078      	str	r0, [r7, #4]
 8000cf4:	460b      	mov	r3, r1
 8000cf6:	807b      	strh	r3, [r7, #2]
 8000cf8:	4613      	mov	r3, r2
 8000cfa:	707b      	strb	r3, [r7, #1]
  /* Check the parameters */
  assert_param(IS_GPIO_PIN(GPIO_Pin));
  assert_param(IS_GPIO_PIN_ACTION(PinState));

  if (PinState != GPIO_PIN_RESET)
 8000cfc:	787b      	ldrb	r3, [r7, #1]
 8000cfe:	2b00      	cmp	r3, #0
 8000d00:	d003      	beq.n	8000d0a <HAL_GPIO_WritePin+0x1e>
  {
    GPIOx->BSRR = GPIO_Pin;
 8000d02:	887a      	ldrh	r2, [r7, #2]
 8000d04:	687b      	ldr	r3, [r7, #4]
 8000d06:	611a      	str	r2, [r3, #16]
  }
  else
  {
    GPIOx->BSRR = (uint32_t)GPIO_Pin << 16u;
  }
}
 8000d08:	e003      	b.n	8000d12 <HAL_GPIO_WritePin+0x26>
    GPIOx->BSRR = (uint32_t)GPIO_Pin << 16u;
 8000d0a:	887b      	ldrh	r3, [r7, #2]
 8000d0c:	041a      	lsls	r2, r3, #16
 8000d0e:	687b      	ldr	r3, [r7, #4]
 8000d10:	611a      	str	r2, [r3, #16]
}
 8000d12:	bf00      	nop
 8000d14:	370c      	adds	r7, #12
 8000d16:	46bd      	mov	sp, r7
 8000d18:	bc80      	pop	{r7}
 8000d1a:	4770      	bx	lr

08000d1c <HAL_I2C_Init>:
  * @param  hi2c Pointer to a I2C_HandleTypeDef structure that contains
  *                the configuration information for the specified I2C.
  * @retval HAL status
  */
HAL_StatusTypeDef HAL_I2C_Init(I2C_HandleTypeDef *hi2c)
{
 8000d1c:	b580      	push	{r7, lr}
 8000d1e:	b084      	sub	sp, #16
 8000d20:	af00      	add	r7, sp, #0
 8000d22:	6078      	str	r0, [r7, #4]
  uint32_t freqrange;
  uint32_t pclk1;

  /* Check the I2C handle allocation */
  if (hi2c == NULL)
 8000d24:	687b      	ldr	r3, [r7, #4]
 8000d26:	2b00      	cmp	r3, #0
 8000d28:	d101      	bne.n	8000d2e <HAL_I2C_Init+0x12>
  {
    return HAL_ERROR;
 8000d2a:	2301      	movs	r3, #1
 8000d2c:	e12b      	b.n	8000f86 <HAL_I2C_Init+0x26a>
  assert_param(IS_I2C_DUAL_ADDRESS(hi2c->Init.DualAddressMode));
  assert_param(IS_I2C_OWN_ADDRESS2(hi2c->Init.OwnAddress2));
  assert_param(IS_I2C_GENERAL_CALL(hi2c->Init.GeneralCallMode));
  assert_param(IS_I2C_NO_STRETCH(hi2c->Init.NoStretchMode));

  if (hi2c->State == HAL_I2C_STATE_RESET)
 8000d2e:	687b      	ldr	r3, [r7, #4]
 8000d30:	f893 303d 	ldrb.w	r3, [r3, #61]	@ 0x3d
 8000d34:	b2db      	uxtb	r3, r3
 8000d36:	2b00      	cmp	r3, #0
 8000d38:	d106      	bne.n	8000d48 <HAL_I2C_Init+0x2c>
  {
    /* Allocate lock resource and initialize it */
    hi2c->Lock = HAL_UNLOCKED;
 8000d3a:	687b      	ldr	r3, [r7, #4]
 8000d3c:	2200      	movs	r2, #0
 8000d3e:	f883 203c 	strb.w	r2, [r3, #60]	@ 0x3c

    /* Init the low level hardware : GPIO, CLOCK, NVIC */
    hi2c->MspInitCallback(hi2c);
#else
    /* Init the low level hardware : GPIO, CLOCK, NVIC */
    HAL_I2C_MspInit(hi2c);
 8000d42:	6878      	ldr	r0, [r7, #4]
 8000d44:	f7ff fbb4 	bl	80004b0 <HAL_I2C_MspInit>
#endif /* USE_HAL_I2C_REGISTER_CALLBACKS */
  }

  hi2c->State = HAL_I2C_STATE_BUSY;
 8000d48:	687b      	ldr	r3, [r7, #4]
 8000d4a:	2224      	movs	r2, #36	@ 0x24
 8000d4c:	f883 203d 	strb.w	r2, [r3, #61]	@ 0x3d

  /* Disable the selected I2C peripheral */
  __HAL_I2C_DISABLE(hi2c);
 8000d50:	687b      	ldr	r3, [r7, #4]
 8000d52:	681b      	ldr	r3, [r3, #0]
 8000d54:	681a      	ldr	r2, [r3, #0]
 8000d56:	687b      	ldr	r3, [r7, #4]
 8000d58:	681b      	ldr	r3, [r3, #0]
 8000d5a:	f022 0201 	bic.w	r2, r2, #1
 8000d5e:	601a      	str	r2, [r3, #0]

  /*Reset I2C*/
  hi2c->Instance->CR1 |= I2C_CR1_SWRST;
 8000d60:	687b      	ldr	r3, [r7, #4]
 8000d62:	681b      	ldr	r3, [r3, #0]
 8000d64:	681a      	ldr	r2, [r3, #0]
 8000d66:	687b      	ldr	r3, [r7, #4]
 8000d68:	681b      	ldr	r3, [r3, #0]
 8000d6a:	f442 4200 	orr.w	r2, r2, #32768	@ 0x8000
 8000d6e:	601a      	str	r2, [r3, #0]
  hi2c->Instance->CR1 &= ~I2C_CR1_SWRST;
 8000d70:	687b      	ldr	r3, [r7, #4]
 8000d72:	681b      	ldr	r3, [r3, #0]
 8000d74:	681a      	ldr	r2, [r3, #0]
 8000d76:	687b      	ldr	r3, [r7, #4]
 8000d78:	681b      	ldr	r3, [r3, #0]
 8000d7a:	f422 4200 	bic.w	r2, r2, #32768	@ 0x8000
 8000d7e:	601a      	str	r2, [r3, #0]

  /* Get PCLK1 frequency */
  pclk1 = HAL_RCC_GetPCLK1Freq();
 8000d80:	f000 fcda 	bl	8001738 <HAL_RCC_GetPCLK1Freq>
 8000d84:	60f8      	str	r0, [r7, #12]

  /* Check the minimum allowed PCLK1 frequency */
  if (I2C_MIN_PCLK_FREQ(pclk1, hi2c->Init.ClockSpeed) == 1U)
 8000d86:	687b      	ldr	r3, [r7, #4]
 8000d88:	685b      	ldr	r3, [r3, #4]
 8000d8a:	4a81      	ldr	r2, [pc, #516]	@ (8000f90 <HAL_I2C_Init+0x274>)
 8000d8c:	4293      	cmp	r3, r2
 8000d8e:	d807      	bhi.n	8000da0 <HAL_I2C_Init+0x84>
 8000d90:	68fb      	ldr	r3, [r7, #12]
 8000d92:	4a80      	ldr	r2, [pc, #512]	@ (8000f94 <HAL_I2C_Init+0x278>)
 8000d94:	4293      	cmp	r3, r2
 8000d96:	bf94      	ite	ls
 8000d98:	2301      	movls	r3, #1
 8000d9a:	2300      	movhi	r3, #0
 8000d9c:	b2db      	uxtb	r3, r3
 8000d9e:	e006      	b.n	8000dae <HAL_I2C_Init+0x92>
 8000da0:	68fb      	ldr	r3, [r7, #12]
 8000da2:	4a7d      	ldr	r2, [pc, #500]	@ (8000f98 <HAL_I2C_Init+0x27c>)
 8000da4:	4293      	cmp	r3, r2
 8000da6:	bf94      	ite	ls
 8000da8:	2301      	movls	r3, #1
 8000daa:	2300      	movhi	r3, #0
 8000dac:	b2db      	uxtb	r3, r3
 8000dae:	2b00      	cmp	r3, #0
 8000db0:	d001      	beq.n	8000db6 <HAL_I2C_Init+0x9a>
  {
    return HAL_ERROR;
 8000db2:	2301      	movs	r3, #1
 8000db4:	e0e7      	b.n	8000f86 <HAL_I2C_Init+0x26a>
  }

  /* Calculate frequency range */
  freqrange = I2C_FREQRANGE(pclk1);
 8000db6:	68fb      	ldr	r3, [r7, #12]
 8000db8:	4a78      	ldr	r2, [pc, #480]	@ (8000f9c <HAL_I2C_Init+0x280>)
 8000dba:	fba2 2303 	umull	r2, r3, r2, r3
 8000dbe:	0c9b      	lsrs	r3, r3, #18
 8000dc0:	60bb      	str	r3, [r7, #8]

  /*---------------------------- I2Cx CR2 Configuration ----------------------*/
  /* Configure I2Cx: Frequency range */
  MODIFY_REG(hi2c->Instance->CR2, I2C_CR2_FREQ, freqrange);
 8000dc2:	687b      	ldr	r3, [r7, #4]
 8000dc4:	681b      	ldr	r3, [r3, #0]
 8000dc6:	685b      	ldr	r3, [r3, #4]
 8000dc8:	f023 013f 	bic.w	r1, r3, #63	@ 0x3f
 8000dcc:	687b      	ldr	r3, [r7, #4]
 8000dce:	681b      	ldr	r3, [r3, #0]
 8000dd0:	68ba      	ldr	r2, [r7, #8]
 8000dd2:	430a      	orrs	r2, r1
 8000dd4:	605a      	str	r2, [r3, #4]

  /*---------------------------- I2Cx TRISE Configuration --------------------*/
  /* Configure I2Cx: Rise Time */
  MODIFY_REG(hi2c->Instance->TRISE, I2C_TRISE_TRISE, I2C_RISE_TIME(freqrange, hi2c->Init.ClockSpeed));
 8000dd6:	687b      	ldr	r3, [r7, #4]
 8000dd8:	681b      	ldr	r3, [r3, #0]
 8000dda:	6a1b      	ldr	r3, [r3, #32]
 8000ddc:	f023 013f 	bic.w	r1, r3, #63	@ 0x3f
 8000de0:	687b      	ldr	r3, [r7, #4]
 8000de2:	685b      	ldr	r3, [r3, #4]
 8000de4:	4a6a      	ldr	r2, [pc, #424]	@ (8000f90 <HAL_I2C_Init+0x274>)
 8000de6:	4293      	cmp	r3, r2
 8000de8:	d802      	bhi.n	8000df0 <HAL_I2C_Init+0xd4>
 8000dea:	68bb      	ldr	r3, [r7, #8]
 8000dec:	3301      	adds	r3, #1
 8000dee:	e009      	b.n	8000e04 <HAL_I2C_Init+0xe8>
 8000df0:	68bb      	ldr	r3, [r7, #8]
 8000df2:	f44f 7296 	mov.w	r2, #300	@ 0x12c
 8000df6:	fb02 f303 	mul.w	r3, r2, r3
 8000dfa:	4a69      	ldr	r2, [pc, #420]	@ (8000fa0 <HAL_I2C_Init+0x284>)
 8000dfc:	fba2 2303 	umull	r2, r3, r2, r3
 8000e00:	099b      	lsrs	r3, r3, #6
 8000e02:	3301      	adds	r3, #1
 8000e04:	687a      	ldr	r2, [r7, #4]
 8000e06:	6812      	ldr	r2, [r2, #0]
 8000e08:	430b      	orrs	r3, r1
 8000e0a:	6213      	str	r3, [r2, #32]

  /*---------------------------- I2Cx CCR Configuration ----------------------*/
  /* Configure I2Cx: Speed */
  MODIFY_REG(hi2c->Instance->CCR, (I2C_CCR_FS | I2C_CCR_DUTY | I2C_CCR_CCR), I2C_SPEED(pclk1, hi2c->Init.ClockSpeed, hi2c->Init.DutyCycle));
 8000e0c:	687b      	ldr	r3, [r7, #4]
 8000e0e:	681b      	ldr	r3, [r3, #0]
 8000e10:	69db      	ldr	r3, [r3, #28]
 8000e12:	f423 424f 	bic.w	r2, r3, #52992	@ 0xcf00
 8000e16:	f022 02ff 	bic.w	r2, r2, #255	@ 0xff
 8000e1a:	687b      	ldr	r3, [r7, #4]
 8000e1c:	685b      	ldr	r3, [r3, #4]
 8000e1e:	495c      	ldr	r1, [pc, #368]	@ (8000f90 <HAL_I2C_Init+0x274>)
 8000e20:	428b      	cmp	r3, r1
 8000e22:	d819      	bhi.n	8000e58 <HAL_I2C_Init+0x13c>
 8000e24:	68fb      	ldr	r3, [r7, #12]
 8000e26:	1e59      	subs	r1, r3, #1
 8000e28:	687b      	ldr	r3, [r7, #4]
 8000e2a:	685b      	ldr	r3, [r3, #4]
 8000e2c:	005b      	lsls	r3, r3, #1
 8000e2e:	fbb1 f3f3 	udiv	r3, r1, r3
 8000e32:	1c59      	adds	r1, r3, #1
 8000e34:	f640 73fc 	movw	r3, #4092	@ 0xffc
 8000e38:	400b      	ands	r3, r1
 8000e3a:	2b00      	cmp	r3, #0
 8000e3c:	d00a      	beq.n	8000e54 <HAL_I2C_Init+0x138>
 8000e3e:	68fb      	ldr	r3, [r7, #12]
 8000e40:	1e59      	subs	r1, r3, #1
 8000e42:	687b      	ldr	r3, [r7, #4]
 8000e44:	685b      	ldr	r3, [r3, #4]
 8000e46:	005b      	lsls	r3, r3, #1
 8000e48:	fbb1 f3f3 	udiv	r3, r1, r3
 8000e4c:	3301      	adds	r3, #1
 8000e4e:	f3c3 030b 	ubfx	r3, r3, #0, #12
 8000e52:	e051      	b.n	8000ef8 <HAL_I2C_Init+0x1dc>
 8000e54:	2304      	movs	r3, #4
 8000e56:	e04f      	b.n	8000ef8 <HAL_I2C_Init+0x1dc>
 8000e58:	687b      	ldr	r3, [r7, #4]
 8000e5a:	689b      	ldr	r3, [r3, #8]
 8000e5c:	2b00      	cmp	r3, #0
 8000e5e:	d111      	bne.n	8000e84 <HAL_I2C_Init+0x168>
 8000e60:	68fb      	ldr	r3, [r7, #12]
 8000e62:	1e58      	subs	r0, r3, #1
 8000e64:	687b      	ldr	r3, [r7, #4]
 8000e66:	6859      	ldr	r1, [r3, #4]
 8000e68:	460b      	mov	r3, r1
 8000e6a:	005b      	lsls	r3, r3, #1
 8000e6c:	440b      	add	r3, r1
 8000e6e:	fbb0 f3f3 	udiv	r3, r0, r3
 8000e72:	3301      	adds	r3, #1
 8000e74:	f3c3 030b 	ubfx	r3, r3, #0, #12
 8000e78:	2b00      	cmp	r3, #0
 8000e7a:	bf0c      	ite	eq
 8000e7c:	2301      	moveq	r3, #1
 8000e7e:	2300      	movne	r3, #0
 8000e80:	b2db      	uxtb	r3, r3
 8000e82:	e012      	b.n	8000eaa <HAL_I2C_Init+0x18e>
 8000e84:	68fb      	ldr	r3, [r7, #12]
 8000e86:	1e58      	subs	r0, r3, #1
 8000e88:	687b      	ldr	r3, [r7, #4]
 8000e8a:	6859      	ldr	r1, [r3, #4]
 8000e8c:	460b      	mov	r3, r1
 8000e8e:	009b      	lsls	r3, r3, #2
 8000e90:	440b      	add	r3, r1
 8000e92:	0099      	lsls	r1, r3, #2
 8000e94:	440b      	add	r3, r1
 8000e96:	fbb0 f3f3 	udiv	r3, r0, r3
 8000e9a:	3301      	adds	r3, #1
 8000e9c:	f3c3 030b 	ubfx	r3, r3, #0, #12
 8000ea0:	2b00      	cmp	r3, #0
 8000ea2:	bf0c      	ite	eq
 8000ea4:	2301      	moveq	r3, #1
 8000ea6:	2300      	movne	r3, #0
 8000ea8:	b2db      	uxtb	r3, r3
 8000eaa:	2b00      	cmp	r3, #0
 8000eac:	d001      	beq.n	8000eb2 <HAL_I2C_Init+0x196>
 8000eae:	2301      	movs	r3, #1
 8000eb0:	e022      	b.n	8000ef8 <HAL_I2C_Init+0x1dc>
 8000eb2:	687b      	ldr	r3, [r7, #4]
 8000eb4:	689b      	ldr	r3, [r3, #8]
 8000eb6:	2b00      	cmp	r3, #0
 8000eb8:	d10e      	bne.n	8000ed8 <HAL_I2C_Init+0x1bc>
 8000eba:	68fb      	ldr	r3, [r7, #12]
 8000ebc:	1e58      	subs	r0, r3, #1
 8000ebe:	687b      	ldr	r3, [r7, #4]
 8000ec0:	6859      	ldr	r1, [r3, #4]
 8000ec2:	460b      	mov	r3, r1
 8000ec4:	005b      	lsls	r3, r3, #1
 8000ec6:	440b      	add	r3, r1
 8000ec8:	fbb0 f3f3 	udiv	r3, r0, r3
 8000ecc:	3301      	adds	r3, #1
 8000ece:	f3c3 030b 	ubfx	r3, r3, #0, #12
 8000ed2:	f443 4300 	orr.w	r3, r3, #32768	@ 0x8000
 8000ed6:	e00f      	b.n	8000ef8 <HAL_I2C_Init+0x1dc>
 8000ed8:	68fb      	ldr	r3, [r7, #12]
 8000eda:	1e58      	subs	r0, r3, #1
 8000edc:	687b      	ldr	r3, [r7, #4]
 8000ede:	6859      	ldr	r1, [r3, #4]
 8000ee0:	460b      	mov	r3, r1
 8000ee2:	009b      	lsls	r3, r3, #2
 8000ee4:	440b      	add	r3, r1
 8000ee6:	0099      	lsls	r1, r3, #2
 8000ee8:	440b      	add	r3, r1
 8000eea:	fbb0 f3f3 	udiv	r3, r0, r3
 8000eee:	3301      	adds	r3, #1
 8000ef0:	f3c3 030b 	ubfx	r3, r3, #0, #12
 8000ef4:	f443 4340 	orr.w	r3, r3, #49152	@ 0xc000
 8000ef8:	6879      	ldr	r1, [r7, #4]
 8000efa:	6809      	ldr	r1, [r1, #0]
 8000efc:	4313      	orrs	r3, r2
 8000efe:	61cb      	str	r3, [r1, #28]

  /*---------------------------- I2Cx CR1 Configuration ----------------------*/
  /* Configure I2Cx: Generalcall and NoStretch mode */
  MODIFY_REG(hi2c->Instance->CR1, (I2C_CR1_ENGC | I2C_CR1_NOSTRETCH), (hi2c->Init.GeneralCallMode | hi2c->Init.NoStretchMode));
 8000f00:	687b      	ldr	r3, [r7, #4]
 8000f02:	681b      	ldr	r3, [r3, #0]
 8000f04:	681b      	ldr	r3, [r3, #0]
 8000f06:	f023 01c0 	bic.w	r1, r3, #192	@ 0xc0
 8000f0a:	687b      	ldr	r3, [r7, #4]
 8000f0c:	69da      	ldr	r2, [r3, #28]
 8000f0e:	687b      	ldr	r3, [r7, #4]
 8000f10:	6a1b      	ldr	r3, [r3, #32]
 8000f12:	431a      	orrs	r2, r3
 8000f14:	687b      	ldr	r3, [r7, #4]
 8000f16:	681b      	ldr	r3, [r3, #0]
 8000f18:	430a      	orrs	r2, r1
 8000f1a:	601a      	str	r2, [r3, #0]

  /*---------------------------- I2Cx OAR1 Configuration ---------------------*/
  /* Configure I2Cx: Own Address1 and addressing mode */
  MODIFY_REG(hi2c->Instance->OAR1, (I2C_OAR1_ADDMODE | I2C_OAR1_ADD8_9 | I2C_OAR1_ADD1_7 | I2C_OAR1_ADD0), (hi2c->Init.AddressingMode | hi2c->Init.OwnAddress1));
 8000f1c:	687b      	ldr	r3, [r7, #4]
 8000f1e:	681b      	ldr	r3, [r3, #0]
 8000f20:	689b      	ldr	r3, [r3, #8]
 8000f22:	f423 4303 	bic.w	r3, r3, #33536	@ 0x8300
 8000f26:	f023 03ff 	bic.w	r3, r3, #255	@ 0xff
 8000f2a:	687a      	ldr	r2, [r7, #4]
 8000f2c:	6911      	ldr	r1, [r2, #16]
 8000f2e:	687a      	ldr	r2, [r7, #4]
 8000f30:	68d2      	ldr	r2, [r2, #12]
 8000f32:	4311      	orrs	r1, r2
 8000f34:	687a      	ldr	r2, [r7, #4]
 8000f36:	6812      	ldr	r2, [r2, #0]
 8000f38:	430b      	orrs	r3, r1
 8000f3a:	6093      	str	r3, [r2, #8]

  /*---------------------------- I2Cx OAR2 Configuration ---------------------*/
  /* Configure I2Cx: Dual mode and Own Address2 */
  MODIFY_REG(hi2c->Instance->OAR2, (I2C_OAR2_ENDUAL | I2C_OAR2_ADD2), (hi2c->Init.DualAddressMode | hi2c->Init.OwnAddress2));
 8000f3c:	687b      	ldr	r3, [r7, #4]
 8000f3e:	681b      	ldr	r3, [r3, #0]
 8000f40:	68db      	ldr	r3, [r3, #12]
 8000f42:	f023 01ff 	bic.w	r1, r3, #255	@ 0xff
 8000f46:	687b      	ldr	r3, [r7, #4]
 8000f48:	695a      	ldr	r2, [r3, #20]
 8000f4a:	687b      	ldr	r3, [r7, #4]
 8000f4c:	699b      	ldr	r3, [r3, #24]
 8000f4e:	431a      	orrs	r2, r3
 8000f50:	687b      	ldr	r3, [r7, #4]
 8000f52:	681b      	ldr	r3, [r3, #0]
 8000f54:	430a      	orrs	r2, r1
 8000f56:	60da      	str	r2, [r3, #12]

  /* Enable the selected I2C peripheral */
  __HAL_I2C_ENABLE(hi2c);
 8000f58:	687b      	ldr	r3, [r7, #4]
 8000f5a:	681b      	ldr	r3, [r3, #0]
 8000f5c:	681a      	ldr	r2, [r3, #0]
 8000f5e:	687b      	ldr	r3, [r7, #4]
 8000f60:	681b      	ldr	r3, [r3, #0]
 8000f62:	f042 0201 	orr.w	r2, r2, #1
 8000f66:	601a      	str	r2, [r3, #0]

  hi2c->ErrorCode = HAL_I2C_ERROR_NONE;
 8000f68:	687b      	ldr	r3, [r7, #4]
 8000f6a:	2200      	movs	r2, #0
 8000f6c:	641a      	str	r2, [r3, #64]	@ 0x40
  hi2c->State = HAL_I2C_STATE_READY;
 8000f6e:	687b      	ldr	r3, [r7, #4]
 8000f70:	2220      	movs	r2, #32
 8000f72:	f883 203d 	strb.w	r2, [r3, #61]	@ 0x3d
  hi2c->PreviousState = I2C_STATE_NONE;
 8000f76:	687b      	ldr	r3, [r7, #4]
 8000f78:	2200      	movs	r2, #0
 8000f7a:	631a      	str	r2, [r3, #48]	@ 0x30
  hi2c->Mode = HAL_I2C_MODE_NONE;
 8000f7c:	687b      	ldr	r3, [r7, #4]
 8000f7e:	2200      	movs	r2, #0
 8000f80:	f883 203e 	strb.w	r2, [r3, #62]	@ 0x3e

  return HAL_OK;
 8000f84:	2300      	movs	r3, #0
}
 8000f86:	4618      	mov	r0, r3
 8000f88:	3710      	adds	r7, #16
 8000f8a:	46bd      	mov	sp, r7
 8000f8c:	bd80      	pop	{r7, pc}
 8000f8e:	bf00      	nop
 8000f90:	000186a0 	.word	0x000186a0
 8000f94:	001e847f 	.word	0x001e847f
 8000f98:	003d08ff 	.word	0x003d08ff
 8000f9c:	431bde83 	.word	0x431bde83
 8000fa0:	10624dd3 	.word	0x10624dd3

08000fa4 <HAL_RCC_OscConfig>:
  *         supported by this macro. User should request a transition to HSE Off
  *         first and then HSE On or HSE Bypass.
  * @retval HAL status
  */
HAL_StatusTypeDef HAL_RCC_OscConfig(RCC_OscInitTypeDef  *RCC_OscInitStruct)
{
 8000fa4:	b580      	push	{r7, lr}
 8000fa6:	b086      	sub	sp, #24
 8000fa8:	af00      	add	r7, sp, #0
 8000faa:	6078      	str	r0, [r7, #4]
  uint32_t tickstart;
  uint32_t pll_config;

  /* Check Null pointer */
  if (RCC_OscInitStruct == NULL)
 8000fac:	687b      	ldr	r3, [r7, #4]
 8000fae:	2b00      	cmp	r3, #0
 8000fb0:	d101      	bne.n	8000fb6 <HAL_RCC_OscConfig+0x12>
  {
    return HAL_ERROR;
 8000fb2:	2301      	movs	r3, #1
 8000fb4:	e272      	b.n	800149c <HAL_RCC_OscConfig+0x4f8>

  /* Check the parameters */
  assert_param(IS_RCC_OSCILLATORTYPE(RCC_OscInitStruct->OscillatorType));

  /*------------------------------- HSE Configuration ------------------------*/
  if (((RCC_OscInitStruct->OscillatorType) & RCC_OSCILLATORTYPE_HSE) == RCC_OSCILLATORTYPE_HSE)
 8000fb6:	687b      	ldr	r3, [r7, #4]
 8000fb8:	681b      	ldr	r3, [r3, #0]
 8000fba:	f003 0301 	and.w	r3, r3, #1
 8000fbe:	2b00      	cmp	r3, #0
 8000fc0:	f000 8087 	beq.w	80010d2 <HAL_RCC_OscConfig+0x12e>
  {
    /* Check the parameters */
    assert_param(IS_RCC_HSE(RCC_OscInitStruct->HSEState));

    /* When the HSE is used as system clock or clock source for PLL in these cases it is not allowed to be disabled */
    if ((__HAL_RCC_GET_SYSCLK_SOURCE() == RCC_SYSCLKSOURCE_STATUS_HSE)
 8000fc4:	4b92      	ldr	r3, [pc, #584]	@ (8001210 <HAL_RCC_OscConfig+0x26c>)
 8000fc6:	685b      	ldr	r3, [r3, #4]
 8000fc8:	f003 030c 	and.w	r3, r3, #12
 8000fcc:	2b04      	cmp	r3, #4
 8000fce:	d00c      	beq.n	8000fea <HAL_RCC_OscConfig+0x46>
        || ((__HAL_RCC_GET_SYSCLK_SOURCE() == RCC_SYSCLKSOURCE_STATUS_PLLCLK) && (__HAL_RCC_GET_PLL_OSCSOURCE() == RCC_PLLSOURCE_HSE)))
 8000fd0:	4b8f      	ldr	r3, [pc, #572]	@ (8001210 <HAL_RCC_OscConfig+0x26c>)
 8000fd2:	685b      	ldr	r3, [r3, #4]
 8000fd4:	f003 030c 	and.w	r3, r3, #12
 8000fd8:	2b08      	cmp	r3, #8
 8000fda:	d112      	bne.n	8001002 <HAL_RCC_OscConfig+0x5e>
 8000fdc:	4b8c      	ldr	r3, [pc, #560]	@ (8001210 <HAL_RCC_OscConfig+0x26c>)
 8000fde:	685b      	ldr	r3, [r3, #4]
 8000fe0:	f403 3380 	and.w	r3, r3, #65536	@ 0x10000
 8000fe4:	f5b3 3f80 	cmp.w	r3, #65536	@ 0x10000
 8000fe8:	d10b      	bne.n	8001002 <HAL_RCC_OscConfig+0x5e>
    {
      if ((__HAL_RCC_GET_FLAG(RCC_FLAG_HSERDY) != RESET) && (RCC_OscInitStruct->HSEState == RCC_HSE_OFF))
 8000fea:	4b89      	ldr	r3, [pc, #548]	@ (8001210 <HAL_RCC_OscConfig+0x26c>)
 8000fec:	681b      	ldr	r3, [r3, #0]
 8000fee:	f403 3300 	and.w	r3, r3, #131072	@ 0x20000
 8000ff2:	2b00      	cmp	r3, #0
 8000ff4:	d06c      	beq.n	80010d0 <HAL_RCC_OscConfig+0x12c>
 8000ff6:	687b      	ldr	r3, [r7, #4]
 8000ff8:	685b      	ldr	r3, [r3, #4]
 8000ffa:	2b00      	cmp	r3, #0
 8000ffc:	d168      	bne.n	80010d0 <HAL_RCC_OscConfig+0x12c>
      {
        return HAL_ERROR;
 8000ffe:	2301      	movs	r3, #1
 8001000:	e24c      	b.n	800149c <HAL_RCC_OscConfig+0x4f8>
      }
    }
    else
    {
      /* Set the new HSE configuration ---------------------------------------*/
      __HAL_RCC_HSE_CONFIG(RCC_OscInitStruct->HSEState);
 8001002:	687b      	ldr	r3, [r7, #4]
 8001004:	685b      	ldr	r3, [r3, #4]
 8001006:	f5b3 3f80 	cmp.w	r3, #65536	@ 0x10000
 800100a:	d106      	bne.n	800101a <HAL_RCC_OscConfig+0x76>
 800100c:	4b80      	ldr	r3, [pc, #512]	@ (8001210 <HAL_RCC_OscConfig+0x26c>)
 800100e:	681b      	ldr	r3, [r3, #0]
 8001010:	4a7f      	ldr	r2, [pc, #508]	@ (8001210 <HAL_RCC_OscConfig+0x26c>)
 8001012:	f443 3380 	orr.w	r3, r3, #65536	@ 0x10000
 8001016:	6013      	str	r3, [r2, #0]
 8001018:	e02e      	b.n	8001078 <HAL_RCC_OscConfig+0xd4>
 800101a:	687b      	ldr	r3, [r7, #4]
 800101c:	685b      	ldr	r3, [r3, #4]
 800101e:	2b00      	cmp	r3, #0
 8001020:	d10c      	bne.n	800103c <HAL_RCC_OscConfig+0x98>
 8001022:	4b7b      	ldr	r3, [pc, #492]	@ (8001210 <HAL_RCC_OscConfig+0x26c>)
 8001024:	681b      	ldr	r3, [r3, #0]
 8001026:	4a7a      	ldr	r2, [pc, #488]	@ (8001210 <HAL_RCC_OscConfig+0x26c>)
 8001028:	f423 3380 	bic.w	r3, r3, #65536	@ 0x10000
 800102c:	6013      	str	r3, [r2, #0]
 800102e:	4b78      	ldr	r3, [pc, #480]	@ (8001210 <HAL_RCC_OscConfig+0x26c>)
 8001030:	681b      	ldr	r3, [r3, #0]
 8001032:	4a77      	ldr	r2, [pc, #476]	@ (8001210 <HAL_RCC_OscConfig+0x26c>)
 8001034:	f423 2380 	bic.w	r3, r3, #262144	@ 0x40000
 8001038:	6013      	str	r3, [r2, #0]
 800103a:	e01d      	b.n	8001078 <HAL_RCC_OscConfig+0xd4>
 800103c:	687b      	ldr	r3, [r7, #4]
 800103e:	685b      	ldr	r3, [r3, #4]
 8001040:	f5b3 2fa0 	cmp.w	r3, #327680	@ 0x50000
 8001044:	d10c      	bne.n	8001060 <HAL_RCC_OscConfig+0xbc>
 8001046:	4b72      	ldr	r3, [pc, #456]	@ (8001210 <HAL_RCC_OscConfig+0x26c>)
 8001048:	681b      	ldr	r3, [r3, #0]
 800104a:	4a71      	ldr	r2, [pc, #452]	@ (8001210 <HAL_RCC_OscConfig+0x26c>)
 800104c:	f443 2380 	orr.w	r3, r3, #262144	@ 0x40000
 8001050:	6013      	str	r3, [r2, #0]
 8001052:	4b6f      	ldr	r3, [pc, #444]	@ (8001210 <HAL_RCC_OscConfig+0x26c>)
 8001054:	681b      	ldr	r3, [r3, #0]
 8001056:	4a6e      	ldr	r2, [pc, #440]	@ (8001210 <HAL_RCC_OscConfig+0x26c>)
 8001058:	f443 3380 	orr.w	r3, r3, #65536	@ 0x10000
 800105c:	6013      	str	r3, [r2, #0]
 800105e:	e00b      	b.n	8001078 <HAL_RCC_OscConfig+0xd4>
 8001060:	4b6b      	ldr	r3, [pc, #428]	@ (8001210 <HAL_RCC_OscConfig+0x26c>)
 8001062:	681b      	ldr	r3, [r3, #0]
 8001064:	4a6a      	ldr	r2, [pc, #424]	@ (8001210 <HAL_RCC_OscConfig+0x26c>)
 8001066:	f423 3380 	bic.w	r3, r3, #65536	@ 0x10000
 800106a:	6013      	str	r3, [r2, #0]
 800106c:	4b68      	ldr	r3, [pc, #416]	@ (8001210 <HAL_RCC_OscConfig+0x26c>)
 800106e:	681b      	ldr	r3, [r3, #0]
 8001070:	4a67      	ldr	r2, [pc, #412]	@ (8001210 <HAL_RCC_OscConfig+0x26c>)
 8001072:	f423 2380 	bic.w	r3, r3, #262144	@ 0x40000
 8001076:	6013      	str	r3, [r2, #0]


      /* Check the HSE State */
      if (RCC_OscInitStruct->HSEState != RCC_HSE_OFF)
 8001078:	687b      	ldr	r3, [r7, #4]
 800107a:	685b      	ldr	r3, [r3, #4]
 800107c:	2b00      	cmp	r3, #0
 800107e:	d013      	beq.n	80010a8 <HAL_RCC_OscConfig+0x104>
      {
        /* Get Start Tick */
        tickstart = HAL_GetTick();
 8001080:	f7ff fbca 	bl	8000818 <HAL_GetTick>
 8001084:	6138      	str	r0, [r7, #16]

        /* Wait till HSE is ready */
        while (__HAL_RCC_GET_FLAG(RCC_FLAG_HSERDY) == RESET)
 8001086:	e008      	b.n	800109a <HAL_RCC_OscConfig+0xf6>
        {
          if ((HAL_GetTick() - tickstart) > HSE_TIMEOUT_VALUE)
 8001088:	f7ff fbc6 	bl	8000818 <HAL_GetTick>
 800108c:	4602      	mov	r2, r0
 800108e:	693b      	ldr	r3, [r7, #16]
 8001090:	1ad3      	subs	r3, r2, r3
 8001092:	2b64      	cmp	r3, #100	@ 0x64
 8001094:	d901      	bls.n	800109a <HAL_RCC_OscConfig+0xf6>
          {
            return HAL_TIMEOUT;
 8001096:	2303      	movs	r3, #3
 8001098:	e200      	b.n	800149c <HAL_RCC_OscConfig+0x4f8>
        while (__HAL_RCC_GET_FLAG(RCC_FLAG_HSERDY) == RESET)
 800109a:	4b5d      	ldr	r3, [pc, #372]	@ (8001210 <HAL_RCC_OscConfig+0x26c>)
 800109c:	681b      	ldr	r3, [r3, #0]
 800109e:	f403 3300 	and.w	r3, r3, #131072	@ 0x20000
 80010a2:	2b00      	cmp	r3, #0
 80010a4:	d0f0      	beq.n	8001088 <HAL_RCC_OscConfig+0xe4>
 80010a6:	e014      	b.n	80010d2 <HAL_RCC_OscConfig+0x12e>
        }
      }
      else
      {
        /* Get Start Tick */
        tickstart = HAL_GetTick();
 80010a8:	f7ff fbb6 	bl	8000818 <HAL_GetTick>
 80010ac:	6138      	str	r0, [r7, #16]

        /* Wait till HSE is disabled */
        while (__HAL_RCC_GET_FLAG(RCC_FLAG_HSERDY) != RESET)
 80010ae:	e008      	b.n	80010c2 <HAL_RCC_OscConfig+0x11e>
        {
          if ((HAL_GetTick() - tickstart) > HSE_TIMEOUT_VALUE)
 80010b0:	f7ff fbb2 	bl	8000818 <HAL_GetTick>
 80010b4:	4602      	mov	r2, r0
 80010b6:	693b      	ldr	r3, [r7, #16]
 80010b8:	1ad3      	subs	r3, r2, r3
 80010ba:	2b64      	cmp	r3, #100	@ 0x64
 80010bc:	d901      	bls.n	80010c2 <HAL_RCC_OscConfig+0x11e>
          {
            return HAL_TIMEOUT;
 80010be:	2303      	movs	r3, #3
 80010c0:	e1ec      	b.n	800149c <HAL_RCC_OscConfig+0x4f8>
        while (__HAL_RCC_GET_FLAG(RCC_FLAG_HSERDY) != RESET)
 80010c2:	4b53      	ldr	r3, [pc, #332]	@ (8001210 <HAL_RCC_OscConfig+0x26c>)
 80010c4:	681b      	ldr	r3, [r3, #0]
 80010c6:	f403 3300 	and.w	r3, r3, #131072	@ 0x20000
 80010ca:	2b00      	cmp	r3, #0
 80010cc:	d1f0      	bne.n	80010b0 <HAL_RCC_OscConfig+0x10c>
 80010ce:	e000      	b.n	80010d2 <HAL_RCC_OscConfig+0x12e>
      if ((__HAL_RCC_GET_FLAG(RCC_FLAG_HSERDY) != RESET) && (RCC_OscInitStruct->HSEState == RCC_HSE_OFF))
 80010d0:	bf00      	nop
        }
      }
    }
  }
  /*----------------------------- HSI Configuration --------------------------*/
  if (((RCC_OscInitStruct->OscillatorType) & RCC_OSCILLATORTYPE_HSI) == RCC_OSCILLATORTYPE_HSI)
 80010d2:	687b      	ldr	r3, [r7, #4]
 80010d4:	681b      	ldr	r3, [r3, #0]
 80010d6:	f003 0302 	and.w	r3, r3, #2
 80010da:	2b00      	cmp	r3, #0
 80010dc:	d063      	beq.n	80011a6 <HAL_RCC_OscConfig+0x202>
    /* Check the parameters */
    assert_param(IS_RCC_HSI(RCC_OscInitStruct->HSIState));
    assert_param(IS_RCC_CALIBRATION_VALUE(RCC_OscInitStruct->HSICalibrationValue));

    /* Check if HSI is used as system clock or as PLL source when PLL is selected as system clock */
    if ((__HAL_RCC_GET_SYSCLK_SOURCE() == RCC_SYSCLKSOURCE_STATUS_HSI)
 80010de:	4b4c      	ldr	r3, [pc, #304]	@ (8001210 <HAL_RCC_OscConfig+0x26c>)
 80010e0:	685b      	ldr	r3, [r3, #4]
 80010e2:	f003 030c 	and.w	r3, r3, #12
 80010e6:	2b00      	cmp	r3, #0
 80010e8:	d00b      	beq.n	8001102 <HAL_RCC_OscConfig+0x15e>
        || ((__HAL_RCC_GET_SYSCLK_SOURCE() == RCC_SYSCLKSOURCE_STATUS_PLLCLK) && (__HAL_RCC_GET_PLL_OSCSOURCE() == RCC_PLLSOURCE_HSI_DIV2)))
 80010ea:	4b49      	ldr	r3, [pc, #292]	@ (8001210 <HAL_RCC_OscConfig+0x26c>)
 80010ec:	685b      	ldr	r3, [r3, #4]
 80010ee:	f003 030c 	and.w	r3, r3, #12
 80010f2:	2b08      	cmp	r3, #8
 80010f4:	d11c      	bne.n	8001130 <HAL_RCC_OscConfig+0x18c>
 80010f6:	4b46      	ldr	r3, [pc, #280]	@ (8001210 <HAL_RCC_OscConfig+0x26c>)
 80010f8:	685b      	ldr	r3, [r3, #4]
 80010fa:	f403 3380 	and.w	r3, r3, #65536	@ 0x10000
 80010fe:	2b00      	cmp	r3, #0
 8001100:	d116      	bne.n	8001130 <HAL_RCC_OscConfig+0x18c>
    {
      /* When HSI is used as system clock it will not disabled */
      if ((__HAL_RCC_GET_FLAG(RCC_FLAG_HSIRDY) != RESET) && (RCC_OscInitStruct->HSIState != RCC_HSI_ON))
 8001102:	4b43      	ldr	r3, [pc, #268]	@ (8001210 <HAL_RCC_OscConfig+0x26c>)
 8001104:	681b      	ldr	r3, [r3, #0]
 8001106:	f003 0302 	and.w	r3, r3, #2
 800110a:	2b00      	cmp	r3, #0
 800110c:	d005      	beq.n	800111a <HAL_RCC_OscConfig+0x176>
 800110e:	687b      	ldr	r3, [r7, #4]
 8001110:	691b      	ldr	r3, [r3, #16]
 8001112:	2b01      	cmp	r3, #1
 8001114:	d001      	beq.n	800111a <HAL_RCC_OscConfig+0x176>
      {
        return HAL_ERROR;
 8001116:	2301      	movs	r3, #1
 8001118:	e1c0      	b.n	800149c <HAL_RCC_OscConfig+0x4f8>
      }
      /* Otherwise, just the calibration is allowed */
      else
      {
        /* Adjusts the Internal High Speed oscillator (HSI) calibration value.*/
        __HAL_RCC_HSI_CALIBRATIONVALUE_ADJUST(RCC_OscInitStruct->HSICalibrationValue);
 800111a:	4b3d      	ldr	r3, [pc, #244]	@ (8001210 <HAL_RCC_OscConfig+0x26c>)
 800111c:	681b      	ldr	r3, [r3, #0]
 800111e:	f023 02f8 	bic.w	r2, r3, #248	@ 0xf8
 8001122:	687b      	ldr	r3, [r7, #4]
 8001124:	695b      	ldr	r3, [r3, #20]
 8001126:	00db      	lsls	r3, r3, #3
 8001128:	4939      	ldr	r1, [pc, #228]	@ (8001210 <HAL_RCC_OscConfig+0x26c>)
 800112a:	4313      	orrs	r3, r2
 800112c:	600b      	str	r3, [r1, #0]
      if ((__HAL_RCC_GET_FLAG(RCC_FLAG_HSIRDY) != RESET) && (RCC_OscInitStruct->HSIState != RCC_HSI_ON))
 800112e:	e03a      	b.n	80011a6 <HAL_RCC_OscConfig+0x202>
      }
    }
    else
    {
      /* Check the HSI State */
      if (RCC_OscInitStruct->HSIState != RCC_HSI_OFF)
 8001130:	687b      	ldr	r3, [r7, #4]
 8001132:	691b      	ldr	r3, [r3, #16]
 8001134:	2b00      	cmp	r3, #0
 8001136:	d020      	beq.n	800117a <HAL_RCC_OscConfig+0x1d6>
      {
        /* Enable the Internal High Speed oscillator (HSI). */
        __HAL_RCC_HSI_ENABLE();
 8001138:	4b36      	ldr	r3, [pc, #216]	@ (8001214 <HAL_RCC_OscConfig+0x270>)
 800113a:	2201      	movs	r2, #1
 800113c:	601a      	str	r2, [r3, #0]

        /* Get Start Tick */
        tickstart = HAL_GetTick();
 800113e:	f7ff fb6b 	bl	8000818 <HAL_GetTick>
 8001142:	6138      	str	r0, [r7, #16]

        /* Wait till HSI is ready */
        while (__HAL_RCC_GET_FLAG(RCC_FLAG_HSIRDY) == RESET)
 8001144:	e008      	b.n	8001158 <HAL_RCC_OscConfig+0x1b4>
        {
          if ((HAL_GetTick() - tickstart) > HSI_TIMEOUT_VALUE)
 8001146:	f7ff fb67 	bl	8000818 <HAL_GetTick>
 800114a:	4602      	mov	r2, r0
 800114c:	693b      	ldr	r3, [r7, #16]
 800114e:	1ad3      	subs	r3, r2, r3
 8001150:	2b02      	cmp	r3, #2
 8001152:	d901      	bls.n	8001158 <HAL_RCC_OscConfig+0x1b4>
          {
            return HAL_TIMEOUT;
 8001154:	2303      	movs	r3, #3
 8001156:	e1a1      	b.n	800149c <HAL_RCC_OscConfig+0x4f8>
        while (__HAL_RCC_GET_FLAG(RCC_FLAG_HSIRDY) == RESET)
 8001158:	4b2d      	ldr	r3, [pc, #180]	@ (8001210 <HAL_RCC_OscConfig+0x26c>)
 800115a:	681b      	ldr	r3, [r3, #0]
 800115c:	f003 0302 	and.w	r3, r3, #2
 8001160:	2b00      	cmp	r3, #0
 8001162:	d0f0      	beq.n	8001146 <HAL_RCC_OscConfig+0x1a2>
          }
        }

        /* Adjusts the Internal High Speed oscillator (HSI) calibration value.*/
        __HAL_RCC_HSI_CALIBRATIONVALUE_ADJUST(RCC_OscInitStruct->HSICalibrationValue);
 8001164:	4b2a      	ldr	r3, [pc, #168]	@ (8001210 <HAL_RCC_OscConfig+0x26c>)
 8001166:	681b      	ldr	r3, [r3, #0]
 8001168:	f023 02f8 	bic.w	r2, r3, #248	@ 0xf8
 800116c:	687b      	ldr	r3, [r7, #4]
 800116e:	695b      	ldr	r3, [r3, #20]
 8001170:	00db      	lsls	r3, r3, #3
 8001172:	4927      	ldr	r1, [pc, #156]	@ (8001210 <HAL_RCC_OscConfig+0x26c>)
 8001174:	4313      	orrs	r3, r2
 8001176:	600b      	str	r3, [r1, #0]
 8001178:	e015      	b.n	80011a6 <HAL_RCC_OscConfig+0x202>
      }
      else
      {
        /* Disable the Internal High Speed oscillator (HSI). */
        __HAL_RCC_HSI_DISABLE();
 800117a:	4b26      	ldr	r3, [pc, #152]	@ (8001214 <HAL_RCC_OscConfig+0x270>)
 800117c:	2200      	movs	r2, #0
 800117e:	601a      	str	r2, [r3, #0]

        /* Get Start Tick */
        tickstart = HAL_GetTick();
 8001180:	f7ff fb4a 	bl	8000818 <HAL_GetTick>
 8001184:	6138      	str	r0, [r7, #16]

        /* Wait till HSI is disabled */
        while (__HAL_RCC_GET_FLAG(RCC_FLAG_HSIRDY) != RESET)
 8001186:	e008      	b.n	800119a <HAL_RCC_OscConfig+0x1f6>
        {
          if ((HAL_GetTick() - tickstart) > HSI_TIMEOUT_VALUE)
 8001188:	f7ff fb46 	bl	8000818 <HAL_GetTick>
 800118c:	4602      	mov	r2, r0
 800118e:	693b      	ldr	r3, [r7, #16]
 8001190:	1ad3      	subs	r3, r2, r3
 8001192:	2b02      	cmp	r3, #2
 8001194:	d901      	bls.n	800119a <HAL_RCC_OscConfig+0x1f6>
          {
            return HAL_TIMEOUT;
 8001196:	2303      	movs	r3, #3
 8001198:	e180      	b.n	800149c <HAL_RCC_OscConfig+0x4f8>
        while (__HAL_RCC_GET_FLAG(RCC_FLAG_HSIRDY) != RESET)
 800119a:	4b1d      	ldr	r3, [pc, #116]	@ (8001210 <HAL_RCC_OscConfig+0x26c>)
 800119c:	681b      	ldr	r3, [r3, #0]
 800119e:	f003 0302 	and.w	r3, r3, #2
 80011a2:	2b00      	cmp	r3, #0
 80011a4:	d1f0      	bne.n	8001188 <HAL_RCC_OscConfig+0x1e4>
        }
      }
    }
  }
  /*------------------------------ LSI Configuration -------------------------*/
  if (((RCC_OscInitStruct->OscillatorType) & RCC_OSCILLATORTYPE_LSI) == RCC_OSCILLATORTYPE_LSI)
 80011a6:	687b      	ldr	r3, [r7, #4]
 80011a8:	681b      	ldr	r3, [r3, #0]
 80011aa:	f003 0308 	and.w	r3, r3, #8
 80011ae:	2b00      	cmp	r3, #0
 80011b0:	d03a      	beq.n	8001228 <HAL_RCC_OscConfig+0x284>
  {
    /* Check the parameters */
    assert_param(IS_RCC_LSI(RCC_OscInitStruct->LSIState));

    /* Check the LSI State */
    if (RCC_OscInitStruct->LSIState != RCC_LSI_OFF)
 80011b2:	687b      	ldr	r3, [r7, #4]
 80011b4:	699b      	ldr	r3, [r3, #24]
 80011b6:	2b00      	cmp	r3, #0
 80011b8:	d019      	beq.n	80011ee <HAL_RCC_OscConfig+0x24a>
    {
      /* Enable the Internal Low Speed oscillator (LSI). */
      __HAL_RCC_LSI_ENABLE();
 80011ba:	4b17      	ldr	r3, [pc, #92]	@ (8001218 <HAL_RCC_OscConfig+0x274>)
 80011bc:	2201      	movs	r2, #1
 80011be:	601a      	str	r2, [r3, #0]

      /* Get Start Tick */
      tickstart = HAL_GetTick();
 80011c0:	f7ff fb2a 	bl	8000818 <HAL_GetTick>
 80011c4:	6138      	str	r0, [r7, #16]

      /* Wait till LSI is ready */
      while (__HAL_RCC_GET_FLAG(RCC_FLAG_LSIRDY) == RESET)
 80011c6:	e008      	b.n	80011da <HAL_RCC_OscConfig+0x236>
      {
        if ((HAL_GetTick() - tickstart) > LSI_TIMEOUT_VALUE)
 80011c8:	f7ff fb26 	bl	8000818 <HAL_GetTick>
 80011cc:	4602      	mov	r2, r0
 80011ce:	693b      	ldr	r3, [r7, #16]
 80011d0:	1ad3      	subs	r3, r2, r3
 80011d2:	2b02      	cmp	r3, #2
 80011d4:	d901      	bls.n	80011da <HAL_RCC_OscConfig+0x236>
        {
          return HAL_TIMEOUT;
 80011d6:	2303      	movs	r3, #3
 80011d8:	e160      	b.n	800149c <HAL_RCC_OscConfig+0x4f8>
      while (__HAL_RCC_GET_FLAG(RCC_FLAG_LSIRDY) == RESET)
 80011da:	4b0d      	ldr	r3, [pc, #52]	@ (8001210 <HAL_RCC_OscConfig+0x26c>)
 80011dc:	6a5b      	ldr	r3, [r3, #36]	@ 0x24
 80011de:	f003 0302 	and.w	r3, r3, #2
 80011e2:	2b00      	cmp	r3, #0
 80011e4:	d0f0      	beq.n	80011c8 <HAL_RCC_OscConfig+0x224>
        }
      }
      /*  To have a fully stabilized clock in the specified range, a software delay of 1ms
          should be added.*/
      RCC_Delay(1);
 80011e6:	2001      	movs	r0, #1
 80011e8:	f000 face 	bl	8001788 <RCC_Delay>
 80011ec:	e01c      	b.n	8001228 <HAL_RCC_OscConfig+0x284>
    }
    else
    {
      /* Disable the Internal Low Speed oscillator (LSI). */
      __HAL_RCC_LSI_DISABLE();
 80011ee:	4b0a      	ldr	r3, [pc, #40]	@ (8001218 <HAL_RCC_OscConfig+0x274>)
 80011f0:	2200      	movs	r2, #0
 80011f2:	601a      	str	r2, [r3, #0]

      /* Get Start Tick */
      tickstart = HAL_GetTick();
 80011f4:	f7ff fb10 	bl	8000818 <HAL_GetTick>
 80011f8:	6138      	str	r0, [r7, #16]

      /* Wait till LSI is disabled */
      while (__HAL_RCC_GET_FLAG(RCC_FLAG_LSIRDY) != RESET)
 80011fa:	e00f      	b.n	800121c <HAL_RCC_OscConfig+0x278>
      {
        if ((HAL_GetTick() - tickstart) > LSI_TIMEOUT_VALUE)
 80011fc:	f7ff fb0c 	bl	8000818 <HAL_GetTick>
 8001200:	4602      	mov	r2, r0
 8001202:	693b      	ldr	r3, [r7, #16]
 8001204:	1ad3      	subs	r3, r2, r3
 8001206:	2b02      	cmp	r3, #2
 8001208:	d908      	bls.n	800121c <HAL_RCC_OscConfig+0x278>
        {
          return HAL_TIMEOUT;
 800120a:	2303      	movs	r3, #3
 800120c:	e146      	b.n	800149c <HAL_RCC_OscConfig+0x4f8>
 800120e:	bf00      	nop
 8001210:	40021000 	.word	0x40021000
 8001214:	42420000 	.word	0x42420000
 8001218:	42420480 	.word	0x42420480
      while (__HAL_RCC_GET_FLAG(RCC_FLAG_LSIRDY) != RESET)
 800121c:	4b92      	ldr	r3, [pc, #584]	@ (8001468 <HAL_RCC_OscConfig+0x4c4>)
 800121e:	6a5b      	ldr	r3, [r3, #36]	@ 0x24
 8001220:	f003 0302 	and.w	r3, r3, #2
 8001224:	2b00      	cmp	r3, #0
 8001226:	d1e9      	bne.n	80011fc <HAL_RCC_OscConfig+0x258>
        }
      }
    }
  }
  /*------------------------------ LSE Configuration -------------------------*/
  if (((RCC_OscInitStruct->OscillatorType) & RCC_OSCILLATORTYPE_LSE) == RCC_OSCILLATORTYPE_LSE)
 8001228:	687b      	ldr	r3, [r7, #4]
 800122a:	681b      	ldr	r3, [r3, #0]
 800122c:	f003 0304 	and.w	r3, r3, #4
 8001230:	2b00      	cmp	r3, #0
 8001232:	f000 80a6 	beq.w	8001382 <HAL_RCC_OscConfig+0x3de>
  {
    FlagStatus       pwrclkchanged = RESET;
 8001236:	2300      	movs	r3, #0
 8001238:	75fb      	strb	r3, [r7, #23]
    /* Check the parameters */
    assert_param(IS_RCC_LSE(RCC_OscInitStruct->LSEState));

    /* Update LSE configuration in Backup Domain control register    */
    /* Requires to enable write access to Backup Domain of necessary */
    if (__HAL_RCC_PWR_IS_CLK_DISABLED())
 800123a:	4b8b      	ldr	r3, [pc, #556]	@ (8001468 <HAL_RCC_OscConfig+0x4c4>)
 800123c:	69db      	ldr	r3, [r3, #28]
 800123e:	f003 5380 	and.w	r3, r3, #268435456	@ 0x10000000
 8001242:	2b00      	cmp	r3, #0
 8001244:	d10d      	bne.n	8001262 <HAL_RCC_OscConfig+0x2be>
    {
      __HAL_RCC_PWR_CLK_ENABLE();
 8001246:	4b88      	ldr	r3, [pc, #544]	@ (8001468 <HAL_RCC_OscConfig+0x4c4>)
 8001248:	69db      	ldr	r3, [r3, #28]
 800124a:	4a87      	ldr	r2, [pc, #540]	@ (8001468 <HAL_RCC_OscConfig+0x4c4>)
 800124c:	f043 5380 	orr.w	r3, r3, #268435456	@ 0x10000000
 8001250:	61d3      	str	r3, [r2, #28]
 8001252:	4b85      	ldr	r3, [pc, #532]	@ (8001468 <HAL_RCC_OscConfig+0x4c4>)
 8001254:	69db      	ldr	r3, [r3, #28]
 8001256:	f003 5380 	and.w	r3, r3, #268435456	@ 0x10000000
 800125a:	60bb      	str	r3, [r7, #8]
 800125c:	68bb      	ldr	r3, [r7, #8]
      pwrclkchanged = SET;
 800125e:	2301      	movs	r3, #1
 8001260:	75fb      	strb	r3, [r7, #23]
    }

    if (HAL_IS_BIT_CLR(PWR->CR, PWR_CR_DBP))
 8001262:	4b82      	ldr	r3, [pc, #520]	@ (800146c <HAL_RCC_OscConfig+0x4c8>)
 8001264:	681b      	ldr	r3, [r3, #0]
 8001266:	f403 7380 	and.w	r3, r3, #256	@ 0x100
 800126a:	2b00      	cmp	r3, #0
 800126c:	d118      	bne.n	80012a0 <HAL_RCC_OscConfig+0x2fc>
    {
      /* Enable write access to Backup domain */
      SET_BIT(PWR->CR, PWR_CR_DBP);
 800126e:	4b7f      	ldr	r3, [pc, #508]	@ (800146c <HAL_RCC_OscConfig+0x4c8>)
 8001270:	681b      	ldr	r3, [r3, #0]
 8001272:	4a7e      	ldr	r2, [pc, #504]	@ (800146c <HAL_RCC_OscConfig+0x4c8>)
 8001274:	f443 7380 	orr.w	r3, r3, #256	@ 0x100
 8001278:	6013      	str	r3, [r2, #0]

      /* Wait for Backup domain Write protection disable */
      tickstart = HAL_GetTick();
 800127a:	f7ff facd 	bl	8000818 <HAL_GetTick>
 800127e:	6138      	str	r0, [r7, #16]

      while (HAL_IS_BIT_CLR(PWR->CR, PWR_CR_DBP))
 8001280:	e008      	b.n	8001294 <HAL_RCC_OscConfig+0x2f0>
      {
        if ((HAL_GetTick() - tickstart) > RCC_DBP_TIMEOUT_VALUE)
 8001282:	f7ff fac9 	bl	8000818 <HAL_GetTick>
 8001286:	4602      	mov	r2, r0
 8001288:	693b      	ldr	r3, [r7, #16]
 800128a:	1ad3      	subs	r3, r2, r3
 800128c:	2b64      	cmp	r3, #100	@ 0x64
 800128e:	d901      	bls.n	8001294 <HAL_RCC_OscConfig+0x2f0>
        {
          return HAL_TIMEOUT;
 8001290:	2303      	movs	r3, #3
 8001292:	e103      	b.n	800149c <HAL_RCC_OscConfig+0x4f8>
      while (HAL_IS_BIT_CLR(PWR->CR, PWR_CR_DBP))
 8001294:	4b75      	ldr	r3, [pc, #468]	@ (800146c <HAL_RCC_OscConfig+0x4c8>)
 8001296:	681b      	ldr	r3, [r3, #0]
 8001298:	f403 7380 	and.w	r3, r3, #256	@ 0x100
 800129c:	2b00      	cmp	r3, #0
 800129e:	d0f0      	beq.n	8001282 <HAL_RCC_OscConfig+0x2de>
        }
      }
    }

    /* Set the new LSE configuration -----------------------------------------*/
    __HAL_RCC_LSE_CONFIG(RCC_OscInitStruct->LSEState);
 80012a0:	687b      	ldr	r3, [r7, #4]
 80012a2:	68db      	ldr	r3, [r3, #12]
 80012a4:	2b01      	cmp	r3, #1
 80012a6:	d106      	bne.n	80012b6 <HAL_RCC_OscConfig+0x312>
 80012a8:	4b6f      	ldr	r3, [pc, #444]	@ (8001468 <HAL_RCC_OscConfig+0x4c4>)
 80012aa:	6a1b      	ldr	r3, [r3, #32]
 80012ac:	4a6e      	ldr	r2, [pc, #440]	@ (8001468 <HAL_RCC_OscConfig+0x4c4>)
 80012ae:	f043 0301 	orr.w	r3, r3, #1
 80012b2:	6213      	str	r3, [r2, #32]
 80012b4:	e02d      	b.n	8001312 <HAL_RCC_OscConfig+0x36e>
 80012b6:	687b      	ldr	r3, [r7, #4]
 80012b8:	68db      	ldr	r3, [r3, #12]
 80012ba:	2b00      	cmp	r3, #0
 80012bc:	d10c      	bne.n	80012d8 <HAL_RCC_OscConfig+0x334>
 80012be:	4b6a      	ldr	r3, [pc, #424]	@ (8001468 <HAL_RCC_OscConfig+0x4c4>)
 80012c0:	6a1b      	ldr	r3, [r3, #32]
 80012c2:	4a69      	ldr	r2, [pc, #420]	@ (8001468 <HAL_RCC_OscConfig+0x4c4>)
 80012c4:	f023 0301 	bic.w	r3, r3, #1
 80012c8:	6213      	str	r3, [r2, #32]
 80012ca:	4b67      	ldr	r3, [pc, #412]	@ (8001468 <HAL_RCC_OscConfig+0x4c4>)
 80012cc:	6a1b      	ldr	r3, [r3, #32]
 80012ce:	4a66      	ldr	r2, [pc, #408]	@ (8001468 <HAL_RCC_OscConfig+0x4c4>)
 80012d0:	f023 0304 	bic.w	r3, r3, #4
 80012d4:	6213      	str	r3, [r2, #32]
 80012d6:	e01c      	b.n	8001312 <HAL_RCC_OscConfig+0x36e>
 80012d8:	687b      	ldr	r3, [r7, #4]
 80012da:	68db      	ldr	r3, [r3, #12]
 80012dc:	2b05      	cmp	r3, #5
 80012de:	d10c      	bne.n	80012fa <HAL_RCC_OscConfig+0x356>
 80012e0:	4b61      	ldr	r3, [pc, #388]	@ (8001468 <HAL_RCC_OscConfig+0x4c4>)
 80012e2:	6a1b      	ldr	r3, [r3, #32]
 80012e4:	4a60      	ldr	r2, [pc, #384]	@ (8001468 <HAL_RCC_OscConfig+0x4c4>)
 80012e6:	f043 0304 	orr.w	r3, r3, #4
 80012ea:	6213      	str	r3, [r2, #32]
 80012ec:	4b5e      	ldr	r3, [pc, #376]	@ (8001468 <HAL_RCC_OscConfig+0x4c4>)
 80012ee:	6a1b      	ldr	r3, [r3, #32]
 80012f0:	4a5d      	ldr	r2, [pc, #372]	@ (8001468 <HAL_RCC_OscConfig+0x4c4>)
 80012f2:	f043 0301 	orr.w	r3, r3, #1
 80012f6:	6213      	str	r3, [r2, #32]
 80012f8:	e00b      	b.n	8001312 <HAL_RCC_OscConfig+0x36e>
 80012fa:	4b5b      	ldr	r3, [pc, #364]	@ (8001468 <HAL_RCC_OscConfig+0x4c4>)
 80012fc:	6a1b      	ldr	r3, [r3, #32]
 80012fe:	4a5a      	ldr	r2, [pc, #360]	@ (8001468 <HAL_RCC_OscConfig+0x4c4>)
 8001300:	f023 0301 	bic.w	r3, r3, #1
 8001304:	6213      	str	r3, [r2, #32]
 8001306:	4b58      	ldr	r3, [pc, #352]	@ (8001468 <HAL_RCC_OscConfig+0x4c4>)
 8001308:	6a1b      	ldr	r3, [r3, #32]
 800130a:	4a57      	ldr	r2, [pc, #348]	@ (8001468 <HAL_RCC_OscConfig+0x4c4>)
 800130c:	f023 0304 	bic.w	r3, r3, #4
 8001310:	6213      	str	r3, [r2, #32]
    /* Check the LSE State */
    if (RCC_OscInitStruct->LSEState != RCC_LSE_OFF)
 8001312:	687b      	ldr	r3, [r7, #4]
 8001314:	68db      	ldr	r3, [r3, #12]
 8001316:	2b00      	cmp	r3, #0
 8001318:	d015      	beq.n	8001346 <HAL_RCC_OscConfig+0x3a2>
    {
      /* Get Start Tick */
      tickstart = HAL_GetTick();
 800131a:	f7ff fa7d 	bl	8000818 <HAL_GetTick>
 800131e:	6138      	str	r0, [r7, #16]

      /* Wait till LSE is ready */
      while (__HAL_RCC_GET_FLAG(RCC_FLAG_LSERDY) == RESET)
 8001320:	e00a      	b.n	8001338 <HAL_RCC_OscConfig+0x394>
      {
        if ((HAL_GetTick() - tickstart) > RCC_LSE_TIMEOUT_VALUE)
 8001322:	f7ff fa79 	bl	8000818 <HAL_GetTick>
 8001326:	4602      	mov	r2, r0
 8001328:	693b      	ldr	r3, [r7, #16]
 800132a:	1ad3      	subs	r3, r2, r3
 800132c:	f241 3288 	movw	r2, #5000	@ 0x1388
 8001330:	4293      	cmp	r3, r2
 8001332:	d901      	bls.n	8001338 <HAL_RCC_OscConfig+0x394>
        {
          return HAL_TIMEOUT;
 8001334:	2303      	movs	r3, #3
 8001336:	e0b1      	b.n	800149c <HAL_RCC_OscConfig+0x4f8>
      while (__HAL_RCC_GET_FLAG(RCC_FLAG_LSERDY) == RESET)
 8001338:	4b4b      	ldr	r3, [pc, #300]	@ (8001468 <HAL_RCC_OscConfig+0x4c4>)
 800133a:	6a1b      	ldr	r3, [r3, #32]
 800133c:	f003 0302 	and.w	r3, r3, #2
 8001340:	2b00      	cmp	r3, #0
 8001342:	d0ee      	beq.n	8001322 <HAL_RCC_OscConfig+0x37e>
 8001344:	e014      	b.n	8001370 <HAL_RCC_OscConfig+0x3cc>
      }
    }
    else
    {
      /* Get Start Tick */
      tickstart = HAL_GetTick();
 8001346:	f7ff fa67 	bl	8000818 <HAL_GetTick>
 800134a:	6138      	str	r0, [r7, #16]

      /* Wait till LSE is disabled */
      while (__HAL_RCC_GET_FLAG(RCC_FLAG_LSERDY) != RESET)
 800134c:	e00a      	b.n	8001364 <HAL_RCC_OscConfig+0x3c0>
      {
        if ((HAL_GetTick() - tickstart) > RCC_LSE_TIMEOUT_VALUE)
 800134e:	f7ff fa63 	bl	8000818 <HAL_GetTick>
 8001352:	4602      	mov	r2, r0
 8001354:	693b      	ldr	r3, [r7, #16]
 8001356:	1ad3      	subs	r3, r2, r3
 8001358:	f241 3288 	movw	r2, #5000	@ 0x1388
 800135c:	4293      	cmp	r3, r2
 800135e:	d901      	bls.n	8001364 <HAL_RCC_OscConfig+0x3c0>
        {
          return HAL_TIMEOUT;
 8001360:	2303      	movs	r3, #3
 8001362:	e09b      	b.n	800149c <HAL_RCC_OscConfig+0x4f8>
      while (__HAL_RCC_GET_FLAG(RCC_FLAG_LSERDY) != RESET)
 8001364:	4b40      	ldr	r3, [pc, #256]	@ (8001468 <HAL_RCC_OscConfig+0x4c4>)
 8001366:	6a1b      	ldr	r3, [r3, #32]
 8001368:	f003 0302 	and.w	r3, r3, #2
 800136c:	2b00      	cmp	r3, #0
 800136e:	d1ee      	bne.n	800134e <HAL_RCC_OscConfig+0x3aa>
        }
      }
    }

    /* Require to disable power clock if necessary */
    if (pwrclkchanged == SET)
 8001370:	7dfb      	ldrb	r3, [r7, #23]
 8001372:	2b01      	cmp	r3, #1
 8001374:	d105      	bne.n	8001382 <HAL_RCC_OscConfig+0x3de>
    {
      __HAL_RCC_PWR_CLK_DISABLE();
 8001376:	4b3c      	ldr	r3, [pc, #240]	@ (8001468 <HAL_RCC_OscConfig+0x4c4>)
 8001378:	69db      	ldr	r3, [r3, #28]
 800137a:	4a3b      	ldr	r2, [pc, #236]	@ (8001468 <HAL_RCC_OscConfig+0x4c4>)
 800137c:	f023 5380 	bic.w	r3, r3, #268435456	@ 0x10000000
 8001380:	61d3      	str	r3, [r2, #28]

#endif /* RCC_CR_PLL2ON */
  /*-------------------------------- PLL Configuration -----------------------*/
  /* Check the parameters */
  assert_param(IS_RCC_PLL(RCC_OscInitStruct->PLL.PLLState));
  if ((RCC_OscInitStruct->PLL.PLLState) != RCC_PLL_NONE)
 8001382:	687b      	ldr	r3, [r7, #4]
 8001384:	69db      	ldr	r3, [r3, #28]
 8001386:	2b00      	cmp	r3, #0
 8001388:	f000 8087 	beq.w	800149a <HAL_RCC_OscConfig+0x4f6>
  {
    /* Check if the PLL is used as system clock or not */
    if (__HAL_RCC_GET_SYSCLK_SOURCE() != RCC_SYSCLKSOURCE_STATUS_PLLCLK)
 800138c:	4b36      	ldr	r3, [pc, #216]	@ (8001468 <HAL_RCC_OscConfig+0x4c4>)
 800138e:	685b      	ldr	r3, [r3, #4]
 8001390:	f003 030c 	and.w	r3, r3, #12
 8001394:	2b08      	cmp	r3, #8
 8001396:	d061      	beq.n	800145c <HAL_RCC_OscConfig+0x4b8>
    {
      if ((RCC_OscInitStruct->PLL.PLLState) == RCC_PLL_ON)
 8001398:	687b      	ldr	r3, [r7, #4]
 800139a:	69db      	ldr	r3, [r3, #28]
 800139c:	2b02      	cmp	r3, #2
 800139e:	d146      	bne.n	800142e <HAL_RCC_OscConfig+0x48a>
        /* Check the parameters */
        assert_param(IS_RCC_PLLSOURCE(RCC_OscInitStruct->PLL.PLLSource));
        assert_param(IS_RCC_PLL_MUL(RCC_OscInitStruct->PLL.PLLMUL));

        /* Disable the main PLL. */
        __HAL_RCC_PLL_DISABLE();
 80013a0:	4b33      	ldr	r3, [pc, #204]	@ (8001470 <HAL_RCC_OscConfig+0x4cc>)
 80013a2:	2200      	movs	r2, #0
 80013a4:	601a      	str	r2, [r3, #0]

        /* Get Start Tick */
        tickstart = HAL_GetTick();
 80013a6:	f7ff fa37 	bl	8000818 <HAL_GetTick>
 80013aa:	6138      	str	r0, [r7, #16]

        /* Wait till PLL is disabled */
        while (__HAL_RCC_GET_FLAG(RCC_FLAG_PLLRDY)  != RESET)
 80013ac:	e008      	b.n	80013c0 <HAL_RCC_OscConfig+0x41c>
        {
          if ((HAL_GetTick() - tickstart) > PLL_TIMEOUT_VALUE)
 80013ae:	f7ff fa33 	bl	8000818 <HAL_GetTick>
 80013b2:	4602      	mov	r2, r0
 80013b4:	693b      	ldr	r3, [r7, #16]
 80013b6:	1ad3      	subs	r3, r2, r3
 80013b8:	2b02      	cmp	r3, #2
 80013ba:	d901      	bls.n	80013c0 <HAL_RCC_OscConfig+0x41c>
          {
            return HAL_TIMEOUT;
 80013bc:	2303      	movs	r3, #3
 80013be:	e06d      	b.n	800149c <HAL_RCC_OscConfig+0x4f8>
        while (__HAL_RCC_GET_FLAG(RCC_FLAG_PLLRDY)  != RESET)
 80013c0:	4b29      	ldr	r3, [pc, #164]	@ (8001468 <HAL_RCC_OscConfig+0x4c4>)
 80013c2:	681b      	ldr	r3, [r3, #0]
 80013c4:	f003 7300 	and.w	r3, r3, #33554432	@ 0x2000000
 80013c8:	2b00      	cmp	r3, #0
 80013ca:	d1f0      	bne.n	80013ae <HAL_RCC_OscConfig+0x40a>
          }
        }

        /* Configure the HSE prediv factor --------------------------------*/
        /* It can be written only when the PLL is disabled. Not used in PLL source is different than HSE */
        if (RCC_OscInitStruct->PLL.PLLSource == RCC_PLLSOURCE_HSE)
 80013cc:	687b      	ldr	r3, [r7, #4]
 80013ce:	6a1b      	ldr	r3, [r3, #32]
 80013d0:	f5b3 3f80 	cmp.w	r3, #65536	@ 0x10000
 80013d4:	d108      	bne.n	80013e8 <HAL_RCC_OscConfig+0x444>
          /* Set PREDIV1 source */
          SET_BIT(RCC->CFGR2, RCC_OscInitStruct->Prediv1Source);
#endif /* RCC_CFGR2_PREDIV1SRC */

          /* Set PREDIV1 Value */
          __HAL_RCC_HSE_PREDIV_CONFIG(RCC_OscInitStruct->HSEPredivValue);
 80013d6:	4b24      	ldr	r3, [pc, #144]	@ (8001468 <HAL_RCC_OscConfig+0x4c4>)
 80013d8:	685b      	ldr	r3, [r3, #4]
 80013da:	f423 3200 	bic.w	r2, r3, #131072	@ 0x20000
 80013de:	687b      	ldr	r3, [r7, #4]
 80013e0:	689b      	ldr	r3, [r3, #8]
 80013e2:	4921      	ldr	r1, [pc, #132]	@ (8001468 <HAL_RCC_OscConfig+0x4c4>)
 80013e4:	4313      	orrs	r3, r2
 80013e6:	604b      	str	r3, [r1, #4]
        }

        /* Configure the main PLL clock source and multiplication factors. */
        __HAL_RCC_PLL_CONFIG(RCC_OscInitStruct->PLL.PLLSource,
 80013e8:	4b1f      	ldr	r3, [pc, #124]	@ (8001468 <HAL_RCC_OscConfig+0x4c4>)
 80013ea:	685b      	ldr	r3, [r3, #4]
 80013ec:	f423 1274 	bic.w	r2, r3, #3997696	@ 0x3d0000
 80013f0:	687b      	ldr	r3, [r7, #4]
 80013f2:	6a19      	ldr	r1, [r3, #32]
 80013f4:	687b      	ldr	r3, [r7, #4]
 80013f6:	6a5b      	ldr	r3, [r3, #36]	@ 0x24
 80013f8:	430b      	orrs	r3, r1
 80013fa:	491b      	ldr	r1, [pc, #108]	@ (8001468 <HAL_RCC_OscConfig+0x4c4>)
 80013fc:	4313      	orrs	r3, r2
 80013fe:	604b      	str	r3, [r1, #4]
                             RCC_OscInitStruct->PLL.PLLMUL);
        /* Enable the main PLL. */
        __HAL_RCC_PLL_ENABLE();
 8001400:	4b1b      	ldr	r3, [pc, #108]	@ (8001470 <HAL_RCC_OscConfig+0x4cc>)
 8001402:	2201      	movs	r2, #1
 8001404:	601a      	str	r2, [r3, #0]

        /* Get Start Tick */
        tickstart = HAL_GetTick();
 8001406:	f7ff fa07 	bl	8000818 <HAL_GetTick>
 800140a:	6138      	str	r0, [r7, #16]

        /* Wait till PLL is ready */
        while (__HAL_RCC_GET_FLAG(RCC_FLAG_PLLRDY)  == RESET)
 800140c:	e008      	b.n	8001420 <HAL_RCC_OscConfig+0x47c>
        {
          if ((HAL_GetTick() - tickstart) > PLL_TIMEOUT_VALUE)
 800140e:	f7ff fa03 	bl	8000818 <HAL_GetTick>
 8001412:	4602      	mov	r2, r0
 8001414:	693b      	ldr	r3, [r7, #16]
 8001416:	1ad3      	subs	r3, r2, r3
 8001418:	2b02      	cmp	r3, #2
 800141a:	d901      	bls.n	8001420 <HAL_RCC_OscConfig+0x47c>
          {
            return HAL_TIMEOUT;
 800141c:	2303      	movs	r3, #3
 800141e:	e03d      	b.n	800149c <HAL_RCC_OscConfig+0x4f8>
        while (__HAL_RCC_GET_FLAG(RCC_FLAG_PLLRDY)  == RESET)
 8001420:	4b11      	ldr	r3, [pc, #68]	@ (8001468 <HAL_RCC_OscConfig+0x4c4>)
 8001422:	681b      	ldr	r3, [r3, #0]
 8001424:	f003 7300 	and.w	r3, r3, #33554432	@ 0x2000000
 8001428:	2b00      	cmp	r3, #0
 800142a:	d0f0      	beq.n	800140e <HAL_RCC_OscConfig+0x46a>
 800142c:	e035      	b.n	800149a <HAL_RCC_OscConfig+0x4f6>
        }
      }
      else
      {
        /* Disable the main PLL. */
        __HAL_RCC_PLL_DISABLE();
 800142e:	4b10      	ldr	r3, [pc, #64]	@ (8001470 <HAL_RCC_OscConfig+0x4cc>)
 8001430:	2200      	movs	r2, #0
 8001432:	601a      	str	r2, [r3, #0]

        /* Get Start Tick */
        tickstart = HAL_GetTick();
 8001434:	f7ff f9f0 	bl	8000818 <HAL_GetTick>
 8001438:	6138      	str	r0, [r7, #16]

        /* Wait till PLL is disabled */
        while (__HAL_RCC_GET_FLAG(RCC_FLAG_PLLRDY)  != RESET)
 800143a:	e008      	b.n	800144e <HAL_RCC_OscConfig+0x4aa>
        {
          if ((HAL_GetTick() - tickstart) > PLL_TIMEOUT_VALUE)
 800143c:	f7ff f9ec 	bl	8000818 <HAL_GetTick>
 8001440:	4602      	mov	r2, r0
 8001442:	693b      	ldr	r3, [r7, #16]
 8001444:	1ad3      	subs	r3, r2, r3
 8001446:	2b02      	cmp	r3, #2
 8001448:	d901      	bls.n	800144e <HAL_RCC_OscConfig+0x4aa>
          {
            return HAL_TIMEOUT;
 800144a:	2303      	movs	r3, #3
 800144c:	e026      	b.n	800149c <HAL_RCC_OscConfig+0x4f8>
        while (__HAL_RCC_GET_FLAG(RCC_FLAG_PLLRDY)  != RESET)
 800144e:	4b06      	ldr	r3, [pc, #24]	@ (8001468 <HAL_RCC_OscConfig+0x4c4>)
 8001450:	681b      	ldr	r3, [r3, #0]
 8001452:	f003 7300 	and.w	r3, r3, #33554432	@ 0x2000000
 8001456:	2b00      	cmp	r3, #0
 8001458:	d1f0      	bne.n	800143c <HAL_RCC_OscConfig+0x498>
 800145a:	e01e      	b.n	800149a <HAL_RCC_OscConfig+0x4f6>
      }
    }
    else
    {
      /* Check if there is a request to disable the PLL used as System clock source */
      if ((RCC_OscInitStruct->PLL.PLLState) == RCC_PLL_OFF)
 800145c:	687b      	ldr	r3, [r7, #4]
 800145e:	69db      	ldr	r3, [r3, #28]
 8001460:	2b01      	cmp	r3, #1
 8001462:	d107      	bne.n	8001474 <HAL_RCC_OscConfig+0x4d0>
      {
        return HAL_ERROR;
 8001464:	2301      	movs	r3, #1
 8001466:	e019      	b.n	800149c <HAL_RCC_OscConfig+0x4f8>
 8001468:	40021000 	.word	0x40021000
 800146c:	40007000 	.word	0x40007000
 8001470:	42420060 	.word	0x42420060
      }
      else
      {
        /* Do not return HAL_ERROR if request repeats the current configuration */
        pll_config = RCC->CFGR;
 8001474:	4b0b      	ldr	r3, [pc, #44]	@ (80014a4 <HAL_RCC_OscConfig+0x500>)
 8001476:	685b      	ldr	r3, [r3, #4]
 8001478:	60fb      	str	r3, [r7, #12]
        if ((READ_BIT(pll_config, RCC_CFGR_PLLSRC) != RCC_OscInitStruct->PLL.PLLSource) ||
 800147a:	68fb      	ldr	r3, [r7, #12]
 800147c:	f403 3280 	and.w	r2, r3, #65536	@ 0x10000
 8001480:	687b      	ldr	r3, [r7, #4]
 8001482:	6a1b      	ldr	r3, [r3, #32]
 8001484:	429a      	cmp	r2, r3
 8001486:	d106      	bne.n	8001496 <HAL_RCC_OscConfig+0x4f2>
            (READ_BIT(pll_config, RCC_CFGR_PLLMULL) != RCC_OscInitStruct->PLL.PLLMUL))
 8001488:	68fb      	ldr	r3, [r7, #12]
 800148a:	f403 1270 	and.w	r2, r3, #3932160	@ 0x3c0000
 800148e:	687b      	ldr	r3, [r7, #4]
 8001490:	6a5b      	ldr	r3, [r3, #36]	@ 0x24
        if ((READ_BIT(pll_config, RCC_CFGR_PLLSRC) != RCC_OscInitStruct->PLL.PLLSource) ||
 8001492:	429a      	cmp	r2, r3
 8001494:	d001      	beq.n	800149a <HAL_RCC_OscConfig+0x4f6>
        {
          return HAL_ERROR;
 8001496:	2301      	movs	r3, #1
 8001498:	e000      	b.n	800149c <HAL_RCC_OscConfig+0x4f8>
        }
      }
    }
  }

  return HAL_OK;
 800149a:	2300      	movs	r3, #0
}
 800149c:	4618      	mov	r0, r3
 800149e:	3718      	adds	r7, #24
 80014a0:	46bd      	mov	sp, r7
 80014a2:	bd80      	pop	{r7, pc}
 80014a4:	40021000 	.word	0x40021000

080014a8 <HAL_RCC_ClockConfig>:
  *         You can use @ref HAL_RCC_GetClockConfig() function to know which clock is
  *         currently used as system clock source.
  * @retval HAL status
  */
HAL_StatusTypeDef HAL_RCC_ClockConfig(RCC_ClkInitTypeDef  *RCC_ClkInitStruct, uint32_t FLatency)
{
 80014a8:	b580      	push	{r7, lr}
 80014aa:	b084      	sub	sp, #16
 80014ac:	af00      	add	r7, sp, #0
 80014ae:	6078      	str	r0, [r7, #4]
 80014b0:	6039      	str	r1, [r7, #0]
  uint32_t tickstart;

  /* Check Null pointer */
  if (RCC_ClkInitStruct == NULL)
 80014b2:	687b      	ldr	r3, [r7, #4]
 80014b4:	2b00      	cmp	r3, #0
 80014b6:	d101      	bne.n	80014bc <HAL_RCC_ClockConfig+0x14>
  {
    return HAL_ERROR;
 80014b8:	2301      	movs	r3, #1
 80014ba:	e0d0      	b.n	800165e <HAL_RCC_ClockConfig+0x1b6>
  must be correctly programmed according to the frequency of the CPU clock
    (HCLK) of the device. */

#if defined(FLASH_ACR_LATENCY)
  /* Increasing the number of wait states because of higher CPU frequency */
  if (FLatency > __HAL_FLASH_GET_LATENCY())
 80014bc:	4b6a      	ldr	r3, [pc, #424]	@ (8001668 <HAL_RCC_ClockConfig+0x1c0>)
 80014be:	681b      	ldr	r3, [r3, #0]
 80014c0:	f003 0307 	and.w	r3, r3, #7
 80014c4:	683a      	ldr	r2, [r7, #0]
 80014c6:	429a      	cmp	r2, r3
 80014c8:	d910      	bls.n	80014ec <HAL_RCC_ClockConfig+0x44>
  {
    /* Program the new number of wait states to the LATENCY bits in the FLASH_ACR register */
    __HAL_FLASH_SET_LATENCY(FLatency);
 80014ca:	4b67      	ldr	r3, [pc, #412]	@ (8001668 <HAL_RCC_ClockConfig+0x1c0>)
 80014cc:	681b      	ldr	r3, [r3, #0]
 80014ce:	f023 0207 	bic.w	r2, r3, #7
 80014d2:	4965      	ldr	r1, [pc, #404]	@ (8001668 <HAL_RCC_ClockConfig+0x1c0>)
 80014d4:	683b      	ldr	r3, [r7, #0]
 80014d6:	4313      	orrs	r3, r2
 80014d8:	600b      	str	r3, [r1, #0]

    /* Check that the new number of wait states is taken into account to access the Flash
    memory by reading the FLASH_ACR register */
    if (__HAL_FLASH_GET_LATENCY() != FLatency)
 80014da:	4b63      	ldr	r3, [pc, #396]	@ (8001668 <HAL_RCC_ClockConfig+0x1c0>)
 80014dc:	681b      	ldr	r3, [r3, #0]
 80014de:	f003 0307 	and.w	r3, r3, #7
 80014e2:	683a      	ldr	r2, [r7, #0]
 80014e4:	429a      	cmp	r2, r3
 80014e6:	d001      	beq.n	80014ec <HAL_RCC_ClockConfig+0x44>
  {
    return HAL_ERROR;
 80014e8:	2301      	movs	r3, #1
 80014ea:	e0b8      	b.n	800165e <HAL_RCC_ClockConfig+0x1b6>
  }
}

#endif /* FLASH_ACR_LATENCY */
/*-------------------------- HCLK Configuration --------------------------*/
if (((RCC_ClkInitStruct->ClockType) & RCC_CLOCKTYPE_HCLK) == RCC_CLOCKTYPE_HCLK)
 80014ec:	687b      	ldr	r3, [r7, #4]
 80014ee:	681b      	ldr	r3, [r3, #0]
 80014f0:	f003 0302 	and.w	r3, r3, #2
 80014f4:	2b00      	cmp	r3, #0
 80014f6:	d020      	beq.n	800153a <HAL_RCC_ClockConfig+0x92>
  {
    /* Set the highest APBx dividers in order to ensure that we do not go through
    a non-spec phase whatever we decrease or increase HCLK. */
    if (((RCC_ClkInitStruct->ClockType) & RCC_CLOCKTYPE_PCLK1) == RCC_CLOCKTYPE_PCLK1)
 80014f8:	687b      	ldr	r3, [r7, #4]
 80014fa:	681b      	ldr	r3, [r3, #0]
 80014fc:	f003 0304 	and.w	r3, r3, #4
 8001500:	2b00      	cmp	r3, #0
 8001502:	d005      	beq.n	8001510 <HAL_RCC_ClockConfig+0x68>
    {
      MODIFY_REG(RCC->CFGR, RCC_CFGR_PPRE1, RCC_HCLK_DIV16);
 8001504:	4b59      	ldr	r3, [pc, #356]	@ (800166c <HAL_RCC_ClockConfig+0x1c4>)
 8001506:	685b      	ldr	r3, [r3, #4]
 8001508:	4a58      	ldr	r2, [pc, #352]	@ (800166c <HAL_RCC_ClockConfig+0x1c4>)
 800150a:	f443 63e0 	orr.w	r3, r3, #1792	@ 0x700
 800150e:	6053      	str	r3, [r2, #4]
    }

    if (((RCC_ClkInitStruct->ClockType) & RCC_CLOCKTYPE_PCLK2) == RCC_CLOCKTYPE_PCLK2)
 8001510:	687b      	ldr	r3, [r7, #4]
 8001512:	681b      	ldr	r3, [r3, #0]
 8001514:	f003 0308 	and.w	r3, r3, #8
 8001518:	2b00      	cmp	r3, #0
 800151a:	d005      	beq.n	8001528 <HAL_RCC_ClockConfig+0x80>
    {
      MODIFY_REG(RCC->CFGR, RCC_CFGR_PPRE2, (RCC_HCLK_DIV16 << 3));
 800151c:	4b53      	ldr	r3, [pc, #332]	@ (800166c <HAL_RCC_ClockConfig+0x1c4>)
 800151e:	685b      	ldr	r3, [r3, #4]
 8001520:	4a52      	ldr	r2, [pc, #328]	@ (800166c <HAL_RCC_ClockConfig+0x1c4>)
 8001522:	f443 5360 	orr.w	r3, r3, #14336	@ 0x3800
 8001526:	6053      	str	r3, [r2, #4]
    }

    /* Set the new HCLK clock divider */
    assert_param(IS_RCC_HCLK(RCC_ClkInitStruct->AHBCLKDivider));
    MODIFY_REG(RCC->CFGR, RCC_CFGR_HPRE, RCC_ClkInitStruct->AHBCLKDivider);
 8001528:	4b50      	ldr	r3, [pc, #320]	@ (800166c <HAL_RCC_ClockConfig+0x1c4>)
 800152a:	685b      	ldr	r3, [r3, #4]
 800152c:	f023 02f0 	bic.w	r2, r3, #240	@ 0xf0
 8001530:	687b      	ldr	r3, [r7, #4]
 8001532:	689b      	ldr	r3, [r3, #8]
 8001534:	494d      	ldr	r1, [pc, #308]	@ (800166c <HAL_RCC_ClockConfig+0x1c4>)
 8001536:	4313      	orrs	r3, r2
 8001538:	604b      	str	r3, [r1, #4]
  }

  /*------------------------- SYSCLK Configuration ---------------------------*/
  if (((RCC_ClkInitStruct->ClockType) & RCC_CLOCKTYPE_SYSCLK) == RCC_CLOCKTYPE_SYSCLK)
 800153a:	687b      	ldr	r3, [r7, #4]
 800153c:	681b      	ldr	r3, [r3, #0]
 800153e:	f003 0301 	and.w	r3, r3, #1
 8001542:	2b00      	cmp	r3, #0
 8001544:	d040      	beq.n	80015c8 <HAL_RCC_ClockConfig+0x120>
  {
    assert_param(IS_RCC_SYSCLKSOURCE(RCC_ClkInitStruct->SYSCLKSource));

    /* HSE is selected as System Clock Source */
    if (RCC_ClkInitStruct->SYSCLKSource == RCC_SYSCLKSOURCE_HSE)
 8001546:	687b      	ldr	r3, [r7, #4]
 8001548:	685b      	ldr	r3, [r3, #4]
 800154a:	2b01      	cmp	r3, #1
 800154c:	d107      	bne.n	800155e <HAL_RCC_ClockConfig+0xb6>
    {
      /* Check the HSE ready flag */
      if (__HAL_RCC_GET_FLAG(RCC_FLAG_HSERDY) == RESET)
 800154e:	4b47      	ldr	r3, [pc, #284]	@ (800166c <HAL_RCC_ClockConfig+0x1c4>)
 8001550:	681b      	ldr	r3, [r3, #0]
 8001552:	f403 3300 	and.w	r3, r3, #131072	@ 0x20000
 8001556:	2b00      	cmp	r3, #0
 8001558:	d115      	bne.n	8001586 <HAL_RCC_ClockConfig+0xde>
      {
        return HAL_ERROR;
 800155a:	2301      	movs	r3, #1
 800155c:	e07f      	b.n	800165e <HAL_RCC_ClockConfig+0x1b6>
      }
    }
    /* PLL is selected as System Clock Source */
    else if (RCC_ClkInitStruct->SYSCLKSource == RCC_SYSCLKSOURCE_PLLCLK)
 800155e:	687b      	ldr	r3, [r7, #4]
 8001560:	685b      	ldr	r3, [r3, #4]
 8001562:	2b02      	cmp	r3, #2
 8001564:	d107      	bne.n	8001576 <HAL_RCC_ClockConfig+0xce>
    {
      /* Check the PLL ready flag */
      if (__HAL_RCC_GET_FLAG(RCC_FLAG_PLLRDY) == RESET)
 8001566:	4b41      	ldr	r3, [pc, #260]	@ (800166c <HAL_RCC_ClockConfig+0x1c4>)
 8001568:	681b      	ldr	r3, [r3, #0]
 800156a:	f003 7300 	and.w	r3, r3, #33554432	@ 0x2000000
 800156e:	2b00      	cmp	r3, #0
 8001570:	d109      	bne.n	8001586 <HAL_RCC_ClockConfig+0xde>
      {
        return HAL_ERROR;
 8001572:	2301      	movs	r3, #1
 8001574:	e073      	b.n	800165e <HAL_RCC_ClockConfig+0x1b6>
    }
    /* HSI is selected as System Clock Source */
    else
    {
      /* Check the HSI ready flag */
      if (__HAL_RCC_GET_FLAG(RCC_FLAG_HSIRDY) == RESET)
 8001576:	4b3d      	ldr	r3, [pc, #244]	@ (800166c <HAL_RCC_ClockConfig+0x1c4>)
 8001578:	681b      	ldr	r3, [r3, #0]
 800157a:	f003 0302 	and.w	r3, r3, #2
 800157e:	2b00      	cmp	r3, #0
 8001580:	d101      	bne.n	8001586 <HAL_RCC_ClockConfig+0xde>
      {
        return HAL_ERROR;
 8001582:	2301      	movs	r3, #1
 8001584:	e06b      	b.n	800165e <HAL_RCC_ClockConfig+0x1b6>
      }
    }
    __HAL_RCC_SYSCLK_CONFIG(RCC_ClkInitStruct->SYSCLKSource);
 8001586:	4b39      	ldr	r3, [pc, #228]	@ (800166c <HAL_RCC_ClockConfig+0x1c4>)
 8001588:	685b      	ldr	r3, [r3, #4]
 800158a:	f023 0203 	bic.w	r2, r3, #3
 800158e:	687b      	ldr	r3, [r7, #4]
 8001590:	685b      	ldr	r3, [r3, #4]
 8001592:	4936      	ldr	r1, [pc, #216]	@ (800166c <HAL_RCC_ClockConfig+0x1c4>)
 8001594:	4313      	orrs	r3, r2
 8001596:	604b      	str	r3, [r1, #4]

    /* Get Start Tick */
    tickstart = HAL_GetTick();
 8001598:	f7ff f93e 	bl	8000818 <HAL_GetTick>
 800159c:	60f8      	str	r0, [r7, #12]

    while (__HAL_RCC_GET_SYSCLK_SOURCE() != (RCC_ClkInitStruct->SYSCLKSource << RCC_CFGR_SWS_Pos))
 800159e:	e00a      	b.n	80015b6 <HAL_RCC_ClockConfig+0x10e>
    {
      if ((HAL_GetTick() - tickstart) > CLOCKSWITCH_TIMEOUT_VALUE)
 80015a0:	f7ff f93a 	bl	8000818 <HAL_GetTick>
 80015a4:	4602      	mov	r2, r0
 80015a6:	68fb      	ldr	r3, [r7, #12]
 80015a8:	1ad3      	subs	r3, r2, r3
 80015aa:	f241 3288 	movw	r2, #5000	@ 0x1388
 80015ae:	4293      	cmp	r3, r2
 80015b0:	d901      	bls.n	80015b6 <HAL_RCC_ClockConfig+0x10e>
      {
        return HAL_TIMEOUT;
 80015b2:	2303      	movs	r3, #3
 80015b4:	e053      	b.n	800165e <HAL_RCC_ClockConfig+0x1b6>
    while (__HAL_RCC_GET_SYSCLK_SOURCE() != (RCC_ClkInitStruct->SYSCLKSource << RCC_CFGR_SWS_Pos))
 80015b6:	4b2d      	ldr	r3, [pc, #180]	@ (800166c <HAL_RCC_ClockConfig+0x1c4>)
 80015b8:	685b      	ldr	r3, [r3, #4]
 80015ba:	f003 020c 	and.w	r2, r3, #12
 80015be:	687b      	ldr	r3, [r7, #4]
 80015c0:	685b      	ldr	r3, [r3, #4]
 80015c2:	009b      	lsls	r3, r3, #2
 80015c4:	429a      	cmp	r2, r3
 80015c6:	d1eb      	bne.n	80015a0 <HAL_RCC_ClockConfig+0xf8>
    }
  }

#if defined(FLASH_ACR_LATENCY)
  /* Decreasing the number of wait states because of lower CPU frequency */
  if (FLatency < __HAL_FLASH_GET_LATENCY())
 80015c8:	4b27      	ldr	r3, [pc, #156]	@ (8001668 <HAL_RCC_ClockConfig+0x1c0>)
 80015ca:	681b      	ldr	r3, [r3, #0]
 80015cc:	f003 0307 	and.w	r3, r3, #7
 80015d0:	683a      	ldr	r2, [r7, #0]
 80015d2:	429a      	cmp	r2, r3
 80015d4:	d210      	bcs.n	80015f8 <HAL_RCC_ClockConfig+0x150>
  {
    /* Program the new number of wait states to the LATENCY bits in the FLASH_ACR register */
    __HAL_FLASH_SET_LATENCY(FLatency);
 80015d6:	4b24      	ldr	r3, [pc, #144]	@ (8001668 <HAL_RCC_ClockConfig+0x1c0>)
 80015d8:	681b      	ldr	r3, [r3, #0]
 80015da:	f023 0207 	bic.w	r2, r3, #7
 80015de:	4922      	ldr	r1, [pc, #136]	@ (8001668 <HAL_RCC_ClockConfig+0x1c0>)
 80015e0:	683b      	ldr	r3, [r7, #0]
 80015e2:	4313      	orrs	r3, r2
 80015e4:	600b      	str	r3, [r1, #0]

    /* Check that the new number of wait states is taken into account to access the Flash
    memory by reading the FLASH_ACR register */
    if (__HAL_FLASH_GET_LATENCY() != FLatency)
 80015e6:	4b20      	ldr	r3, [pc, #128]	@ (8001668 <HAL_RCC_ClockConfig+0x1c0>)
 80015e8:	681b      	ldr	r3, [r3, #0]
 80015ea:	f003 0307 	and.w	r3, r3, #7
 80015ee:	683a      	ldr	r2, [r7, #0]
 80015f0:	429a      	cmp	r2, r3
 80015f2:	d001      	beq.n	80015f8 <HAL_RCC_ClockConfig+0x150>
  {
    return HAL_ERROR;
 80015f4:	2301      	movs	r3, #1
 80015f6:	e032      	b.n	800165e <HAL_RCC_ClockConfig+0x1b6>
  }
}
#endif /* FLASH_ACR_LATENCY */

/*-------------------------- PCLK1 Configuration ---------------------------*/
if (((RCC_ClkInitStruct->ClockType) & RCC_CLOCKTYPE_PCLK1) == RCC_CLOCKTYPE_PCLK1)
 80015f8:	687b      	ldr	r3, [r7, #4]
 80015fa:	681b      	ldr	r3, [r3, #0]
 80015fc:	f003 0304 	and.w	r3, r3, #4
 8001600:	2b00      	cmp	r3, #0
 8001602:	d008      	beq.n	8001616 <HAL_RCC_ClockConfig+0x16e>
  {
    assert_param(IS_RCC_PCLK(RCC_ClkInitStruct->APB1CLKDivider));
    MODIFY_REG(RCC->CFGR, RCC_CFGR_PPRE1, RCC_ClkInitStruct->APB1CLKDivider);
 8001604:	4b19      	ldr	r3, [pc, #100]	@ (800166c <HAL_RCC_ClockConfig+0x1c4>)
 8001606:	685b      	ldr	r3, [r3, #4]
 8001608:	f423 62e0 	bic.w	r2, r3, #1792	@ 0x700
 800160c:	687b      	ldr	r3, [r7, #4]
 800160e:	68db      	ldr	r3, [r3, #12]
 8001610:	4916      	ldr	r1, [pc, #88]	@ (800166c <HAL_RCC_ClockConfig+0x1c4>)
 8001612:	4313      	orrs	r3, r2
 8001614:	604b      	str	r3, [r1, #4]
  }

  /*-------------------------- PCLK2 Configuration ---------------------------*/
  if (((RCC_ClkInitStruct->ClockType) & RCC_CLOCKTYPE_PCLK2) == RCC_CLOCKTYPE_PCLK2)
 8001616:	687b      	ldr	r3, [r7, #4]
 8001618:	681b      	ldr	r3, [r3, #0]
 800161a:	f003 0308 	and.w	r3, r3, #8
 800161e:	2b00      	cmp	r3, #0
 8001620:	d009      	beq.n	8001636 <HAL_RCC_ClockConfig+0x18e>
  {
    assert_param(IS_RCC_PCLK(RCC_ClkInitStruct->APB2CLKDivider));
    MODIFY_REG(RCC->CFGR, RCC_CFGR_PPRE2, ((RCC_ClkInitStruct->APB2CLKDivider) << 3));
 8001622:	4b12      	ldr	r3, [pc, #72]	@ (800166c <HAL_RCC_ClockConfig+0x1c4>)
 8001624:	685b      	ldr	r3, [r3, #4]
 8001626:	f423 5260 	bic.w	r2, r3, #14336	@ 0x3800
 800162a:	687b      	ldr	r3, [r7, #4]
 800162c:	691b      	ldr	r3, [r3, #16]
 800162e:	00db      	lsls	r3, r3, #3
 8001630:	490e      	ldr	r1, [pc, #56]	@ (800166c <HAL_RCC_ClockConfig+0x1c4>)
 8001632:	4313      	orrs	r3, r2
 8001634:	604b      	str	r3, [r1, #4]
  }

  /* Update the SystemCoreClock global variable */
  SystemCoreClock = HAL_RCC_GetSysClockFreq() >> AHBPrescTable[(RCC->CFGR & RCC_CFGR_HPRE) >> RCC_CFGR_HPRE_Pos];
 8001636:	f000 f821 	bl	800167c <HAL_RCC_GetSysClockFreq>
 800163a:	4602      	mov	r2, r0
 800163c:	4b0b      	ldr	r3, [pc, #44]	@ (800166c <HAL_RCC_ClockConfig+0x1c4>)
 800163e:	685b      	ldr	r3, [r3, #4]
 8001640:	091b      	lsrs	r3, r3, #4
 8001642:	f003 030f 	and.w	r3, r3, #15
 8001646:	490a      	ldr	r1, [pc, #40]	@ (8001670 <HAL_RCC_ClockConfig+0x1c8>)
 8001648:	5ccb      	ldrb	r3, [r1, r3]
 800164a:	fa22 f303 	lsr.w	r3, r2, r3
 800164e:	4a09      	ldr	r2, [pc, #36]	@ (8001674 <HAL_RCC_ClockConfig+0x1cc>)
 8001650:	6013      	str	r3, [r2, #0]

  /* Configure the source of time base considering new system clocks settings*/
  HAL_InitTick(uwTickPrio);
 8001652:	4b09      	ldr	r3, [pc, #36]	@ (8001678 <HAL_RCC_ClockConfig+0x1d0>)
 8001654:	681b      	ldr	r3, [r3, #0]
 8001656:	4618      	mov	r0, r3
 8001658:	f7ff f89c 	bl	8000794 <HAL_InitTick>

  return HAL_OK;
 800165c:	2300      	movs	r3, #0
}
 800165e:	4618      	mov	r0, r3
 8001660:	3710      	adds	r7, #16
 8001662:	46bd      	mov	sp, r7
 8001664:	bd80      	pop	{r7, pc}
 8001666:	bf00      	nop
 8001668:	40022000 	.word	0x40022000
 800166c:	40021000 	.word	0x40021000
 8001670:	08001da0 	.word	0x08001da0
 8001674:	20000000 	.word	0x20000000
 8001678:	20000004 	.word	0x20000004

0800167c <HAL_RCC_GetSysClockFreq>:
  *         right SYSCLK value. Otherwise, any configuration based on this function will be incorrect.
  *
  * @retval SYSCLK frequency
  */
uint32_t HAL_RCC_GetSysClockFreq(void)
{
 800167c:	b480      	push	{r7}
 800167e:	b087      	sub	sp, #28
 8001680:	af00      	add	r7, sp, #0
#else
  static const uint8_t aPredivFactorTable[2U] = {1, 2};
#endif /*RCC_CFGR2_PREDIV1*/

#endif
  uint32_t tmpreg = 0U, prediv = 0U, pllclk = 0U, pllmul = 0U;
 8001682:	2300      	movs	r3, #0
 8001684:	60fb      	str	r3, [r7, #12]
 8001686:	2300      	movs	r3, #0
 8001688:	60bb      	str	r3, [r7, #8]
 800168a:	2300      	movs	r3, #0
 800168c:	617b      	str	r3, [r7, #20]
 800168e:	2300      	movs	r3, #0
 8001690:	607b      	str	r3, [r7, #4]
  uint32_t sysclockfreq = 0U;
 8001692:	2300      	movs	r3, #0
 8001694:	613b      	str	r3, [r7, #16]
#if defined(RCC_CFGR2_PREDIV1SRC)
  uint32_t prediv2 = 0U, pll2mul = 0U;
#endif /*RCC_CFGR2_PREDIV1SRC*/

  tmpreg = RCC->CFGR;
 8001696:	4b1e      	ldr	r3, [pc, #120]	@ (8001710 <HAL_RCC_GetSysClockFreq+0x94>)
 8001698:	685b      	ldr	r3, [r3, #4]
 800169a:	60fb      	str	r3, [r7, #12]

  /* Get SYSCLK source -------------------------------------------------------*/
  switch (tmpreg & RCC_CFGR_SWS)
 800169c:	68fb      	ldr	r3, [r7, #12]
 800169e:	f003 030c 	and.w	r3, r3, #12
 80016a2:	2b04      	cmp	r3, #4
 80016a4:	d002      	beq.n	80016ac <HAL_RCC_GetSysClockFreq+0x30>
 80016a6:	2b08      	cmp	r3, #8
 80016a8:	d003      	beq.n	80016b2 <HAL_RCC_GetSysClockFreq+0x36>
 80016aa:	e027      	b.n	80016fc <HAL_RCC_GetSysClockFreq+0x80>
  {
    case RCC_SYSCLKSOURCE_STATUS_HSE:  /* HSE used as system clock */
    {
      sysclockfreq = HSE_VALUE;
 80016ac:	4b19      	ldr	r3, [pc, #100]	@ (8001714 <HAL_RCC_GetSysClockFreq+0x98>)
 80016ae:	613b      	str	r3, [r7, #16]
      break;
 80016b0:	e027      	b.n	8001702 <HAL_RCC_GetSysClockFreq+0x86>
    }
    case RCC_SYSCLKSOURCE_STATUS_PLLCLK:  /* PLL used as system clock */
    {
      pllmul = aPLLMULFactorTable[(uint32_t)(tmpreg & RCC_CFGR_PLLMULL) >> RCC_CFGR_PLLMULL_Pos];
 80016b2:	68fb      	ldr	r3, [r7, #12]
 80016b4:	0c9b      	lsrs	r3, r3, #18
 80016b6:	f003 030f 	and.w	r3, r3, #15
 80016ba:	4a17      	ldr	r2, [pc, #92]	@ (8001718 <HAL_RCC_GetSysClockFreq+0x9c>)
 80016bc:	5cd3      	ldrb	r3, [r2, r3]
 80016be:	607b      	str	r3, [r7, #4]
      if ((tmpreg & RCC_CFGR_PLLSRC) != RCC_PLLSOURCE_HSI_DIV2)
 80016c0:	68fb      	ldr	r3, [r7, #12]
 80016c2:	f403 3380 	and.w	r3, r3, #65536	@ 0x10000
 80016c6:	2b00      	cmp	r3, #0
 80016c8:	d010      	beq.n	80016ec <HAL_RCC_GetSysClockFreq+0x70>
      {
#if defined(RCC_CFGR2_PREDIV1)
        prediv = aPredivFactorTable[(uint32_t)(RCC->CFGR2 & RCC_CFGR2_PREDIV1) >> RCC_CFGR2_PREDIV1_Pos];
#else
        prediv = aPredivFactorTable[(uint32_t)(RCC->CFGR & RCC_CFGR_PLLXTPRE) >> RCC_CFGR_PLLXTPRE_Pos];
 80016ca:	4b11      	ldr	r3, [pc, #68]	@ (8001710 <HAL_RCC_GetSysClockFreq+0x94>)
 80016cc:	685b      	ldr	r3, [r3, #4]
 80016ce:	0c5b      	lsrs	r3, r3, #17
 80016d0:	f003 0301 	and.w	r3, r3, #1
 80016d4:	4a11      	ldr	r2, [pc, #68]	@ (800171c <HAL_RCC_GetSysClockFreq+0xa0>)
 80016d6:	5cd3      	ldrb	r3, [r2, r3]
 80016d8:	60bb      	str	r3, [r7, #8]
        {
          pllclk = pllclk / 2;
        }
#else
        /* HSE used as PLL clock source : PLLCLK = HSE/PREDIV1 * PLLMUL */
        pllclk = (uint32_t)((HSE_VALUE  * pllmul) / prediv);
 80016da:	687b      	ldr	r3, [r7, #4]
 80016dc:	4a0d      	ldr	r2, [pc, #52]	@ (8001714 <HAL_RCC_GetSysClockFreq+0x98>)
 80016de:	fb03 f202 	mul.w	r2, r3, r2
 80016e2:	68bb      	ldr	r3, [r7, #8]
 80016e4:	fbb2 f3f3 	udiv	r3, r2, r3
 80016e8:	617b      	str	r3, [r7, #20]
 80016ea:	e004      	b.n	80016f6 <HAL_RCC_GetSysClockFreq+0x7a>
#endif /*RCC_CFGR2_PREDIV1SRC*/
      }
      else
      {
        /* HSI used as PLL clock source : PLLCLK = HSI/2 * PLLMUL */
        pllclk = (uint32_t)((HSI_VALUE >> 1) * pllmul);
 80016ec:	687b      	ldr	r3, [r7, #4]
 80016ee:	4a0c      	ldr	r2, [pc, #48]	@ (8001720 <HAL_RCC_GetSysClockFreq+0xa4>)
 80016f0:	fb02 f303 	mul.w	r3, r2, r3
 80016f4:	617b      	str	r3, [r7, #20]
      }
      sysclockfreq = pllclk;
 80016f6:	697b      	ldr	r3, [r7, #20]
 80016f8:	613b      	str	r3, [r7, #16]
      break;
 80016fa:	e002      	b.n	8001702 <HAL_RCC_GetSysClockFreq+0x86>
    }
    case RCC_SYSCLKSOURCE_STATUS_HSI:  /* HSI used as system clock source */
    default: /* HSI used as system clock */
    {
      sysclockfreq = HSI_VALUE;
 80016fc:	4b05      	ldr	r3, [pc, #20]	@ (8001714 <HAL_RCC_GetSysClockFreq+0x98>)
 80016fe:	613b      	str	r3, [r7, #16]
      break;
 8001700:	bf00      	nop
    }
  }
  return sysclockfreq;
 8001702:	693b      	ldr	r3, [r7, #16]
}
 8001704:	4618      	mov	r0, r3
 8001706:	371c      	adds	r7, #28
 8001708:	46bd      	mov	sp, r7
 800170a:	bc80      	pop	{r7}
 800170c:	4770      	bx	lr
 800170e:	bf00      	nop
 8001710:	40021000 	.word	0x40021000
 8001714:	007a1200 	.word	0x007a1200
 8001718:	08001db8 	.word	0x08001db8
 800171c:	08001dc8 	.word	0x08001dc8
 8001720:	003d0900 	.word	0x003d0900

08001724 <HAL_RCC_GetHCLKFreq>:
  * @note   The SystemCoreClock CMSIS variable is used to store System Clock Frequency
  *         and updated within this function
  * @retval HCLK frequency
  */
uint32_t HAL_RCC_GetHCLKFreq(void)
{
 8001724:	b480      	push	{r7}
 8001726:	af00      	add	r7, sp, #0
  return SystemCoreClock;
 8001728:	4b02      	ldr	r3, [pc, #8]	@ (8001734 <HAL_RCC_GetHCLKFreq+0x10>)
 800172a:	681b      	ldr	r3, [r3, #0]
}
 800172c:	4618      	mov	r0, r3
 800172e:	46bd      	mov	sp, r7
 8001730:	bc80      	pop	{r7}
 8001732:	4770      	bx	lr
 8001734:	20000000 	.word	0x20000000

08001738 <HAL_RCC_GetPCLK1Freq>:
  * @note   Each time PCLK1 changes, this function must be called to update the
  *         right PCLK1 value. Otherwise, any configuration based on this function will be incorrect.
  * @retval PCLK1 frequency
  */
uint32_t HAL_RCC_GetPCLK1Freq(void)
{
 8001738:	b580      	push	{r7, lr}
 800173a:	af00      	add	r7, sp, #0
  /* Get HCLK source and Compute PCLK1 frequency ---------------------------*/
  return (HAL_RCC_GetHCLKFreq() >> APBPrescTable[(RCC->CFGR & RCC_CFGR_PPRE1) >> RCC_CFGR_PPRE1_Pos]);
 800173c:	f7ff fff2 	bl	8001724 <HAL_RCC_GetHCLKFreq>
 8001740:	4602      	mov	r2, r0
 8001742:	4b05      	ldr	r3, [pc, #20]	@ (8001758 <HAL_RCC_GetPCLK1Freq+0x20>)
 8001744:	685b      	ldr	r3, [r3, #4]
 8001746:	0a1b      	lsrs	r3, r3, #8
 8001748:	f003 0307 	and.w	r3, r3, #7
 800174c:	4903      	ldr	r1, [pc, #12]	@ (800175c <HAL_RCC_GetPCLK1Freq+0x24>)
 800174e:	5ccb      	ldrb	r3, [r1, r3]
 8001750:	fa22 f303 	lsr.w	r3, r2, r3
}
 8001754:	4618      	mov	r0, r3
 8001756:	bd80      	pop	{r7, pc}
 8001758:	40021000 	.word	0x40021000
 800175c:	08001db0 	.word	0x08001db0

08001760 <HAL_RCC_GetPCLK2Freq>:
  * @note   Each time PCLK2 changes, this function must be called to update the
  *         right PCLK2 value. Otherwise, any configuration based on this function will be incorrect.
  * @retval PCLK2 frequency
  */
uint32_t HAL_RCC_GetPCLK2Freq(void)
{
 8001760:	b580      	push	{r7, lr}
 8001762:	af00      	add	r7, sp, #0
  /* Get HCLK source and Compute PCLK2 frequency ---------------------------*/
  return (HAL_RCC_GetHCLKFreq() >> APBPrescTable[(RCC->CFGR & RCC_CFGR_PPRE2) >> RCC_CFGR_PPRE2_Pos]);
 8001764:	f7ff ffde 	bl	8001724 <HAL_RCC_GetHCLKFreq>
 8001768:	4602      	mov	r2, r0
 800176a:	4b05      	ldr	r3, [pc, #20]	@ (8001780 <HAL_RCC_GetPCLK2Freq+0x20>)
 800176c:	685b      	ldr	r3, [r3, #4]
 800176e:	0adb      	lsrs	r3, r3, #11
 8001770:	f003 0307 	and.w	r3, r3, #7
 8001774:	4903      	ldr	r1, [pc, #12]	@ (8001784 <HAL_RCC_GetPCLK2Freq+0x24>)
 8001776:	5ccb      	ldrb	r3, [r1, r3]
 8001778:	fa22 f303 	lsr.w	r3, r2, r3
}
 800177c:	4618      	mov	r0, r3
 800177e:	bd80      	pop	{r7, pc}
 8001780:	40021000 	.word	0x40021000
 8001784:	08001db0 	.word	0x08001db0

08001788 <RCC_Delay>:
  * @brief  This function provides delay (in milliseconds) based on CPU cycles method.
  * @param  mdelay: specifies the delay time length, in milliseconds.
  * @retval None
  */
static void RCC_Delay(uint32_t mdelay)
{
 8001788:	b480      	push	{r7}
 800178a:	b085      	sub	sp, #20
 800178c:	af00      	add	r7, sp, #0
 800178e:	6078      	str	r0, [r7, #4]
  __IO uint32_t Delay = mdelay * (SystemCoreClock / 8U / 1000U);
 8001790:	4b0a      	ldr	r3, [pc, #40]	@ (80017bc <RCC_Delay+0x34>)
 8001792:	681b      	ldr	r3, [r3, #0]
 8001794:	4a0a      	ldr	r2, [pc, #40]	@ (80017c0 <RCC_Delay+0x38>)
 8001796:	fba2 2303 	umull	r2, r3, r2, r3
 800179a:	0a5b      	lsrs	r3, r3, #9
 800179c:	687a      	ldr	r2, [r7, #4]
 800179e:	fb02 f303 	mul.w	r3, r2, r3
 80017a2:	60fb      	str	r3, [r7, #12]
  do
  {
    __NOP();
 80017a4:	bf00      	nop
  }
  while (Delay --);
 80017a6:	68fb      	ldr	r3, [r7, #12]
 80017a8:	1e5a      	subs	r2, r3, #1
 80017aa:	60fa      	str	r2, [r7, #12]
 80017ac:	2b00      	cmp	r3, #0
 80017ae:	d1f9      	bne.n	80017a4 <RCC_Delay+0x1c>
}
 80017b0:	bf00      	nop
 80017b2:	bf00      	nop
 80017b4:	3714      	adds	r7, #20
 80017b6:	46bd      	mov	sp, r7
 80017b8:	bc80      	pop	{r7}
 80017ba:	4770      	bx	lr
 80017bc:	20000000 	.word	0x20000000
 80017c0:	10624dd3 	.word	0x10624dd3

080017c4 <HAL_SPI_Init>:
  * @param  hspi pointer to a SPI_HandleTypeDef structure that contains
  *               the configuration information for SPI module.
  * @retval HAL status
  */
HAL_StatusTypeDef HAL_SPI_Init(SPI_HandleTypeDef *hspi)
{
 80017c4:	b580      	push	{r7, lr}
 80017c6:	b082      	sub	sp, #8
 80017c8:	af00      	add	r7, sp, #0
 80017ca:	6078      	str	r0, [r7, #4]
  /* Check the SPI handle allocation */
  if (hspi == NULL)
 80017cc:	687b      	ldr	r3, [r7, #4]
 80017ce:	2b00      	cmp	r3, #0
 80017d0:	d101      	bne.n	80017d6 <HAL_SPI_Init+0x12>
  {
    return HAL_ERROR;
 80017d2:	2301      	movs	r3, #1
 80017d4:	e076      	b.n	80018c4 <HAL_SPI_Init+0x100>
  assert_param(IS_SPI_BAUDRATE_PRESCALER(hspi->Init.BaudRatePrescaler));
  assert_param(IS_SPI_FIRST_BIT(hspi->Init.FirstBit));
  /* TI mode is not supported on this device.
     TIMode parameter is mandatory equal to SPI_TIMODE_DISABLE */
  assert_param(IS_SPI_TIMODE(hspi->Init.TIMode));
  if (hspi->Init.TIMode == SPI_TIMODE_DISABLE)
 80017d6:	687b      	ldr	r3, [r7, #4]
 80017d8:	6a5b      	ldr	r3, [r3, #36]	@ 0x24
 80017da:	2b00      	cmp	r3, #0
 80017dc:	d108      	bne.n	80017f0 <HAL_SPI_Init+0x2c>
  {
    assert_param(IS_SPI_CPOL(hspi->Init.CLKPolarity));
    assert_param(IS_SPI_CPHA(hspi->Init.CLKPhase));

    if (hspi->Init.Mode == SPI_MODE_MASTER)
 80017de:	687b      	ldr	r3, [r7, #4]
 80017e0:	685b      	ldr	r3, [r3, #4]
 80017e2:	f5b3 7f82 	cmp.w	r3, #260	@ 0x104
 80017e6:	d009      	beq.n	80017fc <HAL_SPI_Init+0x38>
      assert_param(IS_SPI_BAUDRATE_PRESCALER(hspi->Init.BaudRatePrescaler));
    }
    else
    {
      /* Baudrate prescaler not use in Motoraola Slave mode. force to default value */
      hspi->Init.BaudRatePrescaler = SPI_BAUDRATEPRESCALER_2;
 80017e8:	687b      	ldr	r3, [r7, #4]
 80017ea:	2200      	movs	r2, #0
 80017ec:	61da      	str	r2, [r3, #28]
 80017ee:	e005      	b.n	80017fc <HAL_SPI_Init+0x38>
  else
  {
    assert_param(IS_SPI_BAUDRATE_PRESCALER(hspi->Init.BaudRatePrescaler));

    /* Force polarity and phase to TI protocaol requirements */
    hspi->Init.CLKPolarity = SPI_POLARITY_LOW;
 80017f0:	687b      	ldr	r3, [r7, #4]
 80017f2:	2200      	movs	r2, #0
 80017f4:	611a      	str	r2, [r3, #16]
    hspi->Init.CLKPhase    = SPI_PHASE_1EDGE;
 80017f6:	687b      	ldr	r3, [r7, #4]
 80017f8:	2200      	movs	r2, #0
 80017fa:	615a      	str	r2, [r3, #20]
  if (hspi->Init.CRCCalculation == SPI_CRCCALCULATION_ENABLE)
  {
    assert_param(IS_SPI_CRC_POLYNOMIAL(hspi->Init.CRCPolynomial));
  }
#else
  hspi->Init.CRCCalculation = SPI_CRCCALCULATION_DISABLE;
 80017fc:	687b      	ldr	r3, [r7, #4]
 80017fe:	2200      	movs	r2, #0
 8001800:	629a      	str	r2, [r3, #40]	@ 0x28
#endif /* USE_SPI_CRC */

  if (hspi->State == HAL_SPI_STATE_RESET)
 8001802:	687b      	ldr	r3, [r7, #4]
 8001804:	f893 3051 	ldrb.w	r3, [r3, #81]	@ 0x51
 8001808:	b2db      	uxtb	r3, r3
 800180a:	2b00      	cmp	r3, #0
 800180c:	d106      	bne.n	800181c <HAL_SPI_Init+0x58>
  {
    /* Allocate lock resource and initialize it */
    hspi->Lock = HAL_UNLOCKED;
 800180e:	687b      	ldr	r3, [r7, #4]
 8001810:	2200      	movs	r2, #0
 8001812:	f883 2050 	strb.w	r2, [r3, #80]	@ 0x50

    /* Init the low level hardware : GPIO, CLOCK, NVIC... */
    hspi->MspInitCallback(hspi);
#else
    /* Init the low level hardware : GPIO, CLOCK, NVIC... */
    HAL_SPI_MspInit(hspi);
 8001816:	6878      	ldr	r0, [r7, #4]
 8001818:	f7fe fe8a 	bl	8000530 <HAL_SPI_MspInit>
#endif /* USE_HAL_SPI_REGISTER_CALLBACKS */
  }

  hspi->State = HAL_SPI_STATE_BUSY;
 800181c:	687b      	ldr	r3, [r7, #4]
 800181e:	2202      	movs	r2, #2
 8001820:	f883 2051 	strb.w	r2, [r3, #81]	@ 0x51

  /* Disable the selected SPI peripheral */
  __HAL_SPI_DISABLE(hspi);
 8001824:	687b      	ldr	r3, [r7, #4]
 8001826:	681b      	ldr	r3, [r3, #0]
 8001828:	681a      	ldr	r2, [r3, #0]
 800182a:	687b      	ldr	r3, [r7, #4]
 800182c:	681b      	ldr	r3, [r3, #0]
 800182e:	f022 0240 	bic.w	r2, r2, #64	@ 0x40
 8001832:	601a      	str	r2, [r3, #0]

  /*----------------------- SPIx CR1 & CR2 Configuration ---------------------*/
  /* Configure : SPI Mode, Communication Mode, Data size, Clock polarity and phase, NSS management,
  Communication speed, First bit and CRC calculation state */
  WRITE_REG(hspi->Instance->CR1, ((hspi->Init.Mode & (SPI_CR1_MSTR | SPI_CR1_SSI)) |
 8001834:	687b      	ldr	r3, [r7, #4]
 8001836:	685b      	ldr	r3, [r3, #4]
 8001838:	f403 7282 	and.w	r2, r3, #260	@ 0x104
 800183c:	687b      	ldr	r3, [r7, #4]
 800183e:	689b      	ldr	r3, [r3, #8]
 8001840:	f403 4304 	and.w	r3, r3, #33792	@ 0x8400
 8001844:	431a      	orrs	r2, r3
 8001846:	687b      	ldr	r3, [r7, #4]
 8001848:	68db      	ldr	r3, [r3, #12]
 800184a:	f403 6300 	and.w	r3, r3, #2048	@ 0x800
 800184e:	431a      	orrs	r2, r3
 8001850:	687b      	ldr	r3, [r7, #4]
 8001852:	691b      	ldr	r3, [r3, #16]
 8001854:	f003 0302 	and.w	r3, r3, #2
 8001858:	431a      	orrs	r2, r3
 800185a:	687b      	ldr	r3, [r7, #4]
 800185c:	695b      	ldr	r3, [r3, #20]
 800185e:	f003 0301 	and.w	r3, r3, #1
 8001862:	431a      	orrs	r2, r3
 8001864:	687b      	ldr	r3, [r7, #4]
 8001866:	699b      	ldr	r3, [r3, #24]
 8001868:	f403 7300 	and.w	r3, r3, #512	@ 0x200
 800186c:	431a      	orrs	r2, r3
 800186e:	687b      	ldr	r3, [r7, #4]
 8001870:	69db      	ldr	r3, [r3, #28]
 8001872:	f003 0338 	and.w	r3, r3, #56	@ 0x38
 8001876:	431a      	orrs	r2, r3
 8001878:	687b      	ldr	r3, [r7, #4]
 800187a:	6a1b      	ldr	r3, [r3, #32]
 800187c:	f003 0380 	and.w	r3, r3, #128	@ 0x80
 8001880:	ea42 0103 	orr.w	r1, r2, r3
 8001884:	687b      	ldr	r3, [r7, #4]
 8001886:	6a9b      	ldr	r3, [r3, #40]	@ 0x28
 8001888:	f403 5200 	and.w	r2, r3, #8192	@ 0x2000
 800188c:	687b      	ldr	r3, [r7, #4]
 800188e:	681b      	ldr	r3, [r3, #0]
 8001890:	430a      	orrs	r2, r1
 8001892:	601a      	str	r2, [r3, #0]
                                  (hspi->Init.BaudRatePrescaler & SPI_CR1_BR_Msk) |
                                  (hspi->Init.FirstBit  & SPI_CR1_LSBFIRST) |
                                  (hspi->Init.CRCCalculation & SPI_CR1_CRCEN)));

  /* Configure : NSS management */
  WRITE_REG(hspi->Instance->CR2, ((hspi->Init.NSS >> 16U) & SPI_CR2_SSOE));
 8001894:	687b      	ldr	r3, [r7, #4]
 8001896:	699b      	ldr	r3, [r3, #24]
 8001898:	0c1a      	lsrs	r2, r3, #16
 800189a:	687b      	ldr	r3, [r7, #4]
 800189c:	681b      	ldr	r3, [r3, #0]
 800189e:	f002 0204 	and.w	r2, r2, #4
 80018a2:	605a      	str	r2, [r3, #4]
  }
#endif /* USE_SPI_CRC */

#if defined(SPI_I2SCFGR_I2SMOD)
  /* Activate the SPI mode (Make sure that I2SMOD bit in I2SCFGR register is reset) */
  CLEAR_BIT(hspi->Instance->I2SCFGR, SPI_I2SCFGR_I2SMOD);
 80018a4:	687b      	ldr	r3, [r7, #4]
 80018a6:	681b      	ldr	r3, [r3, #0]
 80018a8:	69da      	ldr	r2, [r3, #28]
 80018aa:	687b      	ldr	r3, [r7, #4]
 80018ac:	681b      	ldr	r3, [r3, #0]
 80018ae:	f422 6200 	bic.w	r2, r2, #2048	@ 0x800
 80018b2:	61da      	str	r2, [r3, #28]
#endif /* SPI_I2SCFGR_I2SMOD */

  hspi->ErrorCode = HAL_SPI_ERROR_NONE;
 80018b4:	687b      	ldr	r3, [r7, #4]
 80018b6:	2200      	movs	r2, #0
 80018b8:	655a      	str	r2, [r3, #84]	@ 0x54
  hspi->State     = HAL_SPI_STATE_READY;
 80018ba:	687b      	ldr	r3, [r7, #4]
 80018bc:	2201      	movs	r2, #1
 80018be:	f883 2051 	strb.w	r2, [r3, #81]	@ 0x51

  return HAL_OK;
 80018c2:	2300      	movs	r3, #0
}
 80018c4:	4618      	mov	r0, r3
 80018c6:	3708      	adds	r7, #8
 80018c8:	46bd      	mov	sp, r7
 80018ca:	bd80      	pop	{r7, pc}

080018cc <HAL_UART_Init>:
  * @param  huart  Pointer to a UART_HandleTypeDef structure that contains
  *                the configuration information for the specified UART module.
  * @retval HAL status
  */
HAL_StatusTypeDef HAL_UART_Init(UART_HandleTypeDef *huart)
{
 80018cc:	b580      	push	{r7, lr}
 80018ce:	b082      	sub	sp, #8
 80018d0:	af00      	add	r7, sp, #0
 80018d2:	6078      	str	r0, [r7, #4]
  /* Check the UART handle allocation */
  if (huart == NULL)
 80018d4:	687b      	ldr	r3, [r7, #4]
 80018d6:	2b00      	cmp	r3, #0
 80018d8:	d101      	bne.n	80018de <HAL_UART_Init+0x12>
  {
    return HAL_ERROR;
 80018da:	2301      	movs	r3, #1
 80018dc:	e042      	b.n	8001964 <HAL_UART_Init+0x98>
  assert_param(IS_UART_WORD_LENGTH(huart->Init.WordLength));
#if defined(USART_CR1_OVER8)
  assert_param(IS_UART_OVERSAMPLING(huart->Init.OverSampling));
#endif /* USART_CR1_OVER8 */

  if (huart->gState == HAL_UART_STATE_RESET)
 80018de:	687b      	ldr	r3, [r7, #4]
 80018e0:	f893 3041 	ldrb.w	r3, [r3, #65]	@ 0x41
 80018e4:	b2db      	uxtb	r3, r3
 80018e6:	2b00      	cmp	r3, #0
 80018e8:	d106      	bne.n	80018f8 <HAL_UART_Init+0x2c>
  {
    /* Allocate lock resource and initialize it */
    huart->Lock = HAL_UNLOCKED;
 80018ea:	687b      	ldr	r3, [r7, #4]
 80018ec:	2200      	movs	r2, #0
 80018ee:	f883 2040 	strb.w	r2, [r3, #64]	@ 0x40

    /* Init the low level hardware */
    huart->MspInitCallback(huart);
#else
    /* Init the low level hardware : GPIO, CLOCK */
    HAL_UART_MspInit(huart);
 80018f2:	6878      	ldr	r0, [r7, #4]
 80018f4:	f7fe fe66 	bl	80005c4 <HAL_UART_MspInit>
#endif /* (USE_HAL_UART_REGISTER_CALLBACKS) */
  }

  huart->gState = HAL_UART_STATE_BUSY;
 80018f8:	687b      	ldr	r3, [r7, #4]
 80018fa:	2224      	movs	r2, #36	@ 0x24
 80018fc:	f883 2041 	strb.w	r2, [r3, #65]	@ 0x41

  /* Disable the peripheral */
  __HAL_UART_DISABLE(huart);
 8001900:	687b      	ldr	r3, [r7, #4]
 8001902:	681b      	ldr	r3, [r3, #0]
 8001904:	68da      	ldr	r2, [r3, #12]
 8001906:	687b      	ldr	r3, [r7, #4]
 8001908:	681b      	ldr	r3, [r3, #0]
 800190a:	f422 5200 	bic.w	r2, r2, #8192	@ 0x2000
 800190e:	60da      	str	r2, [r3, #12]

  /* Set the UART Communication parameters */
  UART_SetConfig(huart);
 8001910:	6878      	ldr	r0, [r7, #4]
 8001912:	f000 f975 	bl	8001c00 <UART_SetConfig>

  /* In asynchronous mode, the following bits must be kept cleared:
     - LINEN and CLKEN bits in the USART_CR2 register,
     - SCEN, HDSEL and IREN  bits in the USART_CR3 register.*/
  CLEAR_BIT(huart->Instance->CR2, (USART_CR2_LINEN | USART_CR2_CLKEN));
 8001916:	687b      	ldr	r3, [r7, #4]
 8001918:	681b      	ldr	r3, [r3, #0]
 800191a:	691a      	ldr	r2, [r3, #16]
 800191c:	687b      	ldr	r3, [r7, #4]
 800191e:	681b      	ldr	r3, [r3, #0]
 8001920:	f422 4290 	bic.w	r2, r2, #18432	@ 0x4800
 8001924:	611a      	str	r2, [r3, #16]
  CLEAR_BIT(huart->Instance->CR3, (USART_CR3_SCEN | USART_CR3_HDSEL | USART_CR3_IREN));
 8001926:	687b      	ldr	r3, [r7, #4]
 8001928:	681b      	ldr	r3, [r3, #0]
 800192a:	695a      	ldr	r2, [r3, #20]
 800192c:	687b      	ldr	r3, [r7, #4]
 800192e:	681b      	ldr	r3, [r3, #0]
 8001930:	f022 022a 	bic.w	r2, r2, #42	@ 0x2a
 8001934:	615a      	str	r2, [r3, #20]

  /* Enable the peripheral */
  __HAL_UART_ENABLE(huart);
 8001936:	687b      	ldr	r3, [r7, #4]
 8001938:	681b      	ldr	r3, [r3, #0]
 800193a:	68da      	ldr	r2, [r3, #12]
 800193c:	687b      	ldr	r3, [r7, #4]
 800193e:	681b      	ldr	r3, [r3, #0]
 8001940:	f442 5200 	orr.w	r2, r2, #8192	@ 0x2000
 8001944:	60da      	str	r2, [r3, #12]

  /* Initialize the UART state */
  huart->ErrorCode = HAL_UART_ERROR_NONE;
 8001946:	687b      	ldr	r3, [r7, #4]
 8001948:	2200      	movs	r2, #0
 800194a:	645a      	str	r2, [r3, #68]	@ 0x44
  huart->gState = HAL_UART_STATE_READY;
 800194c:	687b      	ldr	r3, [r7, #4]
 800194e:	2220      	movs	r2, #32
 8001950:	f883 2041 	strb.w	r2, [r3, #65]	@ 0x41
  huart->RxState = HAL_UART_STATE_READY;
 8001954:	687b      	ldr	r3, [r7, #4]
 8001956:	2220      	movs	r2, #32
 8001958:	f883 2042 	strb.w	r2, [r3, #66]	@ 0x42
  huart->RxEventType = HAL_UART_RXEVENT_TC;
 800195c:	687b      	ldr	r3, [r7, #4]
 800195e:	2200      	movs	r2, #0
 8001960:	635a      	str	r2, [r3, #52]	@ 0x34

  return HAL_OK;
 8001962:	2300      	movs	r3, #0
}
 8001964:	4618      	mov	r0, r3
 8001966:	3708      	adds	r7, #8
 8001968:	46bd      	mov	sp, r7
 800196a:	bd80      	pop	{r7, pc}

0800196c <HAL_HalfDuplex_Init>:
  * @param  huart  Pointer to a UART_HandleTypeDef structure that contains
  *                the configuration information for the specified UART module.
  * @retval HAL status
  */
HAL_StatusTypeDef HAL_HalfDuplex_Init(UART_HandleTypeDef *huart)
{
 800196c:	b580      	push	{r7, lr}
 800196e:	b082      	sub	sp, #8
 8001970:	af00      	add	r7, sp, #0
 8001972:	6078      	str	r0, [r7, #4]
  /* Check the UART handle allocation */
  if (huart == NULL)
 8001974:	687b      	ldr	r3, [r7, #4]
 8001976:	2b00      	cmp	r3, #0
 8001978:	d101      	bne.n	800197e <HAL_HalfDuplex_Init+0x12>
  {
    return HAL_ERROR;
 800197a:	2301      	movs	r3, #1
 800197c:	e04a      	b.n	8001a14 <HAL_HalfDuplex_Init+0xa8>
  assert_param(IS_UART_WORD_LENGTH(huart->Init.WordLength));
#if defined(USART_CR1_OVER8)
  assert_param(IS_UART_OVERSAMPLING(huart->Init.OverSampling));
#endif /* USART_CR1_OVER8 */

  if (huart->gState == HAL_UART_STATE_RESET)
 800197e:	687b      	ldr	r3, [r7, #4]
 8001980:	f893 3041 	ldrb.w	r3, [r3, #65]	@ 0x41
 8001984:	b2db      	uxtb	r3, r3
 8001986:	2b00      	cmp	r3, #0
 8001988:	d106      	bne.n	8001998 <HAL_HalfDuplex_Init+0x2c>
  {
    /* Allocate lock resource and initialize it */
    huart->Lock = HAL_UNLOCKED;
 800198a:	687b      	ldr	r3, [r7, #4]
 800198c:	2200      	movs	r2, #0
 800198e:	f883 2040 	strb.w	r2, [r3, #64]	@ 0x40

    /* Init the low level hardware */
    huart->MspInitCallback(huart);
#else
    /* Init the low level hardware : GPIO, CLOCK */
    HAL_UART_MspInit(huart);
 8001992:	6878      	ldr	r0, [r7, #4]
 8001994:	f7fe fe16 	bl	80005c4 <HAL_UART_MspInit>
#endif /* (USE_HAL_UART_REGISTER_CALLBACKS) */
  }

  huart->gState = HAL_UART_STATE_BUSY;
 8001998:	687b      	ldr	r3, [r7, #4]
 800199a:	2224      	movs	r2, #36	@ 0x24
 800199c:	f883 2041 	strb.w	r2, [r3, #65]	@ 0x41

  /* Disable the peripheral */
  __HAL_UART_DISABLE(huart);
 80019a0:	687b      	ldr	r3, [r7, #4]
 80019a2:	681b      	ldr	r3, [r3, #0]
 80019a4:	68da      	ldr	r2, [r3, #12]
 80019a6:	687b      	ldr	r3, [r7, #4]
 80019a8:	681b      	ldr	r3, [r3, #0]
 80019aa:	f422 5200 	bic.w	r2, r2, #8192	@ 0x2000
 80019ae:	60da      	str	r2, [r3, #12]

  /* Set the UART Communication parameters */
  UART_SetConfig(huart);
 80019b0:	6878      	ldr	r0, [r7, #4]
 80019b2:	f000 f925 	bl	8001c00 <UART_SetConfig>

  /* In half-duplex mode, the following bits must be kept cleared:
     - LINEN and CLKEN bits in the USART_CR2 register,
     - SCEN and IREN bits in the USART_CR3 register.*/
  CLEAR_BIT(huart->Instance->CR2, (USART_CR2_LINEN | USART_CR2_CLKEN));
 80019b6:	687b      	ldr	r3, [r7, #4]
 80019b8:	681b      	ldr	r3, [r3, #0]
 80019ba:	691a      	ldr	r2, [r3, #16]
 80019bc:	687b      	ldr	r3, [r7, #4]
 80019be:	681b      	ldr	r3, [r3, #0]
 80019c0:	f422 4290 	bic.w	r2, r2, #18432	@ 0x4800
 80019c4:	611a      	str	r2, [r3, #16]
  CLEAR_BIT(huart->Instance->CR3, (USART_CR3_IREN | USART_CR3_SCEN));
 80019c6:	687b      	ldr	r3, [r7, #4]
 80019c8:	681b      	ldr	r3, [r3, #0]
 80019ca:	695a      	ldr	r2, [r3, #20]
 80019cc:	687b      	ldr	r3, [r7, #4]
 80019ce:	681b      	ldr	r3, [r3, #0]
 80019d0:	f022 0222 	bic.w	r2, r2, #34	@ 0x22
 80019d4:	615a      	str	r2, [r3, #20]

  /* Enable the Half-Duplex mode by setting the HDSEL bit in the CR3 register */
  SET_BIT(huart->Instance->CR3, USART_CR3_HDSEL);
 80019d6:	687b      	ldr	r3, [r7, #4]
 80019d8:	681b      	ldr	r3, [r3, #0]
 80019da:	695a      	ldr	r2, [r3, #20]
 80019dc:	687b      	ldr	r3, [r7, #4]
 80019de:	681b      	ldr	r3, [r3, #0]
 80019e0:	f042 0208 	orr.w	r2, r2, #8
 80019e4:	615a      	str	r2, [r3, #20]

  /* Enable the peripheral */
  __HAL_UART_ENABLE(huart);
 80019e6:	687b      	ldr	r3, [r7, #4]
 80019e8:	681b      	ldr	r3, [r3, #0]
 80019ea:	68da      	ldr	r2, [r3, #12]
 80019ec:	687b      	ldr	r3, [r7, #4]
 80019ee:	681b      	ldr	r3, [r3, #0]
 80019f0:	f442 5200 	orr.w	r2, r2, #8192	@ 0x2000
 80019f4:	60da      	str	r2, [r3, #12]

  /* Initialize the UART state*/
  huart->ErrorCode = HAL_UART_ERROR_NONE;
 80019f6:	687b      	ldr	r3, [r7, #4]
 80019f8:	2200      	movs	r2, #0
 80019fa:	645a      	str	r2, [r3, #68]	@ 0x44
  huart->gState = HAL_UART_STATE_READY;
 80019fc:	687b      	ldr	r3, [r7, #4]
 80019fe:	2220      	movs	r2, #32
 8001a00:	f883 2041 	strb.w	r2, [r3, #65]	@ 0x41
  huart->RxState = HAL_UART_STATE_READY;
 8001a04:	687b      	ldr	r3, [r7, #4]
 8001a06:	2220      	movs	r2, #32
 8001a08:	f883 2042 	strb.w	r2, [r3, #66]	@ 0x42
  huart->RxEventType = HAL_UART_RXEVENT_TC;
 8001a0c:	687b      	ldr	r3, [r7, #4]
 8001a0e:	2200      	movs	r2, #0
 8001a10:	635a      	str	r2, [r3, #52]	@ 0x34

  return HAL_OK;
 8001a12:	2300      	movs	r3, #0
}
 8001a14:	4618      	mov	r0, r3
 8001a16:	3708      	adds	r7, #8
 8001a18:	46bd      	mov	sp, r7
 8001a1a:	bd80      	pop	{r7, pc}

08001a1c <HAL_UART_Transmit>:
  * @param  Size  Amount of data elements (u8 or u16) to be sent
  * @param  Timeout Timeout duration
  * @retval HAL status
  */
HAL_StatusTypeDef HAL_UART_Transmit(UART_HandleTypeDef *huart, const uint8_t *pData, uint16_t Size, uint32_t Timeout)
{
 8001a1c:	b580      	push	{r7, lr}
 8001a1e:	b08a      	sub	sp, #40	@ 0x28
 8001a20:	af02      	add	r7, sp, #8
 8001a22:	60f8      	str	r0, [r7, #12]
 8001a24:	60b9      	str	r1, [r7, #8]
 8001a26:	603b      	str	r3, [r7, #0]
 8001a28:	4613      	mov	r3, r2
 8001a2a:	80fb      	strh	r3, [r7, #6]
  const uint8_t  *pdata8bits;
  const uint16_t *pdata16bits;
  uint32_t tickstart = 0U;
 8001a2c:	2300      	movs	r3, #0
 8001a2e:	617b      	str	r3, [r7, #20]

  /* Check that a Tx process is not already ongoing */
  if (huart->gState == HAL_UART_STATE_READY)
 8001a30:	68fb      	ldr	r3, [r7, #12]
 8001a32:	f893 3041 	ldrb.w	r3, [r3, #65]	@ 0x41
 8001a36:	b2db      	uxtb	r3, r3
 8001a38:	2b20      	cmp	r3, #32
 8001a3a:	d16d      	bne.n	8001b18 <HAL_UART_Transmit+0xfc>
  {
    if ((pData == NULL) || (Size == 0U))
 8001a3c:	68bb      	ldr	r3, [r7, #8]
 8001a3e:	2b00      	cmp	r3, #0
 8001a40:	d002      	beq.n	8001a48 <HAL_UART_Transmit+0x2c>
 8001a42:	88fb      	ldrh	r3, [r7, #6]
 8001a44:	2b00      	cmp	r3, #0
 8001a46:	d101      	bne.n	8001a4c <HAL_UART_Transmit+0x30>
    {
      return  HAL_ERROR;
 8001a48:	2301      	movs	r3, #1
 8001a4a:	e066      	b.n	8001b1a <HAL_UART_Transmit+0xfe>
    }

    huart->ErrorCode = HAL_UART_ERROR_NONE;
 8001a4c:	68fb      	ldr	r3, [r7, #12]
 8001a4e:	2200      	movs	r2, #0
 8001a50:	645a      	str	r2, [r3, #68]	@ 0x44
    huart->gState = HAL_UART_STATE_BUSY_TX;
 8001a52:	68fb      	ldr	r3, [r7, #12]
 8001a54:	2221      	movs	r2, #33	@ 0x21
 8001a56:	f883 2041 	strb.w	r2, [r3, #65]	@ 0x41

    /* Init tickstart for timeout management */
    tickstart = HAL_GetTick();
 8001a5a:	f7fe fedd 	bl	8000818 <HAL_GetTick>
 8001a5e:	6178      	str	r0, [r7, #20]

    huart->TxXferSize = Size;
 8001a60:	68fb      	ldr	r3, [r7, #12]
 8001a62:	88fa      	ldrh	r2, [r7, #6]
 8001a64:	849a      	strh	r2, [r3, #36]	@ 0x24
    huart->TxXferCount = Size;
 8001a66:	68fb      	ldr	r3, [r7, #12]
 8001a68:	88fa      	ldrh	r2, [r7, #6]
 8001a6a:	84da      	strh	r2, [r3, #38]	@ 0x26

    /* In case of 9bits/No Parity transfer, pData needs to be handled as a uint16_t pointer */
    if ((huart->Init.WordLength == UART_WORDLENGTH_9B) && (huart->Init.Parity == UART_PARITY_NONE))
 8001a6c:	68fb      	ldr	r3, [r7, #12]
 8001a6e:	689b      	ldr	r3, [r3, #8]
 8001a70:	f5b3 5f80 	cmp.w	r3, #4096	@ 0x1000
 8001a74:	d108      	bne.n	8001a88 <HAL_UART_Transmit+0x6c>
 8001a76:	68fb      	ldr	r3, [r7, #12]
 8001a78:	691b      	ldr	r3, [r3, #16]
 8001a7a:	2b00      	cmp	r3, #0
 8001a7c:	d104      	bne.n	8001a88 <HAL_UART_Transmit+0x6c>
    {
      pdata8bits  = NULL;
 8001a7e:	2300      	movs	r3, #0
 8001a80:	61fb      	str	r3, [r7, #28]
      pdata16bits = (const uint16_t *) pData;
 8001a82:	68bb      	ldr	r3, [r7, #8]
 8001a84:	61bb      	str	r3, [r7, #24]
 8001a86:	e003      	b.n	8001a90 <HAL_UART_Transmit+0x74>
    }
    else
    {
      pdata8bits  = pData;
 8001a88:	68bb      	ldr	r3, [r7, #8]
 8001a8a:	61fb      	str	r3, [r7, #28]
      pdata16bits = NULL;
 8001a8c:	2300      	movs	r3, #0
 8001a8e:	61bb      	str	r3, [r7, #24]
    }

    while (huart->TxXferCount > 0U)
 8001a90:	e02a      	b.n	8001ae8 <HAL_UART_Transmit+0xcc>
    {
      if (UART_WaitOnFlagUntilTimeout(huart, UART_FLAG_TXE, RESET, tickstart, Timeout) != HAL_OK)
 8001a92:	683b      	ldr	r3, [r7, #0]
 8001a94:	9300      	str	r3, [sp, #0]
 8001a96:	697b      	ldr	r3, [r7, #20]
 8001a98:	2200      	movs	r2, #0
 8001a9a:	2180      	movs	r1, #128	@ 0x80
 8001a9c:	68f8      	ldr	r0, [r7, #12]
 8001a9e:	f000 f840 	bl	8001b22 <UART_WaitOnFlagUntilTimeout>
 8001aa2:	4603      	mov	r3, r0
 8001aa4:	2b00      	cmp	r3, #0
 8001aa6:	d001      	beq.n	8001aac <HAL_UART_Transmit+0x90>
      {
        return HAL_TIMEOUT;
 8001aa8:	2303      	movs	r3, #3
 8001aaa:	e036      	b.n	8001b1a <HAL_UART_Transmit+0xfe>
      }
      if (pdata8bits == NULL)
 8001aac:	69fb      	ldr	r3, [r7, #28]
 8001aae:	2b00      	cmp	r3, #0
 8001ab0:	d10b      	bne.n	8001aca <HAL_UART_Transmit+0xae>
      {
        huart->Instance->DR = (uint16_t)(*pdata16bits & 0x01FFU);
 8001ab2:	69bb      	ldr	r3, [r7, #24]
 8001ab4:	881b      	ldrh	r3, [r3, #0]
 8001ab6:	461a      	mov	r2, r3
 8001ab8:	68fb      	ldr	r3, [r7, #12]
 8001aba:	681b      	ldr	r3, [r3, #0]
 8001abc:	f3c2 0208 	ubfx	r2, r2, #0, #9
 8001ac0:	605a      	str	r2, [r3, #4]
        pdata16bits++;
 8001ac2:	69bb      	ldr	r3, [r7, #24]
 8001ac4:	3302      	adds	r3, #2
 8001ac6:	61bb      	str	r3, [r7, #24]
 8001ac8:	e007      	b.n	8001ada <HAL_UART_Transmit+0xbe>
      }
      else
      {
        huart->Instance->DR = (uint8_t)(*pdata8bits & 0xFFU);
 8001aca:	69fb      	ldr	r3, [r7, #28]
 8001acc:	781a      	ldrb	r2, [r3, #0]
 8001ace:	68fb      	ldr	r3, [r7, #12]
 8001ad0:	681b      	ldr	r3, [r3, #0]
 8001ad2:	605a      	str	r2, [r3, #4]
        pdata8bits++;
 8001ad4:	69fb      	ldr	r3, [r7, #28]
 8001ad6:	3301      	adds	r3, #1
 8001ad8:	61fb      	str	r3, [r7, #28]
      }
      huart->TxXferCount--;
 8001ada:	68fb      	ldr	r3, [r7, #12]
 8001adc:	8cdb      	ldrh	r3, [r3, #38]	@ 0x26
 8001ade:	b29b      	uxth	r3, r3
 8001ae0:	3b01      	subs	r3, #1
 8001ae2:	b29a      	uxth	r2, r3
 8001ae4:	68fb      	ldr	r3, [r7, #12]
 8001ae6:	84da      	strh	r2, [r3, #38]	@ 0x26
    while (huart->TxXferCount > 0U)
 8001ae8:	68fb      	ldr	r3, [r7, #12]
 8001aea:	8cdb      	ldrh	r3, [r3, #38]	@ 0x26
 8001aec:	b29b      	uxth	r3, r3
 8001aee:	2b00      	cmp	r3, #0
 8001af0:	d1cf      	bne.n	8001a92 <HAL_UART_Transmit+0x76>
    }

    if (UART_WaitOnFlagUntilTimeout(huart, UART_FLAG_TC, RESET, tickstart, Timeout) != HAL_OK)
 8001af2:	683b      	ldr	r3, [r7, #0]
 8001af4:	9300      	str	r3, [sp, #0]
 8001af6:	697b      	ldr	r3, [r7, #20]
 8001af8:	2200      	movs	r2, #0
 8001afa:	2140      	movs	r1, #64	@ 0x40
 8001afc:	68f8      	ldr	r0, [r7, #12]
 8001afe:	f000 f810 	bl	8001b22 <UART_WaitOnFlagUntilTimeout>
 8001b02:	4603      	mov	r3, r0
 8001b04:	2b00      	cmp	r3, #0
 8001b06:	d001      	beq.n	8001b0c <HAL_UART_Transmit+0xf0>
    {
      return HAL_TIMEOUT;
 8001b08:	2303      	movs	r3, #3
 8001b0a:	e006      	b.n	8001b1a <HAL_UART_Transmit+0xfe>
    }

    /* At end of Tx process, restore huart->gState to Ready */
    huart->gState = HAL_UART_STATE_READY;
 8001b0c:	68fb      	ldr	r3, [r7, #12]
 8001b0e:	2220      	movs	r2, #32
 8001b10:	f883 2041 	strb.w	r2, [r3, #65]	@ 0x41

    return HAL_OK;
 8001b14:	2300      	movs	r3, #0
 8001b16:	e000      	b.n	8001b1a <HAL_UART_Transmit+0xfe>
  }
  else
  {
    return HAL_BUSY;
 8001b18:	2302      	movs	r3, #2
  }
}
 8001b1a:	4618      	mov	r0, r3
 8001b1c:	3720      	adds	r7, #32
 8001b1e:	46bd      	mov	sp, r7
 8001b20:	bd80      	pop	{r7, pc}

08001b22 <UART_WaitOnFlagUntilTimeout>:
  * @param  Timeout Timeout duration
  * @retval HAL status
  */
static HAL_StatusTypeDef UART_WaitOnFlagUntilTimeout(UART_HandleTypeDef *huart, uint32_t Flag, FlagStatus Status,
                                                     uint32_t Tickstart, uint32_t Timeout)
{
 8001b22:	b580      	push	{r7, lr}
 8001b24:	b090      	sub	sp, #64	@ 0x40
 8001b26:	af00      	add	r7, sp, #0
 8001b28:	60f8      	str	r0, [r7, #12]
 8001b2a:	60b9      	str	r1, [r7, #8]
 8001b2c:	603b      	str	r3, [r7, #0]
 8001b2e:	4613      	mov	r3, r2
 8001b30:	71fb      	strb	r3, [r7, #7]
  /* Wait until flag is set */
  while ((__HAL_UART_GET_FLAG(huart, Flag) ? SET : RESET) == Status)
 8001b32:	e050      	b.n	8001bd6 <UART_WaitOnFlagUntilTimeout+0xb4>
  {
    /* Check for the Timeout */
    if (Timeout != HAL_MAX_DELAY)
 8001b34:	6cbb      	ldr	r3, [r7, #72]	@ 0x48
 8001b36:	f1b3 3fff 	cmp.w	r3, #4294967295
 8001b3a:	d04c      	beq.n	8001bd6 <UART_WaitOnFlagUntilTimeout+0xb4>
    {
      if ((Timeout == 0U) || ((HAL_GetTick() - Tickstart) > Timeout))
 8001b3c:	6cbb      	ldr	r3, [r7, #72]	@ 0x48
 8001b3e:	2b00      	cmp	r3, #0
 8001b40:	d007      	beq.n	8001b52 <UART_WaitOnFlagUntilTimeout+0x30>
 8001b42:	f7fe fe69 	bl	8000818 <HAL_GetTick>
 8001b46:	4602      	mov	r2, r0
 8001b48:	683b      	ldr	r3, [r7, #0]
 8001b4a:	1ad3      	subs	r3, r2, r3
 8001b4c:	6cba      	ldr	r2, [r7, #72]	@ 0x48
 8001b4e:	429a      	cmp	r2, r3
 8001b50:	d241      	bcs.n	8001bd6 <UART_WaitOnFlagUntilTimeout+0xb4>
      {
        /* Disable TXE, RXNE, PE and ERR (Frame error, noise error, overrun error) interrupts for the interrupt process */
        ATOMIC_CLEAR_BIT(huart->Instance->CR1, (USART_CR1_RXNEIE | USART_CR1_PEIE | USART_CR1_TXEIE));
 8001b52:	68fb      	ldr	r3, [r7, #12]
 8001b54:	681b      	ldr	r3, [r3, #0]
 8001b56:	330c      	adds	r3, #12
 8001b58:	62bb      	str	r3, [r7, #40]	@ 0x28
 */
__STATIC_FORCEINLINE uint32_t __LDREXW(volatile uint32_t *addr)
{
    uint32_t result;

   __ASM volatile ("ldrex %0, %1" : "=r" (result) : "Q" (*addr) );
 8001b5a:	6abb      	ldr	r3, [r7, #40]	@ 0x28
 8001b5c:	e853 3f00 	ldrex	r3, [r3]
 8001b60:	627b      	str	r3, [r7, #36]	@ 0x24
   return(result);
 8001b62:	6a7b      	ldr	r3, [r7, #36]	@ 0x24
 8001b64:	f423 73d0 	bic.w	r3, r3, #416	@ 0x1a0
 8001b68:	63fb      	str	r3, [r7, #60]	@ 0x3c
 8001b6a:	68fb      	ldr	r3, [r7, #12]
 8001b6c:	681b      	ldr	r3, [r3, #0]
 8001b6e:	330c      	adds	r3, #12
 8001b70:	6bfa      	ldr	r2, [r7, #60]	@ 0x3c
 8001b72:	637a      	str	r2, [r7, #52]	@ 0x34
 8001b74:	633b      	str	r3, [r7, #48]	@ 0x30
 */
__STATIC_FORCEINLINE uint32_t __STREXW(uint32_t value, volatile uint32_t *addr)
{
   uint32_t result;

   __ASM volatile ("strex %0, %2, %1" : "=&r" (result), "=Q" (*addr) : "r" (value) );
 8001b76:	6b39      	ldr	r1, [r7, #48]	@ 0x30
 8001b78:	6b7a      	ldr	r2, [r7, #52]	@ 0x34
 8001b7a:	e841 2300 	strex	r3, r2, [r1]
 8001b7e:	62fb      	str	r3, [r7, #44]	@ 0x2c
   return(result);
 8001b80:	6afb      	ldr	r3, [r7, #44]	@ 0x2c
 8001b82:	2b00      	cmp	r3, #0
 8001b84:	d1e5      	bne.n	8001b52 <UART_WaitOnFlagUntilTimeout+0x30>
        ATOMIC_CLEAR_BIT(huart->Instance->CR3, USART_CR3_EIE);
 8001b86:	68fb      	ldr	r3, [r7, #12]
 8001b88:	681b      	ldr	r3, [r3, #0]
 8001b8a:	3314      	adds	r3, #20
 8001b8c:	617b      	str	r3, [r7, #20]
   __ASM volatile ("ldrex %0, %1" : "=r" (result) : "Q" (*addr) );
 8001b8e:	697b      	ldr	r3, [r7, #20]
 8001b90:	e853 3f00 	ldrex	r3, [r3]
 8001b94:	613b      	str	r3, [r7, #16]
   return(result);
 8001b96:	693b      	ldr	r3, [r7, #16]
 8001b98:	f023 0301 	bic.w	r3, r3, #1
 8001b9c:	63bb      	str	r3, [r7, #56]	@ 0x38
 8001b9e:	68fb      	ldr	r3, [r7, #12]
 8001ba0:	681b      	ldr	r3, [r3, #0]
 8001ba2:	3314      	adds	r3, #20
 8001ba4:	6bba      	ldr	r2, [r7, #56]	@ 0x38
 8001ba6:	623a      	str	r2, [r7, #32]
 8001ba8:	61fb      	str	r3, [r7, #28]
   __ASM volatile ("strex %0, %2, %1" : "=&r" (result), "=Q" (*addr) : "r" (value) );
 8001baa:	69f9      	ldr	r1, [r7, #28]
 8001bac:	6a3a      	ldr	r2, [r7, #32]
 8001bae:	e841 2300 	strex	r3, r2, [r1]
 8001bb2:	61bb      	str	r3, [r7, #24]
   return(result);
 8001bb4:	69bb      	ldr	r3, [r7, #24]
 8001bb6:	2b00      	cmp	r3, #0
 8001bb8:	d1e5      	bne.n	8001b86 <UART_WaitOnFlagUntilTimeout+0x64>

        huart->gState  = HAL_UART_STATE_READY;
 8001bba:	68fb      	ldr	r3, [r7, #12]
 8001bbc:	2220      	movs	r2, #32
 8001bbe:	f883 2041 	strb.w	r2, [r3, #65]	@ 0x41
        huart->RxState = HAL_UART_STATE_READY;
 8001bc2:	68fb      	ldr	r3, [r7, #12]
 8001bc4:	2220      	movs	r2, #32
 8001bc6:	f883 2042 	strb.w	r2, [r3, #66]	@ 0x42

        /* Process Unlocked */
        __HAL_UNLOCK(huart);
 8001bca:	68fb      	ldr	r3, [r7, #12]
 8001bcc:	2200      	movs	r2, #0
 8001bce:	f883 2040 	strb.w	r2, [r3, #64]	@ 0x40

        return HAL_TIMEOUT;
 8001bd2:	2303      	movs	r3, #3
 8001bd4:	e00f      	b.n	8001bf6 <UART_WaitOnFlagUntilTimeout+0xd4>
  while ((__HAL_UART_GET_FLAG(huart, Flag) ? SET : RESET) == Status)
 8001bd6:	68fb      	ldr	r3, [r7, #12]
 8001bd8:	681b      	ldr	r3, [r3, #0]
 8001bda:	681a      	ldr	r2, [r3, #0]
 8001bdc:	68bb      	ldr	r3, [r7, #8]
 8001bde:	4013      	ands	r3, r2
 8001be0:	68ba      	ldr	r2, [r7, #8]
 8001be2:	429a      	cmp	r2, r3
 8001be4:	bf0c      	ite	eq
 8001be6:	2301      	moveq	r3, #1
 8001be8:	2300      	movne	r3, #0
 8001bea:	b2db      	uxtb	r3, r3
 8001bec:	461a      	mov	r2, r3
 8001bee:	79fb      	ldrb	r3, [r7, #7]
 8001bf0:	429a      	cmp	r2, r3
 8001bf2:	d09f      	beq.n	8001b34 <UART_WaitOnFlagUntilTimeout+0x12>
      }
    }
  }
  return HAL_OK;
 8001bf4:	2300      	movs	r3, #0
}
 8001bf6:	4618      	mov	r0, r3
 8001bf8:	3740      	adds	r7, #64	@ 0x40
 8001bfa:	46bd      	mov	sp, r7
 8001bfc:	bd80      	pop	{r7, pc}
	...

08001c00 <UART_SetConfig>:
  * @param  huart  Pointer to a UART_HandleTypeDef structure that contains
  *                the configuration information for the specified UART module.
  * @retval None
  */
static void UART_SetConfig(UART_HandleTypeDef *huart)
{
 8001c00:	b580      	push	{r7, lr}
 8001c02:	b084      	sub	sp, #16
 8001c04:	af00      	add	r7, sp, #0
 8001c06:	6078      	str	r0, [r7, #4]
  assert_param(IS_UART_MODE(huart->Init.Mode));

  /*-------------------------- USART CR2 Configuration -----------------------*/
  /* Configure the UART Stop Bits: Set STOP[13:12] bits
     according to huart->Init.StopBits value */
  MODIFY_REG(huart->Instance->CR2, USART_CR2_STOP, huart->Init.StopBits);
 8001c08:	687b      	ldr	r3, [r7, #4]
 8001c0a:	681b      	ldr	r3, [r3, #0]
 8001c0c:	691b      	ldr	r3, [r3, #16]
 8001c0e:	f423 5140 	bic.w	r1, r3, #12288	@ 0x3000
 8001c12:	687b      	ldr	r3, [r7, #4]
 8001c14:	68da      	ldr	r2, [r3, #12]
 8001c16:	687b      	ldr	r3, [r7, #4]
 8001c18:	681b      	ldr	r3, [r3, #0]
 8001c1a:	430a      	orrs	r2, r1
 8001c1c:	611a      	str	r2, [r3, #16]
  tmpreg = (uint32_t)huart->Init.WordLength | huart->Init.Parity | huart->Init.Mode | huart->Init.OverSampling;
  MODIFY_REG(huart->Instance->CR1,
             (uint32_t)(USART_CR1_M | USART_CR1_PCE | USART_CR1_PS | USART_CR1_TE | USART_CR1_RE | USART_CR1_OVER8),
             tmpreg);
#else
  tmpreg = (uint32_t)huart->Init.WordLength | huart->Init.Parity | huart->Init.Mode;
 8001c1e:	687b      	ldr	r3, [r7, #4]
 8001c20:	689a      	ldr	r2, [r3, #8]
 8001c22:	687b      	ldr	r3, [r7, #4]
 8001c24:	691b      	ldr	r3, [r3, #16]
 8001c26:	431a      	orrs	r2, r3
 8001c28:	687b      	ldr	r3, [r7, #4]
 8001c2a:	695b      	ldr	r3, [r3, #20]
 8001c2c:	4313      	orrs	r3, r2
 8001c2e:	60bb      	str	r3, [r7, #8]
  MODIFY_REG(huart->Instance->CR1,
 8001c30:	687b      	ldr	r3, [r7, #4]
 8001c32:	681b      	ldr	r3, [r3, #0]
 8001c34:	68db      	ldr	r3, [r3, #12]
 8001c36:	f423 53b0 	bic.w	r3, r3, #5632	@ 0x1600
 8001c3a:	f023 030c 	bic.w	r3, r3, #12
 8001c3e:	687a      	ldr	r2, [r7, #4]
 8001c40:	6812      	ldr	r2, [r2, #0]
 8001c42:	68b9      	ldr	r1, [r7, #8]
 8001c44:	430b      	orrs	r3, r1
 8001c46:	60d3      	str	r3, [r2, #12]
             tmpreg);
#endif /* USART_CR1_OVER8 */

  /*-------------------------- USART CR3 Configuration -----------------------*/
  /* Configure the UART HFC: Set CTSE and RTSE bits according to huart->Init.HwFlowCtl value */
  MODIFY_REG(huart->Instance->CR3, (USART_CR3_RTSE | USART_CR3_CTSE), huart->Init.HwFlowCtl);
 8001c48:	687b      	ldr	r3, [r7, #4]
 8001c4a:	681b      	ldr	r3, [r3, #0]
 8001c4c:	695b      	ldr	r3, [r3, #20]
 8001c4e:	f423 7140 	bic.w	r1, r3, #768	@ 0x300
 8001c52:	687b      	ldr	r3, [r7, #4]
 8001c54:	699a      	ldr	r2, [r3, #24]
 8001c56:	687b      	ldr	r3, [r7, #4]
 8001c58:	681b      	ldr	r3, [r3, #0]
 8001c5a:	430a      	orrs	r2, r1
 8001c5c:	615a      	str	r2, [r3, #20]


  if(huart->Instance == USART1)
 8001c5e:	687b      	ldr	r3, [r7, #4]
 8001c60:	681b      	ldr	r3, [r3, #0]
 8001c62:	4a2c      	ldr	r2, [pc, #176]	@ (8001d14 <UART_SetConfig+0x114>)
 8001c64:	4293      	cmp	r3, r2
 8001c66:	d103      	bne.n	8001c70 <UART_SetConfig+0x70>
  {
    pclk = HAL_RCC_GetPCLK2Freq();
 8001c68:	f7ff fd7a 	bl	8001760 <HAL_RCC_GetPCLK2Freq>
 8001c6c:	60f8      	str	r0, [r7, #12]
 8001c6e:	e002      	b.n	8001c76 <UART_SetConfig+0x76>
  }
  else
  {
    pclk = HAL_RCC_GetPCLK1Freq();
 8001c70:	f7ff fd62 	bl	8001738 <HAL_RCC_GetPCLK1Freq>
 8001c74:	60f8      	str	r0, [r7, #12]
  else
  {
    huart->Instance->BRR = UART_BRR_SAMPLING16(pclk, huart->Init.BaudRate);
  }
#else
  huart->Instance->BRR = UART_BRR_SAMPLING16(pclk, huart->Init.BaudRate);
 8001c76:	68fa      	ldr	r2, [r7, #12]
 8001c78:	4613      	mov	r3, r2
 8001c7a:	009b      	lsls	r3, r3, #2
 8001c7c:	4413      	add	r3, r2
 8001c7e:	009a      	lsls	r2, r3, #2
 8001c80:	441a      	add	r2, r3
 8001c82:	687b      	ldr	r3, [r7, #4]
 8001c84:	685b      	ldr	r3, [r3, #4]
 8001c86:	009b      	lsls	r3, r3, #2
 8001c88:	fbb2 f3f3 	udiv	r3, r2, r3
 8001c8c:	4a22      	ldr	r2, [pc, #136]	@ (8001d18 <UART_SetConfig+0x118>)
 8001c8e:	fba2 2303 	umull	r2, r3, r2, r3
 8001c92:	095b      	lsrs	r3, r3, #5
 8001c94:	0119      	lsls	r1, r3, #4
 8001c96:	68fa      	ldr	r2, [r7, #12]
 8001c98:	4613      	mov	r3, r2
 8001c9a:	009b      	lsls	r3, r3, #2
 8001c9c:	4413      	add	r3, r2
 8001c9e:	009a      	lsls	r2, r3, #2
 8001ca0:	441a      	add	r2, r3
 8001ca2:	687b      	ldr	r3, [r7, #4]
 8001ca4:	685b      	ldr	r3, [r3, #4]
 8001ca6:	009b      	lsls	r3, r3, #2
 8001ca8:	fbb2 f2f3 	udiv	r2, r2, r3
 8001cac:	4b1a      	ldr	r3, [pc, #104]	@ (8001d18 <UART_SetConfig+0x118>)
 8001cae:	fba3 0302 	umull	r0, r3, r3, r2
 8001cb2:	095b      	lsrs	r3, r3, #5
 8001cb4:	2064      	movs	r0, #100	@ 0x64
 8001cb6:	fb00 f303 	mul.w	r3, r0, r3
 8001cba:	1ad3      	subs	r3, r2, r3
 8001cbc:	011b      	lsls	r3, r3, #4
 8001cbe:	3332      	adds	r3, #50	@ 0x32
 8001cc0:	4a15      	ldr	r2, [pc, #84]	@ (8001d18 <UART_SetConfig+0x118>)
 8001cc2:	fba2 2303 	umull	r2, r3, r2, r3
 8001cc6:	095b      	lsrs	r3, r3, #5
 8001cc8:	f003 03f0 	and.w	r3, r3, #240	@ 0xf0
 8001ccc:	4419      	add	r1, r3
 8001cce:	68fa      	ldr	r2, [r7, #12]
 8001cd0:	4613      	mov	r3, r2
 8001cd2:	009b      	lsls	r3, r3, #2
 8001cd4:	4413      	add	r3, r2
 8001cd6:	009a      	lsls	r2, r3, #2
 8001cd8:	441a      	add	r2, r3
 8001cda:	687b      	ldr	r3, [r7, #4]
 8001cdc:	685b      	ldr	r3, [r3, #4]
 8001cde:	009b      	lsls	r3, r3, #2
 8001ce0:	fbb2 f2f3 	udiv	r2, r2, r3
 8001ce4:	4b0c      	ldr	r3, [pc, #48]	@ (8001d18 <UART_SetConfig+0x118>)
 8001ce6:	fba3 0302 	umull	r0, r3, r3, r2
 8001cea:	095b      	lsrs	r3, r3, #5
 8001cec:	2064      	movs	r0, #100	@ 0x64
 8001cee:	fb00 f303 	mul.w	r3, r0, r3
 8001cf2:	1ad3      	subs	r3, r2, r3
 8001cf4:	011b      	lsls	r3, r3, #4
 8001cf6:	3332      	adds	r3, #50	@ 0x32
 8001cf8:	4a07      	ldr	r2, [pc, #28]	@ (8001d18 <UART_SetConfig+0x118>)
 8001cfa:	fba2 2303 	umull	r2, r3, r2, r3
 8001cfe:	095b      	lsrs	r3, r3, #5
 8001d00:	f003 020f 	and.w	r2, r3, #15
 8001d04:	687b      	ldr	r3, [r7, #4]
 8001d06:	681b      	ldr	r3, [r3, #0]
 8001d08:	440a      	add	r2, r1
 8001d0a:	609a      	str	r2, [r3, #8]
#endif /* USART_CR1_OVER8 */
}
 8001d0c:	bf00      	nop
 8001d0e:	3710      	adds	r7, #16
 8001d10:	46bd      	mov	sp, r7
 8001d12:	bd80      	pop	{r7, pc}
 8001d14:	40013800 	.word	0x40013800
 8001d18:	51eb851f 	.word	0x51eb851f

08001d1c <memset>:
 8001d1c:	4603      	mov	r3, r0
 8001d1e:	4402      	add	r2, r0
 8001d20:	4293      	cmp	r3, r2
 8001d22:	d100      	bne.n	8001d26 <memset+0xa>
 8001d24:	4770      	bx	lr
 8001d26:	f803 1b01 	strb.w	r1, [r3], #1
 8001d2a:	e7f9      	b.n	8001d20 <memset+0x4>

08001d2c <__libc_init_array>:
 8001d2c:	b570      	push	{r4, r5, r6, lr}
 8001d2e:	2600      	movs	r6, #0
 8001d30:	4d0c      	ldr	r5, [pc, #48]	@ (8001d64 <__libc_init_array+0x38>)
 8001d32:	4c0d      	ldr	r4, [pc, #52]	@ (8001d68 <__libc_init_array+0x3c>)
 8001d34:	1b64      	subs	r4, r4, r5
 8001d36:	10a4      	asrs	r4, r4, #2
 8001d38:	42a6      	cmp	r6, r4
 8001d3a:	d109      	bne.n	8001d50 <__libc_init_array+0x24>
 8001d3c:	f000 f81a 	bl	8001d74 <_init>
 8001d40:	2600      	movs	r6, #0
 8001d42:	4d0a      	ldr	r5, [pc, #40]	@ (8001d6c <__libc_init_array+0x40>)
 8001d44:	4c0a      	ldr	r4, [pc, #40]	@ (8001d70 <__libc_init_array+0x44>)
 8001d46:	1b64      	subs	r4, r4, r5
 8001d48:	10a4      	asrs	r4, r4, #2
 8001d4a:	42a6      	cmp	r6, r4
 8001d4c:	d105      	bne.n	8001d5a <__libc_init_array+0x2e>
 8001d4e:	bd70      	pop	{r4, r5, r6, pc}
 8001d50:	f855 3b04 	ldr.w	r3, [r5], #4
 8001d54:	4798      	blx	r3
 8001d56:	3601      	adds	r6, #1
 8001d58:	e7ee      	b.n	8001d38 <__libc_init_array+0xc>
 8001d5a:	f855 3b04 	ldr.w	r3, [r5], #4
 8001d5e:	4798      	blx	r3
 8001d60:	3601      	adds	r6, #1
 8001d62:	e7f2      	b.n	8001d4a <__libc_init_array+0x1e>
 8001d64:	08001dcc 	.word	0x08001dcc
 8001d68:	08001dcc 	.word	0x08001dcc
 8001d6c:	08001dcc 	.word	0x08001dcc
 8001d70:	08001dd0 	.word	0x08001dd0

08001d74 <_init>:
 8001d74:	b5f8      	push	{r3, r4, r5, r6, r7, lr}
 8001d76:	bf00      	nop
 8001d78:	bcf8      	pop	{r3, r4, r5, r6, r7}
 8001d7a:	bc08      	pop	{r3}
 8001d7c:	469e      	mov	lr, r3
 8001d7e:	4770      	bx	lr

08001d80 <_fini>:
 8001d80:	b5f8      	push	{r3, r4, r5, r6, r7, lr}
 8001d82:	bf00      	nop
 8001d84:	bcf8      	pop	{r3, r4, r5, r6, r7}
 8001d86:	bc08      	pop	{r3}
 8001d88:	469e      	mov	lr, r3
 8001d8a:	4770      	bx	lr
