
F103C6_project.elf:     file format elf32-littlearm

Sections:
Idx Name          Size      VMA       LMA       File off  Algn
  0 .isr_vector   0000010c  08000000  08000000  00001000  2**0
                  CONTENTS, ALLOC, LOAD, READONLY, DATA
  1 .text         00005e44  0800010c  0800010c  0000110c  2**2
                  CONTENTS, ALLOC, LOAD, READONLY, CODE
  2 .rodata       000000c4  08005f50  08005f50  00006f50  2**2
                  CONTENTS, ALLOC, LOAD, READONLY, DATA
  3 .ARM.extab    00000000  08006014  08006014  0000805c  2**0
                  CONTENTS
  4 .ARM          00000008  08006014  08006014  00007014  2**2
                  CONTENTS, ALLOC, LOAD, READONLY, DATA
  5 .preinit_array 00000000  0800601c  0800601c  0000805c  2**0
                  CONTENTS, ALLOC, LOAD, DATA
  6 .init_array   00000004  0800601c  0800601c  0000701c  2**2
                  CONTENTS, ALLOC, LOAD, READONLY, DATA
  7 .fini_array   00000004  08006020  08006020  00007020  2**2
                  CONTENTS, ALLOC, LOAD, READONLY, DATA
  8 .data         0000005c  20000000  08006024  00008000  2**2
                  CONTENTS, ALLOC, LOAD, DATA
  9 .bss          00000354  2000005c  08006080  0000805c  2**2
                  ALLOC
 10 ._user_heap_stack 00000600  200003b0  08006080  000083b0  2**0
                  ALLOC
 11 .ARM.attributes 00000029  00000000  00000000  0000805c  2**0
                  CONTENTS, READONLY
 12 .debug_info   0000bf5d  00000000  00000000  00008085  2**0
                  CONTENTS, READONLY, DEBUGGING, OCTETS
 13 .debug_abbrev 00001ca0  00000000  00000000  00013fe2  2**0
                  CONTENTS, READONLY, DEBUGGING, OCTETS
 14 .debug_aranges 00000b98  00000000  00000000  00015c88  2**3
                  CONTENTS, READONLY, DEBUGGING, OCTETS
 15 .debug_rnglists 00000918  00000000  00000000  00016820  2**0
                  CONTENTS, READONLY, DEBUGGING, OCTETS
 16 .debug_macro  00017238  00000000  00000000  00017138  2**0
                  CONTENTS, READONLY, DEBUGGING, OCTETS
 17 .debug_line   0000e762  00000000  00000000  0002e370  2**0
                  CONTENTS, READONLY, DEBUGGING, OCTETS
 18 .debug_str    00084065  00000000  00000000  0003cad2  2**0
                  CONTENTS, READONLY, DEBUGGING, OCTETS
 19 .comment      00000043  00000000  00000000  000c0b37  2**0
                  CONTENTS, READONLY
 20 .debug_frame  00003624  00000000  00000000  000c0b7c  2**2
                  CONTENTS, READONLY, DEBUGGING, OCTETS
 21 .debug_line_str 00000068  00000000  00000000  000c41a0  2**0
                  CONTENTS, READONLY, DEBUGGING, OCTETS

Disassembly of section .text:

0800010c <__do_global_dtors_aux>:
 800010c:	b510      	push	{r4, lr}
 800010e:	4c05      	ldr	r4, [pc, #20]	@ (8000124 <__do_global_dtors_aux+0x18>)
 8000110:	7823      	ldrb	r3, [r4, #0]
 8000112:	b933      	cbnz	r3, 8000122 <__do_global_dtors_aux+0x16>
 8000114:	4b04      	ldr	r3, [pc, #16]	@ (8000128 <__do_global_dtors_aux+0x1c>)
 8000116:	b113      	cbz	r3, 800011e <__do_global_dtors_aux+0x12>
 8000118:	4804      	ldr	r0, [pc, #16]	@ (800012c <__do_global_dtors_aux+0x20>)
 800011a:	f3af 8000 	nop.w
 800011e:	2301      	movs	r3, #1
 8000120:	7023      	strb	r3, [r4, #0]
 8000122:	bd10      	pop	{r4, pc}
 8000124:	2000005c 	.word	0x2000005c
 8000128:	00000000 	.word	0x00000000
 800012c:	08005f38 	.word	0x08005f38

08000130 <frame_dummy>:
 8000130:	b508      	push	{r3, lr}
 8000132:	4b03      	ldr	r3, [pc, #12]	@ (8000140 <frame_dummy+0x10>)
 8000134:	b11b      	cbz	r3, 800013e <frame_dummy+0xe>
 8000136:	4903      	ldr	r1, [pc, #12]	@ (8000144 <frame_dummy+0x14>)
 8000138:	4803      	ldr	r0, [pc, #12]	@ (8000148 <frame_dummy+0x18>)
 800013a:	f3af 8000 	nop.w
 800013e:	bd08      	pop	{r3, pc}
 8000140:	00000000 	.word	0x00000000
 8000144:	20000060 	.word	0x20000060
 8000148:	08005f38 	.word	0x08005f38

0800014c <strlen>:
 800014c:	4603      	mov	r3, r0
 800014e:	f813 2b01 	ldrb.w	r2, [r3], #1
 8000152:	2a00      	cmp	r2, #0
 8000154:	d1fb      	bne.n	800014e <strlen+0x2>
 8000156:	1a18      	subs	r0, r3, r0
 8000158:	3801      	subs	r0, #1
 800015a:	4770      	bx	lr

0800015c <__aeabi_frsub>:
 800015c:	f080 4000 	eor.w	r0, r0, #2147483648	@ 0x80000000
 8000160:	e002      	b.n	8000168 <__addsf3>
 8000162:	bf00      	nop

08000164 <__aeabi_fsub>:
 8000164:	f081 4100 	eor.w	r1, r1, #2147483648	@ 0x80000000

08000168 <__addsf3>:
 8000168:	0042      	lsls	r2, r0, #1
 800016a:	bf1f      	itttt	ne
 800016c:	ea5f 0341 	movsne.w	r3, r1, lsl #1
 8000170:	ea92 0f03 	teqne	r2, r3
 8000174:	ea7f 6c22 	mvnsne.w	ip, r2, asr #24
 8000178:	ea7f 6c23 	mvnsne.w	ip, r3, asr #24
 800017c:	d06a      	beq.n	8000254 <__addsf3+0xec>
 800017e:	ea4f 6212 	mov.w	r2, r2, lsr #24
 8000182:	ebd2 6313 	rsbs	r3, r2, r3, lsr #24
 8000186:	bfc1      	itttt	gt
 8000188:	18d2      	addgt	r2, r2, r3
 800018a:	4041      	eorgt	r1, r0
 800018c:	4048      	eorgt	r0, r1
 800018e:	4041      	eorgt	r1, r0
 8000190:	bfb8      	it	lt
 8000192:	425b      	neglt	r3, r3
 8000194:	2b19      	cmp	r3, #25
 8000196:	bf88      	it	hi
 8000198:	4770      	bxhi	lr
 800019a:	f010 4f00 	tst.w	r0, #2147483648	@ 0x80000000
 800019e:	f440 0000 	orr.w	r0, r0, #8388608	@ 0x800000
 80001a2:	f020 407f 	bic.w	r0, r0, #4278190080	@ 0xff000000
 80001a6:	bf18      	it	ne
 80001a8:	4240      	negne	r0, r0
 80001aa:	f011 4f00 	tst.w	r1, #2147483648	@ 0x80000000
 80001ae:	f441 0100 	orr.w	r1, r1, #8388608	@ 0x800000
 80001b2:	f021 417f 	bic.w	r1, r1, #4278190080	@ 0xff000000
 80001b6:	bf18      	it	ne
 80001b8:	4249      	negne	r1, r1
 80001ba:	ea92 0f03 	teq	r2, r3
 80001be:	d03f      	beq.n	8000240 <__addsf3+0xd8>
 80001c0:	f1a2 0201 	sub.w	r2, r2, #1
 80001c4:	fa41 fc03 	asr.w	ip, r1, r3
 80001c8:	eb10 000c 	adds.w	r0, r0, ip
 80001cc:	f1c3 0320 	rsb	r3, r3, #32
 80001d0:	fa01 f103 	lsl.w	r1, r1, r3
 80001d4:	f000 4300 	and.w	r3, r0, #2147483648	@ 0x80000000
 80001d8:	d502      	bpl.n	80001e0 <__addsf3+0x78>
 80001da:	4249      	negs	r1, r1
 80001dc:	eb60 0040 	sbc.w	r0, r0, r0, lsl #1
 80001e0:	f5b0 0f00 	cmp.w	r0, #8388608	@ 0x800000
 80001e4:	d313      	bcc.n	800020e <__addsf3+0xa6>
 80001e6:	f1b0 7f80 	cmp.w	r0, #16777216	@ 0x1000000
 80001ea:	d306      	bcc.n	80001fa <__addsf3+0x92>
 80001ec:	0840      	lsrs	r0, r0, #1
 80001ee:	ea4f 0131 	mov.w	r1, r1, rrx
 80001f2:	f102 0201 	add.w	r2, r2, #1
 80001f6:	2afe      	cmp	r2, #254	@ 0xfe
 80001f8:	d251      	bcs.n	800029e <__addsf3+0x136>
 80001fa:	f1b1 4f00 	cmp.w	r1, #2147483648	@ 0x80000000
 80001fe:	eb40 50c2 	adc.w	r0, r0, r2, lsl #23
 8000202:	bf08      	it	eq
 8000204:	f020 0001 	biceq.w	r0, r0, #1
 8000208:	ea40 0003 	orr.w	r0, r0, r3
 800020c:	4770      	bx	lr
 800020e:	0049      	lsls	r1, r1, #1
 8000210:	eb40 0000 	adc.w	r0, r0, r0
 8000214:	3a01      	subs	r2, #1
 8000216:	bf28      	it	cs
 8000218:	f5b0 0f00 	cmpcs.w	r0, #8388608	@ 0x800000
 800021c:	d2ed      	bcs.n	80001fa <__addsf3+0x92>
 800021e:	fab0 fc80 	clz	ip, r0
 8000222:	f1ac 0c08 	sub.w	ip, ip, #8
 8000226:	ebb2 020c 	subs.w	r2, r2, ip
 800022a:	fa00 f00c 	lsl.w	r0, r0, ip
 800022e:	bfaa      	itet	ge
 8000230:	eb00 50c2 	addge.w	r0, r0, r2, lsl #23
 8000234:	4252      	neglt	r2, r2
 8000236:	4318      	orrge	r0, r3
 8000238:	bfbc      	itt	lt
 800023a:	40d0      	lsrlt	r0, r2
 800023c:	4318      	orrlt	r0, r3
 800023e:	4770      	bx	lr
 8000240:	f092 0f00 	teq	r2, #0
 8000244:	f481 0100 	eor.w	r1, r1, #8388608	@ 0x800000
 8000248:	bf06      	itte	eq
 800024a:	f480 0000 	eoreq.w	r0, r0, #8388608	@ 0x800000
 800024e:	3201      	addeq	r2, #1
 8000250:	3b01      	subne	r3, #1
 8000252:	e7b5      	b.n	80001c0 <__addsf3+0x58>
 8000254:	ea4f 0341 	mov.w	r3, r1, lsl #1
 8000258:	ea7f 6c22 	mvns.w	ip, r2, asr #24
 800025c:	bf18      	it	ne
 800025e:	ea7f 6c23 	mvnsne.w	ip, r3, asr #24
 8000262:	d021      	beq.n	80002a8 <__addsf3+0x140>
 8000264:	ea92 0f03 	teq	r2, r3
 8000268:	d004      	beq.n	8000274 <__addsf3+0x10c>
 800026a:	f092 0f00 	teq	r2, #0
 800026e:	bf08      	it	eq
 8000270:	4608      	moveq	r0, r1
 8000272:	4770      	bx	lr
 8000274:	ea90 0f01 	teq	r0, r1
 8000278:	bf1c      	itt	ne
 800027a:	2000      	movne	r0, #0
 800027c:	4770      	bxne	lr
 800027e:	f012 4f7f 	tst.w	r2, #4278190080	@ 0xff000000
 8000282:	d104      	bne.n	800028e <__addsf3+0x126>
 8000284:	0040      	lsls	r0, r0, #1
 8000286:	bf28      	it	cs
 8000288:	f040 4000 	orrcs.w	r0, r0, #2147483648	@ 0x80000000
 800028c:	4770      	bx	lr
 800028e:	f112 7200 	adds.w	r2, r2, #33554432	@ 0x2000000
 8000292:	bf3c      	itt	cc
 8000294:	f500 0000 	addcc.w	r0, r0, #8388608	@ 0x800000
 8000298:	4770      	bxcc	lr
 800029a:	f000 4300 	and.w	r3, r0, #2147483648	@ 0x80000000
 800029e:	f043 40fe 	orr.w	r0, r3, #2130706432	@ 0x7f000000
 80002a2:	f440 0000 	orr.w	r0, r0, #8388608	@ 0x800000
 80002a6:	4770      	bx	lr
 80002a8:	ea7f 6222 	mvns.w	r2, r2, asr #24
 80002ac:	bf16      	itet	ne
 80002ae:	4608      	movne	r0, r1
 80002b0:	ea7f 6323 	mvnseq.w	r3, r3, asr #24
 80002b4:	4601      	movne	r1, r0
 80002b6:	0242      	lsls	r2, r0, #9
 80002b8:	bf06      	itte	eq
 80002ba:	ea5f 2341 	movseq.w	r3, r1, lsl #9
 80002be:	ea90 0f01 	teqeq	r0, r1
 80002c2:	f440 0080 	orrne.w	r0, r0, #4194304	@ 0x400000
 80002c6:	4770      	bx	lr

080002c8 <__aeabi_ui2f>:
 80002c8:	f04f 0300 	mov.w	r3, #0
 80002cc:	e004      	b.n	80002d8 <__aeabi_i2f+0x8>
 80002ce:	bf00      	nop

080002d0 <__aeabi_i2f>:
 80002d0:	f010 4300 	ands.w	r3, r0, #2147483648	@ 0x80000000
 80002d4:	bf48      	it	mi
 80002d6:	4240      	negmi	r0, r0
 80002d8:	ea5f 0c00 	movs.w	ip, r0
 80002dc:	bf08      	it	eq
 80002de:	4770      	bxeq	lr
 80002e0:	f043 4396 	orr.w	r3, r3, #1258291200	@ 0x4b000000
 80002e4:	4601      	mov	r1, r0
 80002e6:	f04f 0000 	mov.w	r0, #0
 80002ea:	e01c      	b.n	8000326 <__aeabi_l2f+0x2a>

080002ec <__aeabi_ul2f>:
 80002ec:	ea50 0201 	orrs.w	r2, r0, r1
 80002f0:	bf08      	it	eq
 80002f2:	4770      	bxeq	lr
 80002f4:	f04f 0300 	mov.w	r3, #0
 80002f8:	e00a      	b.n	8000310 <__aeabi_l2f+0x14>
 80002fa:	bf00      	nop

080002fc <__aeabi_l2f>:
 80002fc:	ea50 0201 	orrs.w	r2, r0, r1
 8000300:	bf08      	it	eq
 8000302:	4770      	bxeq	lr
 8000304:	f011 4300 	ands.w	r3, r1, #2147483648	@ 0x80000000
 8000308:	d502      	bpl.n	8000310 <__aeabi_l2f+0x14>
 800030a:	4240      	negs	r0, r0
 800030c:	eb61 0141 	sbc.w	r1, r1, r1, lsl #1
 8000310:	ea5f 0c01 	movs.w	ip, r1
 8000314:	bf02      	ittt	eq
 8000316:	4684      	moveq	ip, r0
 8000318:	4601      	moveq	r1, r0
 800031a:	2000      	moveq	r0, #0
 800031c:	f043 43b6 	orr.w	r3, r3, #1526726656	@ 0x5b000000
 8000320:	bf08      	it	eq
 8000322:	f1a3 5380 	subeq.w	r3, r3, #268435456	@ 0x10000000
 8000326:	f5a3 0300 	sub.w	r3, r3, #8388608	@ 0x800000
 800032a:	fabc f28c 	clz	r2, ip
 800032e:	3a08      	subs	r2, #8
 8000330:	eba3 53c2 	sub.w	r3, r3, r2, lsl #23
 8000334:	db10      	blt.n	8000358 <__aeabi_l2f+0x5c>
 8000336:	fa01 fc02 	lsl.w	ip, r1, r2
 800033a:	4463      	add	r3, ip
 800033c:	fa00 fc02 	lsl.w	ip, r0, r2
 8000340:	f1c2 0220 	rsb	r2, r2, #32
 8000344:	f1bc 4f00 	cmp.w	ip, #2147483648	@ 0x80000000
 8000348:	fa20 f202 	lsr.w	r2, r0, r2
 800034c:	eb43 0002 	adc.w	r0, r3, r2
 8000350:	bf08      	it	eq
 8000352:	f020 0001 	biceq.w	r0, r0, #1
 8000356:	4770      	bx	lr
 8000358:	f102 0220 	add.w	r2, r2, #32
 800035c:	fa01 fc02 	lsl.w	ip, r1, r2
 8000360:	f1c2 0220 	rsb	r2, r2, #32
 8000364:	ea50 004c 	orrs.w	r0, r0, ip, lsl #1
 8000368:	fa21 f202 	lsr.w	r2, r1, r2
 800036c:	eb43 0002 	adc.w	r0, r3, r2
 8000370:	bf08      	it	eq
 8000372:	ea20 70dc 	biceq.w	r0, r0, ip, lsr #31
 8000376:	4770      	bx	lr

08000378 <__aeabi_fmul>:
 8000378:	f04f 0cff 	mov.w	ip, #255	@ 0xff
 800037c:	ea1c 52d0 	ands.w	r2, ip, r0, lsr #23
 8000380:	bf1e      	ittt	ne
 8000382:	ea1c 53d1 	andsne.w	r3, ip, r1, lsr #23
 8000386:	ea92 0f0c 	teqne	r2, ip
 800038a:	ea93 0f0c 	teqne	r3, ip
 800038e:	d06f      	beq.n	8000470 <__aeabi_fmul+0xf8>
 8000390:	441a      	add	r2, r3
 8000392:	ea80 0c01 	eor.w	ip, r0, r1
 8000396:	0240      	lsls	r0, r0, #9
 8000398:	bf18      	it	ne
 800039a:	ea5f 2141 	movsne.w	r1, r1, lsl #9
 800039e:	d01e      	beq.n	80003de <__aeabi_fmul+0x66>
 80003a0:	f04f 6300 	mov.w	r3, #134217728	@ 0x8000000
 80003a4:	ea43 1050 	orr.w	r0, r3, r0, lsr #5
 80003a8:	ea43 1151 	orr.w	r1, r3, r1, lsr #5
 80003ac:	fba0 3101 	umull	r3, r1, r0, r1
 80003b0:	f00c 4000 	and.w	r0, ip, #2147483648	@ 0x80000000
 80003b4:	f5b1 0f00 	cmp.w	r1, #8388608	@ 0x800000
 80003b8:	bf3e      	ittt	cc
 80003ba:	0049      	lslcc	r1, r1, #1
 80003bc:	ea41 71d3 	orrcc.w	r1, r1, r3, lsr #31
 80003c0:	005b      	lslcc	r3, r3, #1
 80003c2:	ea40 0001 	orr.w	r0, r0, r1
 80003c6:	f162 027f 	sbc.w	r2, r2, #127	@ 0x7f
 80003ca:	2afd      	cmp	r2, #253	@ 0xfd
 80003cc:	d81d      	bhi.n	800040a <__aeabi_fmul+0x92>
 80003ce:	f1b3 4f00 	cmp.w	r3, #2147483648	@ 0x80000000
 80003d2:	eb40 50c2 	adc.w	r0, r0, r2, lsl #23
 80003d6:	bf08      	it	eq
 80003d8:	f020 0001 	biceq.w	r0, r0, #1
 80003dc:	4770      	bx	lr
 80003de:	f090 0f00 	teq	r0, #0
 80003e2:	f00c 4c00 	and.w	ip, ip, #2147483648	@ 0x80000000
 80003e6:	bf08      	it	eq
 80003e8:	0249      	lsleq	r1, r1, #9
 80003ea:	ea4c 2050 	orr.w	r0, ip, r0, lsr #9
 80003ee:	ea40 2051 	orr.w	r0, r0, r1, lsr #9
 80003f2:	3a7f      	subs	r2, #127	@ 0x7f
 80003f4:	bfc2      	ittt	gt
 80003f6:	f1d2 03ff 	rsbsgt	r3, r2, #255	@ 0xff
 80003fa:	ea40 50c2 	orrgt.w	r0, r0, r2, lsl #23
 80003fe:	4770      	bxgt	lr
 8000400:	f440 0000 	orr.w	r0, r0, #8388608	@ 0x800000
 8000404:	f04f 0300 	mov.w	r3, #0
 8000408:	3a01      	subs	r2, #1
 800040a:	dc5d      	bgt.n	80004c8 <__aeabi_fmul+0x150>
 800040c:	f112 0f19 	cmn.w	r2, #25
 8000410:	bfdc      	itt	le
 8000412:	f000 4000 	andle.w	r0, r0, #2147483648	@ 0x80000000
 8000416:	4770      	bxle	lr
 8000418:	f1c2 0200 	rsb	r2, r2, #0
 800041c:	0041      	lsls	r1, r0, #1
 800041e:	fa21 f102 	lsr.w	r1, r1, r2
 8000422:	f1c2 0220 	rsb	r2, r2, #32
 8000426:	fa00 fc02 	lsl.w	ip, r0, r2
 800042a:	ea5f 0031 	movs.w	r0, r1, rrx
 800042e:	f140 0000 	adc.w	r0, r0, #0
 8000432:	ea53 034c 	orrs.w	r3, r3, ip, lsl #1
 8000436:	bf08      	it	eq
 8000438:	ea20 70dc 	biceq.w	r0, r0, ip, lsr #31
 800043c:	4770      	bx	lr
 800043e:	f092 0f00 	teq	r2, #0
 8000442:	f000 4c00 	and.w	ip, r0, #2147483648	@ 0x80000000
 8000446:	bf02      	ittt	eq
 8000448:	0040      	lsleq	r0, r0, #1
 800044a:	f410 0f00 	tsteq.w	r0, #8388608	@ 0x800000
 800044e:	3a01      	subeq	r2, #1
 8000450:	d0f9      	beq.n	8000446 <__aeabi_fmul+0xce>
 8000452:	ea40 000c 	orr.w	r0, r0, ip
 8000456:	f093 0f00 	teq	r3, #0
 800045a:	f001 4c00 	and.w	ip, r1, #2147483648	@ 0x80000000
 800045e:	bf02      	ittt	eq
 8000460:	0049      	lsleq	r1, r1, #1
 8000462:	f411 0f00 	tsteq.w	r1, #8388608	@ 0x800000
 8000466:	3b01      	subeq	r3, #1
 8000468:	d0f9      	beq.n	800045e <__aeabi_fmul+0xe6>
 800046a:	ea41 010c 	orr.w	r1, r1, ip
 800046e:	e78f      	b.n	8000390 <__aeabi_fmul+0x18>
 8000470:	ea0c 53d1 	and.w	r3, ip, r1, lsr #23
 8000474:	ea92 0f0c 	teq	r2, ip
 8000478:	bf18      	it	ne
 800047a:	ea93 0f0c 	teqne	r3, ip
 800047e:	d00a      	beq.n	8000496 <__aeabi_fmul+0x11e>
 8000480:	f030 4c00 	bics.w	ip, r0, #2147483648	@ 0x80000000
 8000484:	bf18      	it	ne
 8000486:	f031 4c00 	bicsne.w	ip, r1, #2147483648	@ 0x80000000
 800048a:	d1d8      	bne.n	800043e <__aeabi_fmul+0xc6>
 800048c:	ea80 0001 	eor.w	r0, r0, r1
 8000490:	f000 4000 	and.w	r0, r0, #2147483648	@ 0x80000000
 8000494:	4770      	bx	lr
 8000496:	f090 0f00 	teq	r0, #0
 800049a:	bf17      	itett	ne
 800049c:	f090 4f00 	teqne	r0, #2147483648	@ 0x80000000
 80004a0:	4608      	moveq	r0, r1
 80004a2:	f091 0f00 	teqne	r1, #0
 80004a6:	f091 4f00 	teqne	r1, #2147483648	@ 0x80000000
 80004aa:	d014      	beq.n	80004d6 <__aeabi_fmul+0x15e>
 80004ac:	ea92 0f0c 	teq	r2, ip
 80004b0:	d101      	bne.n	80004b6 <__aeabi_fmul+0x13e>
 80004b2:	0242      	lsls	r2, r0, #9
 80004b4:	d10f      	bne.n	80004d6 <__aeabi_fmul+0x15e>
 80004b6:	ea93 0f0c 	teq	r3, ip
 80004ba:	d103      	bne.n	80004c4 <__aeabi_fmul+0x14c>
 80004bc:	024b      	lsls	r3, r1, #9
 80004be:	bf18      	it	ne
 80004c0:	4608      	movne	r0, r1
 80004c2:	d108      	bne.n	80004d6 <__aeabi_fmul+0x15e>
 80004c4:	ea80 0001 	eor.w	r0, r0, r1
 80004c8:	f000 4000 	and.w	r0, r0, #2147483648	@ 0x80000000
 80004cc:	f040 40fe 	orr.w	r0, r0, #2130706432	@ 0x7f000000
 80004d0:	f440 0000 	orr.w	r0, r0, #8388608	@ 0x800000
 80004d4:	4770      	bx	lr
 80004d6:	f040 40fe 	orr.w	r0, r0, #2130706432	@ 0x7f000000
 80004da:	f440 0040 	orr.w	r0, r0, #12582912	@ 0xc00000
 80004de:	4770      	bx	lr

080004e0 <__aeabi_fdiv>:
 80004e0:	f04f 0cff 	mov.w	ip, #255	@ 0xff
 80004e4:	ea1c 52d0 	ands.w	r2, ip, r0, lsr #23
 80004e8:	bf1e      	ittt	ne
 80004ea:	ea1c 53d1 	andsne.w	r3, ip, r1, lsr #23
 80004ee:	ea92 0f0c 	teqne	r2, ip
 80004f2:	ea93 0f0c 	teqne	r3, ip
 80004f6:	d069      	beq.n	80005cc <__aeabi_fdiv+0xec>
 80004f8:	eba2 0203 	sub.w	r2, r2, r3
 80004fc:	ea80 0c01 	eor.w	ip, r0, r1
 8000500:	0249      	lsls	r1, r1, #9
 8000502:	ea4f 2040 	mov.w	r0, r0, lsl #9
 8000506:	d037      	beq.n	8000578 <__aeabi_fdiv+0x98>
 8000508:	f04f 5380 	mov.w	r3, #268435456	@ 0x10000000
 800050c:	ea43 1111 	orr.w	r1, r3, r1, lsr #4
 8000510:	ea43 1310 	orr.w	r3, r3, r0, lsr #4
 8000514:	f00c 4000 	and.w	r0, ip, #2147483648	@ 0x80000000
 8000518:	428b      	cmp	r3, r1
 800051a:	bf38      	it	cc
 800051c:	005b      	lslcc	r3, r3, #1
 800051e:	f142 027d 	adc.w	r2, r2, #125	@ 0x7d
 8000522:	f44f 0c00 	mov.w	ip, #8388608	@ 0x800000
 8000526:	428b      	cmp	r3, r1
 8000528:	bf24      	itt	cs
 800052a:	1a5b      	subcs	r3, r3, r1
 800052c:	ea40 000c 	orrcs.w	r0, r0, ip
 8000530:	ebb3 0f51 	cmp.w	r3, r1, lsr #1
 8000534:	bf24      	itt	cs
 8000536:	eba3 0351 	subcs.w	r3, r3, r1, lsr #1
 800053a:	ea40 005c 	orrcs.w	r0, r0, ip, lsr #1
 800053e:	ebb3 0f91 	cmp.w	r3, r1, lsr #2
 8000542:	bf24      	itt	cs
 8000544:	eba3 0391 	subcs.w	r3, r3, r1, lsr #2
 8000548:	ea40 009c 	orrcs.w	r0, r0, ip, lsr #2
 800054c:	ebb3 0fd1 	cmp.w	r3, r1, lsr #3
 8000550:	bf24      	itt	cs
 8000552:	eba3 03d1 	subcs.w	r3, r3, r1, lsr #3
 8000556:	ea40 00dc 	orrcs.w	r0, r0, ip, lsr #3
 800055a:	011b      	lsls	r3, r3, #4
 800055c:	bf18      	it	ne
 800055e:	ea5f 1c1c 	movsne.w	ip, ip, lsr #4
 8000562:	d1e0      	bne.n	8000526 <__aeabi_fdiv+0x46>
 8000564:	2afd      	cmp	r2, #253	@ 0xfd
 8000566:	f63f af50 	bhi.w	800040a <__aeabi_fmul+0x92>
 800056a:	428b      	cmp	r3, r1
 800056c:	eb40 50c2 	adc.w	r0, r0, r2, lsl #23
 8000570:	bf08      	it	eq
 8000572:	f020 0001 	biceq.w	r0, r0, #1
 8000576:	4770      	bx	lr
 8000578:	f00c 4c00 	and.w	ip, ip, #2147483648	@ 0x80000000
 800057c:	ea4c 2050 	orr.w	r0, ip, r0, lsr #9
 8000580:	327f      	adds	r2, #127	@ 0x7f
 8000582:	bfc2      	ittt	gt
 8000584:	f1d2 03ff 	rsbsgt	r3, r2, #255	@ 0xff
 8000588:	ea40 50c2 	orrgt.w	r0, r0, r2, lsl #23
 800058c:	4770      	bxgt	lr
 800058e:	f440 0000 	orr.w	r0, r0, #8388608	@ 0x800000
 8000592:	f04f 0300 	mov.w	r3, #0
 8000596:	3a01      	subs	r2, #1
 8000598:	e737      	b.n	800040a <__aeabi_fmul+0x92>
 800059a:	f092 0f00 	teq	r2, #0
 800059e:	f000 4c00 	and.w	ip, r0, #2147483648	@ 0x80000000
 80005a2:	bf02      	ittt	eq
 80005a4:	0040      	lsleq	r0, r0, #1
 80005a6:	f410 0f00 	tsteq.w	r0, #8388608	@ 0x800000
 80005aa:	3a01      	subeq	r2, #1
 80005ac:	d0f9      	beq.n	80005a2 <__aeabi_fdiv+0xc2>
 80005ae:	ea40 000c 	orr.w	r0, r0, ip
 80005b2:	f093 0f00 	teq	r3, #0
 80005b6:	f001 4c00 	and.w	ip, r1, #2147483648	@ 0x80000000
 80005ba:	bf02      	ittt	eq
 80005bc:	0049      	lsleq	r1, r1, #1
 80005be:	f411 0f00 	tsteq.w	r1, #8388608	@ 0x800000
 80005c2:	3b01      	subeq	r3, #1
 80005c4:	d0f9      	beq.n	80005ba <__aeabi_fdiv+0xda>
 80005c6:	ea41 010c 	orr.w	r1, r1, ip
 80005ca:	e795      	b.n	80004f8 <__aeabi_fdiv+0x18>
 80005cc:	ea0c 53d1 	and.w	r3, ip, r1, lsr #23
 80005d0:	ea92 0f0c 	teq	r2, ip
 80005d4:	d108      	bne.n	80005e8 <__aeabi_fdiv+0x108>
 80005d6:	0242      	lsls	r2, r0, #9
 80005d8:	f47f af7d 	bne.w	80004d6 <__aeabi_fmul+0x15e>
 80005dc:	ea93 0f0c 	teq	r3, ip
 80005e0:	f47f af70 	bne.w	80004c4 <__aeabi_fmul+0x14c>
 80005e4:	4608      	mov	r0, r1
 80005e6:	e776      	b.n	80004d6 <__aeabi_fmul+0x15e>
 80005e8:	ea93 0f0c 	teq	r3, ip
 80005ec:	d104      	bne.n	80005f8 <__aeabi_fdiv+0x118>
 80005ee:	024b      	lsls	r3, r1, #9
 80005f0:	f43f af4c 	beq.w	800048c <__aeabi_fmul+0x114>
 80005f4:	4608      	mov	r0, r1
 80005f6:	e76e      	b.n	80004d6 <__aeabi_fmul+0x15e>
 80005f8:	f030 4c00 	bics.w	ip, r0, #2147483648	@ 0x80000000
 80005fc:	bf18      	it	ne
 80005fe:	f031 4c00 	bicsne.w	ip, r1, #2147483648	@ 0x80000000
 8000602:	d1ca      	bne.n	800059a <__aeabi_fdiv+0xba>
 8000604:	f030 4200 	bics.w	r2, r0, #2147483648	@ 0x80000000
 8000608:	f47f af5c 	bne.w	80004c4 <__aeabi_fmul+0x14c>
 800060c:	f031 4300 	bics.w	r3, r1, #2147483648	@ 0x80000000
 8000610:	f47f af3c 	bne.w	800048c <__aeabi_fmul+0x114>
 8000614:	e75f      	b.n	80004d6 <__aeabi_fmul+0x15e>
 8000616:	bf00      	nop

08000618 <__aeabi_f2iz>:
 8000618:	ea4f 0240 	mov.w	r2, r0, lsl #1
 800061c:	f1b2 4ffe 	cmp.w	r2, #2130706432	@ 0x7f000000
 8000620:	d30f      	bcc.n	8000642 <__aeabi_f2iz+0x2a>
 8000622:	f04f 039e 	mov.w	r3, #158	@ 0x9e
 8000626:	ebb3 6212 	subs.w	r2, r3, r2, lsr #24
 800062a:	d90d      	bls.n	8000648 <__aeabi_f2iz+0x30>
 800062c:	ea4f 2300 	mov.w	r3, r0, lsl #8
 8000630:	f043 4300 	orr.w	r3, r3, #2147483648	@ 0x80000000
 8000634:	f010 4f00 	tst.w	r0, #2147483648	@ 0x80000000
 8000638:	fa23 f002 	lsr.w	r0, r3, r2
 800063c:	bf18      	it	ne
 800063e:	4240      	negne	r0, r0
 8000640:	4770      	bx	lr
 8000642:	f04f 0000 	mov.w	r0, #0
 8000646:	4770      	bx	lr
 8000648:	f112 0f61 	cmn.w	r2, #97	@ 0x61
 800064c:	d101      	bne.n	8000652 <__aeabi_f2iz+0x3a>
 800064e:	0242      	lsls	r2, r0, #9
 8000650:	d105      	bne.n	800065e <__aeabi_f2iz+0x46>
 8000652:	f010 4000 	ands.w	r0, r0, #2147483648	@ 0x80000000
 8000656:	bf08      	it	eq
 8000658:	f06f 4000 	mvneq.w	r0, #2147483648	@ 0x80000000
 800065c:	4770      	bx	lr
 800065e:	f04f 0000 	mov.w	r0, #0
 8000662:	4770      	bx	lr

08000664 <uart_Init>:
 8000664:	b580      	push	{r7, lr}
 8000666:	b082      	sub	sp, #8
 8000668:	af00      	add	r7, sp, #0
 800066a:	6078      	str	r0, [r7, #4]
 800066c:	4b11      	ldr	r3, [pc, #68]	@ (80006b4 <uart_Init+0x50>)
 800066e:	4a12      	ldr	r2, [pc, #72]	@ (80006b8 <uart_Init+0x54>)
 8000670:	601a      	str	r2, [r3, #0]
 8000672:	4a10      	ldr	r2, [pc, #64]	@ (80006b4 <uart_Init+0x50>)
 8000674:	687b      	ldr	r3, [r7, #4]
 8000676:	6053      	str	r3, [r2, #4]
 8000678:	4b0e      	ldr	r3, [pc, #56]	@ (80006b4 <uart_Init+0x50>)
 800067a:	2200      	movs	r2, #0
 800067c:	609a      	str	r2, [r3, #8]
 800067e:	4b0d      	ldr	r3, [pc, #52]	@ (80006b4 <uart_Init+0x50>)
 8000680:	2200      	movs	r2, #0
 8000682:	60da      	str	r2, [r3, #12]
 8000684:	4b0b      	ldr	r3, [pc, #44]	@ (80006b4 <uart_Init+0x50>)
 8000686:	2200      	movs	r2, #0
 8000688:	611a      	str	r2, [r3, #16]
 800068a:	4b0a      	ldr	r3, [pc, #40]	@ (80006b4 <uart_Init+0x50>)
 800068c:	220c      	movs	r2, #12
 800068e:	615a      	str	r2, [r3, #20]
 8000690:	4b08      	ldr	r3, [pc, #32]	@ (80006b4 <uart_Init+0x50>)
 8000692:	2200      	movs	r2, #0
 8000694:	619a      	str	r2, [r3, #24]
 8000696:	4b07      	ldr	r3, [pc, #28]	@ (80006b4 <uart_Init+0x50>)
 8000698:	2200      	movs	r2, #0
 800069a:	61da      	str	r2, [r3, #28]
 800069c:	4805      	ldr	r0, [pc, #20]	@ (80006b4 <uart_Init+0x50>)
 800069e:	f003 fe11 	bl	80042c4 <HAL_HalfDuplex_Init>
 80006a2:	4603      	mov	r3, r0
 80006a4:	2b00      	cmp	r3, #0
 80006a6:	d001      	beq.n	80006ac <uart_Init+0x48>
 80006a8:	f000 fbbc 	bl	8000e24 <Error_Handler>
 80006ac:	bf00      	nop
 80006ae:	3708      	adds	r7, #8
 80006b0:	46bd      	mov	sp, r7
 80006b2:	bd80      	pop	{r7, pc}
 80006b4:	2000016c 	.word	0x2000016c
 80006b8:	40004400 	.word	0x40004400

080006bc <DS18B20_Start>:
 80006bc:	b580      	push	{r7, lr}
 80006be:	b082      	sub	sp, #8
 80006c0:	af00      	add	r7, sp, #0
 80006c2:	23f0      	movs	r3, #240	@ 0xf0
 80006c4:	71fb      	strb	r3, [r7, #7]
 80006c6:	f44f 5016 	mov.w	r0, #9600	@ 0x2580
 80006ca:	f7ff ffcb 	bl	8000664 <uart_Init>
 80006ce:	1df9      	adds	r1, r7, #7
 80006d0:	2332      	movs	r3, #50	@ 0x32
 80006d2:	2201      	movs	r2, #1
 80006d4:	480f      	ldr	r0, [pc, #60]	@ (8000714 <DS18B20_Start+0x58>)
 80006d6:	f003 fe4d 	bl	8004374 <HAL_UART_Transmit>
 80006da:	1df9      	adds	r1, r7, #7
 80006dc:	f44f 737a 	mov.w	r3, #1000	@ 0x3e8
 80006e0:	2201      	movs	r2, #1
 80006e2:	480c      	ldr	r0, [pc, #48]	@ (8000714 <DS18B20_Start+0x58>)
 80006e4:	f003 fec9 	bl	800447a <HAL_UART_Receive>
 80006e8:	4603      	mov	r3, r0
 80006ea:	2b00      	cmp	r3, #0
 80006ec:	d002      	beq.n	80006f4 <DS18B20_Start+0x38>
 80006ee:	f04f 33ff 	mov.w	r3, #4294967295
 80006f2:	e00a      	b.n	800070a <DS18B20_Start+0x4e>
 80006f4:	f44f 30e1 	mov.w	r0, #115200	@ 0x1c200
 80006f8:	f7ff ffb4 	bl	8000664 <uart_Init>
 80006fc:	79fb      	ldrb	r3, [r7, #7]
 80006fe:	2bff      	cmp	r3, #255	@ 0xff
 8000700:	d102      	bne.n	8000708 <DS18B20_Start+0x4c>
 8000702:	f06f 0301 	mvn.w	r3, #1
 8000706:	e000      	b.n	800070a <DS18B20_Start+0x4e>
 8000708:	2301      	movs	r3, #1
 800070a:	4618      	mov	r0, r3
 800070c:	3708      	adds	r7, #8
 800070e:	46bd      	mov	sp, r7
 8000710:	bd80      	pop	{r7, pc}
 8000712:	bf00      	nop
 8000714:	2000016c 	.word	0x2000016c

08000718 <BME280_Start>:
 8000718:	b580      	push	{r7, lr}
 800071a:	af00      	add	r7, sp, #0
 800071c:	2200      	movs	r2, #0
 800071e:	2110      	movs	r1, #16
 8000720:	4807      	ldr	r0, [pc, #28]	@ (8000740 <BME280_Start+0x28>)
 8000722:	f001 fb75 	bl	8001e10 <HAL_GPIO_WritePin>
 8000726:	2364      	movs	r3, #100	@ 0x64
 8000728:	2204      	movs	r2, #4
 800072a:	4906      	ldr	r1, [pc, #24]	@ (8000744 <BME280_Start+0x2c>)
 800072c:	4806      	ldr	r0, [pc, #24]	@ (8000748 <BME280_Start+0x30>)
 800072e:	f003 f875 	bl	800381c <HAL_SPI_Transmit>
 8000732:	2201      	movs	r2, #1
 8000734:	2110      	movs	r1, #16
 8000736:	4802      	ldr	r0, [pc, #8]	@ (8000740 <BME280_Start+0x28>)
 8000738:	f001 fb6a 	bl	8001e10 <HAL_GPIO_WritePin>
 800073c:	bf00      	nop
 800073e:	bd80      	pop	{r7, pc}
 8000740:	40010800 	.word	0x40010800
 8000744:	20000254 	.word	0x20000254
 8000748:	200000cc 	.word	0x200000cc

0800074c <DS18B20_Write>:
 800074c:	b580      	push	{r7, lr}
 800074e:	b086      	sub	sp, #24
 8000750:	af00      	add	r7, sp, #0
 8000752:	4603      	mov	r3, r0
 8000754:	71fb      	strb	r3, [r7, #7]
 8000756:	2300      	movs	r3, #0
 8000758:	617b      	str	r3, [r7, #20]
 800075a:	e017      	b.n	800078c <DS18B20_Write+0x40>
 800075c:	79fa      	ldrb	r2, [r7, #7]
 800075e:	697b      	ldr	r3, [r7, #20]
 8000760:	fa42 f303 	asr.w	r3, r2, r3
 8000764:	f003 0301 	and.w	r3, r3, #1
 8000768:	2b00      	cmp	r3, #0
 800076a:	d006      	beq.n	800077a <DS18B20_Write+0x2e>
 800076c:	f107 020c 	add.w	r2, r7, #12
 8000770:	697b      	ldr	r3, [r7, #20]
 8000772:	4413      	add	r3, r2
 8000774:	22ff      	movs	r2, #255	@ 0xff
 8000776:	701a      	strb	r2, [r3, #0]
 8000778:	e005      	b.n	8000786 <DS18B20_Write+0x3a>
 800077a:	f107 020c 	add.w	r2, r7, #12
 800077e:	697b      	ldr	r3, [r7, #20]
 8000780:	4413      	add	r3, r2
 8000782:	2200      	movs	r2, #0
 8000784:	701a      	strb	r2, [r3, #0]
 8000786:	697b      	ldr	r3, [r7, #20]
 8000788:	3301      	adds	r3, #1
 800078a:	617b      	str	r3, [r7, #20]
 800078c:	697b      	ldr	r3, [r7, #20]
 800078e:	2b07      	cmp	r3, #7
 8000790:	dde4      	ble.n	800075c <DS18B20_Write+0x10>
 8000792:	f107 010c 	add.w	r1, r7, #12
 8000796:	2364      	movs	r3, #100	@ 0x64
 8000798:	2208      	movs	r2, #8
 800079a:	4803      	ldr	r0, [pc, #12]	@ (80007a8 <DS18B20_Write+0x5c>)
 800079c:	f003 fdea 	bl	8004374 <HAL_UART_Transmit>
 80007a0:	bf00      	nop
 80007a2:	3718      	adds	r7, #24
 80007a4:	46bd      	mov	sp, r7
 80007a6:	bd80      	pop	{r7, pc}
 80007a8:	2000016c 	.word	0x2000016c

080007ac <DS18B20_Read>:
 80007ac:	b580      	push	{r7, lr}
 80007ae:	b086      	sub	sp, #24
 80007b0:	af00      	add	r7, sp, #0
 80007b2:	2300      	movs	r3, #0
 80007b4:	75fb      	strb	r3, [r7, #23]
 80007b6:	2300      	movs	r3, #0
 80007b8:	613b      	str	r3, [r7, #16]
 80007ba:	e007      	b.n	80007cc <DS18B20_Read+0x20>
 80007bc:	1d3a      	adds	r2, r7, #4
 80007be:	693b      	ldr	r3, [r7, #16]
 80007c0:	4413      	add	r3, r2
 80007c2:	22ff      	movs	r2, #255	@ 0xff
 80007c4:	701a      	strb	r2, [r3, #0]
 80007c6:	693b      	ldr	r3, [r7, #16]
 80007c8:	3301      	adds	r3, #1
 80007ca:	613b      	str	r3, [r7, #16]
 80007cc:	693b      	ldr	r3, [r7, #16]
 80007ce:	2b07      	cmp	r3, #7
 80007d0:	ddf4      	ble.n	80007bc <DS18B20_Read+0x10>
 80007d2:	1d3b      	adds	r3, r7, #4
 80007d4:	2208      	movs	r2, #8
 80007d6:	4619      	mov	r1, r3
 80007d8:	4816      	ldr	r0, [pc, #88]	@ (8000834 <DS18B20_Read+0x88>)
 80007da:	f003 fee1 	bl	80045a0 <HAL_UART_Transmit_DMA>
 80007de:	2208      	movs	r2, #8
 80007e0:	4915      	ldr	r1, [pc, #84]	@ (8000838 <DS18B20_Read+0x8c>)
 80007e2:	4814      	ldr	r0, [pc, #80]	@ (8000834 <DS18B20_Read+0x88>)
 80007e4:	f003 ff4c 	bl	8004680 <HAL_UART_Receive_DMA>
 80007e8:	f44f 707a 	mov.w	r0, #1000	@ 0x3e8
 80007ec:	f000 fdc0 	bl	8001370 <HAL_Delay>
 80007f0:	2300      	movs	r3, #0
 80007f2:	60fb      	str	r3, [r7, #12]
 80007f4:	e012      	b.n	800081c <DS18B20_Read+0x70>
 80007f6:	4a10      	ldr	r2, [pc, #64]	@ (8000838 <DS18B20_Read+0x8c>)
 80007f8:	68fb      	ldr	r3, [r7, #12]
 80007fa:	4413      	add	r3, r2
 80007fc:	781b      	ldrb	r3, [r3, #0]
 80007fe:	2bff      	cmp	r3, #255	@ 0xff
 8000800:	d109      	bne.n	8000816 <DS18B20_Read+0x6a>
 8000802:	2201      	movs	r2, #1
 8000804:	68fb      	ldr	r3, [r7, #12]
 8000806:	fa02 f303 	lsl.w	r3, r2, r3
 800080a:	b25a      	sxtb	r2, r3
 800080c:	f997 3017 	ldrsb.w	r3, [r7, #23]
 8000810:	4313      	orrs	r3, r2
 8000812:	b25b      	sxtb	r3, r3
 8000814:	75fb      	strb	r3, [r7, #23]
 8000816:	68fb      	ldr	r3, [r7, #12]
 8000818:	3301      	adds	r3, #1
 800081a:	60fb      	str	r3, [r7, #12]
 800081c:	68fb      	ldr	r3, [r7, #12]
 800081e:	2b07      	cmp	r3, #7
 8000820:	dde9      	ble.n	80007f6 <DS18B20_Read+0x4a>
 8000822:	4b06      	ldr	r3, [pc, #24]	@ (800083c <DS18B20_Read+0x90>)
 8000824:	2200      	movs	r2, #0
 8000826:	601a      	str	r2, [r3, #0]
 8000828:	7dfb      	ldrb	r3, [r7, #23]
 800082a:	4618      	mov	r0, r3
 800082c:	3718      	adds	r7, #24
 800082e:	46bd      	mov	sp, r7
 8000830:	bd80      	pop	{r7, pc}
 8000832:	bf00      	nop
 8000834:	2000016c 	.word	0x2000016c
 8000838:	20000244 	.word	0x20000244
 800083c:	20000240 	.word	0x20000240

08000840 <BME280_Read>:
 8000840:	b580      	push	{r7, lr}
 8000842:	af00      	add	r7, sp, #0
 8000844:	2200      	movs	r2, #0
 8000846:	2110      	movs	r1, #16
 8000848:	480a      	ldr	r0, [pc, #40]	@ (8000874 <BME280_Read+0x34>)
 800084a:	f001 fae1 	bl	8001e10 <HAL_GPIO_WritePin>
 800084e:	2364      	movs	r3, #100	@ 0x64
 8000850:	2201      	movs	r2, #1
 8000852:	4909      	ldr	r1, [pc, #36]	@ (8000878 <BME280_Read+0x38>)
 8000854:	4809      	ldr	r0, [pc, #36]	@ (800087c <BME280_Read+0x3c>)
 8000856:	f002 ffe1 	bl	800381c <HAL_SPI_Transmit>
 800085a:	2300      	movs	r3, #0
 800085c:	2201      	movs	r2, #1
 800085e:	4908      	ldr	r1, [pc, #32]	@ (8000880 <BME280_Read+0x40>)
 8000860:	4806      	ldr	r0, [pc, #24]	@ (800087c <BME280_Read+0x3c>)
 8000862:	f003 f91e 	bl	8003aa2 <HAL_SPI_Receive>
 8000866:	2201      	movs	r2, #1
 8000868:	2110      	movs	r1, #16
 800086a:	4802      	ldr	r0, [pc, #8]	@ (8000874 <BME280_Read+0x34>)
 800086c:	f001 fad0 	bl	8001e10 <HAL_GPIO_WritePin>
 8000870:	bf00      	nop
 8000872:	bd80      	pop	{r7, pc}
 8000874:	40010800 	.word	0x40010800
 8000878:	20000258 	.word	0x20000258
 800087c:	200000cc 	.word	0x200000cc
 8000880:	2000025c 	.word	0x2000025c

08000884 <HAL_UART_RxCpltCallback>:
 8000884:	b480      	push	{r7}
 8000886:	b083      	sub	sp, #12
 8000888:	af00      	add	r7, sp, #0
 800088a:	6078      	str	r0, [r7, #4]
 800088c:	4b03      	ldr	r3, [pc, #12]	@ (800089c <HAL_UART_RxCpltCallback+0x18>)
 800088e:	2201      	movs	r2, #1
 8000890:	601a      	str	r2, [r3, #0]
 8000892:	bf00      	nop
 8000894:	370c      	adds	r7, #12
 8000896:	46bd      	mov	sp, r7
 8000898:	bc80      	pop	{r7}
 800089a:	4770      	bx	lr
 800089c:	20000240 	.word	0x20000240

080008a0 <main>:
 80008a0:	b5b0      	push	{r4, r5, r7, lr}
 80008a2:	b0a2      	sub	sp, #136	@ 0x88
 80008a4:	af04      	add	r7, sp, #16
 80008a6:	4b98      	ldr	r3, [pc, #608]	@ (8000b08 <main+0x268>)
 80008a8:	f107 0460 	add.w	r4, r7, #96	@ 0x60
 80008ac:	461d      	mov	r5, r3
 80008ae:	cd0f      	ldmia	r5!, {r0, r1, r2, r3}
 80008b0:	c40f      	stmia	r4!, {r0, r1, r2, r3}
 80008b2:	682b      	ldr	r3, [r5, #0]
 80008b4:	461a      	mov	r2, r3
 80008b6:	8022      	strh	r2, [r4, #0]
 80008b8:	3402      	adds	r4, #2
 80008ba:	0c1b      	lsrs	r3, r3, #16
 80008bc:	7023      	strb	r3, [r4, #0]
 80008be:	4a93      	ldr	r2, [pc, #588]	@ (8000b0c <main+0x26c>)
 80008c0:	f107 0354 	add.w	r3, r7, #84	@ 0x54
 80008c4:	ca07      	ldmia	r2, {r0, r1, r2}
 80008c6:	c303      	stmia	r3!, {r0, r1}
 80008c8:	801a      	strh	r2, [r3, #0]
 80008ca:	4a91      	ldr	r2, [pc, #580]	@ (8000b10 <main+0x270>)
 80008cc:	f107 034c 	add.w	r3, r7, #76	@ 0x4c
 80008d0:	e892 0003 	ldmia.w	r2, {r0, r1}
 80008d4:	e883 0003 	stmia.w	r3, {r0, r1}
 80008d8:	2311      	movs	r3, #17
 80008da:	f887 3048 	strb.w	r3, [r7, #72]	@ 0x48
 80008de:	2301      	movs	r3, #1
 80008e0:	f8a7 3044 	strh.w	r3, [r7, #68]	@ 0x44
 80008e4:	f000 fce2 	bl	80012ac <HAL_Init>
 80008e8:	f000 f92e 	bl	8000b48 <SystemClock_Config>
 80008ec:	f000 fa46 	bl	8000d7c <MX_GPIO_Init>
 80008f0:	f000 fa1e 	bl	8000d30 <MX_DMA_Init>
 80008f4:	f000 f9c8 	bl	8000c88 <MX_USART1_UART_Init>
 80008f8:	f000 f962 	bl	8000bc0 <MX_I2C1_Init>
 80008fc:	f000 f98e 	bl	8000c1c <MX_SPI1_Init>
 8000900:	f000 f9ec 	bl	8000cdc <MX_USART2_UART_Init>
 8000904:	f107 0160 	add.w	r1, r7, #96	@ 0x60
 8000908:	2364      	movs	r3, #100	@ 0x64
 800090a:	2212      	movs	r2, #18
 800090c:	4881      	ldr	r0, [pc, #516]	@ (8000b14 <main+0x274>)
 800090e:	f003 fd31 	bl	8004374 <HAL_UART_Transmit>
 8000912:	4b81      	ldr	r3, [pc, #516]	@ (8000b18 <main+0x278>)
 8000914:	2274      	movs	r2, #116	@ 0x74
 8000916:	701a      	strb	r2, [r3, #0]
 8000918:	4b7f      	ldr	r3, [pc, #508]	@ (8000b18 <main+0x278>)
 800091a:	2223      	movs	r2, #35	@ 0x23
 800091c:	705a      	strb	r2, [r3, #1]
 800091e:	4b7e      	ldr	r3, [pc, #504]	@ (8000b18 <main+0x278>)
 8000920:	2275      	movs	r2, #117	@ 0x75
 8000922:	709a      	strb	r2, [r3, #2]
 8000924:	4b7c      	ldr	r3, [pc, #496]	@ (8000b18 <main+0x278>)
 8000926:	22a4      	movs	r2, #164	@ 0xa4
 8000928:	70da      	strb	r2, [r3, #3]
 800092a:	4b7c      	ldr	r3, [pc, #496]	@ (8000b1c <main+0x27c>)
 800092c:	22fa      	movs	r2, #250	@ 0xfa
 800092e:	701a      	strb	r2, [r3, #0]
 8000930:	f7ff fef2 	bl	8000718 <BME280_Start>
 8000934:	f7ff ff84 	bl	8000840 <BME280_Read>
 8000938:	f7ff fec0 	bl	80006bc <DS18B20_Start>
 800093c:	4603      	mov	r3, r0
 800093e:	4a78      	ldr	r2, [pc, #480]	@ (8000b20 <main+0x280>)
 8000940:	6013      	str	r3, [r2, #0]
 8000942:	20cc      	movs	r0, #204	@ 0xcc
 8000944:	f7ff ff02 	bl	800074c <DS18B20_Write>
 8000948:	2044      	movs	r0, #68	@ 0x44
 800094a:	f7ff feff 	bl	800074c <DS18B20_Write>
 800094e:	f7ff feb5 	bl	80006bc <DS18B20_Start>
 8000952:	4603      	mov	r3, r0
 8000954:	4a72      	ldr	r2, [pc, #456]	@ (8000b20 <main+0x280>)
 8000956:	6013      	str	r3, [r2, #0]
 8000958:	20cc      	movs	r0, #204	@ 0xcc
 800095a:	f7ff fef7 	bl	800074c <DS18B20_Write>
 800095e:	20be      	movs	r0, #190	@ 0xbe
 8000960:	f7ff fef4 	bl	800074c <DS18B20_Write>
 8000964:	f7ff ff22 	bl	80007ac <DS18B20_Read>
 8000968:	4603      	mov	r3, r0
 800096a:	461a      	mov	r2, r3
 800096c:	4b6d      	ldr	r3, [pc, #436]	@ (8000b24 <main+0x284>)
 800096e:	701a      	strb	r2, [r3, #0]
 8000970:	f7ff ff1c 	bl	80007ac <DS18B20_Read>
 8000974:	4603      	mov	r3, r0
 8000976:	461a      	mov	r2, r3
 8000978:	4b6b      	ldr	r3, [pc, #428]	@ (8000b28 <main+0x288>)
 800097a:	701a      	strb	r2, [r3, #0]
 800097c:	4b6a      	ldr	r3, [pc, #424]	@ (8000b28 <main+0x288>)
 800097e:	781b      	ldrb	r3, [r3, #0]
 8000980:	021b      	lsls	r3, r3, #8
 8000982:	b21a      	sxth	r2, r3
 8000984:	4b67      	ldr	r3, [pc, #412]	@ (8000b24 <main+0x284>)
 8000986:	781b      	ldrb	r3, [r3, #0]
 8000988:	b21b      	sxth	r3, r3
 800098a:	4313      	orrs	r3, r2
 800098c:	b21a      	sxth	r2, r3
 800098e:	4b67      	ldr	r3, [pc, #412]	@ (8000b2c <main+0x28c>)
 8000990:	801a      	strh	r2, [r3, #0]
 8000992:	4b66      	ldr	r3, [pc, #408]	@ (8000b2c <main+0x28c>)
 8000994:	f9b3 3000 	ldrsh.w	r3, [r3]
 8000998:	4618      	mov	r0, r3
 800099a:	f7ff fc99 	bl	80002d0 <__aeabi_i2f>
 800099e:	4603      	mov	r3, r0
 80009a0:	f04f 4183 	mov.w	r1, #1098907648	@ 0x41800000
 80009a4:	4618      	mov	r0, r3
 80009a6:	f7ff fd9b 	bl	80004e0 <__aeabi_fdiv>
 80009aa:	4603      	mov	r3, r0
 80009ac:	461a      	mov	r2, r3
 80009ae:	4b60      	ldr	r3, [pc, #384]	@ (8000b30 <main+0x290>)
 80009b0:	601a      	str	r2, [r3, #0]
 80009b2:	f7ff feb1 	bl	8000718 <BME280_Start>
 80009b6:	f7ff ff43 	bl	8000840 <BME280_Read>
 80009ba:	2364      	movs	r3, #100	@ 0x64
 80009bc:	9302      	str	r3, [sp, #8]
 80009be:	2301      	movs	r3, #1
 80009c0:	9301      	str	r3, [sp, #4]
 80009c2:	f107 0348 	add.w	r3, r7, #72	@ 0x48
 80009c6:	9300      	str	r3, [sp, #0]
 80009c8:	2301      	movs	r3, #1
 80009ca:	2203      	movs	r2, #3
 80009cc:	2108      	movs	r1, #8
 80009ce:	4859      	ldr	r0, [pc, #356]	@ (8000b34 <main+0x294>)
 80009d0:	f001 fb7a 	bl	80020c8 <HAL_I2C_Mem_Write>
 80009d4:	2364      	movs	r3, #100	@ 0x64
 80009d6:	9302      	str	r3, [sp, #8]
 80009d8:	2301      	movs	r3, #1
 80009da:	9301      	str	r3, [sp, #4]
 80009dc:	f107 0344 	add.w	r3, r7, #68	@ 0x44
 80009e0:	9300      	str	r3, [sp, #0]
 80009e2:	2301      	movs	r3, #1
 80009e4:	2200      	movs	r2, #0
 80009e6:	2108      	movs	r1, #8
 80009e8:	4852      	ldr	r0, [pc, #328]	@ (8000b34 <main+0x294>)
 80009ea:	f001 fc67 	bl	80022bc <HAL_I2C_Mem_Read>
 80009ee:	f107 0144 	add.w	r1, r7, #68	@ 0x44
 80009f2:	f44f 737a 	mov.w	r3, #1000	@ 0x3e8
 80009f6:	2201      	movs	r2, #1
 80009f8:	4846      	ldr	r0, [pc, #280]	@ (8000b14 <main+0x274>)
 80009fa:	f003 fcbb 	bl	8004374 <HAL_UART_Transmit>
 80009fe:	f44f 707a 	mov.w	r0, #1000	@ 0x3e8
 8000a02:	f000 fcb5 	bl	8001370 <HAL_Delay>
 8000a06:	f8b7 2050 	ldrh.w	r2, [r7, #80]	@ 0x50
 8000a0a:	2364      	movs	r3, #100	@ 0x64
 8000a0c:	9302      	str	r3, [sp, #8]
 8000a0e:	2301      	movs	r3, #1
 8000a10:	9301      	str	r3, [sp, #4]
 8000a12:	f107 0343 	add.w	r3, r7, #67	@ 0x43
 8000a16:	9300      	str	r3, [sp, #0]
 8000a18:	2301      	movs	r3, #1
 8000a1a:	2108      	movs	r1, #8
 8000a1c:	4845      	ldr	r0, [pc, #276]	@ (8000b34 <main+0x294>)
 8000a1e:	f001 fc4d 	bl	80022bc <HAL_I2C_Mem_Read>
 8000a22:	f8b7 2052 	ldrh.w	r2, [r7, #82]	@ 0x52
 8000a26:	2364      	movs	r3, #100	@ 0x64
 8000a28:	9302      	str	r3, [sp, #8]
 8000a2a:	2301      	movs	r3, #1
 8000a2c:	9301      	str	r3, [sp, #4]
 8000a2e:	f107 0342 	add.w	r3, r7, #66	@ 0x42
 8000a32:	9300      	str	r3, [sp, #0]
 8000a34:	2301      	movs	r3, #1
 8000a36:	2108      	movs	r1, #8
 8000a38:	483e      	ldr	r0, [pc, #248]	@ (8000b34 <main+0x294>)
 8000a3a:	f001 fc3f 	bl	80022bc <HAL_I2C_Mem_Read>
 8000a3e:	f44f 707a 	mov.w	r0, #1000	@ 0x3e8
 8000a42:	f000 fc95 	bl	8001370 <HAL_Delay>
 8000a46:	f897 3043 	ldrb.w	r3, [r7, #67]	@ 0x43
 8000a4a:	461a      	mov	r2, r3
 8000a4c:	f8b7 3076 	ldrh.w	r3, [r7, #118]	@ 0x76
 8000a50:	4413      	add	r3, r2
 8000a52:	f8a7 3076 	strh.w	r3, [r7, #118]	@ 0x76
 8000a56:	f8b7 3076 	ldrh.w	r3, [r7, #118]	@ 0x76
 8000a5a:	021b      	lsls	r3, r3, #8
 8000a5c:	f8a7 3076 	strh.w	r3, [r7, #118]	@ 0x76
 8000a60:	f897 3042 	ldrb.w	r3, [r7, #66]	@ 0x42
 8000a64:	461a      	mov	r2, r3
 8000a66:	f8b7 3076 	ldrh.w	r3, [r7, #118]	@ 0x76
 8000a6a:	4413      	add	r3, r2
 8000a6c:	f8a7 3076 	strh.w	r3, [r7, #118]	@ 0x76
 8000a70:	f8b7 3076 	ldrh.w	r3, [r7, #118]	@ 0x76
 8000a74:	095b      	lsrs	r3, r3, #5
 8000a76:	b29b      	uxth	r3, r3
 8000a78:	3b32      	subs	r3, #50	@ 0x32
 8000a7a:	f8a7 3076 	strh.w	r3, [r7, #118]	@ 0x76
 8000a7e:	4b2c      	ldr	r3, [pc, #176]	@ (8000b30 <main+0x290>)
 8000a80:	681b      	ldr	r3, [r3, #0]
 8000a82:	4618      	mov	r0, r3
 8000a84:	f7ff fdc8 	bl	8000618 <__aeabi_f2iz>
 8000a88:	4603      	mov	r3, r0
 8000a8a:	b21b      	sxth	r3, r3
 8000a8c:	4638      	mov	r0, r7
 8000a8e:	4a2a      	ldr	r2, [pc, #168]	@ (8000b38 <main+0x298>)
 8000a90:	2140      	movs	r1, #64	@ 0x40
 8000a92:	f004 fd8d 	bl	80055b0 <sniprintf>
 8000a96:	463b      	mov	r3, r7
 8000a98:	4618      	mov	r0, r3
 8000a9a:	f7ff fb57 	bl	800014c <strlen>
 8000a9e:	4603      	mov	r3, r0
 8000aa0:	b29a      	uxth	r2, r3
 8000aa2:	4639      	mov	r1, r7
 8000aa4:	f04f 33ff 	mov.w	r3, #4294967295
 8000aa8:	481a      	ldr	r0, [pc, #104]	@ (8000b14 <main+0x274>)
 8000aaa:	f003 fc63 	bl	8004374 <HAL_UART_Transmit>
 8000aae:	4b23      	ldr	r3, [pc, #140]	@ (8000b3c <main+0x29c>)
 8000ab0:	781b      	ldrb	r3, [r3, #0]
 8000ab2:	3b6d      	subs	r3, #109	@ 0x6d
 8000ab4:	4638      	mov	r0, r7
 8000ab6:	4a22      	ldr	r2, [pc, #136]	@ (8000b40 <main+0x2a0>)
 8000ab8:	2140      	movs	r1, #64	@ 0x40
 8000aba:	f004 fd79 	bl	80055b0 <sniprintf>
 8000abe:	463b      	mov	r3, r7
 8000ac0:	4618      	mov	r0, r3
 8000ac2:	f7ff fb43 	bl	800014c <strlen>
 8000ac6:	4603      	mov	r3, r0
 8000ac8:	b29a      	uxth	r2, r3
 8000aca:	4639      	mov	r1, r7
 8000acc:	f04f 33ff 	mov.w	r3, #4294967295
 8000ad0:	4810      	ldr	r0, [pc, #64]	@ (8000b14 <main+0x274>)
 8000ad2:	f003 fc4f 	bl	8004374 <HAL_UART_Transmit>
 8000ad6:	f8b7 3076 	ldrh.w	r3, [r7, #118]	@ 0x76
 8000ada:	4638      	mov	r0, r7
 8000adc:	4a19      	ldr	r2, [pc, #100]	@ (8000b44 <main+0x2a4>)
 8000ade:	2140      	movs	r1, #64	@ 0x40
 8000ae0:	f004 fd66 	bl	80055b0 <sniprintf>
 8000ae4:	463b      	mov	r3, r7
 8000ae6:	4618      	mov	r0, r3
 8000ae8:	f7ff fb30 	bl	800014c <strlen>
 8000aec:	4603      	mov	r3, r0
 8000aee:	b29a      	uxth	r2, r3
 8000af0:	4639      	mov	r1, r7
 8000af2:	f04f 33ff 	mov.w	r3, #4294967295
 8000af6:	4807      	ldr	r0, [pc, #28]	@ (8000b14 <main+0x274>)
 8000af8:	f003 fc3c 	bl	8004374 <HAL_UART_Transmit>
 8000afc:	f44f 60fa 	mov.w	r0, #2000	@ 0x7d0
 8000b00:	f000 fc36 	bl	8001370 <HAL_Delay>
 8000b04:	bf00      	nop
 8000b06:	e717      	b.n	8000938 <main+0x98>
 8000b08:	08005f8c 	.word	0x08005f8c
 8000b0c:	08005fa0 	.word	0x08005fa0
 8000b10:	08005fac 	.word	0x08005fac
 8000b14:	20000124 	.word	0x20000124
 8000b18:	20000254 	.word	0x20000254
 8000b1c:	20000258 	.word	0x20000258
 8000b20:	2000023c 	.word	0x2000023c
 8000b24:	2000024c 	.word	0x2000024c
 8000b28:	2000024d 	.word	0x2000024d
 8000b2c:	2000024e 	.word	0x2000024e
 8000b30:	20000250 	.word	0x20000250
 8000b34:	20000078 	.word	0x20000078
 8000b38:	08005f54 	.word	0x08005f54
 8000b3c:	2000025c 	.word	0x2000025c
 8000b40:	08005f68 	.word	0x08005f68
 8000b44:	08005f7c 	.word	0x08005f7c

08000b48 <SystemClock_Config>:
 8000b48:	b580      	push	{r7, lr}
 8000b4a:	b090      	sub	sp, #64	@ 0x40
 8000b4c:	af00      	add	r7, sp, #0
 8000b4e:	f107 0318 	add.w	r3, r7, #24
 8000b52:	2228      	movs	r2, #40	@ 0x28
 8000b54:	2100      	movs	r1, #0
 8000b56:	4618      	mov	r0, r3
 8000b58:	f004 fd5e 	bl	8005618 <memset>
 8000b5c:	1d3b      	adds	r3, r7, #4
 8000b5e:	2200      	movs	r2, #0
 8000b60:	601a      	str	r2, [r3, #0]
 8000b62:	605a      	str	r2, [r3, #4]
 8000b64:	609a      	str	r2, [r3, #8]
 8000b66:	60da      	str	r2, [r3, #12]
 8000b68:	611a      	str	r2, [r3, #16]
 8000b6a:	2302      	movs	r3, #2
 8000b6c:	61bb      	str	r3, [r7, #24]
 8000b6e:	2301      	movs	r3, #1
 8000b70:	62bb      	str	r3, [r7, #40]	@ 0x28
 8000b72:	2310      	movs	r3, #16
 8000b74:	62fb      	str	r3, [r7, #44]	@ 0x2c
 8000b76:	2300      	movs	r3, #0
 8000b78:	637b      	str	r3, [r7, #52]	@ 0x34
 8000b7a:	f107 0318 	add.w	r3, r7, #24
 8000b7e:	4618      	mov	r0, r3
 8000b80:	f002 f9b8 	bl	8002ef4 <HAL_RCC_OscConfig>
 8000b84:	4603      	mov	r3, r0
 8000b86:	2b00      	cmp	r3, #0
 8000b88:	d001      	beq.n	8000b8e <SystemClock_Config+0x46>
 8000b8a:	f000 f94b 	bl	8000e24 <Error_Handler>
 8000b8e:	230f      	movs	r3, #15
 8000b90:	607b      	str	r3, [r7, #4]
 8000b92:	2300      	movs	r3, #0
 8000b94:	60bb      	str	r3, [r7, #8]
 8000b96:	2300      	movs	r3, #0
 8000b98:	60fb      	str	r3, [r7, #12]
 8000b9a:	2300      	movs	r3, #0
 8000b9c:	613b      	str	r3, [r7, #16]
 8000b9e:	2300      	movs	r3, #0
 8000ba0:	617b      	str	r3, [r7, #20]
 8000ba2:	1d3b      	adds	r3, r7, #4
 8000ba4:	2100      	movs	r1, #0
 8000ba6:	4618      	mov	r0, r3
 8000ba8:	f002 fc26 	bl	80033f8 <HAL_RCC_ClockConfig>
 8000bac:	4603      	mov	r3, r0
 8000bae:	2b00      	cmp	r3, #0
 8000bb0:	d001      	beq.n	8000bb6 <SystemClock_Config+0x6e>
 8000bb2:	f000 f937 	bl	8000e24 <Error_Handler>
 8000bb6:	bf00      	nop
 8000bb8:	3740      	adds	r7, #64	@ 0x40
 8000bba:	46bd      	mov	sp, r7
 8000bbc:	bd80      	pop	{r7, pc}
	...

08000bc0 <MX_I2C1_Init>:
 8000bc0:	b580      	push	{r7, lr}
 8000bc2:	af00      	add	r7, sp, #0
 8000bc4:	4b12      	ldr	r3, [pc, #72]	@ (8000c10 <MX_I2C1_Init+0x50>)
 8000bc6:	4a13      	ldr	r2, [pc, #76]	@ (8000c14 <MX_I2C1_Init+0x54>)
 8000bc8:	601a      	str	r2, [r3, #0]
 8000bca:	4b11      	ldr	r3, [pc, #68]	@ (8000c10 <MX_I2C1_Init+0x50>)
 8000bcc:	4a12      	ldr	r2, [pc, #72]	@ (8000c18 <MX_I2C1_Init+0x58>)
 8000bce:	605a      	str	r2, [r3, #4]
 8000bd0:	4b0f      	ldr	r3, [pc, #60]	@ (8000c10 <MX_I2C1_Init+0x50>)
 8000bd2:	2200      	movs	r2, #0
 8000bd4:	609a      	str	r2, [r3, #8]
 8000bd6:	4b0e      	ldr	r3, [pc, #56]	@ (8000c10 <MX_I2C1_Init+0x50>)
 8000bd8:	2200      	movs	r2, #0
 8000bda:	60da      	str	r2, [r3, #12]
 8000bdc:	4b0c      	ldr	r3, [pc, #48]	@ (8000c10 <MX_I2C1_Init+0x50>)
 8000bde:	f44f 4280 	mov.w	r2, #16384	@ 0x4000
 8000be2:	611a      	str	r2, [r3, #16]
 8000be4:	4b0a      	ldr	r3, [pc, #40]	@ (8000c10 <MX_I2C1_Init+0x50>)
 8000be6:	2200      	movs	r2, #0
 8000be8:	615a      	str	r2, [r3, #20]
 8000bea:	4b09      	ldr	r3, [pc, #36]	@ (8000c10 <MX_I2C1_Init+0x50>)
 8000bec:	2200      	movs	r2, #0
 8000bee:	619a      	str	r2, [r3, #24]
 8000bf0:	4b07      	ldr	r3, [pc, #28]	@ (8000c10 <MX_I2C1_Init+0x50>)
 8000bf2:	2200      	movs	r2, #0
 8000bf4:	61da      	str	r2, [r3, #28]
 8000bf6:	4b06      	ldr	r3, [pc, #24]	@ (8000c10 <MX_I2C1_Init+0x50>)
 8000bf8:	2200      	movs	r2, #0
 8000bfa:	621a      	str	r2, [r3, #32]
 8000bfc:	4804      	ldr	r0, [pc, #16]	@ (8000c10 <MX_I2C1_Init+0x50>)
 8000bfe:	f001 f91f 	bl	8001e40 <HAL_I2C_Init>
 8000c02:	4603      	mov	r3, r0
 8000c04:	2b00      	cmp	r3, #0
 8000c06:	d001      	beq.n	8000c0c <MX_I2C1_Init+0x4c>
 8000c08:	f000 f90c 	bl	8000e24 <Error_Handler>
 8000c0c:	bf00      	nop
 8000c0e:	bd80      	pop	{r7, pc}
 8000c10:	20000078 	.word	0x20000078
 8000c14:	40005400 	.word	0x40005400
 8000c18:	000186a0 	.word	0x000186a0

08000c1c <MX_SPI1_Init>:
 8000c1c:	b580      	push	{r7, lr}
 8000c1e:	af00      	add	r7, sp, #0
 8000c20:	4b17      	ldr	r3, [pc, #92]	@ (8000c80 <MX_SPI1_Init+0x64>)
 8000c22:	4a18      	ldr	r2, [pc, #96]	@ (8000c84 <MX_SPI1_Init+0x68>)
 8000c24:	601a      	str	r2, [r3, #0]
 8000c26:	4b16      	ldr	r3, [pc, #88]	@ (8000c80 <MX_SPI1_Init+0x64>)
 8000c28:	f44f 7282 	mov.w	r2, #260	@ 0x104
 8000c2c:	605a      	str	r2, [r3, #4]
 8000c2e:	4b14      	ldr	r3, [pc, #80]	@ (8000c80 <MX_SPI1_Init+0x64>)
 8000c30:	2200      	movs	r2, #0
 8000c32:	609a      	str	r2, [r3, #8]
 8000c34:	4b12      	ldr	r3, [pc, #72]	@ (8000c80 <MX_SPI1_Init+0x64>)
 8000c36:	2200      	movs	r2, #0
 8000c38:	60da      	str	r2, [r3, #12]
 8000c3a:	4b11      	ldr	r3, [pc, #68]	@ (8000c80 <MX_SPI1_Init+0x64>)
 8000c3c:	2200      	movs	r2, #0
 8000c3e:	611a      	str	r2, [r3, #16]
 8000c40:	4b0f      	ldr	r3, [pc, #60]	@ (8000c80 <MX_SPI1_Init+0x64>)
 8000c42:	2200      	movs	r2, #0
 8000c44:	615a      	str	r2, [r3, #20]
 8000c46:	4b0e      	ldr	r3, [pc, #56]	@ (8000c80 <MX_SPI1_Init+0x64>)
 8000c48:	f44f 7200 	mov.w	r2, #512	@ 0x200
 8000c4c:	619a      	str	r2, [r3, #24]
 8000c4e:	4b0c      	ldr	r3, [pc, #48]	@ (8000c80 <MX_SPI1_Init+0x64>)
 8000c50:	2200      	movs	r2, #0
 8000c52:	61da      	str	r2, [r3, #28]
 8000c54:	4b0a      	ldr	r3, [pc, #40]	@ (8000c80 <MX_SPI1_Init+0x64>)
 8000c56:	2200      	movs	r2, #0
 8000c58:	621a      	str	r2, [r3, #32]
 8000c5a:	4b09      	ldr	r3, [pc, #36]	@ (8000c80 <MX_SPI1_Init+0x64>)
 8000c5c:	2200      	movs	r2, #0
 8000c5e:	625a      	str	r2, [r3, #36]	@ 0x24
 8000c60:	4b07      	ldr	r3, [pc, #28]	@ (8000c80 <MX_SPI1_Init+0x64>)
 8000c62:	2200      	movs	r2, #0
 8000c64:	629a      	str	r2, [r3, #40]	@ 0x28
 8000c66:	4b06      	ldr	r3, [pc, #24]	@ (8000c80 <MX_SPI1_Init+0x64>)
 8000c68:	220a      	movs	r2, #10
 8000c6a:	62da      	str	r2, [r3, #44]	@ 0x2c
 8000c6c:	4804      	ldr	r0, [pc, #16]	@ (8000c80 <MX_SPI1_Init+0x64>)
 8000c6e:	f002 fd51 	bl	8003714 <HAL_SPI_Init>
 8000c72:	4603      	mov	r3, r0
 8000c74:	2b00      	cmp	r3, #0
 8000c76:	d001      	beq.n	8000c7c <MX_SPI1_Init+0x60>
 8000c78:	f000 f8d4 	bl	8000e24 <Error_Handler>
 8000c7c:	bf00      	nop
 8000c7e:	bd80      	pop	{r7, pc}
 8000c80:	200000cc 	.word	0x200000cc
 8000c84:	40013000 	.word	0x40013000

08000c88 <MX_USART1_UART_Init>:
 8000c88:	b580      	push	{r7, lr}
 8000c8a:	af00      	add	r7, sp, #0
 8000c8c:	4b11      	ldr	r3, [pc, #68]	@ (8000cd4 <MX_USART1_UART_Init+0x4c>)
 8000c8e:	4a12      	ldr	r2, [pc, #72]	@ (8000cd8 <MX_USART1_UART_Init+0x50>)
 8000c90:	601a      	str	r2, [r3, #0]
 8000c92:	4b10      	ldr	r3, [pc, #64]	@ (8000cd4 <MX_USART1_UART_Init+0x4c>)
 8000c94:	f44f 32e1 	mov.w	r2, #115200	@ 0x1c200
 8000c98:	605a      	str	r2, [r3, #4]
 8000c9a:	4b0e      	ldr	r3, [pc, #56]	@ (8000cd4 <MX_USART1_UART_Init+0x4c>)
 8000c9c:	2200      	movs	r2, #0
 8000c9e:	609a      	str	r2, [r3, #8]
 8000ca0:	4b0c      	ldr	r3, [pc, #48]	@ (8000cd4 <MX_USART1_UART_Init+0x4c>)
 8000ca2:	2200      	movs	r2, #0
 8000ca4:	60da      	str	r2, [r3, #12]
 8000ca6:	4b0b      	ldr	r3, [pc, #44]	@ (8000cd4 <MX_USART1_UART_Init+0x4c>)
 8000ca8:	2200      	movs	r2, #0
 8000caa:	611a      	str	r2, [r3, #16]
 8000cac:	4b09      	ldr	r3, [pc, #36]	@ (8000cd4 <MX_USART1_UART_Init+0x4c>)
 8000cae:	220c      	movs	r2, #12
 8000cb0:	615a      	str	r2, [r3, #20]
 8000cb2:	4b08      	ldr	r3, [pc, #32]	@ (8000cd4 <MX_USART1_UART_Init+0x4c>)
 8000cb4:	2200      	movs	r2, #0
 8000cb6:	619a      	str	r2, [r3, #24]
 8000cb8:	4b06      	ldr	r3, [pc, #24]	@ (8000cd4 <MX_USART1_UART_Init+0x4c>)
 8000cba:	2200      	movs	r2, #0
 8000cbc:	61da      	str	r2, [r3, #28]
 8000cbe:	4805      	ldr	r0, [pc, #20]	@ (8000cd4 <MX_USART1_UART_Init+0x4c>)
 8000cc0:	f003 fab0 	bl	8004224 <HAL_UART_Init>
 8000cc4:	4603      	mov	r3, r0
 8000cc6:	2b00      	cmp	r3, #0
 8000cc8:	d001      	beq.n	8000cce <MX_USART1_UART_Init+0x46>
 8000cca:	f000 f8ab 	bl	8000e24 <Error_Handler>
 8000cce:	bf00      	nop
 8000cd0:	bd80      	pop	{r7, pc}
 8000cd2:	bf00      	nop
 8000cd4:	20000124 	.word	0x20000124
 8000cd8:	40013800 	.word	0x40013800

08000cdc <MX_USART2_UART_Init>:
 8000cdc:	b580      	push	{r7, lr}
 8000cde:	af00      	add	r7, sp, #0
 8000ce0:	4b11      	ldr	r3, [pc, #68]	@ (8000d28 <MX_USART2_UART_Init+0x4c>)
 8000ce2:	4a12      	ldr	r2, [pc, #72]	@ (8000d2c <MX_USART2_UART_Init+0x50>)
 8000ce4:	601a      	str	r2, [r3, #0]
 8000ce6:	4b10      	ldr	r3, [pc, #64]	@ (8000d28 <MX_USART2_UART_Init+0x4c>)
 8000ce8:	f44f 5216 	mov.w	r2, #9600	@ 0x2580
 8000cec:	605a      	str	r2, [r3, #4]
 8000cee:	4b0e      	ldr	r3, [pc, #56]	@ (8000d28 <MX_USART2_UART_Init+0x4c>)
 8000cf0:	2200      	movs	r2, #0
 8000cf2:	609a      	str	r2, [r3, #8]
 8000cf4:	4b0c      	ldr	r3, [pc, #48]	@ (8000d28 <MX_USART2_UART_Init+0x4c>)
 8000cf6:	2200      	movs	r2, #0
 8000cf8:	60da      	str	r2, [r3, #12]
 8000cfa:	4b0b      	ldr	r3, [pc, #44]	@ (8000d28 <MX_USART2_UART_Init+0x4c>)
 8000cfc:	2200      	movs	r2, #0
 8000cfe:	611a      	str	r2, [r3, #16]
 8000d00:	4b09      	ldr	r3, [pc, #36]	@ (8000d28 <MX_USART2_UART_Init+0x4c>)
 8000d02:	220c      	movs	r2, #12
 8000d04:	615a      	str	r2, [r3, #20]
 8000d06:	4b08      	ldr	r3, [pc, #32]	@ (8000d28 <MX_USART2_UART_Init+0x4c>)
 8000d08:	2200      	movs	r2, #0
 8000d0a:	619a      	str	r2, [r3, #24]
 8000d0c:	4b06      	ldr	r3, [pc, #24]	@ (8000d28 <MX_USART2_UART_Init+0x4c>)
 8000d0e:	2200      	movs	r2, #0
 8000d10:	61da      	str	r2, [r3, #28]
 8000d12:	4805      	ldr	r0, [pc, #20]	@ (8000d28 <MX_USART2_UART_Init+0x4c>)
 8000d14:	f003 fad6 	bl	80042c4 <HAL_HalfDuplex_Init>
 8000d18:	4603      	mov	r3, r0
 8000d1a:	2b00      	cmp	r3, #0
 8000d1c:	d001      	beq.n	8000d22 <MX_USART2_UART_Init+0x46>
 8000d1e:	f000 f881 	bl	8000e24 <Error_Handler>
 8000d22:	bf00      	nop
 8000d24:	bd80      	pop	{r7, pc}
 8000d26:	bf00      	nop
 8000d28:	2000016c 	.word	0x2000016c
 8000d2c:	40004400 	.word	0x40004400

08000d30 <MX_DMA_Init>:
 8000d30:	b580      	push	{r7, lr}
 8000d32:	b082      	sub	sp, #8
 8000d34:	af00      	add	r7, sp, #0
 8000d36:	4b10      	ldr	r3, [pc, #64]	@ (8000d78 <MX_DMA_Init+0x48>)
 8000d38:	695b      	ldr	r3, [r3, #20]
 8000d3a:	4a0f      	ldr	r2, [pc, #60]	@ (8000d78 <MX_DMA_Init+0x48>)
 8000d3c:	f043 0301 	orr.w	r3, r3, #1
 8000d40:	6153      	str	r3, [r2, #20]
 8000d42:	4b0d      	ldr	r3, [pc, #52]	@ (8000d78 <MX_DMA_Init+0x48>)
 8000d44:	695b      	ldr	r3, [r3, #20]
 8000d46:	f003 0301 	and.w	r3, r3, #1
 8000d4a:	607b      	str	r3, [r7, #4]
 8000d4c:	687b      	ldr	r3, [r7, #4]
 8000d4e:	2200      	movs	r2, #0
 8000d50:	2100      	movs	r1, #0
 8000d52:	2010      	movs	r0, #16
 8000d54:	f000 fc07 	bl	8001566 <HAL_NVIC_SetPriority>
 8000d58:	2010      	movs	r0, #16
 8000d5a:	f000 fc20 	bl	800159e <HAL_NVIC_EnableIRQ>
 8000d5e:	2200      	movs	r2, #0
 8000d60:	2100      	movs	r1, #0
 8000d62:	2011      	movs	r0, #17
 8000d64:	f000 fbff 	bl	8001566 <HAL_NVIC_SetPriority>
 8000d68:	2011      	movs	r0, #17
 8000d6a:	f000 fc18 	bl	800159e <HAL_NVIC_EnableIRQ>
 8000d6e:	bf00      	nop
 8000d70:	3708      	adds	r7, #8
 8000d72:	46bd      	mov	sp, r7
 8000d74:	bd80      	pop	{r7, pc}
 8000d76:	bf00      	nop
 8000d78:	40021000 	.word	0x40021000

08000d7c <MX_GPIO_Init>:
 8000d7c:	b580      	push	{r7, lr}
 8000d7e:	b086      	sub	sp, #24
 8000d80:	af00      	add	r7, sp, #0
 8000d82:	f107 0308 	add.w	r3, r7, #8
 8000d86:	2200      	movs	r2, #0
 8000d88:	601a      	str	r2, [r3, #0]
 8000d8a:	605a      	str	r2, [r3, #4]
 8000d8c:	609a      	str	r2, [r3, #8]
 8000d8e:	60da      	str	r2, [r3, #12]
 8000d90:	4b21      	ldr	r3, [pc, #132]	@ (8000e18 <MX_GPIO_Init+0x9c>)
 8000d92:	699b      	ldr	r3, [r3, #24]
 8000d94:	4a20      	ldr	r2, [pc, #128]	@ (8000e18 <MX_GPIO_Init+0x9c>)
 8000d96:	f043 0304 	orr.w	r3, r3, #4
 8000d9a:	6193      	str	r3, [r2, #24]
 8000d9c:	4b1e      	ldr	r3, [pc, #120]	@ (8000e18 <MX_GPIO_Init+0x9c>)
 8000d9e:	699b      	ldr	r3, [r3, #24]
 8000da0:	f003 0304 	and.w	r3, r3, #4
 8000da4:	607b      	str	r3, [r7, #4]
 8000da6:	687b      	ldr	r3, [r7, #4]
 8000da8:	4b1b      	ldr	r3, [pc, #108]	@ (8000e18 <MX_GPIO_Init+0x9c>)
 8000daa:	699b      	ldr	r3, [r3, #24]
 8000dac:	4a1a      	ldr	r2, [pc, #104]	@ (8000e18 <MX_GPIO_Init+0x9c>)
 8000dae:	f043 0308 	orr.w	r3, r3, #8
 8000db2:	6193      	str	r3, [r2, #24]
 8000db4:	4b18      	ldr	r3, [pc, #96]	@ (8000e18 <MX_GPIO_Init+0x9c>)
 8000db6:	699b      	ldr	r3, [r3, #24]
 8000db8:	f003 0308 	and.w	r3, r3, #8
 8000dbc:	603b      	str	r3, [r7, #0]
 8000dbe:	683b      	ldr	r3, [r7, #0]
 8000dc0:	2200      	movs	r2, #0
 8000dc2:	f44f 7180 	mov.w	r1, #256	@ 0x100
 8000dc6:	4815      	ldr	r0, [pc, #84]	@ (8000e1c <MX_GPIO_Init+0xa0>)
 8000dc8:	f001 f822 	bl	8001e10 <HAL_GPIO_WritePin>
 8000dcc:	2200      	movs	r2, #0
 8000dce:	2120      	movs	r1, #32
 8000dd0:	4813      	ldr	r0, [pc, #76]	@ (8000e20 <MX_GPIO_Init+0xa4>)
 8000dd2:	f001 f81d 	bl	8001e10 <HAL_GPIO_WritePin>
 8000dd6:	f44f 7388 	mov.w	r3, #272	@ 0x110
 8000dda:	60bb      	str	r3, [r7, #8]
 8000ddc:	2301      	movs	r3, #1
 8000dde:	60fb      	str	r3, [r7, #12]
 8000de0:	2300      	movs	r3, #0
 8000de2:	613b      	str	r3, [r7, #16]
 8000de4:	2302      	movs	r3, #2
 8000de6:	617b      	str	r3, [r7, #20]
 8000de8:	f107 0308 	add.w	r3, r7, #8
 8000dec:	4619      	mov	r1, r3
 8000dee:	480b      	ldr	r0, [pc, #44]	@ (8000e1c <MX_GPIO_Init+0xa0>)
 8000df0:	f000 fe92 	bl	8001b18 <HAL_GPIO_Init>
 8000df4:	2320      	movs	r3, #32
 8000df6:	60bb      	str	r3, [r7, #8]
 8000df8:	2301      	movs	r3, #1
 8000dfa:	60fb      	str	r3, [r7, #12]
 8000dfc:	2300      	movs	r3, #0
 8000dfe:	613b      	str	r3, [r7, #16]
 8000e00:	2302      	movs	r3, #2
 8000e02:	617b      	str	r3, [r7, #20]
 8000e04:	f107 0308 	add.w	r3, r7, #8
 8000e08:	4619      	mov	r1, r3
 8000e0a:	4805      	ldr	r0, [pc, #20]	@ (8000e20 <MX_GPIO_Init+0xa4>)
 8000e0c:	f000 fe84 	bl	8001b18 <HAL_GPIO_Init>
 8000e10:	bf00      	nop
 8000e12:	3718      	adds	r7, #24
 8000e14:	46bd      	mov	sp, r7
 8000e16:	bd80      	pop	{r7, pc}
 8000e18:	40021000 	.word	0x40021000
 8000e1c:	40010800 	.word	0x40010800
 8000e20:	40010c00 	.word	0x40010c00

08000e24 <Error_Handler>:
 8000e24:	b480      	push	{r7}
 8000e26:	af00      	add	r7, sp, #0
 8000e28:	b672      	cpsid	i
 8000e2a:	bf00      	nop
 8000e2c:	bf00      	nop
 8000e2e:	e7fd      	b.n	8000e2c <Error_Handler+0x8>

08000e30 <HAL_MspInit>:
 8000e30:	b480      	push	{r7}
 8000e32:	b085      	sub	sp, #20
 8000e34:	af00      	add	r7, sp, #0
 8000e36:	4b15      	ldr	r3, [pc, #84]	@ (8000e8c <HAL_MspInit+0x5c>)
 8000e38:	699b      	ldr	r3, [r3, #24]
 8000e3a:	4a14      	ldr	r2, [pc, #80]	@ (8000e8c <HAL_MspInit+0x5c>)
 8000e3c:	f043 0301 	orr.w	r3, r3, #1
 8000e40:	6193      	str	r3, [r2, #24]
 8000e42:	4b12      	ldr	r3, [pc, #72]	@ (8000e8c <HAL_MspInit+0x5c>)
 8000e44:	699b      	ldr	r3, [r3, #24]
 8000e46:	f003 0301 	and.w	r3, r3, #1
 8000e4a:	60bb      	str	r3, [r7, #8]
 8000e4c:	68bb      	ldr	r3, [r7, #8]
 8000e4e:	4b0f      	ldr	r3, [pc, #60]	@ (8000e8c <HAL_MspInit+0x5c>)
 8000e50:	69db      	ldr	r3, [r3, #28]
 8000e52:	4a0e      	ldr	r2, [pc, #56]	@ (8000e8c <HAL_MspInit+0x5c>)
 8000e54:	f043 5380 	orr.w	r3, r3, #268435456	@ 0x10000000
 8000e58:	61d3      	str	r3, [r2, #28]
 8000e5a:	4b0c      	ldr	r3, [pc, #48]	@ (8000e8c <HAL_MspInit+0x5c>)
 8000e5c:	69db      	ldr	r3, [r3, #28]
 8000e5e:	f003 5380 	and.w	r3, r3, #268435456	@ 0x10000000
 8000e62:	607b      	str	r3, [r7, #4]
 8000e64:	687b      	ldr	r3, [r7, #4]
 8000e66:	4b0a      	ldr	r3, [pc, #40]	@ (8000e90 <HAL_MspInit+0x60>)
 8000e68:	685b      	ldr	r3, [r3, #4]
 8000e6a:	60fb      	str	r3, [r7, #12]
 8000e6c:	68fb      	ldr	r3, [r7, #12]
 8000e6e:	f023 63e0 	bic.w	r3, r3, #117440512	@ 0x7000000
 8000e72:	60fb      	str	r3, [r7, #12]
 8000e74:	68fb      	ldr	r3, [r7, #12]
 8000e76:	f043 7300 	orr.w	r3, r3, #33554432	@ 0x2000000
 8000e7a:	60fb      	str	r3, [r7, #12]
 8000e7c:	4a04      	ldr	r2, [pc, #16]	@ (8000e90 <HAL_MspInit+0x60>)
 8000e7e:	68fb      	ldr	r3, [r7, #12]
 8000e80:	6053      	str	r3, [r2, #4]
 8000e82:	bf00      	nop
 8000e84:	3714      	adds	r7, #20
 8000e86:	46bd      	mov	sp, r7
 8000e88:	bc80      	pop	{r7}
 8000e8a:	4770      	bx	lr
 8000e8c:	40021000 	.word	0x40021000
 8000e90:	40010000 	.word	0x40010000

08000e94 <HAL_I2C_MspInit>:
 8000e94:	b580      	push	{r7, lr}
 8000e96:	b088      	sub	sp, #32
 8000e98:	af00      	add	r7, sp, #0
 8000e9a:	6078      	str	r0, [r7, #4]
 8000e9c:	f107 0310 	add.w	r3, r7, #16
 8000ea0:	2200      	movs	r2, #0
 8000ea2:	601a      	str	r2, [r3, #0]
 8000ea4:	605a      	str	r2, [r3, #4]
 8000ea6:	609a      	str	r2, [r3, #8]
 8000ea8:	60da      	str	r2, [r3, #12]
 8000eaa:	687b      	ldr	r3, [r7, #4]
 8000eac:	681b      	ldr	r3, [r3, #0]
 8000eae:	4a16      	ldr	r2, [pc, #88]	@ (8000f08 <HAL_I2C_MspInit+0x74>)
 8000eb0:	4293      	cmp	r3, r2
 8000eb2:	d125      	bne.n	8000f00 <HAL_I2C_MspInit+0x6c>
 8000eb4:	4b15      	ldr	r3, [pc, #84]	@ (8000f0c <HAL_I2C_MspInit+0x78>)
 8000eb6:	699b      	ldr	r3, [r3, #24]
 8000eb8:	4a14      	ldr	r2, [pc, #80]	@ (8000f0c <HAL_I2C_MspInit+0x78>)
 8000eba:	f043 0308 	orr.w	r3, r3, #8
 8000ebe:	6193      	str	r3, [r2, #24]
 8000ec0:	4b12      	ldr	r3, [pc, #72]	@ (8000f0c <HAL_I2C_MspInit+0x78>)
 8000ec2:	699b      	ldr	r3, [r3, #24]
 8000ec4:	f003 0308 	and.w	r3, r3, #8
 8000ec8:	60fb      	str	r3, [r7, #12]
 8000eca:	68fb      	ldr	r3, [r7, #12]
 8000ecc:	23c0      	movs	r3, #192	@ 0xc0
 8000ece:	613b      	str	r3, [r7, #16]
 8000ed0:	2312      	movs	r3, #18
 8000ed2:	617b      	str	r3, [r7, #20]
 8000ed4:	2300      	movs	r3, #0
 8000ed6:	61bb      	str	r3, [r7, #24]
 8000ed8:	2303      	movs	r3, #3
 8000eda:	61fb      	str	r3, [r7, #28]
 8000edc:	f107 0310 	add.w	r3, r7, #16
 8000ee0:	4619      	mov	r1, r3
 8000ee2:	480b      	ldr	r0, [pc, #44]	@ (8000f10 <HAL_I2C_MspInit+0x7c>)
 8000ee4:	f000 fe18 	bl	8001b18 <HAL_GPIO_Init>
 8000ee8:	4b08      	ldr	r3, [pc, #32]	@ (8000f0c <HAL_I2C_MspInit+0x78>)
 8000eea:	69db      	ldr	r3, [r3, #28]
 8000eec:	4a07      	ldr	r2, [pc, #28]	@ (8000f0c <HAL_I2C_MspInit+0x78>)
 8000eee:	f443 1300 	orr.w	r3, r3, #2097152	@ 0x200000
 8000ef2:	61d3      	str	r3, [r2, #28]
 8000ef4:	4b05      	ldr	r3, [pc, #20]	@ (8000f0c <HAL_I2C_MspInit+0x78>)
 8000ef6:	69db      	ldr	r3, [r3, #28]
 8000ef8:	f403 1300 	and.w	r3, r3, #2097152	@ 0x200000
 8000efc:	60bb      	str	r3, [r7, #8]
 8000efe:	68bb      	ldr	r3, [r7, #8]
 8000f00:	bf00      	nop
 8000f02:	3720      	adds	r7, #32
 8000f04:	46bd      	mov	sp, r7
 8000f06:	bd80      	pop	{r7, pc}
 8000f08:	40005400 	.word	0x40005400
 8000f0c:	40021000 	.word	0x40021000
 8000f10:	40010c00 	.word	0x40010c00

08000f14 <HAL_SPI_MspInit>:
 8000f14:	b580      	push	{r7, lr}
 8000f16:	b088      	sub	sp, #32
 8000f18:	af00      	add	r7, sp, #0
 8000f1a:	6078      	str	r0, [r7, #4]
 8000f1c:	f107 0310 	add.w	r3, r7, #16
 8000f20:	2200      	movs	r2, #0
 8000f22:	601a      	str	r2, [r3, #0]
 8000f24:	605a      	str	r2, [r3, #4]
 8000f26:	609a      	str	r2, [r3, #8]
 8000f28:	60da      	str	r2, [r3, #12]
 8000f2a:	687b      	ldr	r3, [r7, #4]
 8000f2c:	681b      	ldr	r3, [r3, #0]
 8000f2e:	4a1b      	ldr	r2, [pc, #108]	@ (8000f9c <HAL_SPI_MspInit+0x88>)
 8000f30:	4293      	cmp	r3, r2
 8000f32:	d12f      	bne.n	8000f94 <HAL_SPI_MspInit+0x80>
 8000f34:	4b1a      	ldr	r3, [pc, #104]	@ (8000fa0 <HAL_SPI_MspInit+0x8c>)
 8000f36:	699b      	ldr	r3, [r3, #24]
 8000f38:	4a19      	ldr	r2, [pc, #100]	@ (8000fa0 <HAL_SPI_MspInit+0x8c>)
 8000f3a:	f443 5380 	orr.w	r3, r3, #4096	@ 0x1000
 8000f3e:	6193      	str	r3, [r2, #24]
 8000f40:	4b17      	ldr	r3, [pc, #92]	@ (8000fa0 <HAL_SPI_MspInit+0x8c>)
 8000f42:	699b      	ldr	r3, [r3, #24]
 8000f44:	f403 5380 	and.w	r3, r3, #4096	@ 0x1000
 8000f48:	60fb      	str	r3, [r7, #12]
 8000f4a:	68fb      	ldr	r3, [r7, #12]
 8000f4c:	4b14      	ldr	r3, [pc, #80]	@ (8000fa0 <HAL_SPI_MspInit+0x8c>)
 8000f4e:	699b      	ldr	r3, [r3, #24]
 8000f50:	4a13      	ldr	r2, [pc, #76]	@ (8000fa0 <HAL_SPI_MspInit+0x8c>)
 8000f52:	f043 0304 	orr.w	r3, r3, #4
 8000f56:	6193      	str	r3, [r2, #24]
 8000f58:	4b11      	ldr	r3, [pc, #68]	@ (8000fa0 <HAL_SPI_MspInit+0x8c>)
 8000f5a:	699b      	ldr	r3, [r3, #24]
 8000f5c:	f003 0304 	and.w	r3, r3, #4
 8000f60:	60bb      	str	r3, [r7, #8]
 8000f62:	68bb      	ldr	r3, [r7, #8]
 8000f64:	23a0      	movs	r3, #160	@ 0xa0
 8000f66:	613b      	str	r3, [r7, #16]
 8000f68:	2302      	movs	r3, #2
 8000f6a:	617b      	str	r3, [r7, #20]
 8000f6c:	2303      	movs	r3, #3
 8000f6e:	61fb      	str	r3, [r7, #28]
 8000f70:	f107 0310 	add.w	r3, r7, #16
 8000f74:	4619      	mov	r1, r3
 8000f76:	480b      	ldr	r0, [pc, #44]	@ (8000fa4 <HAL_SPI_MspInit+0x90>)
 8000f78:	f000 fdce 	bl	8001b18 <HAL_GPIO_Init>
 8000f7c:	2340      	movs	r3, #64	@ 0x40
 8000f7e:	613b      	str	r3, [r7, #16]
 8000f80:	2300      	movs	r3, #0
 8000f82:	617b      	str	r3, [r7, #20]
 8000f84:	2300      	movs	r3, #0
 8000f86:	61bb      	str	r3, [r7, #24]
 8000f88:	f107 0310 	add.w	r3, r7, #16
 8000f8c:	4619      	mov	r1, r3
 8000f8e:	4805      	ldr	r0, [pc, #20]	@ (8000fa4 <HAL_SPI_MspInit+0x90>)
 8000f90:	f000 fdc2 	bl	8001b18 <HAL_GPIO_Init>
 8000f94:	bf00      	nop
 8000f96:	3720      	adds	r7, #32
 8000f98:	46bd      	mov	sp, r7
 8000f9a:	bd80      	pop	{r7, pc}
 8000f9c:	40013000 	.word	0x40013000
 8000fa0:	40021000 	.word	0x40021000
 8000fa4:	40010800 	.word	0x40010800

08000fa8 <HAL_UART_MspInit>:
 8000fa8:	b580      	push	{r7, lr}
 8000faa:	b08a      	sub	sp, #40	@ 0x28
 8000fac:	af00      	add	r7, sp, #0
 8000fae:	6078      	str	r0, [r7, #4]
 8000fb0:	f107 0318 	add.w	r3, r7, #24
 8000fb4:	2200      	movs	r2, #0
 8000fb6:	601a      	str	r2, [r3, #0]
 8000fb8:	605a      	str	r2, [r3, #4]
 8000fba:	609a      	str	r2, [r3, #8]
 8000fbc:	60da      	str	r2, [r3, #12]
 8000fbe:	687b      	ldr	r3, [r7, #4]
 8000fc0:	681b      	ldr	r3, [r3, #0]
 8000fc2:	4a5c      	ldr	r2, [pc, #368]	@ (8001134 <HAL_UART_MspInit+0x18c>)
 8000fc4:	4293      	cmp	r3, r2
 8000fc6:	d132      	bne.n	800102e <HAL_UART_MspInit+0x86>
 8000fc8:	4b5b      	ldr	r3, [pc, #364]	@ (8001138 <HAL_UART_MspInit+0x190>)
 8000fca:	699b      	ldr	r3, [r3, #24]
 8000fcc:	4a5a      	ldr	r2, [pc, #360]	@ (8001138 <HAL_UART_MspInit+0x190>)
 8000fce:	f443 4380 	orr.w	r3, r3, #16384	@ 0x4000
 8000fd2:	6193      	str	r3, [r2, #24]
 8000fd4:	4b58      	ldr	r3, [pc, #352]	@ (8001138 <HAL_UART_MspInit+0x190>)
 8000fd6:	699b      	ldr	r3, [r3, #24]
 8000fd8:	f403 4380 	and.w	r3, r3, #16384	@ 0x4000
 8000fdc:	617b      	str	r3, [r7, #20]
 8000fde:	697b      	ldr	r3, [r7, #20]
 8000fe0:	4b55      	ldr	r3, [pc, #340]	@ (8001138 <HAL_UART_MspInit+0x190>)
 8000fe2:	699b      	ldr	r3, [r3, #24]
 8000fe4:	4a54      	ldr	r2, [pc, #336]	@ (8001138 <HAL_UART_MspInit+0x190>)
 8000fe6:	f043 0304 	orr.w	r3, r3, #4
 8000fea:	6193      	str	r3, [r2, #24]
 8000fec:	4b52      	ldr	r3, [pc, #328]	@ (8001138 <HAL_UART_MspInit+0x190>)
 8000fee:	699b      	ldr	r3, [r3, #24]
 8000ff0:	f003 0304 	and.w	r3, r3, #4
 8000ff4:	613b      	str	r3, [r7, #16]
 8000ff6:	693b      	ldr	r3, [r7, #16]
 8000ff8:	f44f 7300 	mov.w	r3, #512	@ 0x200
 8000ffc:	61bb      	str	r3, [r7, #24]
 8000ffe:	2302      	movs	r3, #2
 8001000:	61fb      	str	r3, [r7, #28]
 8001002:	2303      	movs	r3, #3
 8001004:	627b      	str	r3, [r7, #36]	@ 0x24
 8001006:	f107 0318 	add.w	r3, r7, #24
 800100a:	4619      	mov	r1, r3
 800100c:	484b      	ldr	r0, [pc, #300]	@ (800113c <HAL_UART_MspInit+0x194>)
 800100e:	f000 fd83 	bl	8001b18 <HAL_GPIO_Init>
 8001012:	f44f 6380 	mov.w	r3, #1024	@ 0x400
 8001016:	61bb      	str	r3, [r7, #24]
 8001018:	2300      	movs	r3, #0
 800101a:	61fb      	str	r3, [r7, #28]
 800101c:	2300      	movs	r3, #0
 800101e:	623b      	str	r3, [r7, #32]
 8001020:	f107 0318 	add.w	r3, r7, #24
 8001024:	4619      	mov	r1, r3
 8001026:	4845      	ldr	r0, [pc, #276]	@ (800113c <HAL_UART_MspInit+0x194>)
 8001028:	f000 fd76 	bl	8001b18 <HAL_GPIO_Init>
 800102c:	e07e      	b.n	800112c <HAL_UART_MspInit+0x184>
 800102e:	687b      	ldr	r3, [r7, #4]
 8001030:	681b      	ldr	r3, [r3, #0]
 8001032:	4a43      	ldr	r2, [pc, #268]	@ (8001140 <HAL_UART_MspInit+0x198>)
 8001034:	4293      	cmp	r3, r2
 8001036:	d179      	bne.n	800112c <HAL_UART_MspInit+0x184>
 8001038:	4b3f      	ldr	r3, [pc, #252]	@ (8001138 <HAL_UART_MspInit+0x190>)
 800103a:	69db      	ldr	r3, [r3, #28]
 800103c:	4a3e      	ldr	r2, [pc, #248]	@ (8001138 <HAL_UART_MspInit+0x190>)
 800103e:	f443 3300 	orr.w	r3, r3, #131072	@ 0x20000
 8001042:	61d3      	str	r3, [r2, #28]
 8001044:	4b3c      	ldr	r3, [pc, #240]	@ (8001138 <HAL_UART_MspInit+0x190>)
 8001046:	69db      	ldr	r3, [r3, #28]
 8001048:	f403 3300 	and.w	r3, r3, #131072	@ 0x20000
 800104c:	60fb      	str	r3, [r7, #12]
 800104e:	68fb      	ldr	r3, [r7, #12]
 8001050:	4b39      	ldr	r3, [pc, #228]	@ (8001138 <HAL_UART_MspInit+0x190>)
 8001052:	699b      	ldr	r3, [r3, #24]
 8001054:	4a38      	ldr	r2, [pc, #224]	@ (8001138 <HAL_UART_MspInit+0x190>)
 8001056:	f043 0304 	orr.w	r3, r3, #4
 800105a:	6193      	str	r3, [r2, #24]
 800105c:	4b36      	ldr	r3, [pc, #216]	@ (8001138 <HAL_UART_MspInit+0x190>)
 800105e:	699b      	ldr	r3, [r3, #24]
 8001060:	f003 0304 	and.w	r3, r3, #4
 8001064:	60bb      	str	r3, [r7, #8]
 8001066:	68bb      	ldr	r3, [r7, #8]
 8001068:	2304      	movs	r3, #4
 800106a:	61bb      	str	r3, [r7, #24]
 800106c:	2312      	movs	r3, #18
 800106e:	61fb      	str	r3, [r7, #28]
 8001070:	2301      	movs	r3, #1
 8001072:	623b      	str	r3, [r7, #32]
 8001074:	2303      	movs	r3, #3
 8001076:	627b      	str	r3, [r7, #36]	@ 0x24
 8001078:	f107 0318 	add.w	r3, r7, #24
 800107c:	4619      	mov	r1, r3
 800107e:	482f      	ldr	r0, [pc, #188]	@ (800113c <HAL_UART_MspInit+0x194>)
 8001080:	f000 fd4a 	bl	8001b18 <HAL_GPIO_Init>
 8001084:	4b2f      	ldr	r3, [pc, #188]	@ (8001144 <HAL_UART_MspInit+0x19c>)
 8001086:	4a30      	ldr	r2, [pc, #192]	@ (8001148 <HAL_UART_MspInit+0x1a0>)
 8001088:	601a      	str	r2, [r3, #0]
 800108a:	4b2e      	ldr	r3, [pc, #184]	@ (8001144 <HAL_UART_MspInit+0x19c>)
 800108c:	2210      	movs	r2, #16
 800108e:	605a      	str	r2, [r3, #4]
 8001090:	4b2c      	ldr	r3, [pc, #176]	@ (8001144 <HAL_UART_MspInit+0x19c>)
 8001092:	2200      	movs	r2, #0
 8001094:	609a      	str	r2, [r3, #8]
 8001096:	4b2b      	ldr	r3, [pc, #172]	@ (8001144 <HAL_UART_MspInit+0x19c>)
 8001098:	2280      	movs	r2, #128	@ 0x80
 800109a:	60da      	str	r2, [r3, #12]
 800109c:	4b29      	ldr	r3, [pc, #164]	@ (8001144 <HAL_UART_MspInit+0x19c>)
 800109e:	2200      	movs	r2, #0
 80010a0:	611a      	str	r2, [r3, #16]
 80010a2:	4b28      	ldr	r3, [pc, #160]	@ (8001144 <HAL_UART_MspInit+0x19c>)
 80010a4:	2200      	movs	r2, #0
 80010a6:	615a      	str	r2, [r3, #20]
 80010a8:	4b26      	ldr	r3, [pc, #152]	@ (8001144 <HAL_UART_MspInit+0x19c>)
 80010aa:	2200      	movs	r2, #0
 80010ac:	619a      	str	r2, [r3, #24]
 80010ae:	4b25      	ldr	r3, [pc, #148]	@ (8001144 <HAL_UART_MspInit+0x19c>)
 80010b0:	2200      	movs	r2, #0
 80010b2:	61da      	str	r2, [r3, #28]
 80010b4:	4823      	ldr	r0, [pc, #140]	@ (8001144 <HAL_UART_MspInit+0x19c>)
 80010b6:	f000 fa8d 	bl	80015d4 <HAL_DMA_Init>
 80010ba:	4603      	mov	r3, r0
 80010bc:	2b00      	cmp	r3, #0
 80010be:	d001      	beq.n	80010c4 <HAL_UART_MspInit+0x11c>
 80010c0:	f7ff feb0 	bl	8000e24 <Error_Handler>
 80010c4:	687b      	ldr	r3, [r7, #4]
 80010c6:	4a1f      	ldr	r2, [pc, #124]	@ (8001144 <HAL_UART_MspInit+0x19c>)
 80010c8:	639a      	str	r2, [r3, #56]	@ 0x38
 80010ca:	4a1e      	ldr	r2, [pc, #120]	@ (8001144 <HAL_UART_MspInit+0x19c>)
 80010cc:	687b      	ldr	r3, [r7, #4]
 80010ce:	6253      	str	r3, [r2, #36]	@ 0x24
 80010d0:	4b1e      	ldr	r3, [pc, #120]	@ (800114c <HAL_UART_MspInit+0x1a4>)
 80010d2:	4a1f      	ldr	r2, [pc, #124]	@ (8001150 <HAL_UART_MspInit+0x1a8>)
 80010d4:	601a      	str	r2, [r3, #0]
 80010d6:	4b1d      	ldr	r3, [pc, #116]	@ (800114c <HAL_UART_MspInit+0x1a4>)
 80010d8:	2200      	movs	r2, #0
 80010da:	605a      	str	r2, [r3, #4]
 80010dc:	4b1b      	ldr	r3, [pc, #108]	@ (800114c <HAL_UART_MspInit+0x1a4>)
 80010de:	2200      	movs	r2, #0
 80010e0:	609a      	str	r2, [r3, #8]
 80010e2:	4b1a      	ldr	r3, [pc, #104]	@ (800114c <HAL_UART_MspInit+0x1a4>)
 80010e4:	2280      	movs	r2, #128	@ 0x80
 80010e6:	60da      	str	r2, [r3, #12]
 80010e8:	4b18      	ldr	r3, [pc, #96]	@ (800114c <HAL_UART_MspInit+0x1a4>)
 80010ea:	2200      	movs	r2, #0
 80010ec:	611a      	str	r2, [r3, #16]
 80010ee:	4b17      	ldr	r3, [pc, #92]	@ (800114c <HAL_UART_MspInit+0x1a4>)
 80010f0:	2200      	movs	r2, #0
 80010f2:	615a      	str	r2, [r3, #20]
 80010f4:	4b15      	ldr	r3, [pc, #84]	@ (800114c <HAL_UART_MspInit+0x1a4>)
 80010f6:	2200      	movs	r2, #0
 80010f8:	619a      	str	r2, [r3, #24]
 80010fa:	4b14      	ldr	r3, [pc, #80]	@ (800114c <HAL_UART_MspInit+0x1a4>)
 80010fc:	2200      	movs	r2, #0
 80010fe:	61da      	str	r2, [r3, #28]
 8001100:	4812      	ldr	r0, [pc, #72]	@ (800114c <HAL_UART_MspInit+0x1a4>)
 8001102:	f000 fa67 	bl	80015d4 <HAL_DMA_Init>
 8001106:	4603      	mov	r3, r0
 8001108:	2b00      	cmp	r3, #0
 800110a:	d001      	beq.n	8001110 <HAL_UART_MspInit+0x168>
 800110c:	f7ff fe8a 	bl	8000e24 <Error_Handler>
 8001110:	687b      	ldr	r3, [r7, #4]
 8001112:	4a0e      	ldr	r2, [pc, #56]	@ (800114c <HAL_UART_MspInit+0x1a4>)
 8001114:	63da      	str	r2, [r3, #60]	@ 0x3c
 8001116:	4a0d      	ldr	r2, [pc, #52]	@ (800114c <HAL_UART_MspInit+0x1a4>)
 8001118:	687b      	ldr	r3, [r7, #4]
 800111a:	6253      	str	r3, [r2, #36]	@ 0x24
 800111c:	2200      	movs	r2, #0
 800111e:	2100      	movs	r1, #0
 8001120:	2026      	movs	r0, #38	@ 0x26
 8001122:	f000 fa20 	bl	8001566 <HAL_NVIC_SetPriority>
 8001126:	2026      	movs	r0, #38	@ 0x26
 8001128:	f000 fa39 	bl	800159e <HAL_NVIC_EnableIRQ>
 800112c:	bf00      	nop
 800112e:	3728      	adds	r7, #40	@ 0x28
 8001130:	46bd      	mov	sp, r7
 8001132:	bd80      	pop	{r7, pc}
 8001134:	40013800 	.word	0x40013800
 8001138:	40021000 	.word	0x40021000
 800113c:	40010800 	.word	0x40010800
 8001140:	40004400 	.word	0x40004400
 8001144:	200001b4 	.word	0x200001b4
 8001148:	40020080 	.word	0x40020080
 800114c:	200001f8 	.word	0x200001f8
 8001150:	4002006c 	.word	0x4002006c

08001154 <NMI_Handler>:
 8001154:	b480      	push	{r7}
 8001156:	af00      	add	r7, sp, #0
 8001158:	bf00      	nop
 800115a:	e7fd      	b.n	8001158 <NMI_Handler+0x4>

0800115c <HardFault_Handler>:
 800115c:	b480      	push	{r7}
 800115e:	af00      	add	r7, sp, #0
 8001160:	bf00      	nop
 8001162:	e7fd      	b.n	8001160 <HardFault_Handler+0x4>

08001164 <MemManage_Handler>:
 8001164:	b480      	push	{r7}
 8001166:	af00      	add	r7, sp, #0
 8001168:	bf00      	nop
 800116a:	e7fd      	b.n	8001168 <MemManage_Handler+0x4>

0800116c <BusFault_Handler>:
 800116c:	b480      	push	{r7}
 800116e:	af00      	add	r7, sp, #0
 8001170:	bf00      	nop
 8001172:	e7fd      	b.n	8001170 <BusFault_Handler+0x4>

08001174 <UsageFault_Handler>:
 8001174:	b480      	push	{r7}
 8001176:	af00      	add	r7, sp, #0
 8001178:	bf00      	nop
 800117a:	e7fd      	b.n	8001178 <UsageFault_Handler+0x4>

0800117c <SVC_Handler>:
 800117c:	b480      	push	{r7}
 800117e:	af00      	add	r7, sp, #0
 8001180:	bf00      	nop
 8001182:	46bd      	mov	sp, r7
 8001184:	bc80      	pop	{r7}
 8001186:	4770      	bx	lr

08001188 <DebugMon_Handler>:
 8001188:	b480      	push	{r7}
 800118a:	af00      	add	r7, sp, #0
 800118c:	bf00      	nop
 800118e:	46bd      	mov	sp, r7
 8001190:	bc80      	pop	{r7}
 8001192:	4770      	bx	lr

08001194 <PendSV_Handler>:
 8001194:	b480      	push	{r7}
 8001196:	af00      	add	r7, sp, #0
 8001198:	bf00      	nop
 800119a:	46bd      	mov	sp, r7
 800119c:	bc80      	pop	{r7}
 800119e:	4770      	bx	lr

080011a0 <SysTick_Handler>:
 80011a0:	b580      	push	{r7, lr}
 80011a2:	af00      	add	r7, sp, #0
 80011a4:	f000 f8c8 	bl	8001338 <HAL_IncTick>
 80011a8:	bf00      	nop
 80011aa:	bd80      	pop	{r7, pc}

080011ac <DMA1_Channel6_IRQHandler>:
 80011ac:	b580      	push	{r7, lr}
 80011ae:	af00      	add	r7, sp, #0
 80011b0:	4802      	ldr	r0, [pc, #8]	@ (80011bc <DMA1_Channel6_IRQHandler+0x10>)
 80011b2:	f000 fb7d 	bl	80018b0 <HAL_DMA_IRQHandler>
 80011b6:	bf00      	nop
 80011b8:	bd80      	pop	{r7, pc}
 80011ba:	bf00      	nop
 80011bc:	200001f8 	.word	0x200001f8

080011c0 <DMA1_Channel7_IRQHandler>:
 80011c0:	b580      	push	{r7, lr}
 80011c2:	af00      	add	r7, sp, #0
 80011c4:	4802      	ldr	r0, [pc, #8]	@ (80011d0 <DMA1_Channel7_IRQHandler+0x10>)
 80011c6:	f000 fb73 	bl	80018b0 <HAL_DMA_IRQHandler>
 80011ca:	bf00      	nop
 80011cc:	bd80      	pop	{r7, pc}
 80011ce:	bf00      	nop
 80011d0:	200001b4 	.word	0x200001b4

080011d4 <USART2_IRQHandler>:
 80011d4:	b580      	push	{r7, lr}
 80011d6:	af00      	add	r7, sp, #0
 80011d8:	4802      	ldr	r0, [pc, #8]	@ (80011e4 <USART2_IRQHandler+0x10>)
 80011da:	f003 fa77 	bl	80046cc <HAL_UART_IRQHandler>
 80011de:	bf00      	nop
 80011e0:	bd80      	pop	{r7, pc}
 80011e2:	bf00      	nop
 80011e4:	2000016c 	.word	0x2000016c

080011e8 <_sbrk>:
 80011e8:	b580      	push	{r7, lr}
 80011ea:	b086      	sub	sp, #24
 80011ec:	af00      	add	r7, sp, #0
 80011ee:	6078      	str	r0, [r7, #4]
 80011f0:	4a14      	ldr	r2, [pc, #80]	@ (8001244 <_sbrk+0x5c>)
 80011f2:	4b15      	ldr	r3, [pc, #84]	@ (8001248 <_sbrk+0x60>)
 80011f4:	1ad3      	subs	r3, r2, r3
 80011f6:	617b      	str	r3, [r7, #20]
 80011f8:	697b      	ldr	r3, [r7, #20]
 80011fa:	613b      	str	r3, [r7, #16]
 80011fc:	4b13      	ldr	r3, [pc, #76]	@ (800124c <_sbrk+0x64>)
 80011fe:	681b      	ldr	r3, [r3, #0]
 8001200:	2b00      	cmp	r3, #0
 8001202:	d102      	bne.n	800120a <_sbrk+0x22>
 8001204:	4b11      	ldr	r3, [pc, #68]	@ (800124c <_sbrk+0x64>)
 8001206:	4a12      	ldr	r2, [pc, #72]	@ (8001250 <_sbrk+0x68>)
 8001208:	601a      	str	r2, [r3, #0]
 800120a:	4b10      	ldr	r3, [pc, #64]	@ (800124c <_sbrk+0x64>)
 800120c:	681a      	ldr	r2, [r3, #0]
 800120e:	687b      	ldr	r3, [r7, #4]
 8001210:	4413      	add	r3, r2
 8001212:	693a      	ldr	r2, [r7, #16]
 8001214:	429a      	cmp	r2, r3
 8001216:	d207      	bcs.n	8001228 <_sbrk+0x40>
 8001218:	f004 fa06 	bl	8005628 <__errno>
 800121c:	4603      	mov	r3, r0
 800121e:	220c      	movs	r2, #12
 8001220:	601a      	str	r2, [r3, #0]
 8001222:	f04f 33ff 	mov.w	r3, #4294967295
 8001226:	e009      	b.n	800123c <_sbrk+0x54>
 8001228:	4b08      	ldr	r3, [pc, #32]	@ (800124c <_sbrk+0x64>)
 800122a:	681b      	ldr	r3, [r3, #0]
 800122c:	60fb      	str	r3, [r7, #12]
 800122e:	4b07      	ldr	r3, [pc, #28]	@ (800124c <_sbrk+0x64>)
 8001230:	681a      	ldr	r2, [r3, #0]
 8001232:	687b      	ldr	r3, [r7, #4]
 8001234:	4413      	add	r3, r2
 8001236:	4a05      	ldr	r2, [pc, #20]	@ (800124c <_sbrk+0x64>)
 8001238:	6013      	str	r3, [r2, #0]
 800123a:	68fb      	ldr	r3, [r7, #12]
 800123c:	4618      	mov	r0, r3
 800123e:	3718      	adds	r7, #24
 8001240:	46bd      	mov	sp, r7
 8001242:	bd80      	pop	{r7, pc}
 8001244:	20002800 	.word	0x20002800
 8001248:	00000400 	.word	0x00000400
 800124c:	20000260 	.word	0x20000260
 8001250:	200003b0 	.word	0x200003b0

08001254 <SystemInit>:
 8001254:	b480      	push	{r7}
 8001256:	af00      	add	r7, sp, #0
 8001258:	bf00      	nop
 800125a:	46bd      	mov	sp, r7
 800125c:	bc80      	pop	{r7}
 800125e:	4770      	bx	lr

08001260 <Reset_Handler>:
 8001260:	f7ff fff8 	bl	8001254 <SystemInit>
 8001264:	480b      	ldr	r0, [pc, #44]	@ (8001294 <LoopFillZerobss+0xe>)
 8001266:	490c      	ldr	r1, [pc, #48]	@ (8001298 <LoopFillZerobss+0x12>)
 8001268:	4a0c      	ldr	r2, [pc, #48]	@ (800129c <LoopFillZerobss+0x16>)
 800126a:	2300      	movs	r3, #0
 800126c:	e002      	b.n	8001274 <LoopCopyDataInit>

0800126e <CopyDataInit>:
 800126e:	58d4      	ldr	r4, [r2, r3]
 8001270:	50c4      	str	r4, [r0, r3]
 8001272:	3304      	adds	r3, #4

08001274 <LoopCopyDataInit>:
 8001274:	18c4      	adds	r4, r0, r3
 8001276:	428c      	cmp	r4, r1
 8001278:	d3f9      	bcc.n	800126e <CopyDataInit>
 800127a:	4a09      	ldr	r2, [pc, #36]	@ (80012a0 <LoopFillZerobss+0x1a>)
 800127c:	4c09      	ldr	r4, [pc, #36]	@ (80012a4 <LoopFillZerobss+0x1e>)
 800127e:	2300      	movs	r3, #0
 8001280:	e001      	b.n	8001286 <LoopFillZerobss>

08001282 <FillZerobss>:
 8001282:	6013      	str	r3, [r2, #0]
 8001284:	3204      	adds	r2, #4

08001286 <LoopFillZerobss>:
 8001286:	42a2      	cmp	r2, r4
 8001288:	d3fb      	bcc.n	8001282 <FillZerobss>
 800128a:	f004 f9d3 	bl	8005634 <__libc_init_array>
 800128e:	f7ff fb07 	bl	80008a0 <main>
 8001292:	4770      	bx	lr
 8001294:	20000000 	.word	0x20000000
 8001298:	2000005c 	.word	0x2000005c
 800129c:	08006024 	.word	0x08006024
 80012a0:	2000005c 	.word	0x2000005c
 80012a4:	200003b0 	.word	0x200003b0

080012a8 <ADC1_2_IRQHandler>:
 80012a8:	e7fe      	b.n	80012a8 <ADC1_2_IRQHandler>
	...

080012ac <HAL_Init>:
 80012ac:	b580      	push	{r7, lr}
 80012ae:	af00      	add	r7, sp, #0
 80012b0:	4b08      	ldr	r3, [pc, #32]	@ (80012d4 <HAL_Init+0x28>)
 80012b2:	681b      	ldr	r3, [r3, #0]
 80012b4:	4a07      	ldr	r2, [pc, #28]	@ (80012d4 <HAL_Init+0x28>)
 80012b6:	f043 0310 	orr.w	r3, r3, #16
 80012ba:	6013      	str	r3, [r2, #0]
 80012bc:	2003      	movs	r0, #3
 80012be:	f000 f947 	bl	8001550 <HAL_NVIC_SetPriorityGrouping>
 80012c2:	200f      	movs	r0, #15
 80012c4:	f000 f808 	bl	80012d8 <HAL_InitTick>
 80012c8:	f7ff fdb2 	bl	8000e30 <HAL_MspInit>
 80012cc:	2300      	movs	r3, #0
 80012ce:	4618      	mov	r0, r3
 80012d0:	bd80      	pop	{r7, pc}
 80012d2:	bf00      	nop
 80012d4:	40022000 	.word	0x40022000

080012d8 <HAL_InitTick>:
 80012d8:	b580      	push	{r7, lr}
 80012da:	b082      	sub	sp, #8
 80012dc:	af00      	add	r7, sp, #0
 80012de:	6078      	str	r0, [r7, #4]
 80012e0:	4b12      	ldr	r3, [pc, #72]	@ (800132c <HAL_InitTick+0x54>)
 80012e2:	681a      	ldr	r2, [r3, #0]
 80012e4:	4b12      	ldr	r3, [pc, #72]	@ (8001330 <HAL_InitTick+0x58>)
 80012e6:	781b      	ldrb	r3, [r3, #0]
 80012e8:	4619      	mov	r1, r3
 80012ea:	f44f 737a 	mov.w	r3, #1000	@ 0x3e8
 80012ee:	fbb3 f3f1 	udiv	r3, r3, r1
 80012f2:	fbb2 f3f3 	udiv	r3, r2, r3
 80012f6:	4618      	mov	r0, r3
 80012f8:	f000 f95f 	bl	80015ba <HAL_SYSTICK_Config>
 80012fc:	4603      	mov	r3, r0
 80012fe:	2b00      	cmp	r3, #0
 8001300:	d001      	beq.n	8001306 <HAL_InitTick+0x2e>
 8001302:	2301      	movs	r3, #1
 8001304:	e00e      	b.n	8001324 <HAL_InitTick+0x4c>
 8001306:	687b      	ldr	r3, [r7, #4]
 8001308:	2b0f      	cmp	r3, #15
 800130a:	d80a      	bhi.n	8001322 <HAL_InitTick+0x4a>
 800130c:	2200      	movs	r2, #0
 800130e:	6879      	ldr	r1, [r7, #4]
 8001310:	f04f 30ff 	mov.w	r0, #4294967295
 8001314:	f000 f927 	bl	8001566 <HAL_NVIC_SetPriority>
 8001318:	4a06      	ldr	r2, [pc, #24]	@ (8001334 <HAL_InitTick+0x5c>)
 800131a:	687b      	ldr	r3, [r7, #4]
 800131c:	6013      	str	r3, [r2, #0]
 800131e:	2300      	movs	r3, #0
 8001320:	e000      	b.n	8001324 <HAL_InitTick+0x4c>
 8001322:	2301      	movs	r3, #1
 8001324:	4618      	mov	r0, r3
 8001326:	3708      	adds	r7, #8
 8001328:	46bd      	mov	sp, r7
 800132a:	bd80      	pop	{r7, pc}
 800132c:	20000000 	.word	0x20000000
 8001330:	20000008 	.word	0x20000008
 8001334:	20000004 	.word	0x20000004

08001338 <HAL_IncTick>:
 8001338:	b480      	push	{r7}
 800133a:	af00      	add	r7, sp, #0
 800133c:	4b05      	ldr	r3, [pc, #20]	@ (8001354 <HAL_IncTick+0x1c>)
 800133e:	781b      	ldrb	r3, [r3, #0]
 8001340:	461a      	mov	r2, r3
 8001342:	4b05      	ldr	r3, [pc, #20]	@ (8001358 <HAL_IncTick+0x20>)
 8001344:	681b      	ldr	r3, [r3, #0]
 8001346:	4413      	add	r3, r2
 8001348:	4a03      	ldr	r2, [pc, #12]	@ (8001358 <HAL_IncTick+0x20>)
 800134a:	6013      	str	r3, [r2, #0]
 800134c:	bf00      	nop
 800134e:	46bd      	mov	sp, r7
 8001350:	bc80      	pop	{r7}
 8001352:	4770      	bx	lr
 8001354:	20000008 	.word	0x20000008
 8001358:	20000264 	.word	0x20000264

0800135c <HAL_GetTick>:
 800135c:	b480      	push	{r7}
 800135e:	af00      	add	r7, sp, #0
 8001360:	4b02      	ldr	r3, [pc, #8]	@ (800136c <HAL_GetTick+0x10>)
 8001362:	681b      	ldr	r3, [r3, #0]
 8001364:	4618      	mov	r0, r3
 8001366:	46bd      	mov	sp, r7
 8001368:	bc80      	pop	{r7}
 800136a:	4770      	bx	lr
 800136c:	20000264 	.word	0x20000264

08001370 <HAL_Delay>:
 8001370:	b580      	push	{r7, lr}
 8001372:	b084      	sub	sp, #16
 8001374:	af00      	add	r7, sp, #0
 8001376:	6078      	str	r0, [r7, #4]
 8001378:	f7ff fff0 	bl	800135c <HAL_GetTick>
 800137c:	60b8      	str	r0, [r7, #8]
 800137e:	687b      	ldr	r3, [r7, #4]
 8001380:	60fb      	str	r3, [r7, #12]
 8001382:	68fb      	ldr	r3, [r7, #12]
 8001384:	f1b3 3fff 	cmp.w	r3, #4294967295
 8001388:	d005      	beq.n	8001396 <HAL_Delay+0x26>
 800138a:	4b0a      	ldr	r3, [pc, #40]	@ (80013b4 <HAL_Delay+0x44>)
 800138c:	781b      	ldrb	r3, [r3, #0]
 800138e:	461a      	mov	r2, r3
 8001390:	68fb      	ldr	r3, [r7, #12]
 8001392:	4413      	add	r3, r2
 8001394:	60fb      	str	r3, [r7, #12]
 8001396:	bf00      	nop
 8001398:	f7ff ffe0 	bl	800135c <HAL_GetTick>
 800139c:	4602      	mov	r2, r0
 800139e:	68bb      	ldr	r3, [r7, #8]
 80013a0:	1ad3      	subs	r3, r2, r3
 80013a2:	68fa      	ldr	r2, [r7, #12]
 80013a4:	429a      	cmp	r2, r3
 80013a6:	d8f7      	bhi.n	8001398 <HAL_Delay+0x28>
 80013a8:	bf00      	nop
 80013aa:	bf00      	nop
 80013ac:	3710      	adds	r7, #16
 80013ae:	46bd      	mov	sp, r7
 80013b0:	bd80      	pop	{r7, pc}
 80013b2:	bf00      	nop
 80013b4:	20000008 	.word	0x20000008

080013b8 <__NVIC_SetPriorityGrouping>:
 80013b8:	b480      	push	{r7}
 80013ba:	b085      	sub	sp, #20
 80013bc:	af00      	add	r7, sp, #0
 80013be:	6078      	str	r0, [r7, #4]
 80013c0:	687b      	ldr	r3, [r7, #4]
 80013c2:	f003 0307 	and.w	r3, r3, #7
 80013c6:	60fb      	str	r3, [r7, #12]
 80013c8:	4b0c      	ldr	r3, [pc, #48]	@ (80013fc <__NVIC_SetPriorityGrouping+0x44>)
 80013ca:	68db      	ldr	r3, [r3, #12]
 80013cc:	60bb      	str	r3, [r7, #8]
 80013ce:	68ba      	ldr	r2, [r7, #8]
 80013d0:	f64f 03ff 	movw	r3, #63743	@ 0xf8ff
 80013d4:	4013      	ands	r3, r2
 80013d6:	60bb      	str	r3, [r7, #8]
 80013d8:	68fb      	ldr	r3, [r7, #12]
 80013da:	021a      	lsls	r2, r3, #8
 80013dc:	68bb      	ldr	r3, [r7, #8]
 80013de:	4313      	orrs	r3, r2
 80013e0:	f043 63bf 	orr.w	r3, r3, #100139008	@ 0x5f80000
 80013e4:	f443 3300 	orr.w	r3, r3, #131072	@ 0x20000
 80013e8:	60bb      	str	r3, [r7, #8]
 80013ea:	4a04      	ldr	r2, [pc, #16]	@ (80013fc <__NVIC_SetPriorityGrouping+0x44>)
 80013ec:	68bb      	ldr	r3, [r7, #8]
 80013ee:	60d3      	str	r3, [r2, #12]
 80013f0:	bf00      	nop
 80013f2:	3714      	adds	r7, #20
 80013f4:	46bd      	mov	sp, r7
 80013f6:	bc80      	pop	{r7}
 80013f8:	4770      	bx	lr
 80013fa:	bf00      	nop
 80013fc:	e000ed00 	.word	0xe000ed00

08001400 <__NVIC_GetPriorityGrouping>:
 8001400:	b480      	push	{r7}
 8001402:	af00      	add	r7, sp, #0
 8001404:	4b04      	ldr	r3, [pc, #16]	@ (8001418 <__NVIC_GetPriorityGrouping+0x18>)
 8001406:	68db      	ldr	r3, [r3, #12]
 8001408:	0a1b      	lsrs	r3, r3, #8
 800140a:	f003 0307 	and.w	r3, r3, #7
 800140e:	4618      	mov	r0, r3
 8001410:	46bd      	mov	sp, r7
 8001412:	bc80      	pop	{r7}
 8001414:	4770      	bx	lr
 8001416:	bf00      	nop
 8001418:	e000ed00 	.word	0xe000ed00

0800141c <__NVIC_EnableIRQ>:
 800141c:	b480      	push	{r7}
 800141e:	b083      	sub	sp, #12
 8001420:	af00      	add	r7, sp, #0
 8001422:	4603      	mov	r3, r0
 8001424:	71fb      	strb	r3, [r7, #7]
 8001426:	f997 3007 	ldrsb.w	r3, [r7, #7]
 800142a:	2b00      	cmp	r3, #0
 800142c:	db0b      	blt.n	8001446 <__NVIC_EnableIRQ+0x2a>
 800142e:	79fb      	ldrb	r3, [r7, #7]
 8001430:	f003 021f 	and.w	r2, r3, #31
 8001434:	4906      	ldr	r1, [pc, #24]	@ (8001450 <__NVIC_EnableIRQ+0x34>)
 8001436:	f997 3007 	ldrsb.w	r3, [r7, #7]
 800143a:	095b      	lsrs	r3, r3, #5
 800143c:	2001      	movs	r0, #1
 800143e:	fa00 f202 	lsl.w	r2, r0, r2
 8001442:	f841 2023 	str.w	r2, [r1, r3, lsl #2]
 8001446:	bf00      	nop
 8001448:	370c      	adds	r7, #12
 800144a:	46bd      	mov	sp, r7
 800144c:	bc80      	pop	{r7}
 800144e:	4770      	bx	lr
 8001450:	e000e100 	.word	0xe000e100

08001454 <__NVIC_SetPriority>:
 8001454:	b480      	push	{r7}
 8001456:	b083      	sub	sp, #12
 8001458:	af00      	add	r7, sp, #0
 800145a:	4603      	mov	r3, r0
 800145c:	6039      	str	r1, [r7, #0]
 800145e:	71fb      	strb	r3, [r7, #7]
 8001460:	f997 3007 	ldrsb.w	r3, [r7, #7]
 8001464:	2b00      	cmp	r3, #0
 8001466:	db0a      	blt.n	800147e <__NVIC_SetPriority+0x2a>
 8001468:	683b      	ldr	r3, [r7, #0]
 800146a:	b2da      	uxtb	r2, r3
 800146c:	490c      	ldr	r1, [pc, #48]	@ (80014a0 <__NVIC_SetPriority+0x4c>)
 800146e:	f997 3007 	ldrsb.w	r3, [r7, #7]
 8001472:	0112      	lsls	r2, r2, #4
 8001474:	b2d2      	uxtb	r2, r2
 8001476:	440b      	add	r3, r1
 8001478:	f883 2300 	strb.w	r2, [r3, #768]	@ 0x300
 800147c:	e00a      	b.n	8001494 <__NVIC_SetPriority+0x40>
 800147e:	683b      	ldr	r3, [r7, #0]
 8001480:	b2da      	uxtb	r2, r3
 8001482:	4908      	ldr	r1, [pc, #32]	@ (80014a4 <__NVIC_SetPriority+0x50>)
 8001484:	79fb      	ldrb	r3, [r7, #7]
 8001486:	f003 030f 	and.w	r3, r3, #15
 800148a:	3b04      	subs	r3, #4
 800148c:	0112      	lsls	r2, r2, #4
 800148e:	b2d2      	uxtb	r2, r2
 8001490:	440b      	add	r3, r1
 8001492:	761a      	strb	r2, [r3, #24]
 8001494:	bf00      	nop
 8001496:	370c      	adds	r7, #12
 8001498:	46bd      	mov	sp, r7
 800149a:	bc80      	pop	{r7}
 800149c:	4770      	bx	lr
 800149e:	bf00      	nop
 80014a0:	e000e100 	.word	0xe000e100
 80014a4:	e000ed00 	.word	0xe000ed00

080014a8 <NVIC_EncodePriority>:
 80014a8:	b480      	push	{r7}
 80014aa:	b089      	sub	sp, #36	@ 0x24
 80014ac:	af00      	add	r7, sp, #0
 80014ae:	60f8      	str	r0, [r7, #12]
 80014b0:	60b9      	str	r1, [r7, #8]
 80014b2:	607a      	str	r2, [r7, #4]
 80014b4:	68fb      	ldr	r3, [r7, #12]
 80014b6:	f003 0307 	and.w	r3, r3, #7
 80014ba:	61fb      	str	r3, [r7, #28]
 80014bc:	69fb      	ldr	r3, [r7, #28]
 80014be:	f1c3 0307 	rsb	r3, r3, #7
 80014c2:	2b04      	cmp	r3, #4
 80014c4:	bf28      	it	cs
 80014c6:	2304      	movcs	r3, #4
 80014c8:	61bb      	str	r3, [r7, #24]
 80014ca:	69fb      	ldr	r3, [r7, #28]
 80014cc:	3304      	adds	r3, #4
 80014ce:	2b06      	cmp	r3, #6
 80014d0:	d902      	bls.n	80014d8 <NVIC_EncodePriority+0x30>
 80014d2:	69fb      	ldr	r3, [r7, #28]
 80014d4:	3b03      	subs	r3, #3
 80014d6:	e000      	b.n	80014da <NVIC_EncodePriority+0x32>
 80014d8:	2300      	movs	r3, #0
 80014da:	617b      	str	r3, [r7, #20]
 80014dc:	f04f 32ff 	mov.w	r2, #4294967295
 80014e0:	69bb      	ldr	r3, [r7, #24]
 80014e2:	fa02 f303 	lsl.w	r3, r2, r3
 80014e6:	43da      	mvns	r2, r3
 80014e8:	68bb      	ldr	r3, [r7, #8]
 80014ea:	401a      	ands	r2, r3
 80014ec:	697b      	ldr	r3, [r7, #20]
 80014ee:	409a      	lsls	r2, r3
 80014f0:	f04f 31ff 	mov.w	r1, #4294967295
 80014f4:	697b      	ldr	r3, [r7, #20]
 80014f6:	fa01 f303 	lsl.w	r3, r1, r3
 80014fa:	43d9      	mvns	r1, r3
 80014fc:	687b      	ldr	r3, [r7, #4]
 80014fe:	400b      	ands	r3, r1
 8001500:	4313      	orrs	r3, r2
 8001502:	4618      	mov	r0, r3
 8001504:	3724      	adds	r7, #36	@ 0x24
 8001506:	46bd      	mov	sp, r7
 8001508:	bc80      	pop	{r7}
 800150a:	4770      	bx	lr

0800150c <SysTick_Config>:
 800150c:	b580      	push	{r7, lr}
 800150e:	b082      	sub	sp, #8
 8001510:	af00      	add	r7, sp, #0
 8001512:	6078      	str	r0, [r7, #4]
 8001514:	687b      	ldr	r3, [r7, #4]
 8001516:	3b01      	subs	r3, #1
 8001518:	f1b3 7f80 	cmp.w	r3, #16777216	@ 0x1000000
 800151c:	d301      	bcc.n	8001522 <SysTick_Config+0x16>
 800151e:	2301      	movs	r3, #1
 8001520:	e00f      	b.n	8001542 <SysTick_Config+0x36>
 8001522:	4a0a      	ldr	r2, [pc, #40]	@ (800154c <SysTick_Config+0x40>)
 8001524:	687b      	ldr	r3, [r7, #4]
 8001526:	3b01      	subs	r3, #1
 8001528:	6053      	str	r3, [r2, #4]
 800152a:	210f      	movs	r1, #15
 800152c:	f04f 30ff 	mov.w	r0, #4294967295
 8001530:	f7ff ff90 	bl	8001454 <__NVIC_SetPriority>
 8001534:	4b05      	ldr	r3, [pc, #20]	@ (800154c <SysTick_Config+0x40>)
 8001536:	2200      	movs	r2, #0
 8001538:	609a      	str	r2, [r3, #8]
 800153a:	4b04      	ldr	r3, [pc, #16]	@ (800154c <SysTick_Config+0x40>)
 800153c:	2207      	movs	r2, #7
 800153e:	601a      	str	r2, [r3, #0]
 8001540:	2300      	movs	r3, #0
 8001542:	4618      	mov	r0, r3
 8001544:	3708      	adds	r7, #8
 8001546:	46bd      	mov	sp, r7
 8001548:	bd80      	pop	{r7, pc}
 800154a:	bf00      	nop
 800154c:	e000e010 	.word	0xe000e010

08001550 <HAL_NVIC_SetPriorityGrouping>:
 8001550:	b580      	push	{r7, lr}
 8001552:	b082      	sub	sp, #8
 8001554:	af00      	add	r7, sp, #0
 8001556:	6078      	str	r0, [r7, #4]
 8001558:	6878      	ldr	r0, [r7, #4]
 800155a:	f7ff ff2d 	bl	80013b8 <__NVIC_SetPriorityGrouping>
 800155e:	bf00      	nop
 8001560:	3708      	adds	r7, #8
 8001562:	46bd      	mov	sp, r7
 8001564:	bd80      	pop	{r7, pc}

08001566 <HAL_NVIC_SetPriority>:
 8001566:	b580      	push	{r7, lr}
 8001568:	b086      	sub	sp, #24
 800156a:	af00      	add	r7, sp, #0
 800156c:	4603      	mov	r3, r0
 800156e:	60b9      	str	r1, [r7, #8]
 8001570:	607a      	str	r2, [r7, #4]
 8001572:	73fb      	strb	r3, [r7, #15]
 8001574:	2300      	movs	r3, #0
 8001576:	617b      	str	r3, [r7, #20]
 8001578:	f7ff ff42 	bl	8001400 <__NVIC_GetPriorityGrouping>
 800157c:	6178      	str	r0, [r7, #20]
 800157e:	687a      	ldr	r2, [r7, #4]
 8001580:	68b9      	ldr	r1, [r7, #8]
 8001582:	6978      	ldr	r0, [r7, #20]
 8001584:	f7ff ff90 	bl	80014a8 <NVIC_EncodePriority>
 8001588:	4602      	mov	r2, r0
 800158a:	f997 300f 	ldrsb.w	r3, [r7, #15]
 800158e:	4611      	mov	r1, r2
 8001590:	4618      	mov	r0, r3
 8001592:	f7ff ff5f 	bl	8001454 <__NVIC_SetPriority>
 8001596:	bf00      	nop
 8001598:	3718      	adds	r7, #24
 800159a:	46bd      	mov	sp, r7
 800159c:	bd80      	pop	{r7, pc}

0800159e <HAL_NVIC_EnableIRQ>:
 800159e:	b580      	push	{r7, lr}
 80015a0:	b082      	sub	sp, #8
 80015a2:	af00      	add	r7, sp, #0
 80015a4:	4603      	mov	r3, r0
 80015a6:	71fb      	strb	r3, [r7, #7]
 80015a8:	f997 3007 	ldrsb.w	r3, [r7, #7]
 80015ac:	4618      	mov	r0, r3
 80015ae:	f7ff ff35 	bl	800141c <__NVIC_EnableIRQ>
 80015b2:	bf00      	nop
 80015b4:	3708      	adds	r7, #8
 80015b6:	46bd      	mov	sp, r7
 80015b8:	bd80      	pop	{r7, pc}

080015ba <HAL_SYSTICK_Config>:
 80015ba:	b580      	push	{r7, lr}
 80015bc:	b082      	sub	sp, #8
 80015be:	af00      	add	r7, sp, #0
 80015c0:	6078      	str	r0, [r7, #4]
 80015c2:	6878      	ldr	r0, [r7, #4]
 80015c4:	f7ff ffa2 	bl	800150c <SysTick_Config>
 80015c8:	4603      	mov	r3, r0
 80015ca:	4618      	mov	r0, r3
 80015cc:	3708      	adds	r7, #8
 80015ce:	46bd      	mov	sp, r7
 80015d0:	bd80      	pop	{r7, pc}
	...

080015d4 <HAL_DMA_Init>:
 80015d4:	b480      	push	{r7}
 80015d6:	b085      	sub	sp, #20
 80015d8:	af00      	add	r7, sp, #0
 80015da:	6078      	str	r0, [r7, #4]
 80015dc:	2300      	movs	r3, #0
 80015de:	60fb      	str	r3, [r7, #12]
 80015e0:	687b      	ldr	r3, [r7, #4]
 80015e2:	2b00      	cmp	r3, #0
 80015e4:	d101      	bne.n	80015ea <HAL_DMA_Init+0x16>
 80015e6:	2301      	movs	r3, #1
 80015e8:	e043      	b.n	8001672 <HAL_DMA_Init+0x9e>
 80015ea:	687b      	ldr	r3, [r7, #4]
 80015ec:	681b      	ldr	r3, [r3, #0]
 80015ee:	461a      	mov	r2, r3
 80015f0:	4b22      	ldr	r3, [pc, #136]	@ (800167c <HAL_DMA_Init+0xa8>)
 80015f2:	4413      	add	r3, r2
 80015f4:	4a22      	ldr	r2, [pc, #136]	@ (8001680 <HAL_DMA_Init+0xac>)
 80015f6:	fba2 2303 	umull	r2, r3, r2, r3
 80015fa:	091b      	lsrs	r3, r3, #4
 80015fc:	009a      	lsls	r2, r3, #2
 80015fe:	687b      	ldr	r3, [r7, #4]
 8001600:	641a      	str	r2, [r3, #64]	@ 0x40
 8001602:	687b      	ldr	r3, [r7, #4]
 8001604:	4a1f      	ldr	r2, [pc, #124]	@ (8001684 <HAL_DMA_Init+0xb0>)
 8001606:	63da      	str	r2, [r3, #60]	@ 0x3c
 8001608:	687b      	ldr	r3, [r7, #4]
 800160a:	2202      	movs	r2, #2
 800160c:	f883 2021 	strb.w	r2, [r3, #33]	@ 0x21
 8001610:	687b      	ldr	r3, [r7, #4]
 8001612:	681b      	ldr	r3, [r3, #0]
 8001614:	681b      	ldr	r3, [r3, #0]
 8001616:	60fb      	str	r3, [r7, #12]
 8001618:	68fb      	ldr	r3, [r7, #12]
 800161a:	f423 537f 	bic.w	r3, r3, #16320	@ 0x3fc0
 800161e:	f023 0330 	bic.w	r3, r3, #48	@ 0x30
 8001622:	60fb      	str	r3, [r7, #12]
 8001624:	687b      	ldr	r3, [r7, #4]
 8001626:	685a      	ldr	r2, [r3, #4]
 8001628:	687b      	ldr	r3, [r7, #4]
 800162a:	689b      	ldr	r3, [r3, #8]
 800162c:	431a      	orrs	r2, r3
 800162e:	687b      	ldr	r3, [r7, #4]
 8001630:	68db      	ldr	r3, [r3, #12]
 8001632:	431a      	orrs	r2, r3
 8001634:	687b      	ldr	r3, [r7, #4]
 8001636:	691b      	ldr	r3, [r3, #16]
 8001638:	431a      	orrs	r2, r3
 800163a:	687b      	ldr	r3, [r7, #4]
 800163c:	695b      	ldr	r3, [r3, #20]
 800163e:	431a      	orrs	r2, r3
 8001640:	687b      	ldr	r3, [r7, #4]
 8001642:	699b      	ldr	r3, [r3, #24]
 8001644:	431a      	orrs	r2, r3
 8001646:	687b      	ldr	r3, [r7, #4]
 8001648:	69db      	ldr	r3, [r3, #28]
 800164a:	4313      	orrs	r3, r2
 800164c:	68fa      	ldr	r2, [r7, #12]
 800164e:	4313      	orrs	r3, r2
 8001650:	60fb      	str	r3, [r7, #12]
 8001652:	687b      	ldr	r3, [r7, #4]
 8001654:	681b      	ldr	r3, [r3, #0]
 8001656:	68fa      	ldr	r2, [r7, #12]
 8001658:	601a      	str	r2, [r3, #0]
 800165a:	687b      	ldr	r3, [r7, #4]
 800165c:	2200      	movs	r2, #0
 800165e:	639a      	str	r2, [r3, #56]	@ 0x38
 8001660:	687b      	ldr	r3, [r7, #4]
 8001662:	2201      	movs	r2, #1
 8001664:	f883 2021 	strb.w	r2, [r3, #33]	@ 0x21
 8001668:	687b      	ldr	r3, [r7, #4]
 800166a:	2200      	movs	r2, #0
 800166c:	f883 2020 	strb.w	r2, [r3, #32]
 8001670:	2300      	movs	r3, #0
 8001672:	4618      	mov	r0, r3
 8001674:	3714      	adds	r7, #20
 8001676:	46bd      	mov	sp, r7
 8001678:	bc80      	pop	{r7}
 800167a:	4770      	bx	lr
 800167c:	bffdfff8 	.word	0xbffdfff8
 8001680:	cccccccd 	.word	0xcccccccd
 8001684:	40020000 	.word	0x40020000

08001688 <HAL_DMA_Start_IT>:
 8001688:	b580      	push	{r7, lr}
 800168a:	b086      	sub	sp, #24
 800168c:	af00      	add	r7, sp, #0
 800168e:	60f8      	str	r0, [r7, #12]
 8001690:	60b9      	str	r1, [r7, #8]
 8001692:	607a      	str	r2, [r7, #4]
 8001694:	603b      	str	r3, [r7, #0]
 8001696:	2300      	movs	r3, #0
 8001698:	75fb      	strb	r3, [r7, #23]
 800169a:	68fb      	ldr	r3, [r7, #12]
 800169c:	f893 3020 	ldrb.w	r3, [r3, #32]
 80016a0:	2b01      	cmp	r3, #1
 80016a2:	d101      	bne.n	80016a8 <HAL_DMA_Start_IT+0x20>
 80016a4:	2302      	movs	r3, #2
 80016a6:	e04b      	b.n	8001740 <HAL_DMA_Start_IT+0xb8>
 80016a8:	68fb      	ldr	r3, [r7, #12]
 80016aa:	2201      	movs	r2, #1
 80016ac:	f883 2020 	strb.w	r2, [r3, #32]
 80016b0:	68fb      	ldr	r3, [r7, #12]
 80016b2:	f893 3021 	ldrb.w	r3, [r3, #33]	@ 0x21
 80016b6:	b2db      	uxtb	r3, r3
 80016b8:	2b01      	cmp	r3, #1
 80016ba:	d13a      	bne.n	8001732 <HAL_DMA_Start_IT+0xaa>
 80016bc:	68fb      	ldr	r3, [r7, #12]
 80016be:	2202      	movs	r2, #2
 80016c0:	f883 2021 	strb.w	r2, [r3, #33]	@ 0x21
 80016c4:	68fb      	ldr	r3, [r7, #12]
 80016c6:	2200      	movs	r2, #0
 80016c8:	639a      	str	r2, [r3, #56]	@ 0x38
 80016ca:	68fb      	ldr	r3, [r7, #12]
 80016cc:	681b      	ldr	r3, [r3, #0]
 80016ce:	681a      	ldr	r2, [r3, #0]
 80016d0:	68fb      	ldr	r3, [r7, #12]
 80016d2:	681b      	ldr	r3, [r3, #0]
 80016d4:	f022 0201 	bic.w	r2, r2, #1
 80016d8:	601a      	str	r2, [r3, #0]
 80016da:	683b      	ldr	r3, [r7, #0]
 80016dc:	687a      	ldr	r2, [r7, #4]
 80016de:	68b9      	ldr	r1, [r7, #8]
 80016e0:	68f8      	ldr	r0, [r7, #12]
 80016e2:	f000 f9eb 	bl	8001abc <DMA_SetConfig>
 80016e6:	68fb      	ldr	r3, [r7, #12]
 80016e8:	6adb      	ldr	r3, [r3, #44]	@ 0x2c
 80016ea:	2b00      	cmp	r3, #0
 80016ec:	d008      	beq.n	8001700 <HAL_DMA_Start_IT+0x78>
 80016ee:	68fb      	ldr	r3, [r7, #12]
 80016f0:	681b      	ldr	r3, [r3, #0]
 80016f2:	681a      	ldr	r2, [r3, #0]
 80016f4:	68fb      	ldr	r3, [r7, #12]
 80016f6:	681b      	ldr	r3, [r3, #0]
 80016f8:	f042 020e 	orr.w	r2, r2, #14
 80016fc:	601a      	str	r2, [r3, #0]
 80016fe:	e00f      	b.n	8001720 <HAL_DMA_Start_IT+0x98>
 8001700:	68fb      	ldr	r3, [r7, #12]
 8001702:	681b      	ldr	r3, [r3, #0]
 8001704:	681a      	ldr	r2, [r3, #0]
 8001706:	68fb      	ldr	r3, [r7, #12]
 8001708:	681b      	ldr	r3, [r3, #0]
 800170a:	f022 0204 	bic.w	r2, r2, #4
 800170e:	601a      	str	r2, [r3, #0]
 8001710:	68fb      	ldr	r3, [r7, #12]
 8001712:	681b      	ldr	r3, [r3, #0]
 8001714:	681a      	ldr	r2, [r3, #0]
 8001716:	68fb      	ldr	r3, [r7, #12]
 8001718:	681b      	ldr	r3, [r3, #0]
 800171a:	f042 020a 	orr.w	r2, r2, #10
 800171e:	601a      	str	r2, [r3, #0]
 8001720:	68fb      	ldr	r3, [r7, #12]
 8001722:	681b      	ldr	r3, [r3, #0]
 8001724:	681a      	ldr	r2, [r3, #0]
 8001726:	68fb      	ldr	r3, [r7, #12]
 8001728:	681b      	ldr	r3, [r3, #0]
 800172a:	f042 0201 	orr.w	r2, r2, #1
 800172e:	601a      	str	r2, [r3, #0]
 8001730:	e005      	b.n	800173e <HAL_DMA_Start_IT+0xb6>
 8001732:	68fb      	ldr	r3, [r7, #12]
 8001734:	2200      	movs	r2, #0
 8001736:	f883 2020 	strb.w	r2, [r3, #32]
 800173a:	2302      	movs	r3, #2
 800173c:	75fb      	strb	r3, [r7, #23]
 800173e:	7dfb      	ldrb	r3, [r7, #23]
 8001740:	4618      	mov	r0, r3
 8001742:	3718      	adds	r7, #24
 8001744:	46bd      	mov	sp, r7
 8001746:	bd80      	pop	{r7, pc}

08001748 <HAL_DMA_Abort>:
 8001748:	b480      	push	{r7}
 800174a:	b085      	sub	sp, #20
 800174c:	af00      	add	r7, sp, #0
 800174e:	6078      	str	r0, [r7, #4]
 8001750:	2300      	movs	r3, #0
 8001752:	73fb      	strb	r3, [r7, #15]
 8001754:	687b      	ldr	r3, [r7, #4]
 8001756:	f893 3021 	ldrb.w	r3, [r3, #33]	@ 0x21
 800175a:	b2db      	uxtb	r3, r3
 800175c:	2b02      	cmp	r3, #2
 800175e:	d008      	beq.n	8001772 <HAL_DMA_Abort+0x2a>
 8001760:	687b      	ldr	r3, [r7, #4]
 8001762:	2204      	movs	r2, #4
 8001764:	639a      	str	r2, [r3, #56]	@ 0x38
 8001766:	687b      	ldr	r3, [r7, #4]
 8001768:	2200      	movs	r2, #0
 800176a:	f883 2020 	strb.w	r2, [r3, #32]
 800176e:	2301      	movs	r3, #1
 8001770:	e020      	b.n	80017b4 <HAL_DMA_Abort+0x6c>
 8001772:	687b      	ldr	r3, [r7, #4]
 8001774:	681b      	ldr	r3, [r3, #0]
 8001776:	681a      	ldr	r2, [r3, #0]
 8001778:	687b      	ldr	r3, [r7, #4]
 800177a:	681b      	ldr	r3, [r3, #0]
 800177c:	f022 020e 	bic.w	r2, r2, #14
 8001780:	601a      	str	r2, [r3, #0]
 8001782:	687b      	ldr	r3, [r7, #4]
 8001784:	681b      	ldr	r3, [r3, #0]
 8001786:	681a      	ldr	r2, [r3, #0]
 8001788:	687b      	ldr	r3, [r7, #4]
 800178a:	681b      	ldr	r3, [r3, #0]
 800178c:	f022 0201 	bic.w	r2, r2, #1
 8001790:	601a      	str	r2, [r3, #0]
 8001792:	687b      	ldr	r3, [r7, #4]
 8001794:	6c1a      	ldr	r2, [r3, #64]	@ 0x40
 8001796:	687b      	ldr	r3, [r7, #4]
 8001798:	6bdb      	ldr	r3, [r3, #60]	@ 0x3c
 800179a:	2101      	movs	r1, #1
 800179c:	fa01 f202 	lsl.w	r2, r1, r2
 80017a0:	605a      	str	r2, [r3, #4]
 80017a2:	687b      	ldr	r3, [r7, #4]
 80017a4:	2201      	movs	r2, #1
 80017a6:	f883 2021 	strb.w	r2, [r3, #33]	@ 0x21
 80017aa:	687b      	ldr	r3, [r7, #4]
 80017ac:	2200      	movs	r2, #0
 80017ae:	f883 2020 	strb.w	r2, [r3, #32]
 80017b2:	7bfb      	ldrb	r3, [r7, #15]
 80017b4:	4618      	mov	r0, r3
 80017b6:	3714      	adds	r7, #20
 80017b8:	46bd      	mov	sp, r7
 80017ba:	bc80      	pop	{r7}
 80017bc:	4770      	bx	lr
	...

080017c0 <HAL_DMA_Abort_IT>:
 80017c0:	b580      	push	{r7, lr}
 80017c2:	b084      	sub	sp, #16
 80017c4:	af00      	add	r7, sp, #0
 80017c6:	6078      	str	r0, [r7, #4]
 80017c8:	2300      	movs	r3, #0
 80017ca:	73fb      	strb	r3, [r7, #15]
 80017cc:	687b      	ldr	r3, [r7, #4]
 80017ce:	f893 3021 	ldrb.w	r3, [r3, #33]	@ 0x21
 80017d2:	b2db      	uxtb	r3, r3
 80017d4:	2b02      	cmp	r3, #2
 80017d6:	d005      	beq.n	80017e4 <HAL_DMA_Abort_IT+0x24>
 80017d8:	687b      	ldr	r3, [r7, #4]
 80017da:	2204      	movs	r2, #4
 80017dc:	639a      	str	r2, [r3, #56]	@ 0x38
 80017de:	2301      	movs	r3, #1
 80017e0:	73fb      	strb	r3, [r7, #15]
 80017e2:	e051      	b.n	8001888 <HAL_DMA_Abort_IT+0xc8>
 80017e4:	687b      	ldr	r3, [r7, #4]
 80017e6:	681b      	ldr	r3, [r3, #0]
 80017e8:	681a      	ldr	r2, [r3, #0]
 80017ea:	687b      	ldr	r3, [r7, #4]
 80017ec:	681b      	ldr	r3, [r3, #0]
 80017ee:	f022 020e 	bic.w	r2, r2, #14
 80017f2:	601a      	str	r2, [r3, #0]
 80017f4:	687b      	ldr	r3, [r7, #4]
 80017f6:	681b      	ldr	r3, [r3, #0]
 80017f8:	681a      	ldr	r2, [r3, #0]
 80017fa:	687b      	ldr	r3, [r7, #4]
 80017fc:	681b      	ldr	r3, [r3, #0]
 80017fe:	f022 0201 	bic.w	r2, r2, #1
 8001802:	601a      	str	r2, [r3, #0]
 8001804:	687b      	ldr	r3, [r7, #4]
 8001806:	681b      	ldr	r3, [r3, #0]
 8001808:	4a22      	ldr	r2, [pc, #136]	@ (8001894 <HAL_DMA_Abort_IT+0xd4>)
 800180a:	4293      	cmp	r3, r2
 800180c:	d029      	beq.n	8001862 <HAL_DMA_Abort_IT+0xa2>
 800180e:	687b      	ldr	r3, [r7, #4]
 8001810:	681b      	ldr	r3, [r3, #0]
 8001812:	4a21      	ldr	r2, [pc, #132]	@ (8001898 <HAL_DMA_Abort_IT+0xd8>)
 8001814:	4293      	cmp	r3, r2
 8001816:	d022      	beq.n	800185e <HAL_DMA_Abort_IT+0x9e>
 8001818:	687b      	ldr	r3, [r7, #4]
 800181a:	681b      	ldr	r3, [r3, #0]
 800181c:	4a1f      	ldr	r2, [pc, #124]	@ (800189c <HAL_DMA_Abort_IT+0xdc>)
 800181e:	4293      	cmp	r3, r2
 8001820:	d01a      	beq.n	8001858 <HAL_DMA_Abort_IT+0x98>
 8001822:	687b      	ldr	r3, [r7, #4]
 8001824:	681b      	ldr	r3, [r3, #0]
 8001826:	4a1e      	ldr	r2, [pc, #120]	@ (80018a0 <HAL_DMA_Abort_IT+0xe0>)
 8001828:	4293      	cmp	r3, r2
 800182a:	d012      	beq.n	8001852 <HAL_DMA_Abort_IT+0x92>
 800182c:	687b      	ldr	r3, [r7, #4]
 800182e:	681b      	ldr	r3, [r3, #0]
 8001830:	4a1c      	ldr	r2, [pc, #112]	@ (80018a4 <HAL_DMA_Abort_IT+0xe4>)
 8001832:	4293      	cmp	r3, r2
 8001834:	d00a      	beq.n	800184c <HAL_DMA_Abort_IT+0x8c>
 8001836:	687b      	ldr	r3, [r7, #4]
 8001838:	681b      	ldr	r3, [r3, #0]
 800183a:	4a1b      	ldr	r2, [pc, #108]	@ (80018a8 <HAL_DMA_Abort_IT+0xe8>)
 800183c:	4293      	cmp	r3, r2
 800183e:	d102      	bne.n	8001846 <HAL_DMA_Abort_IT+0x86>
 8001840:	f44f 1380 	mov.w	r3, #1048576	@ 0x100000
 8001844:	e00e      	b.n	8001864 <HAL_DMA_Abort_IT+0xa4>
 8001846:	f04f 7380 	mov.w	r3, #16777216	@ 0x1000000
 800184a:	e00b      	b.n	8001864 <HAL_DMA_Abort_IT+0xa4>
 800184c:	f44f 3380 	mov.w	r3, #65536	@ 0x10000
 8001850:	e008      	b.n	8001864 <HAL_DMA_Abort_IT+0xa4>
 8001852:	f44f 5380 	mov.w	r3, #4096	@ 0x1000
 8001856:	e005      	b.n	8001864 <HAL_DMA_Abort_IT+0xa4>
 8001858:	f44f 7380 	mov.w	r3, #256	@ 0x100
 800185c:	e002      	b.n	8001864 <HAL_DMA_Abort_IT+0xa4>
 800185e:	2310      	movs	r3, #16
 8001860:	e000      	b.n	8001864 <HAL_DMA_Abort_IT+0xa4>
 8001862:	2301      	movs	r3, #1
 8001864:	4a11      	ldr	r2, [pc, #68]	@ (80018ac <HAL_DMA_Abort_IT+0xec>)
 8001866:	6053      	str	r3, [r2, #4]
 8001868:	687b      	ldr	r3, [r7, #4]
 800186a:	2201      	movs	r2, #1
 800186c:	f883 2021 	strb.w	r2, [r3, #33]	@ 0x21
 8001870:	687b      	ldr	r3, [r7, #4]
 8001872:	2200      	movs	r2, #0
 8001874:	f883 2020 	strb.w	r2, [r3, #32]
 8001878:	687b      	ldr	r3, [r7, #4]
 800187a:	6b5b      	ldr	r3, [r3, #52]	@ 0x34
 800187c:	2b00      	cmp	r3, #0
 800187e:	d003      	beq.n	8001888 <HAL_DMA_Abort_IT+0xc8>
 8001880:	687b      	ldr	r3, [r7, #4]
 8001882:	6b5b      	ldr	r3, [r3, #52]	@ 0x34
 8001884:	6878      	ldr	r0, [r7, #4]
 8001886:	4798      	blx	r3
 8001888:	7bfb      	ldrb	r3, [r7, #15]
 800188a:	4618      	mov	r0, r3
 800188c:	3710      	adds	r7, #16
 800188e:	46bd      	mov	sp, r7
 8001890:	bd80      	pop	{r7, pc}
 8001892:	bf00      	nop
 8001894:	40020008 	.word	0x40020008
 8001898:	4002001c 	.word	0x4002001c
 800189c:	40020030 	.word	0x40020030
 80018a0:	40020044 	.word	0x40020044
 80018a4:	40020058 	.word	0x40020058
 80018a8:	4002006c 	.word	0x4002006c
 80018ac:	40020000 	.word	0x40020000

080018b0 <HAL_DMA_IRQHandler>:
 80018b0:	b580      	push	{r7, lr}
 80018b2:	b084      	sub	sp, #16
 80018b4:	af00      	add	r7, sp, #0
 80018b6:	6078      	str	r0, [r7, #4]
 80018b8:	687b      	ldr	r3, [r7, #4]
 80018ba:	6bdb      	ldr	r3, [r3, #60]	@ 0x3c
 80018bc:	681b      	ldr	r3, [r3, #0]
 80018be:	60fb      	str	r3, [r7, #12]
 80018c0:	687b      	ldr	r3, [r7, #4]
 80018c2:	681b      	ldr	r3, [r3, #0]
 80018c4:	681b      	ldr	r3, [r3, #0]
 80018c6:	60bb      	str	r3, [r7, #8]
 80018c8:	687b      	ldr	r3, [r7, #4]
 80018ca:	6c1b      	ldr	r3, [r3, #64]	@ 0x40
 80018cc:	2204      	movs	r2, #4
 80018ce:	409a      	lsls	r2, r3
 80018d0:	68fb      	ldr	r3, [r7, #12]
 80018d2:	4013      	ands	r3, r2
 80018d4:	2b00      	cmp	r3, #0
 80018d6:	d04f      	beq.n	8001978 <HAL_DMA_IRQHandler+0xc8>
 80018d8:	68bb      	ldr	r3, [r7, #8]
 80018da:	f003 0304 	and.w	r3, r3, #4
 80018de:	2b00      	cmp	r3, #0
 80018e0:	d04a      	beq.n	8001978 <HAL_DMA_IRQHandler+0xc8>
 80018e2:	687b      	ldr	r3, [r7, #4]
 80018e4:	681b      	ldr	r3, [r3, #0]
 80018e6:	681b      	ldr	r3, [r3, #0]
 80018e8:	f003 0320 	and.w	r3, r3, #32
 80018ec:	2b00      	cmp	r3, #0
 80018ee:	d107      	bne.n	8001900 <HAL_DMA_IRQHandler+0x50>
 80018f0:	687b      	ldr	r3, [r7, #4]
 80018f2:	681b      	ldr	r3, [r3, #0]
 80018f4:	681a      	ldr	r2, [r3, #0]
 80018f6:	687b      	ldr	r3, [r7, #4]
 80018f8:	681b      	ldr	r3, [r3, #0]
 80018fa:	f022 0204 	bic.w	r2, r2, #4
 80018fe:	601a      	str	r2, [r3, #0]
 8001900:	687b      	ldr	r3, [r7, #4]
 8001902:	681b      	ldr	r3, [r3, #0]
 8001904:	4a66      	ldr	r2, [pc, #408]	@ (8001aa0 <HAL_DMA_IRQHandler+0x1f0>)
 8001906:	4293      	cmp	r3, r2
 8001908:	d029      	beq.n	800195e <HAL_DMA_IRQHandler+0xae>
 800190a:	687b      	ldr	r3, [r7, #4]
 800190c:	681b      	ldr	r3, [r3, #0]
 800190e:	4a65      	ldr	r2, [pc, #404]	@ (8001aa4 <HAL_DMA_IRQHandler+0x1f4>)
 8001910:	4293      	cmp	r3, r2
 8001912:	d022      	beq.n	800195a <HAL_DMA_IRQHandler+0xaa>
 8001914:	687b      	ldr	r3, [r7, #4]
 8001916:	681b      	ldr	r3, [r3, #0]
 8001918:	4a63      	ldr	r2, [pc, #396]	@ (8001aa8 <HAL_DMA_IRQHandler+0x1f8>)
 800191a:	4293      	cmp	r3, r2
 800191c:	d01a      	beq.n	8001954 <HAL_DMA_IRQHandler+0xa4>
 800191e:	687b      	ldr	r3, [r7, #4]
 8001920:	681b      	ldr	r3, [r3, #0]
 8001922:	4a62      	ldr	r2, [pc, #392]	@ (8001aac <HAL_DMA_IRQHandler+0x1fc>)
 8001924:	4293      	cmp	r3, r2
 8001926:	d012      	beq.n	800194e <HAL_DMA_IRQHandler+0x9e>
 8001928:	687b      	ldr	r3, [r7, #4]
 800192a:	681b      	ldr	r3, [r3, #0]
 800192c:	4a60      	ldr	r2, [pc, #384]	@ (8001ab0 <HAL_DMA_IRQHandler+0x200>)
 800192e:	4293      	cmp	r3, r2
 8001930:	d00a      	beq.n	8001948 <HAL_DMA_IRQHandler+0x98>
 8001932:	687b      	ldr	r3, [r7, #4]
 8001934:	681b      	ldr	r3, [r3, #0]
 8001936:	4a5f      	ldr	r2, [pc, #380]	@ (8001ab4 <HAL_DMA_IRQHandler+0x204>)
 8001938:	4293      	cmp	r3, r2
 800193a:	d102      	bne.n	8001942 <HAL_DMA_IRQHandler+0x92>
 800193c:	f44f 0380 	mov.w	r3, #4194304	@ 0x400000
 8001940:	e00e      	b.n	8001960 <HAL_DMA_IRQHandler+0xb0>
 8001942:	f04f 6380 	mov.w	r3, #67108864	@ 0x4000000
 8001946:	e00b      	b.n	8001960 <HAL_DMA_IRQHandler+0xb0>
 8001948:	f44f 2380 	mov.w	r3, #262144	@ 0x40000
 800194c:	e008      	b.n	8001960 <HAL_DMA_IRQHandler+0xb0>
 800194e:	f44f 4380 	mov.w	r3, #16384	@ 0x4000
 8001952:	e005      	b.n	8001960 <HAL_DMA_IRQHandler+0xb0>
 8001954:	f44f 6380 	mov.w	r3, #1024	@ 0x400
 8001958:	e002      	b.n	8001960 <HAL_DMA_IRQHandler+0xb0>
 800195a:	2340      	movs	r3, #64	@ 0x40
 800195c:	e000      	b.n	8001960 <HAL_DMA_IRQHandler+0xb0>
 800195e:	2304      	movs	r3, #4
 8001960:	4a55      	ldr	r2, [pc, #340]	@ (8001ab8 <HAL_DMA_IRQHandler+0x208>)
 8001962:	6053      	str	r3, [r2, #4]
 8001964:	687b      	ldr	r3, [r7, #4]
 8001966:	6adb      	ldr	r3, [r3, #44]	@ 0x2c
 8001968:	2b00      	cmp	r3, #0
 800196a:	f000 8094 	beq.w	8001a96 <HAL_DMA_IRQHandler+0x1e6>
 800196e:	687b      	ldr	r3, [r7, #4]
 8001970:	6adb      	ldr	r3, [r3, #44]	@ 0x2c
 8001972:	6878      	ldr	r0, [r7, #4]
 8001974:	4798      	blx	r3
 8001976:	e08e      	b.n	8001a96 <HAL_DMA_IRQHandler+0x1e6>
 8001978:	687b      	ldr	r3, [r7, #4]
 800197a:	6c1b      	ldr	r3, [r3, #64]	@ 0x40
 800197c:	2202      	movs	r2, #2
 800197e:	409a      	lsls	r2, r3
 8001980:	68fb      	ldr	r3, [r7, #12]
 8001982:	4013      	ands	r3, r2
 8001984:	2b00      	cmp	r3, #0
 8001986:	d056      	beq.n	8001a36 <HAL_DMA_IRQHandler+0x186>
 8001988:	68bb      	ldr	r3, [r7, #8]
 800198a:	f003 0302 	and.w	r3, r3, #2
 800198e:	2b00      	cmp	r3, #0
 8001990:	d051      	beq.n	8001a36 <HAL_DMA_IRQHandler+0x186>
 8001992:	687b      	ldr	r3, [r7, #4]
 8001994:	681b      	ldr	r3, [r3, #0]
 8001996:	681b      	ldr	r3, [r3, #0]
 8001998:	f003 0320 	and.w	r3, r3, #32
 800199c:	2b00      	cmp	r3, #0
 800199e:	d10b      	bne.n	80019b8 <HAL_DMA_IRQHandler+0x108>
 80019a0:	687b      	ldr	r3, [r7, #4]
 80019a2:	681b      	ldr	r3, [r3, #0]
 80019a4:	681a      	ldr	r2, [r3, #0]
 80019a6:	687b      	ldr	r3, [r7, #4]
 80019a8:	681b      	ldr	r3, [r3, #0]
 80019aa:	f022 020a 	bic.w	r2, r2, #10
 80019ae:	601a      	str	r2, [r3, #0]
 80019b0:	687b      	ldr	r3, [r7, #4]
 80019b2:	2201      	movs	r2, #1
 80019b4:	f883 2021 	strb.w	r2, [r3, #33]	@ 0x21
 80019b8:	687b      	ldr	r3, [r7, #4]
 80019ba:	681b      	ldr	r3, [r3, #0]
 80019bc:	4a38      	ldr	r2, [pc, #224]	@ (8001aa0 <HAL_DMA_IRQHandler+0x1f0>)
 80019be:	4293      	cmp	r3, r2
 80019c0:	d029      	beq.n	8001a16 <HAL_DMA_IRQHandler+0x166>
 80019c2:	687b      	ldr	r3, [r7, #4]
 80019c4:	681b      	ldr	r3, [r3, #0]
 80019c6:	4a37      	ldr	r2, [pc, #220]	@ (8001aa4 <HAL_DMA_IRQHandler+0x1f4>)
 80019c8:	4293      	cmp	r3, r2
 80019ca:	d022      	beq.n	8001a12 <HAL_DMA_IRQHandler+0x162>
 80019cc:	687b      	ldr	r3, [r7, #4]
 80019ce:	681b      	ldr	r3, [r3, #0]
 80019d0:	4a35      	ldr	r2, [pc, #212]	@ (8001aa8 <HAL_DMA_IRQHandler+0x1f8>)
 80019d2:	4293      	cmp	r3, r2
 80019d4:	d01a      	beq.n	8001a0c <HAL_DMA_IRQHandler+0x15c>
 80019d6:	687b      	ldr	r3, [r7, #4]
 80019d8:	681b      	ldr	r3, [r3, #0]
 80019da:	4a34      	ldr	r2, [pc, #208]	@ (8001aac <HAL_DMA_IRQHandler+0x1fc>)
 80019dc:	4293      	cmp	r3, r2
 80019de:	d012      	beq.n	8001a06 <HAL_DMA_IRQHandler+0x156>
 80019e0:	687b      	ldr	r3, [r7, #4]
 80019e2:	681b      	ldr	r3, [r3, #0]
 80019e4:	4a32      	ldr	r2, [pc, #200]	@ (8001ab0 <HAL_DMA_IRQHandler+0x200>)
 80019e6:	4293      	cmp	r3, r2
 80019e8:	d00a      	beq.n	8001a00 <HAL_DMA_IRQHandler+0x150>
 80019ea:	687b      	ldr	r3, [r7, #4]
 80019ec:	681b      	ldr	r3, [r3, #0]
 80019ee:	4a31      	ldr	r2, [pc, #196]	@ (8001ab4 <HAL_DMA_IRQHandler+0x204>)
 80019f0:	4293      	cmp	r3, r2
 80019f2:	d102      	bne.n	80019fa <HAL_DMA_IRQHandler+0x14a>
 80019f4:	f44f 1300 	mov.w	r3, #2097152	@ 0x200000
 80019f8:	e00e      	b.n	8001a18 <HAL_DMA_IRQHandler+0x168>
 80019fa:	f04f 7300 	mov.w	r3, #33554432	@ 0x2000000
 80019fe:	e00b      	b.n	8001a18 <HAL_DMA_IRQHandler+0x168>
 8001a00:	f44f 3300 	mov.w	r3, #131072	@ 0x20000
 8001a04:	e008      	b.n	8001a18 <HAL_DMA_IRQHandler+0x168>
 8001a06:	f44f 5300 	mov.w	r3, #8192	@ 0x2000
 8001a0a:	e005      	b.n	8001a18 <HAL_DMA_IRQHandler+0x168>
 8001a0c:	f44f 7300 	mov.w	r3, #512	@ 0x200
 8001a10:	e002      	b.n	8001a18 <HAL_DMA_IRQHandler+0x168>
 8001a12:	2320      	movs	r3, #32
 8001a14:	e000      	b.n	8001a18 <HAL_DMA_IRQHandler+0x168>
 8001a16:	2302      	movs	r3, #2
 8001a18:	4a27      	ldr	r2, [pc, #156]	@ (8001ab8 <HAL_DMA_IRQHandler+0x208>)
 8001a1a:	6053      	str	r3, [r2, #4]
 8001a1c:	687b      	ldr	r3, [r7, #4]
 8001a1e:	2200      	movs	r2, #0
 8001a20:	f883 2020 	strb.w	r2, [r3, #32]
 8001a24:	687b      	ldr	r3, [r7, #4]
 8001a26:	6a9b      	ldr	r3, [r3, #40]	@ 0x28
 8001a28:	2b00      	cmp	r3, #0
 8001a2a:	d034      	beq.n	8001a96 <HAL_DMA_IRQHandler+0x1e6>
 8001a2c:	687b      	ldr	r3, [r7, #4]
 8001a2e:	6a9b      	ldr	r3, [r3, #40]	@ 0x28
 8001a30:	6878      	ldr	r0, [r7, #4]
 8001a32:	4798      	blx	r3
 8001a34:	e02f      	b.n	8001a96 <HAL_DMA_IRQHandler+0x1e6>
 8001a36:	687b      	ldr	r3, [r7, #4]
 8001a38:	6c1b      	ldr	r3, [r3, #64]	@ 0x40
 8001a3a:	2208      	movs	r2, #8
 8001a3c:	409a      	lsls	r2, r3
 8001a3e:	68fb      	ldr	r3, [r7, #12]
 8001a40:	4013      	ands	r3, r2
 8001a42:	2b00      	cmp	r3, #0
 8001a44:	d028      	beq.n	8001a98 <HAL_DMA_IRQHandler+0x1e8>
 8001a46:	68bb      	ldr	r3, [r7, #8]
 8001a48:	f003 0308 	and.w	r3, r3, #8
 8001a4c:	2b00      	cmp	r3, #0
 8001a4e:	d023      	beq.n	8001a98 <HAL_DMA_IRQHandler+0x1e8>
 8001a50:	687b      	ldr	r3, [r7, #4]
 8001a52:	681b      	ldr	r3, [r3, #0]
 8001a54:	681a      	ldr	r2, [r3, #0]
 8001a56:	687b      	ldr	r3, [r7, #4]
 8001a58:	681b      	ldr	r3, [r3, #0]
 8001a5a:	f022 020e 	bic.w	r2, r2, #14
 8001a5e:	601a      	str	r2, [r3, #0]
 8001a60:	687b      	ldr	r3, [r7, #4]
 8001a62:	6c1a      	ldr	r2, [r3, #64]	@ 0x40
 8001a64:	687b      	ldr	r3, [r7, #4]
 8001a66:	6bdb      	ldr	r3, [r3, #60]	@ 0x3c
 8001a68:	2101      	movs	r1, #1
 8001a6a:	fa01 f202 	lsl.w	r2, r1, r2
 8001a6e:	605a      	str	r2, [r3, #4]
 8001a70:	687b      	ldr	r3, [r7, #4]
 8001a72:	2201      	movs	r2, #1
 8001a74:	639a      	str	r2, [r3, #56]	@ 0x38
 8001a76:	687b      	ldr	r3, [r7, #4]
 8001a78:	2201      	movs	r2, #1
 8001a7a:	f883 2021 	strb.w	r2, [r3, #33]	@ 0x21
 8001a7e:	687b      	ldr	r3, [r7, #4]
 8001a80:	2200      	movs	r2, #0
 8001a82:	f883 2020 	strb.w	r2, [r3, #32]
 8001a86:	687b      	ldr	r3, [r7, #4]
 8001a88:	6b1b      	ldr	r3, [r3, #48]	@ 0x30
 8001a8a:	2b00      	cmp	r3, #0
 8001a8c:	d004      	beq.n	8001a98 <HAL_DMA_IRQHandler+0x1e8>
 8001a8e:	687b      	ldr	r3, [r7, #4]
 8001a90:	6b1b      	ldr	r3, [r3, #48]	@ 0x30
 8001a92:	6878      	ldr	r0, [r7, #4]
 8001a94:	4798      	blx	r3
 8001a96:	bf00      	nop
 8001a98:	bf00      	nop
 8001a9a:	3710      	adds	r7, #16
 8001a9c:	46bd      	mov	sp, r7
 8001a9e:	bd80      	pop	{r7, pc}
 8001aa0:	40020008 	.word	0x40020008
 8001aa4:	4002001c 	.word	0x4002001c
 8001aa8:	40020030 	.word	0x40020030
 8001aac:	40020044 	.word	0x40020044
 8001ab0:	40020058 	.word	0x40020058
 8001ab4:	4002006c 	.word	0x4002006c
 8001ab8:	40020000 	.word	0x40020000

08001abc <DMA_SetConfig>:
 8001abc:	b480      	push	{r7}
 8001abe:	b085      	sub	sp, #20
 8001ac0:	af00      	add	r7, sp, #0
 8001ac2:	60f8      	str	r0, [r7, #12]
 8001ac4:	60b9      	str	r1, [r7, #8]
 8001ac6:	607a      	str	r2, [r7, #4]
 8001ac8:	603b      	str	r3, [r7, #0]
 8001aca:	68fb      	ldr	r3, [r7, #12]
 8001acc:	6c1a      	ldr	r2, [r3, #64]	@ 0x40
 8001ace:	68fb      	ldr	r3, [r7, #12]
 8001ad0:	6bdb      	ldr	r3, [r3, #60]	@ 0x3c
 8001ad2:	2101      	movs	r1, #1
 8001ad4:	fa01 f202 	lsl.w	r2, r1, r2
 8001ad8:	605a      	str	r2, [r3, #4]
 8001ada:	68fb      	ldr	r3, [r7, #12]
 8001adc:	681b      	ldr	r3, [r3, #0]
 8001ade:	683a      	ldr	r2, [r7, #0]
 8001ae0:	605a      	str	r2, [r3, #4]
 8001ae2:	68fb      	ldr	r3, [r7, #12]
 8001ae4:	685b      	ldr	r3, [r3, #4]
 8001ae6:	2b10      	cmp	r3, #16
 8001ae8:	d108      	bne.n	8001afc <DMA_SetConfig+0x40>
 8001aea:	68fb      	ldr	r3, [r7, #12]
 8001aec:	681b      	ldr	r3, [r3, #0]
 8001aee:	687a      	ldr	r2, [r7, #4]
 8001af0:	609a      	str	r2, [r3, #8]
 8001af2:	68fb      	ldr	r3, [r7, #12]
 8001af4:	681b      	ldr	r3, [r3, #0]
 8001af6:	68ba      	ldr	r2, [r7, #8]
 8001af8:	60da      	str	r2, [r3, #12]
 8001afa:	e007      	b.n	8001b0c <DMA_SetConfig+0x50>
 8001afc:	68fb      	ldr	r3, [r7, #12]
 8001afe:	681b      	ldr	r3, [r3, #0]
 8001b00:	68ba      	ldr	r2, [r7, #8]
 8001b02:	609a      	str	r2, [r3, #8]
 8001b04:	68fb      	ldr	r3, [r7, #12]
 8001b06:	681b      	ldr	r3, [r3, #0]
 8001b08:	687a      	ldr	r2, [r7, #4]
 8001b0a:	60da      	str	r2, [r3, #12]
 8001b0c:	bf00      	nop
 8001b0e:	3714      	adds	r7, #20
 8001b10:	46bd      	mov	sp, r7
 8001b12:	bc80      	pop	{r7}
 8001b14:	4770      	bx	lr
	...

08001b18 <HAL_GPIO_Init>:
 8001b18:	b480      	push	{r7}
 8001b1a:	b08b      	sub	sp, #44	@ 0x2c
 8001b1c:	af00      	add	r7, sp, #0
 8001b1e:	6078      	str	r0, [r7, #4]
 8001b20:	6039      	str	r1, [r7, #0]
 8001b22:	2300      	movs	r3, #0
 8001b24:	627b      	str	r3, [r7, #36]	@ 0x24
 8001b26:	2300      	movs	r3, #0
 8001b28:	623b      	str	r3, [r7, #32]
 8001b2a:	e161      	b.n	8001df0 <HAL_GPIO_Init+0x2d8>
 8001b2c:	2201      	movs	r2, #1
 8001b2e:	6a7b      	ldr	r3, [r7, #36]	@ 0x24
 8001b30:	fa02 f303 	lsl.w	r3, r2, r3
 8001b34:	61fb      	str	r3, [r7, #28]
 8001b36:	683b      	ldr	r3, [r7, #0]
 8001b38:	681b      	ldr	r3, [r3, #0]
 8001b3a:	69fa      	ldr	r2, [r7, #28]
 8001b3c:	4013      	ands	r3, r2
 8001b3e:	61bb      	str	r3, [r7, #24]
 8001b40:	69ba      	ldr	r2, [r7, #24]
 8001b42:	69fb      	ldr	r3, [r7, #28]
 8001b44:	429a      	cmp	r2, r3
 8001b46:	f040 8150 	bne.w	8001dea <HAL_GPIO_Init+0x2d2>
 8001b4a:	683b      	ldr	r3, [r7, #0]
 8001b4c:	685b      	ldr	r3, [r3, #4]
 8001b4e:	4a97      	ldr	r2, [pc, #604]	@ (8001dac <HAL_GPIO_Init+0x294>)
 8001b50:	4293      	cmp	r3, r2
 8001b52:	d05e      	beq.n	8001c12 <HAL_GPIO_Init+0xfa>
 8001b54:	4a95      	ldr	r2, [pc, #596]	@ (8001dac <HAL_GPIO_Init+0x294>)
 8001b56:	4293      	cmp	r3, r2
 8001b58:	d875      	bhi.n	8001c46 <HAL_GPIO_Init+0x12e>
 8001b5a:	4a95      	ldr	r2, [pc, #596]	@ (8001db0 <HAL_GPIO_Init+0x298>)
 8001b5c:	4293      	cmp	r3, r2
 8001b5e:	d058      	beq.n	8001c12 <HAL_GPIO_Init+0xfa>
 8001b60:	4a93      	ldr	r2, [pc, #588]	@ (8001db0 <HAL_GPIO_Init+0x298>)
 8001b62:	4293      	cmp	r3, r2
 8001b64:	d86f      	bhi.n	8001c46 <HAL_GPIO_Init+0x12e>
 8001b66:	4a93      	ldr	r2, [pc, #588]	@ (8001db4 <HAL_GPIO_Init+0x29c>)
 8001b68:	4293      	cmp	r3, r2
 8001b6a:	d052      	beq.n	8001c12 <HAL_GPIO_Init+0xfa>
 8001b6c:	4a91      	ldr	r2, [pc, #580]	@ (8001db4 <HAL_GPIO_Init+0x29c>)
 8001b6e:	4293      	cmp	r3, r2
 8001b70:	d869      	bhi.n	8001c46 <HAL_GPIO_Init+0x12e>
 8001b72:	4a91      	ldr	r2, [pc, #580]	@ (8001db8 <HAL_GPIO_Init+0x2a0>)
 8001b74:	4293      	cmp	r3, r2
 8001b76:	d04c      	beq.n	8001c12 <HAL_GPIO_Init+0xfa>
 8001b78:	4a8f      	ldr	r2, [pc, #572]	@ (8001db8 <HAL_GPIO_Init+0x2a0>)
 8001b7a:	4293      	cmp	r3, r2
 8001b7c:	d863      	bhi.n	8001c46 <HAL_GPIO_Init+0x12e>
 8001b7e:	4a8f      	ldr	r2, [pc, #572]	@ (8001dbc <HAL_GPIO_Init+0x2a4>)
 8001b80:	4293      	cmp	r3, r2
 8001b82:	d046      	beq.n	8001c12 <HAL_GPIO_Init+0xfa>
 8001b84:	4a8d      	ldr	r2, [pc, #564]	@ (8001dbc <HAL_GPIO_Init+0x2a4>)
 8001b86:	4293      	cmp	r3, r2
 8001b88:	d85d      	bhi.n	8001c46 <HAL_GPIO_Init+0x12e>
 8001b8a:	2b12      	cmp	r3, #18
 8001b8c:	d82a      	bhi.n	8001be4 <HAL_GPIO_Init+0xcc>
 8001b8e:	2b12      	cmp	r3, #18
 8001b90:	d859      	bhi.n	8001c46 <HAL_GPIO_Init+0x12e>
 8001b92:	a201      	add	r2, pc, #4	@ (adr r2, 8001b98 <HAL_GPIO_Init+0x80>)
 8001b94:	f852 f023 	ldr.w	pc, [r2, r3, lsl #2]
 8001b98:	08001c13 	.word	0x08001c13
 8001b9c:	08001bed 	.word	0x08001bed
 8001ba0:	08001bff 	.word	0x08001bff
 8001ba4:	08001c41 	.word	0x08001c41
 8001ba8:	08001c47 	.word	0x08001c47
 8001bac:	08001c47 	.word	0x08001c47
 8001bb0:	08001c47 	.word	0x08001c47
 8001bb4:	08001c47 	.word	0x08001c47
 8001bb8:	08001c47 	.word	0x08001c47
 8001bbc:	08001c47 	.word	0x08001c47
 8001bc0:	08001c47 	.word	0x08001c47
 8001bc4:	08001c47 	.word	0x08001c47
 8001bc8:	08001c47 	.word	0x08001c47
 8001bcc:	08001c47 	.word	0x08001c47
 8001bd0:	08001c47 	.word	0x08001c47
 8001bd4:	08001c47 	.word	0x08001c47
 8001bd8:	08001c47 	.word	0x08001c47
 8001bdc:	08001bf5 	.word	0x08001bf5
 8001be0:	08001c09 	.word	0x08001c09
 8001be4:	4a76      	ldr	r2, [pc, #472]	@ (8001dc0 <HAL_GPIO_Init+0x2a8>)
 8001be6:	4293      	cmp	r3, r2
 8001be8:	d013      	beq.n	8001c12 <HAL_GPIO_Init+0xfa>
 8001bea:	e02c      	b.n	8001c46 <HAL_GPIO_Init+0x12e>
 8001bec:	683b      	ldr	r3, [r7, #0]
 8001bee:	68db      	ldr	r3, [r3, #12]
 8001bf0:	623b      	str	r3, [r7, #32]
 8001bf2:	e029      	b.n	8001c48 <HAL_GPIO_Init+0x130>
 8001bf4:	683b      	ldr	r3, [r7, #0]
 8001bf6:	68db      	ldr	r3, [r3, #12]
 8001bf8:	3304      	adds	r3, #4
 8001bfa:	623b      	str	r3, [r7, #32]
 8001bfc:	e024      	b.n	8001c48 <HAL_GPIO_Init+0x130>
 8001bfe:	683b      	ldr	r3, [r7, #0]
 8001c00:	68db      	ldr	r3, [r3, #12]
 8001c02:	3308      	adds	r3, #8
 8001c04:	623b      	str	r3, [r7, #32]
 8001c06:	e01f      	b.n	8001c48 <HAL_GPIO_Init+0x130>
 8001c08:	683b      	ldr	r3, [r7, #0]
 8001c0a:	68db      	ldr	r3, [r3, #12]
 8001c0c:	330c      	adds	r3, #12
 8001c0e:	623b      	str	r3, [r7, #32]
 8001c10:	e01a      	b.n	8001c48 <HAL_GPIO_Init+0x130>
 8001c12:	683b      	ldr	r3, [r7, #0]
 8001c14:	689b      	ldr	r3, [r3, #8]
 8001c16:	2b00      	cmp	r3, #0
 8001c18:	d102      	bne.n	8001c20 <HAL_GPIO_Init+0x108>
 8001c1a:	2304      	movs	r3, #4
 8001c1c:	623b      	str	r3, [r7, #32]
 8001c1e:	e013      	b.n	8001c48 <HAL_GPIO_Init+0x130>
 8001c20:	683b      	ldr	r3, [r7, #0]
 8001c22:	689b      	ldr	r3, [r3, #8]
 8001c24:	2b01      	cmp	r3, #1
 8001c26:	d105      	bne.n	8001c34 <HAL_GPIO_Init+0x11c>
 8001c28:	2308      	movs	r3, #8
 8001c2a:	623b      	str	r3, [r7, #32]
 8001c2c:	687b      	ldr	r3, [r7, #4]
 8001c2e:	69fa      	ldr	r2, [r7, #28]
 8001c30:	611a      	str	r2, [r3, #16]
 8001c32:	e009      	b.n	8001c48 <HAL_GPIO_Init+0x130>
 8001c34:	2308      	movs	r3, #8
 8001c36:	623b      	str	r3, [r7, #32]
 8001c38:	687b      	ldr	r3, [r7, #4]
 8001c3a:	69fa      	ldr	r2, [r7, #28]
 8001c3c:	615a      	str	r2, [r3, #20]
 8001c3e:	e003      	b.n	8001c48 <HAL_GPIO_Init+0x130>
 8001c40:	2300      	movs	r3, #0
 8001c42:	623b      	str	r3, [r7, #32]
 8001c44:	e000      	b.n	8001c48 <HAL_GPIO_Init+0x130>
 8001c46:	bf00      	nop
 8001c48:	69bb      	ldr	r3, [r7, #24]
 8001c4a:	2bff      	cmp	r3, #255	@ 0xff
 8001c4c:	d801      	bhi.n	8001c52 <HAL_GPIO_Init+0x13a>
 8001c4e:	687b      	ldr	r3, [r7, #4]
 8001c50:	e001      	b.n	8001c56 <HAL_GPIO_Init+0x13e>
 8001c52:	687b      	ldr	r3, [r7, #4]
 8001c54:	3304      	adds	r3, #4
 8001c56:	617b      	str	r3, [r7, #20]
 8001c58:	69bb      	ldr	r3, [r7, #24]
 8001c5a:	2bff      	cmp	r3, #255	@ 0xff
 8001c5c:	d802      	bhi.n	8001c64 <HAL_GPIO_Init+0x14c>
 8001c5e:	6a7b      	ldr	r3, [r7, #36]	@ 0x24
 8001c60:	009b      	lsls	r3, r3, #2
 8001c62:	e002      	b.n	8001c6a <HAL_GPIO_Init+0x152>
 8001c64:	6a7b      	ldr	r3, [r7, #36]	@ 0x24
 8001c66:	3b08      	subs	r3, #8
 8001c68:	009b      	lsls	r3, r3, #2
 8001c6a:	613b      	str	r3, [r7, #16]
 8001c6c:	697b      	ldr	r3, [r7, #20]
 8001c6e:	681a      	ldr	r2, [r3, #0]
 8001c70:	210f      	movs	r1, #15
 8001c72:	693b      	ldr	r3, [r7, #16]
 8001c74:	fa01 f303 	lsl.w	r3, r1, r3
 8001c78:	43db      	mvns	r3, r3
 8001c7a:	401a      	ands	r2, r3
 8001c7c:	6a39      	ldr	r1, [r7, #32]
 8001c7e:	693b      	ldr	r3, [r7, #16]
 8001c80:	fa01 f303 	lsl.w	r3, r1, r3
 8001c84:	431a      	orrs	r2, r3
 8001c86:	697b      	ldr	r3, [r7, #20]
 8001c88:	601a      	str	r2, [r3, #0]
 8001c8a:	683b      	ldr	r3, [r7, #0]
 8001c8c:	685b      	ldr	r3, [r3, #4]
 8001c8e:	f003 5380 	and.w	r3, r3, #268435456	@ 0x10000000
 8001c92:	2b00      	cmp	r3, #0
 8001c94:	f000 80a9 	beq.w	8001dea <HAL_GPIO_Init+0x2d2>
 8001c98:	4b4a      	ldr	r3, [pc, #296]	@ (8001dc4 <HAL_GPIO_Init+0x2ac>)
 8001c9a:	699b      	ldr	r3, [r3, #24]
 8001c9c:	4a49      	ldr	r2, [pc, #292]	@ (8001dc4 <HAL_GPIO_Init+0x2ac>)
 8001c9e:	f043 0301 	orr.w	r3, r3, #1
 8001ca2:	6193      	str	r3, [r2, #24]
 8001ca4:	4b47      	ldr	r3, [pc, #284]	@ (8001dc4 <HAL_GPIO_Init+0x2ac>)
 8001ca6:	699b      	ldr	r3, [r3, #24]
 8001ca8:	f003 0301 	and.w	r3, r3, #1
 8001cac:	60bb      	str	r3, [r7, #8]
 8001cae:	68bb      	ldr	r3, [r7, #8]
 8001cb0:	4a45      	ldr	r2, [pc, #276]	@ (8001dc8 <HAL_GPIO_Init+0x2b0>)
 8001cb2:	6a7b      	ldr	r3, [r7, #36]	@ 0x24
 8001cb4:	089b      	lsrs	r3, r3, #2
 8001cb6:	3302      	adds	r3, #2
 8001cb8:	f852 3023 	ldr.w	r3, [r2, r3, lsl #2]
 8001cbc:	60fb      	str	r3, [r7, #12]
 8001cbe:	6a7b      	ldr	r3, [r7, #36]	@ 0x24
 8001cc0:	f003 0303 	and.w	r3, r3, #3
 8001cc4:	009b      	lsls	r3, r3, #2
 8001cc6:	220f      	movs	r2, #15
 8001cc8:	fa02 f303 	lsl.w	r3, r2, r3
 8001ccc:	43db      	mvns	r3, r3
 8001cce:	68fa      	ldr	r2, [r7, #12]
 8001cd0:	4013      	ands	r3, r2
 8001cd2:	60fb      	str	r3, [r7, #12]
 8001cd4:	687b      	ldr	r3, [r7, #4]
 8001cd6:	4a3d      	ldr	r2, [pc, #244]	@ (8001dcc <HAL_GPIO_Init+0x2b4>)
 8001cd8:	4293      	cmp	r3, r2
 8001cda:	d00d      	beq.n	8001cf8 <HAL_GPIO_Init+0x1e0>
 8001cdc:	687b      	ldr	r3, [r7, #4]
 8001cde:	4a3c      	ldr	r2, [pc, #240]	@ (8001dd0 <HAL_GPIO_Init+0x2b8>)
 8001ce0:	4293      	cmp	r3, r2
 8001ce2:	d007      	beq.n	8001cf4 <HAL_GPIO_Init+0x1dc>
 8001ce4:	687b      	ldr	r3, [r7, #4]
 8001ce6:	4a3b      	ldr	r2, [pc, #236]	@ (8001dd4 <HAL_GPIO_Init+0x2bc>)
 8001ce8:	4293      	cmp	r3, r2
 8001cea:	d101      	bne.n	8001cf0 <HAL_GPIO_Init+0x1d8>
 8001cec:	2302      	movs	r3, #2
 8001cee:	e004      	b.n	8001cfa <HAL_GPIO_Init+0x1e2>
 8001cf0:	2303      	movs	r3, #3
 8001cf2:	e002      	b.n	8001cfa <HAL_GPIO_Init+0x1e2>
 8001cf4:	2301      	movs	r3, #1
 8001cf6:	e000      	b.n	8001cfa <HAL_GPIO_Init+0x1e2>
 8001cf8:	2300      	movs	r3, #0
 8001cfa:	6a7a      	ldr	r2, [r7, #36]	@ 0x24
 8001cfc:	f002 0203 	and.w	r2, r2, #3
 8001d00:	0092      	lsls	r2, r2, #2
 8001d02:	4093      	lsls	r3, r2
 8001d04:	68fa      	ldr	r2, [r7, #12]
 8001d06:	4313      	orrs	r3, r2
 8001d08:	60fb      	str	r3, [r7, #12]
 8001d0a:	492f      	ldr	r1, [pc, #188]	@ (8001dc8 <HAL_GPIO_Init+0x2b0>)
 8001d0c:	6a7b      	ldr	r3, [r7, #36]	@ 0x24
 8001d0e:	089b      	lsrs	r3, r3, #2
 8001d10:	3302      	adds	r3, #2
 8001d12:	68fa      	ldr	r2, [r7, #12]
 8001d14:	f841 2023 	str.w	r2, [r1, r3, lsl #2]
 8001d18:	683b      	ldr	r3, [r7, #0]
 8001d1a:	685b      	ldr	r3, [r3, #4]
 8001d1c:	f403 1380 	and.w	r3, r3, #1048576	@ 0x100000
 8001d20:	2b00      	cmp	r3, #0
 8001d22:	d006      	beq.n	8001d32 <HAL_GPIO_Init+0x21a>
 8001d24:	4b2c      	ldr	r3, [pc, #176]	@ (8001dd8 <HAL_GPIO_Init+0x2c0>)
 8001d26:	689a      	ldr	r2, [r3, #8]
 8001d28:	492b      	ldr	r1, [pc, #172]	@ (8001dd8 <HAL_GPIO_Init+0x2c0>)
 8001d2a:	69bb      	ldr	r3, [r7, #24]
 8001d2c:	4313      	orrs	r3, r2
 8001d2e:	608b      	str	r3, [r1, #8]
 8001d30:	e006      	b.n	8001d40 <HAL_GPIO_Init+0x228>
 8001d32:	4b29      	ldr	r3, [pc, #164]	@ (8001dd8 <HAL_GPIO_Init+0x2c0>)
 8001d34:	689a      	ldr	r2, [r3, #8]
 8001d36:	69bb      	ldr	r3, [r7, #24]
 8001d38:	43db      	mvns	r3, r3
 8001d3a:	4927      	ldr	r1, [pc, #156]	@ (8001dd8 <HAL_GPIO_Init+0x2c0>)
 8001d3c:	4013      	ands	r3, r2
 8001d3e:	608b      	str	r3, [r1, #8]
 8001d40:	683b      	ldr	r3, [r7, #0]
 8001d42:	685b      	ldr	r3, [r3, #4]
 8001d44:	f403 1300 	and.w	r3, r3, #2097152	@ 0x200000
 8001d48:	2b00      	cmp	r3, #0
 8001d4a:	d006      	beq.n	8001d5a <HAL_GPIO_Init+0x242>
 8001d4c:	4b22      	ldr	r3, [pc, #136]	@ (8001dd8 <HAL_GPIO_Init+0x2c0>)
 8001d4e:	68da      	ldr	r2, [r3, #12]
 8001d50:	4921      	ldr	r1, [pc, #132]	@ (8001dd8 <HAL_GPIO_Init+0x2c0>)
 8001d52:	69bb      	ldr	r3, [r7, #24]
 8001d54:	4313      	orrs	r3, r2
 8001d56:	60cb      	str	r3, [r1, #12]
 8001d58:	e006      	b.n	8001d68 <HAL_GPIO_Init+0x250>
 8001d5a:	4b1f      	ldr	r3, [pc, #124]	@ (8001dd8 <HAL_GPIO_Init+0x2c0>)
 8001d5c:	68da      	ldr	r2, [r3, #12]
 8001d5e:	69bb      	ldr	r3, [r7, #24]
 8001d60:	43db      	mvns	r3, r3
 8001d62:	491d      	ldr	r1, [pc, #116]	@ (8001dd8 <HAL_GPIO_Init+0x2c0>)
 8001d64:	4013      	ands	r3, r2
 8001d66:	60cb      	str	r3, [r1, #12]
 8001d68:	683b      	ldr	r3, [r7, #0]
 8001d6a:	685b      	ldr	r3, [r3, #4]
 8001d6c:	f403 3300 	and.w	r3, r3, #131072	@ 0x20000
 8001d70:	2b00      	cmp	r3, #0
 8001d72:	d006      	beq.n	8001d82 <HAL_GPIO_Init+0x26a>
 8001d74:	4b18      	ldr	r3, [pc, #96]	@ (8001dd8 <HAL_GPIO_Init+0x2c0>)
 8001d76:	685a      	ldr	r2, [r3, #4]
 8001d78:	4917      	ldr	r1, [pc, #92]	@ (8001dd8 <HAL_GPIO_Init+0x2c0>)
 8001d7a:	69bb      	ldr	r3, [r7, #24]
 8001d7c:	4313      	orrs	r3, r2
 8001d7e:	604b      	str	r3, [r1, #4]
 8001d80:	e006      	b.n	8001d90 <HAL_GPIO_Init+0x278>
 8001d82:	4b15      	ldr	r3, [pc, #84]	@ (8001dd8 <HAL_GPIO_Init+0x2c0>)
 8001d84:	685a      	ldr	r2, [r3, #4]
 8001d86:	69bb      	ldr	r3, [r7, #24]
 8001d88:	43db      	mvns	r3, r3
 8001d8a:	4913      	ldr	r1, [pc, #76]	@ (8001dd8 <HAL_GPIO_Init+0x2c0>)
 8001d8c:	4013      	ands	r3, r2
 8001d8e:	604b      	str	r3, [r1, #4]
 8001d90:	683b      	ldr	r3, [r7, #0]
 8001d92:	685b      	ldr	r3, [r3, #4]
 8001d94:	f403 3380 	and.w	r3, r3, #65536	@ 0x10000
 8001d98:	2b00      	cmp	r3, #0
 8001d9a:	d01f      	beq.n	8001ddc <HAL_GPIO_Init+0x2c4>
 8001d9c:	4b0e      	ldr	r3, [pc, #56]	@ (8001dd8 <HAL_GPIO_Init+0x2c0>)
 8001d9e:	681a      	ldr	r2, [r3, #0]
 8001da0:	490d      	ldr	r1, [pc, #52]	@ (8001dd8 <HAL_GPIO_Init+0x2c0>)
 8001da2:	69bb      	ldr	r3, [r7, #24]
 8001da4:	4313      	orrs	r3, r2
 8001da6:	600b      	str	r3, [r1, #0]
 8001da8:	e01f      	b.n	8001dea <HAL_GPIO_Init+0x2d2>
 8001daa:	bf00      	nop
 8001dac:	10320000 	.word	0x10320000
 8001db0:	10310000 	.word	0x10310000
 8001db4:	10220000 	.word	0x10220000
 8001db8:	10210000 	.word	0x10210000
 8001dbc:	10120000 	.word	0x10120000
 8001dc0:	10110000 	.word	0x10110000
 8001dc4:	40021000 	.word	0x40021000
 8001dc8:	40010000 	.word	0x40010000
 8001dcc:	40010800 	.word	0x40010800
 8001dd0:	40010c00 	.word	0x40010c00
 8001dd4:	40011000 	.word	0x40011000
 8001dd8:	40010400 	.word	0x40010400
 8001ddc:	4b0b      	ldr	r3, [pc, #44]	@ (8001e0c <HAL_GPIO_Init+0x2f4>)
 8001dde:	681a      	ldr	r2, [r3, #0]
 8001de0:	69bb      	ldr	r3, [r7, #24]
 8001de2:	43db      	mvns	r3, r3
 8001de4:	4909      	ldr	r1, [pc, #36]	@ (8001e0c <HAL_GPIO_Init+0x2f4>)
 8001de6:	4013      	ands	r3, r2
 8001de8:	600b      	str	r3, [r1, #0]
 8001dea:	6a7b      	ldr	r3, [r7, #36]	@ 0x24
 8001dec:	3301      	adds	r3, #1
 8001dee:	627b      	str	r3, [r7, #36]	@ 0x24
 8001df0:	683b      	ldr	r3, [r7, #0]
 8001df2:	681a      	ldr	r2, [r3, #0]
 8001df4:	6a7b      	ldr	r3, [r7, #36]	@ 0x24
 8001df6:	fa22 f303 	lsr.w	r3, r2, r3
 8001dfa:	2b00      	cmp	r3, #0
 8001dfc:	f47f ae96 	bne.w	8001b2c <HAL_GPIO_Init+0x14>
 8001e00:	bf00      	nop
 8001e02:	bf00      	nop
 8001e04:	372c      	adds	r7, #44	@ 0x2c
 8001e06:	46bd      	mov	sp, r7
 8001e08:	bc80      	pop	{r7}
 8001e0a:	4770      	bx	lr
 8001e0c:	40010400 	.word	0x40010400

08001e10 <HAL_GPIO_WritePin>:
 8001e10:	b480      	push	{r7}
 8001e12:	b083      	sub	sp, #12
 8001e14:	af00      	add	r7, sp, #0
 8001e16:	6078      	str	r0, [r7, #4]
 8001e18:	460b      	mov	r3, r1
 8001e1a:	807b      	strh	r3, [r7, #2]
 8001e1c:	4613      	mov	r3, r2
 8001e1e:	707b      	strb	r3, [r7, #1]
 8001e20:	787b      	ldrb	r3, [r7, #1]
 8001e22:	2b00      	cmp	r3, #0
 8001e24:	d003      	beq.n	8001e2e <HAL_GPIO_WritePin+0x1e>
 8001e26:	887a      	ldrh	r2, [r7, #2]
 8001e28:	687b      	ldr	r3, [r7, #4]
 8001e2a:	611a      	str	r2, [r3, #16]
 8001e2c:	e003      	b.n	8001e36 <HAL_GPIO_WritePin+0x26>
 8001e2e:	887b      	ldrh	r3, [r7, #2]
 8001e30:	041a      	lsls	r2, r3, #16
 8001e32:	687b      	ldr	r3, [r7, #4]
 8001e34:	611a      	str	r2, [r3, #16]
 8001e36:	bf00      	nop
 8001e38:	370c      	adds	r7, #12
 8001e3a:	46bd      	mov	sp, r7
 8001e3c:	bc80      	pop	{r7}
 8001e3e:	4770      	bx	lr

08001e40 <HAL_I2C_Init>:
 8001e40:	b580      	push	{r7, lr}
 8001e42:	b084      	sub	sp, #16
 8001e44:	af00      	add	r7, sp, #0
 8001e46:	6078      	str	r0, [r7, #4]
 8001e48:	687b      	ldr	r3, [r7, #4]
 8001e4a:	2b00      	cmp	r3, #0
 8001e4c:	d101      	bne.n	8001e52 <HAL_I2C_Init+0x12>
 8001e4e:	2301      	movs	r3, #1
 8001e50:	e12b      	b.n	80020aa <HAL_I2C_Init+0x26a>
 8001e52:	687b      	ldr	r3, [r7, #4]
 8001e54:	f893 303d 	ldrb.w	r3, [r3, #61]	@ 0x3d
 8001e58:	b2db      	uxtb	r3, r3
 8001e5a:	2b00      	cmp	r3, #0
 8001e5c:	d106      	bne.n	8001e6c <HAL_I2C_Init+0x2c>
 8001e5e:	687b      	ldr	r3, [r7, #4]
 8001e60:	2200      	movs	r2, #0
 8001e62:	f883 203c 	strb.w	r2, [r3, #60]	@ 0x3c
 8001e66:	6878      	ldr	r0, [r7, #4]
 8001e68:	f7ff f814 	bl	8000e94 <HAL_I2C_MspInit>
 8001e6c:	687b      	ldr	r3, [r7, #4]
 8001e6e:	2224      	movs	r2, #36	@ 0x24
 8001e70:	f883 203d 	strb.w	r2, [r3, #61]	@ 0x3d
 8001e74:	687b      	ldr	r3, [r7, #4]
 8001e76:	681b      	ldr	r3, [r3, #0]
 8001e78:	681a      	ldr	r2, [r3, #0]
 8001e7a:	687b      	ldr	r3, [r7, #4]
 8001e7c:	681b      	ldr	r3, [r3, #0]
 8001e7e:	f022 0201 	bic.w	r2, r2, #1
 8001e82:	601a      	str	r2, [r3, #0]
 8001e84:	687b      	ldr	r3, [r7, #4]
 8001e86:	681b      	ldr	r3, [r3, #0]
 8001e88:	681a      	ldr	r2, [r3, #0]
 8001e8a:	687b      	ldr	r3, [r7, #4]
 8001e8c:	681b      	ldr	r3, [r3, #0]
 8001e8e:	f442 4200 	orr.w	r2, r2, #32768	@ 0x8000
 8001e92:	601a      	str	r2, [r3, #0]
 8001e94:	687b      	ldr	r3, [r7, #4]
 8001e96:	681b      	ldr	r3, [r3, #0]
 8001e98:	681a      	ldr	r2, [r3, #0]
 8001e9a:	687b      	ldr	r3, [r7, #4]
 8001e9c:	681b      	ldr	r3, [r3, #0]
 8001e9e:	f422 4200 	bic.w	r2, r2, #32768	@ 0x8000
 8001ea2:	601a      	str	r2, [r3, #0]
 8001ea4:	f001 fbf0 	bl	8003688 <HAL_RCC_GetPCLK1Freq>
 8001ea8:	60f8      	str	r0, [r7, #12]
 8001eaa:	687b      	ldr	r3, [r7, #4]
 8001eac:	685b      	ldr	r3, [r3, #4]
 8001eae:	4a81      	ldr	r2, [pc, #516]	@ (80020b4 <HAL_I2C_Init+0x274>)
 8001eb0:	4293      	cmp	r3, r2
 8001eb2:	d807      	bhi.n	8001ec4 <HAL_I2C_Init+0x84>
 8001eb4:	68fb      	ldr	r3, [r7, #12]
 8001eb6:	4a80      	ldr	r2, [pc, #512]	@ (80020b8 <HAL_I2C_Init+0x278>)
 8001eb8:	4293      	cmp	r3, r2
 8001eba:	bf94      	ite	ls
 8001ebc:	2301      	movls	r3, #1
 8001ebe:	2300      	movhi	r3, #0
 8001ec0:	b2db      	uxtb	r3, r3
 8001ec2:	e006      	b.n	8001ed2 <HAL_I2C_Init+0x92>
 8001ec4:	68fb      	ldr	r3, [r7, #12]
 8001ec6:	4a7d      	ldr	r2, [pc, #500]	@ (80020bc <HAL_I2C_Init+0x27c>)
 8001ec8:	4293      	cmp	r3, r2
 8001eca:	bf94      	ite	ls
 8001ecc:	2301      	movls	r3, #1
 8001ece:	2300      	movhi	r3, #0
 8001ed0:	b2db      	uxtb	r3, r3
 8001ed2:	2b00      	cmp	r3, #0
 8001ed4:	d001      	beq.n	8001eda <HAL_I2C_Init+0x9a>
 8001ed6:	2301      	movs	r3, #1
 8001ed8:	e0e7      	b.n	80020aa <HAL_I2C_Init+0x26a>
 8001eda:	68fb      	ldr	r3, [r7, #12]
 8001edc:	4a78      	ldr	r2, [pc, #480]	@ (80020c0 <HAL_I2C_Init+0x280>)
 8001ede:	fba2 2303 	umull	r2, r3, r2, r3
 8001ee2:	0c9b      	lsrs	r3, r3, #18
 8001ee4:	60bb      	str	r3, [r7, #8]
 8001ee6:	687b      	ldr	r3, [r7, #4]
 8001ee8:	681b      	ldr	r3, [r3, #0]
 8001eea:	685b      	ldr	r3, [r3, #4]
 8001eec:	f023 013f 	bic.w	r1, r3, #63	@ 0x3f
 8001ef0:	687b      	ldr	r3, [r7, #4]
 8001ef2:	681b      	ldr	r3, [r3, #0]
 8001ef4:	68ba      	ldr	r2, [r7, #8]
 8001ef6:	430a      	orrs	r2, r1
 8001ef8:	605a      	str	r2, [r3, #4]
 8001efa:	687b      	ldr	r3, [r7, #4]
 8001efc:	681b      	ldr	r3, [r3, #0]
 8001efe:	6a1b      	ldr	r3, [r3, #32]
 8001f00:	f023 013f 	bic.w	r1, r3, #63	@ 0x3f
 8001f04:	687b      	ldr	r3, [r7, #4]
 8001f06:	685b      	ldr	r3, [r3, #4]
 8001f08:	4a6a      	ldr	r2, [pc, #424]	@ (80020b4 <HAL_I2C_Init+0x274>)
 8001f0a:	4293      	cmp	r3, r2
 8001f0c:	d802      	bhi.n	8001f14 <HAL_I2C_Init+0xd4>
 8001f0e:	68bb      	ldr	r3, [r7, #8]
 8001f10:	3301      	adds	r3, #1
 8001f12:	e009      	b.n	8001f28 <HAL_I2C_Init+0xe8>
 8001f14:	68bb      	ldr	r3, [r7, #8]
 8001f16:	f44f 7296 	mov.w	r2, #300	@ 0x12c
 8001f1a:	fb02 f303 	mul.w	r3, r2, r3
 8001f1e:	4a69      	ldr	r2, [pc, #420]	@ (80020c4 <HAL_I2C_Init+0x284>)
 8001f20:	fba2 2303 	umull	r2, r3, r2, r3
 8001f24:	099b      	lsrs	r3, r3, #6
 8001f26:	3301      	adds	r3, #1
 8001f28:	687a      	ldr	r2, [r7, #4]
 8001f2a:	6812      	ldr	r2, [r2, #0]
 8001f2c:	430b      	orrs	r3, r1
 8001f2e:	6213      	str	r3, [r2, #32]
 8001f30:	687b      	ldr	r3, [r7, #4]
 8001f32:	681b      	ldr	r3, [r3, #0]
 8001f34:	69db      	ldr	r3, [r3, #28]
 8001f36:	f423 424f 	bic.w	r2, r3, #52992	@ 0xcf00
 8001f3a:	f022 02ff 	bic.w	r2, r2, #255	@ 0xff
 8001f3e:	687b      	ldr	r3, [r7, #4]
 8001f40:	685b      	ldr	r3, [r3, #4]
 8001f42:	495c      	ldr	r1, [pc, #368]	@ (80020b4 <HAL_I2C_Init+0x274>)
 8001f44:	428b      	cmp	r3, r1
 8001f46:	d819      	bhi.n	8001f7c <HAL_I2C_Init+0x13c>
 8001f48:	68fb      	ldr	r3, [r7, #12]
 8001f4a:	1e59      	subs	r1, r3, #1
 8001f4c:	687b      	ldr	r3, [r7, #4]
 8001f4e:	685b      	ldr	r3, [r3, #4]
 8001f50:	005b      	lsls	r3, r3, #1
 8001f52:	fbb1 f3f3 	udiv	r3, r1, r3
 8001f56:	1c59      	adds	r1, r3, #1
 8001f58:	f640 73fc 	movw	r3, #4092	@ 0xffc
 8001f5c:	400b      	ands	r3, r1
 8001f5e:	2b00      	cmp	r3, #0
 8001f60:	d00a      	beq.n	8001f78 <HAL_I2C_Init+0x138>
 8001f62:	68fb      	ldr	r3, [r7, #12]
 8001f64:	1e59      	subs	r1, r3, #1
 8001f66:	687b      	ldr	r3, [r7, #4]
 8001f68:	685b      	ldr	r3, [r3, #4]
 8001f6a:	005b      	lsls	r3, r3, #1
 8001f6c:	fbb1 f3f3 	udiv	r3, r1, r3
 8001f70:	3301      	adds	r3, #1
 8001f72:	f3c3 030b 	ubfx	r3, r3, #0, #12
 8001f76:	e051      	b.n	800201c <HAL_I2C_Init+0x1dc>
 8001f78:	2304      	movs	r3, #4
 8001f7a:	e04f      	b.n	800201c <HAL_I2C_Init+0x1dc>
 8001f7c:	687b      	ldr	r3, [r7, #4]
 8001f7e:	689b      	ldr	r3, [r3, #8]
 8001f80:	2b00      	cmp	r3, #0
 8001f82:	d111      	bne.n	8001fa8 <HAL_I2C_Init+0x168>
 8001f84:	68fb      	ldr	r3, [r7, #12]
 8001f86:	1e58      	subs	r0, r3, #1
 8001f88:	687b      	ldr	r3, [r7, #4]
 8001f8a:	6859      	ldr	r1, [r3, #4]
 8001f8c:	460b      	mov	r3, r1
 8001f8e:	005b      	lsls	r3, r3, #1
 8001f90:	440b      	add	r3, r1
 8001f92:	fbb0 f3f3 	udiv	r3, r0, r3
 8001f96:	3301      	adds	r3, #1
 8001f98:	f3c3 030b 	ubfx	r3, r3, #0, #12
 8001f9c:	2b00      	cmp	r3, #0
 8001f9e:	bf0c      	ite	eq
 8001fa0:	2301      	moveq	r3, #1
 8001fa2:	2300      	movne	r3, #0
 8001fa4:	b2db      	uxtb	r3, r3
 8001fa6:	e012      	b.n	8001fce <HAL_I2C_Init+0x18e>
 8001fa8:	68fb      	ldr	r3, [r7, #12]
 8001faa:	1e58      	subs	r0, r3, #1
 8001fac:	687b      	ldr	r3, [r7, #4]
 8001fae:	6859      	ldr	r1, [r3, #4]
 8001fb0:	460b      	mov	r3, r1
 8001fb2:	009b      	lsls	r3, r3, #2
 8001fb4:	440b      	add	r3, r1
 8001fb6:	0099      	lsls	r1, r3, #2
 8001fb8:	440b      	add	r3, r1
 8001fba:	fbb0 f3f3 	udiv	r3, r0, r3
 8001fbe:	3301      	adds	r3, #1
 8001fc0:	f3c3 030b 	ubfx	r3, r3, #0, #12
 8001fc4:	2b00      	cmp	r3, #0
 8001fc6:	bf0c      	ite	eq
 8001fc8:	2301      	moveq	r3, #1
 8001fca:	2300      	movne	r3, #0
 8001fcc:	b2db      	uxtb	r3, r3
 8001fce:	2b00      	cmp	r3, #0
 8001fd0:	d001      	beq.n	8001fd6 <HAL_I2C_Init+0x196>
 8001fd2:	2301      	movs	r3, #1
 8001fd4:	e022      	b.n	800201c <HAL_I2C_Init+0x1dc>
 8001fd6:	687b      	ldr	r3, [r7, #4]
 8001fd8:	689b      	ldr	r3, [r3, #8]
 8001fda:	2b00      	cmp	r3, #0
 8001fdc:	d10e      	bne.n	8001ffc <HAL_I2C_Init+0x1bc>
 8001fde:	68fb      	ldr	r3, [r7, #12]
 8001fe0:	1e58      	subs	r0, r3, #1
 8001fe2:	687b      	ldr	r3, [r7, #4]
 8001fe4:	6859      	ldr	r1, [r3, #4]
 8001fe6:	460b      	mov	r3, r1
 8001fe8:	005b      	lsls	r3, r3, #1
 8001fea:	440b      	add	r3, r1
 8001fec:	fbb0 f3f3 	udiv	r3, r0, r3
 8001ff0:	3301      	adds	r3, #1
 8001ff2:	f3c3 030b 	ubfx	r3, r3, #0, #12
 8001ff6:	f443 4300 	orr.w	r3, r3, #32768	@ 0x8000
 8001ffa:	e00f      	b.n	800201c <HAL_I2C_Init+0x1dc>
 8001ffc:	68fb      	ldr	r3, [r7, #12]
 8001ffe:	1e58      	subs	r0, r3, #1
 8002000:	687b      	ldr	r3, [r7, #4]
 8002002:	6859      	ldr	r1, [r3, #4]
 8002004:	460b      	mov	r3, r1
 8002006:	009b      	lsls	r3, r3, #2
 8002008:	440b      	add	r3, r1
 800200a:	0099      	lsls	r1, r3, #2
 800200c:	440b      	add	r3, r1
 800200e:	fbb0 f3f3 	udiv	r3, r0, r3
 8002012:	3301      	adds	r3, #1
 8002014:	f3c3 030b 	ubfx	r3, r3, #0, #12
 8002018:	f443 4340 	orr.w	r3, r3, #49152	@ 0xc000
 800201c:	6879      	ldr	r1, [r7, #4]
 800201e:	6809      	ldr	r1, [r1, #0]
 8002020:	4313      	orrs	r3, r2
 8002022:	61cb      	str	r3, [r1, #28]
 8002024:	687b      	ldr	r3, [r7, #4]
 8002026:	681b      	ldr	r3, [r3, #0]
 8002028:	681b      	ldr	r3, [r3, #0]
 800202a:	f023 01c0 	bic.w	r1, r3, #192	@ 0xc0
 800202e:	687b      	ldr	r3, [r7, #4]
 8002030:	69da      	ldr	r2, [r3, #28]
 8002032:	687b      	ldr	r3, [r7, #4]
 8002034:	6a1b      	ldr	r3, [r3, #32]
 8002036:	431a      	orrs	r2, r3
 8002038:	687b      	ldr	r3, [r7, #4]
 800203a:	681b      	ldr	r3, [r3, #0]
 800203c:	430a      	orrs	r2, r1
 800203e:	601a      	str	r2, [r3, #0]
 8002040:	687b      	ldr	r3, [r7, #4]
 8002042:	681b      	ldr	r3, [r3, #0]
 8002044:	689b      	ldr	r3, [r3, #8]
 8002046:	f423 4303 	bic.w	r3, r3, #33536	@ 0x8300
 800204a:	f023 03ff 	bic.w	r3, r3, #255	@ 0xff
 800204e:	687a      	ldr	r2, [r7, #4]
 8002050:	6911      	ldr	r1, [r2, #16]
 8002052:	687a      	ldr	r2, [r7, #4]
 8002054:	68d2      	ldr	r2, [r2, #12]
 8002056:	4311      	orrs	r1, r2
 8002058:	687a      	ldr	r2, [r7, #4]
 800205a:	6812      	ldr	r2, [r2, #0]
 800205c:	430b      	orrs	r3, r1
 800205e:	6093      	str	r3, [r2, #8]
 8002060:	687b      	ldr	r3, [r7, #4]
 8002062:	681b      	ldr	r3, [r3, #0]
 8002064:	68db      	ldr	r3, [r3, #12]
 8002066:	f023 01ff 	bic.w	r1, r3, #255	@ 0xff
 800206a:	687b      	ldr	r3, [r7, #4]
 800206c:	695a      	ldr	r2, [r3, #20]
 800206e:	687b      	ldr	r3, [r7, #4]
 8002070:	699b      	ldr	r3, [r3, #24]
 8002072:	431a      	orrs	r2, r3
 8002074:	687b      	ldr	r3, [r7, #4]
 8002076:	681b      	ldr	r3, [r3, #0]
 8002078:	430a      	orrs	r2, r1
 800207a:	60da      	str	r2, [r3, #12]
 800207c:	687b      	ldr	r3, [r7, #4]
 800207e:	681b      	ldr	r3, [r3, #0]
 8002080:	681a      	ldr	r2, [r3, #0]
 8002082:	687b      	ldr	r3, [r7, #4]
 8002084:	681b      	ldr	r3, [r3, #0]
 8002086:	f042 0201 	orr.w	r2, r2, #1
 800208a:	601a      	str	r2, [r3, #0]
 800208c:	687b      	ldr	r3, [r7, #4]
 800208e:	2200      	movs	r2, #0
 8002090:	641a      	str	r2, [r3, #64]	@ 0x40
 8002092:	687b      	ldr	r3, [r7, #4]
 8002094:	2220      	movs	r2, #32
 8002096:	f883 203d 	strb.w	r2, [r3, #61]	@ 0x3d
 800209a:	687b      	ldr	r3, [r7, #4]
 800209c:	2200      	movs	r2, #0
 800209e:	631a      	str	r2, [r3, #48]	@ 0x30
 80020a0:	687b      	ldr	r3, [r7, #4]
 80020a2:	2200      	movs	r2, #0
 80020a4:	f883 203e 	strb.w	r2, [r3, #62]	@ 0x3e
 80020a8:	2300      	movs	r3, #0
 80020aa:	4618      	mov	r0, r3
 80020ac:	3710      	adds	r7, #16
 80020ae:	46bd      	mov	sp, r7
 80020b0:	bd80      	pop	{r7, pc}
 80020b2:	bf00      	nop
 80020b4:	000186a0 	.word	0x000186a0
 80020b8:	001e847f 	.word	0x001e847f
 80020bc:	003d08ff 	.word	0x003d08ff
 80020c0:	431bde83 	.word	0x431bde83
 80020c4:	10624dd3 	.word	0x10624dd3

080020c8 <HAL_I2C_Mem_Write>:
 80020c8:	b580      	push	{r7, lr}
 80020ca:	b088      	sub	sp, #32
 80020cc:	af02      	add	r7, sp, #8
 80020ce:	60f8      	str	r0, [r7, #12]
 80020d0:	4608      	mov	r0, r1
 80020d2:	4611      	mov	r1, r2
 80020d4:	461a      	mov	r2, r3
 80020d6:	4603      	mov	r3, r0
 80020d8:	817b      	strh	r3, [r7, #10]
 80020da:	460b      	mov	r3, r1
 80020dc:	813b      	strh	r3, [r7, #8]
 80020de:	4613      	mov	r3, r2
 80020e0:	80fb      	strh	r3, [r7, #6]
 80020e2:	f7ff f93b 	bl	800135c <HAL_GetTick>
 80020e6:	6178      	str	r0, [r7, #20]
 80020e8:	68fb      	ldr	r3, [r7, #12]
 80020ea:	f893 303d 	ldrb.w	r3, [r3, #61]	@ 0x3d
 80020ee:	b2db      	uxtb	r3, r3
 80020f0:	2b20      	cmp	r3, #32
 80020f2:	f040 80d9 	bne.w	80022a8 <HAL_I2C_Mem_Write+0x1e0>
 80020f6:	697b      	ldr	r3, [r7, #20]
 80020f8:	9300      	str	r3, [sp, #0]
 80020fa:	2319      	movs	r3, #25
 80020fc:	2201      	movs	r2, #1
 80020fe:	496d      	ldr	r1, [pc, #436]	@ (80022b4 <HAL_I2C_Mem_Write+0x1ec>)
 8002100:	68f8      	ldr	r0, [r7, #12]
 8002102:	f000 fcc1 	bl	8002a88 <I2C_WaitOnFlagUntilTimeout>
 8002106:	4603      	mov	r3, r0
 8002108:	2b00      	cmp	r3, #0
 800210a:	d001      	beq.n	8002110 <HAL_I2C_Mem_Write+0x48>
 800210c:	2302      	movs	r3, #2
 800210e:	e0cc      	b.n	80022aa <HAL_I2C_Mem_Write+0x1e2>
 8002110:	68fb      	ldr	r3, [r7, #12]
 8002112:	f893 303c 	ldrb.w	r3, [r3, #60]	@ 0x3c
 8002116:	2b01      	cmp	r3, #1
 8002118:	d101      	bne.n	800211e <HAL_I2C_Mem_Write+0x56>
 800211a:	2302      	movs	r3, #2
 800211c:	e0c5      	b.n	80022aa <HAL_I2C_Mem_Write+0x1e2>
 800211e:	68fb      	ldr	r3, [r7, #12]
 8002120:	2201      	movs	r2, #1
 8002122:	f883 203c 	strb.w	r2, [r3, #60]	@ 0x3c
 8002126:	68fb      	ldr	r3, [r7, #12]
 8002128:	681b      	ldr	r3, [r3, #0]
 800212a:	681b      	ldr	r3, [r3, #0]
 800212c:	f003 0301 	and.w	r3, r3, #1
 8002130:	2b01      	cmp	r3, #1
 8002132:	d007      	beq.n	8002144 <HAL_I2C_Mem_Write+0x7c>
 8002134:	68fb      	ldr	r3, [r7, #12]
 8002136:	681b      	ldr	r3, [r3, #0]
 8002138:	681a      	ldr	r2, [r3, #0]
 800213a:	68fb      	ldr	r3, [r7, #12]
 800213c:	681b      	ldr	r3, [r3, #0]
 800213e:	f042 0201 	orr.w	r2, r2, #1
 8002142:	601a      	str	r2, [r3, #0]
 8002144:	68fb      	ldr	r3, [r7, #12]
 8002146:	681b      	ldr	r3, [r3, #0]
 8002148:	681a      	ldr	r2, [r3, #0]
 800214a:	68fb      	ldr	r3, [r7, #12]
 800214c:	681b      	ldr	r3, [r3, #0]
 800214e:	f422 6200 	bic.w	r2, r2, #2048	@ 0x800
 8002152:	601a      	str	r2, [r3, #0]
 8002154:	68fb      	ldr	r3, [r7, #12]
 8002156:	2221      	movs	r2, #33	@ 0x21
 8002158:	f883 203d 	strb.w	r2, [r3, #61]	@ 0x3d
 800215c:	68fb      	ldr	r3, [r7, #12]
 800215e:	2240      	movs	r2, #64	@ 0x40
 8002160:	f883 203e 	strb.w	r2, [r3, #62]	@ 0x3e
 8002164:	68fb      	ldr	r3, [r7, #12]
 8002166:	2200      	movs	r2, #0
 8002168:	641a      	str	r2, [r3, #64]	@ 0x40
 800216a:	68fb      	ldr	r3, [r7, #12]
 800216c:	6a3a      	ldr	r2, [r7, #32]
 800216e:	625a      	str	r2, [r3, #36]	@ 0x24
 8002170:	68fb      	ldr	r3, [r7, #12]
 8002172:	8cba      	ldrh	r2, [r7, #36]	@ 0x24
 8002174:	855a      	strh	r2, [r3, #42]	@ 0x2a
 8002176:	68fb      	ldr	r3, [r7, #12]
 8002178:	8d5b      	ldrh	r3, [r3, #42]	@ 0x2a
 800217a:	b29a      	uxth	r2, r3
 800217c:	68fb      	ldr	r3, [r7, #12]
 800217e:	851a      	strh	r2, [r3, #40]	@ 0x28
 8002180:	68fb      	ldr	r3, [r7, #12]
 8002182:	4a4d      	ldr	r2, [pc, #308]	@ (80022b8 <HAL_I2C_Mem_Write+0x1f0>)
 8002184:	62da      	str	r2, [r3, #44]	@ 0x2c
 8002186:	88f8      	ldrh	r0, [r7, #6]
 8002188:	893a      	ldrh	r2, [r7, #8]
 800218a:	8979      	ldrh	r1, [r7, #10]
 800218c:	697b      	ldr	r3, [r7, #20]
 800218e:	9301      	str	r3, [sp, #4]
 8002190:	6abb      	ldr	r3, [r7, #40]	@ 0x28
 8002192:	9300      	str	r3, [sp, #0]
 8002194:	4603      	mov	r3, r0
 8002196:	68f8      	ldr	r0, [r7, #12]
 8002198:	f000 faf8 	bl	800278c <I2C_RequestMemoryWrite>
 800219c:	4603      	mov	r3, r0
 800219e:	2b00      	cmp	r3, #0
 80021a0:	d052      	beq.n	8002248 <HAL_I2C_Mem_Write+0x180>
 80021a2:	2301      	movs	r3, #1
 80021a4:	e081      	b.n	80022aa <HAL_I2C_Mem_Write+0x1e2>
 80021a6:	697a      	ldr	r2, [r7, #20]
 80021a8:	6ab9      	ldr	r1, [r7, #40]	@ 0x28
 80021aa:	68f8      	ldr	r0, [r7, #12]
 80021ac:	f000 fd86 	bl	8002cbc <I2C_WaitOnTXEFlagUntilTimeout>
 80021b0:	4603      	mov	r3, r0
 80021b2:	2b00      	cmp	r3, #0
 80021b4:	d00d      	beq.n	80021d2 <HAL_I2C_Mem_Write+0x10a>
 80021b6:	68fb      	ldr	r3, [r7, #12]
 80021b8:	6c1b      	ldr	r3, [r3, #64]	@ 0x40
 80021ba:	2b04      	cmp	r3, #4
 80021bc:	d107      	bne.n	80021ce <HAL_I2C_Mem_Write+0x106>
 80021be:	68fb      	ldr	r3, [r7, #12]
 80021c0:	681b      	ldr	r3, [r3, #0]
 80021c2:	681a      	ldr	r2, [r3, #0]
 80021c4:	68fb      	ldr	r3, [r7, #12]
 80021c6:	681b      	ldr	r3, [r3, #0]
 80021c8:	f442 7200 	orr.w	r2, r2, #512	@ 0x200
 80021cc:	601a      	str	r2, [r3, #0]
 80021ce:	2301      	movs	r3, #1
 80021d0:	e06b      	b.n	80022aa <HAL_I2C_Mem_Write+0x1e2>
 80021d2:	68fb      	ldr	r3, [r7, #12]
 80021d4:	6a5b      	ldr	r3, [r3, #36]	@ 0x24
 80021d6:	781a      	ldrb	r2, [r3, #0]
 80021d8:	68fb      	ldr	r3, [r7, #12]
 80021da:	681b      	ldr	r3, [r3, #0]
 80021dc:	611a      	str	r2, [r3, #16]
 80021de:	68fb      	ldr	r3, [r7, #12]
 80021e0:	6a5b      	ldr	r3, [r3, #36]	@ 0x24
 80021e2:	1c5a      	adds	r2, r3, #1
 80021e4:	68fb      	ldr	r3, [r7, #12]
 80021e6:	625a      	str	r2, [r3, #36]	@ 0x24
 80021e8:	68fb      	ldr	r3, [r7, #12]
 80021ea:	8d1b      	ldrh	r3, [r3, #40]	@ 0x28
 80021ec:	3b01      	subs	r3, #1
 80021ee:	b29a      	uxth	r2, r3
 80021f0:	68fb      	ldr	r3, [r7, #12]
 80021f2:	851a      	strh	r2, [r3, #40]	@ 0x28
 80021f4:	68fb      	ldr	r3, [r7, #12]
 80021f6:	8d5b      	ldrh	r3, [r3, #42]	@ 0x2a
 80021f8:	b29b      	uxth	r3, r3
 80021fa:	3b01      	subs	r3, #1
 80021fc:	b29a      	uxth	r2, r3
 80021fe:	68fb      	ldr	r3, [r7, #12]
 8002200:	855a      	strh	r2, [r3, #42]	@ 0x2a
 8002202:	68fb      	ldr	r3, [r7, #12]
 8002204:	681b      	ldr	r3, [r3, #0]
 8002206:	695b      	ldr	r3, [r3, #20]
 8002208:	f003 0304 	and.w	r3, r3, #4
 800220c:	2b04      	cmp	r3, #4
 800220e:	d11b      	bne.n	8002248 <HAL_I2C_Mem_Write+0x180>
 8002210:	68fb      	ldr	r3, [r7, #12]
 8002212:	8d1b      	ldrh	r3, [r3, #40]	@ 0x28
 8002214:	2b00      	cmp	r3, #0
 8002216:	d017      	beq.n	8002248 <HAL_I2C_Mem_Write+0x180>
 8002218:	68fb      	ldr	r3, [r7, #12]
 800221a:	6a5b      	ldr	r3, [r3, #36]	@ 0x24
 800221c:	781a      	ldrb	r2, [r3, #0]
 800221e:	68fb      	ldr	r3, [r7, #12]
 8002220:	681b      	ldr	r3, [r3, #0]
 8002222:	611a      	str	r2, [r3, #16]
 8002224:	68fb      	ldr	r3, [r7, #12]
 8002226:	6a5b      	ldr	r3, [r3, #36]	@ 0x24
 8002228:	1c5a      	adds	r2, r3, #1
 800222a:	68fb      	ldr	r3, [r7, #12]
 800222c:	625a      	str	r2, [r3, #36]	@ 0x24
 800222e:	68fb      	ldr	r3, [r7, #12]
 8002230:	8d1b      	ldrh	r3, [r3, #40]	@ 0x28
 8002232:	3b01      	subs	r3, #1
 8002234:	b29a      	uxth	r2, r3
 8002236:	68fb      	ldr	r3, [r7, #12]
 8002238:	851a      	strh	r2, [r3, #40]	@ 0x28
 800223a:	68fb      	ldr	r3, [r7, #12]
 800223c:	8d5b      	ldrh	r3, [r3, #42]	@ 0x2a
 800223e:	b29b      	uxth	r3, r3
 8002240:	3b01      	subs	r3, #1
 8002242:	b29a      	uxth	r2, r3
 8002244:	68fb      	ldr	r3, [r7, #12]
 8002246:	855a      	strh	r2, [r3, #42]	@ 0x2a
 8002248:	68fb      	ldr	r3, [r7, #12]
 800224a:	8d1b      	ldrh	r3, [r3, #40]	@ 0x28
 800224c:	2b00      	cmp	r3, #0
 800224e:	d1aa      	bne.n	80021a6 <HAL_I2C_Mem_Write+0xde>
 8002250:	697a      	ldr	r2, [r7, #20]
 8002252:	6ab9      	ldr	r1, [r7, #40]	@ 0x28
 8002254:	68f8      	ldr	r0, [r7, #12]
 8002256:	f000 fd79 	bl	8002d4c <I2C_WaitOnBTFFlagUntilTimeout>
 800225a:	4603      	mov	r3, r0
 800225c:	2b00      	cmp	r3, #0
 800225e:	d00d      	beq.n	800227c <HAL_I2C_Mem_Write+0x1b4>
 8002260:	68fb      	ldr	r3, [r7, #12]
 8002262:	6c1b      	ldr	r3, [r3, #64]	@ 0x40
 8002264:	2b04      	cmp	r3, #4
 8002266:	d107      	bne.n	8002278 <HAL_I2C_Mem_Write+0x1b0>
 8002268:	68fb      	ldr	r3, [r7, #12]
 800226a:	681b      	ldr	r3, [r3, #0]
 800226c:	681a      	ldr	r2, [r3, #0]
 800226e:	68fb      	ldr	r3, [r7, #12]
 8002270:	681b      	ldr	r3, [r3, #0]
 8002272:	f442 7200 	orr.w	r2, r2, #512	@ 0x200
 8002276:	601a      	str	r2, [r3, #0]
 8002278:	2301      	movs	r3, #1
 800227a:	e016      	b.n	80022aa <HAL_I2C_Mem_Write+0x1e2>
 800227c:	68fb      	ldr	r3, [r7, #12]
 800227e:	681b      	ldr	r3, [r3, #0]
 8002280:	681a      	ldr	r2, [r3, #0]
 8002282:	68fb      	ldr	r3, [r7, #12]
 8002284:	681b      	ldr	r3, [r3, #0]
 8002286:	f442 7200 	orr.w	r2, r2, #512	@ 0x200
 800228a:	601a      	str	r2, [r3, #0]
 800228c:	68fb      	ldr	r3, [r7, #12]
 800228e:	2220      	movs	r2, #32
 8002290:	f883 203d 	strb.w	r2, [r3, #61]	@ 0x3d
 8002294:	68fb      	ldr	r3, [r7, #12]
 8002296:	2200      	movs	r2, #0
 8002298:	f883 203e 	strb.w	r2, [r3, #62]	@ 0x3e
 800229c:	68fb      	ldr	r3, [r7, #12]
 800229e:	2200      	movs	r2, #0
 80022a0:	f883 203c 	strb.w	r2, [r3, #60]	@ 0x3c
 80022a4:	2300      	movs	r3, #0
 80022a6:	e000      	b.n	80022aa <HAL_I2C_Mem_Write+0x1e2>
 80022a8:	2302      	movs	r3, #2
 80022aa:	4618      	mov	r0, r3
 80022ac:	3718      	adds	r7, #24
 80022ae:	46bd      	mov	sp, r7
 80022b0:	bd80      	pop	{r7, pc}
 80022b2:	bf00      	nop
 80022b4:	00100002 	.word	0x00100002
 80022b8:	ffff0000 	.word	0xffff0000

080022bc <HAL_I2C_Mem_Read>:
 80022bc:	b580      	push	{r7, lr}
 80022be:	b08c      	sub	sp, #48	@ 0x30
 80022c0:	af02      	add	r7, sp, #8
 80022c2:	60f8      	str	r0, [r7, #12]
 80022c4:	4608      	mov	r0, r1
 80022c6:	4611      	mov	r1, r2
 80022c8:	461a      	mov	r2, r3
 80022ca:	4603      	mov	r3, r0
 80022cc:	817b      	strh	r3, [r7, #10]
 80022ce:	460b      	mov	r3, r1
 80022d0:	813b      	strh	r3, [r7, #8]
 80022d2:	4613      	mov	r3, r2
 80022d4:	80fb      	strh	r3, [r7, #6]
 80022d6:	2300      	movs	r3, #0
 80022d8:	623b      	str	r3, [r7, #32]
 80022da:	f7ff f83f 	bl	800135c <HAL_GetTick>
 80022de:	6278      	str	r0, [r7, #36]	@ 0x24
 80022e0:	68fb      	ldr	r3, [r7, #12]
 80022e2:	f893 303d 	ldrb.w	r3, [r3, #61]	@ 0x3d
 80022e6:	b2db      	uxtb	r3, r3
 80022e8:	2b20      	cmp	r3, #32
 80022ea:	f040 8244 	bne.w	8002776 <HAL_I2C_Mem_Read+0x4ba>
 80022ee:	6a7b      	ldr	r3, [r7, #36]	@ 0x24
 80022f0:	9300      	str	r3, [sp, #0]
 80022f2:	2319      	movs	r3, #25
 80022f4:	2201      	movs	r2, #1
 80022f6:	4982      	ldr	r1, [pc, #520]	@ (8002500 <HAL_I2C_Mem_Read+0x244>)
 80022f8:	68f8      	ldr	r0, [r7, #12]
 80022fa:	f000 fbc5 	bl	8002a88 <I2C_WaitOnFlagUntilTimeout>
 80022fe:	4603      	mov	r3, r0
 8002300:	2b00      	cmp	r3, #0
 8002302:	d001      	beq.n	8002308 <HAL_I2C_Mem_Read+0x4c>
 8002304:	2302      	movs	r3, #2
 8002306:	e237      	b.n	8002778 <HAL_I2C_Mem_Read+0x4bc>
 8002308:	68fb      	ldr	r3, [r7, #12]
 800230a:	f893 303c 	ldrb.w	r3, [r3, #60]	@ 0x3c
 800230e:	2b01      	cmp	r3, #1
 8002310:	d101      	bne.n	8002316 <HAL_I2C_Mem_Read+0x5a>
 8002312:	2302      	movs	r3, #2
 8002314:	e230      	b.n	8002778 <HAL_I2C_Mem_Read+0x4bc>
 8002316:	68fb      	ldr	r3, [r7, #12]
 8002318:	2201      	movs	r2, #1
 800231a:	f883 203c 	strb.w	r2, [r3, #60]	@ 0x3c
 800231e:	68fb      	ldr	r3, [r7, #12]
 8002320:	681b      	ldr	r3, [r3, #0]
 8002322:	681b      	ldr	r3, [r3, #0]
 8002324:	f003 0301 	and.w	r3, r3, #1
 8002328:	2b01      	cmp	r3, #1
 800232a:	d007      	beq.n	800233c <HAL_I2C_Mem_Read+0x80>
 800232c:	68fb      	ldr	r3, [r7, #12]
 800232e:	681b      	ldr	r3, [r3, #0]
 8002330:	681a      	ldr	r2, [r3, #0]
 8002332:	68fb      	ldr	r3, [r7, #12]
 8002334:	681b      	ldr	r3, [r3, #0]
 8002336:	f042 0201 	orr.w	r2, r2, #1
 800233a:	601a      	str	r2, [r3, #0]
 800233c:	68fb      	ldr	r3, [r7, #12]
 800233e:	681b      	ldr	r3, [r3, #0]
 8002340:	681a      	ldr	r2, [r3, #0]
 8002342:	68fb      	ldr	r3, [r7, #12]
 8002344:	681b      	ldr	r3, [r3, #0]
 8002346:	f422 6200 	bic.w	r2, r2, #2048	@ 0x800
 800234a:	601a      	str	r2, [r3, #0]
 800234c:	68fb      	ldr	r3, [r7, #12]
 800234e:	2222      	movs	r2, #34	@ 0x22
 8002350:	f883 203d 	strb.w	r2, [r3, #61]	@ 0x3d
 8002354:	68fb      	ldr	r3, [r7, #12]
 8002356:	2240      	movs	r2, #64	@ 0x40
 8002358:	f883 203e 	strb.w	r2, [r3, #62]	@ 0x3e
 800235c:	68fb      	ldr	r3, [r7, #12]
 800235e:	2200      	movs	r2, #0
 8002360:	641a      	str	r2, [r3, #64]	@ 0x40
 8002362:	68fb      	ldr	r3, [r7, #12]
 8002364:	6b3a      	ldr	r2, [r7, #48]	@ 0x30
 8002366:	625a      	str	r2, [r3, #36]	@ 0x24
 8002368:	68fb      	ldr	r3, [r7, #12]
 800236a:	8eba      	ldrh	r2, [r7, #52]	@ 0x34
 800236c:	855a      	strh	r2, [r3, #42]	@ 0x2a
 800236e:	68fb      	ldr	r3, [r7, #12]
 8002370:	8d5b      	ldrh	r3, [r3, #42]	@ 0x2a
 8002372:	b29a      	uxth	r2, r3
 8002374:	68fb      	ldr	r3, [r7, #12]
 8002376:	851a      	strh	r2, [r3, #40]	@ 0x28
 8002378:	68fb      	ldr	r3, [r7, #12]
 800237a:	4a62      	ldr	r2, [pc, #392]	@ (8002504 <HAL_I2C_Mem_Read+0x248>)
 800237c:	62da      	str	r2, [r3, #44]	@ 0x2c
 800237e:	88f8      	ldrh	r0, [r7, #6]
 8002380:	893a      	ldrh	r2, [r7, #8]
 8002382:	8979      	ldrh	r1, [r7, #10]
 8002384:	6a7b      	ldr	r3, [r7, #36]	@ 0x24
 8002386:	9301      	str	r3, [sp, #4]
 8002388:	6bbb      	ldr	r3, [r7, #56]	@ 0x38
 800238a:	9300      	str	r3, [sp, #0]
 800238c:	4603      	mov	r3, r0
 800238e:	68f8      	ldr	r0, [r7, #12]
 8002390:	f000 fa92 	bl	80028b8 <I2C_RequestMemoryRead>
 8002394:	4603      	mov	r3, r0
 8002396:	2b00      	cmp	r3, #0
 8002398:	d001      	beq.n	800239e <HAL_I2C_Mem_Read+0xe2>
 800239a:	2301      	movs	r3, #1
 800239c:	e1ec      	b.n	8002778 <HAL_I2C_Mem_Read+0x4bc>
 800239e:	68fb      	ldr	r3, [r7, #12]
 80023a0:	8d1b      	ldrh	r3, [r3, #40]	@ 0x28
 80023a2:	2b00      	cmp	r3, #0
 80023a4:	d113      	bne.n	80023ce <HAL_I2C_Mem_Read+0x112>
 80023a6:	2300      	movs	r3, #0
 80023a8:	61fb      	str	r3, [r7, #28]
 80023aa:	68fb      	ldr	r3, [r7, #12]
 80023ac:	681b      	ldr	r3, [r3, #0]
 80023ae:	695b      	ldr	r3, [r3, #20]
 80023b0:	61fb      	str	r3, [r7, #28]
 80023b2:	68fb      	ldr	r3, [r7, #12]
 80023b4:	681b      	ldr	r3, [r3, #0]
 80023b6:	699b      	ldr	r3, [r3, #24]
 80023b8:	61fb      	str	r3, [r7, #28]
 80023ba:	69fb      	ldr	r3, [r7, #28]
 80023bc:	68fb      	ldr	r3, [r7, #12]
 80023be:	681b      	ldr	r3, [r3, #0]
 80023c0:	681a      	ldr	r2, [r3, #0]
 80023c2:	68fb      	ldr	r3, [r7, #12]
 80023c4:	681b      	ldr	r3, [r3, #0]
 80023c6:	f442 7200 	orr.w	r2, r2, #512	@ 0x200
 80023ca:	601a      	str	r2, [r3, #0]
 80023cc:	e1c0      	b.n	8002750 <HAL_I2C_Mem_Read+0x494>
 80023ce:	68fb      	ldr	r3, [r7, #12]
 80023d0:	8d1b      	ldrh	r3, [r3, #40]	@ 0x28
 80023d2:	2b01      	cmp	r3, #1
 80023d4:	d11e      	bne.n	8002414 <HAL_I2C_Mem_Read+0x158>
 80023d6:	68fb      	ldr	r3, [r7, #12]
 80023d8:	681b      	ldr	r3, [r3, #0]
 80023da:	681a      	ldr	r2, [r3, #0]
 80023dc:	68fb      	ldr	r3, [r7, #12]
 80023de:	681b      	ldr	r3, [r3, #0]
 80023e0:	f422 6280 	bic.w	r2, r2, #1024	@ 0x400
 80023e4:	601a      	str	r2, [r3, #0]
 80023e6:	b672      	cpsid	i
 80023e8:	bf00      	nop
 80023ea:	2300      	movs	r3, #0
 80023ec:	61bb      	str	r3, [r7, #24]
 80023ee:	68fb      	ldr	r3, [r7, #12]
 80023f0:	681b      	ldr	r3, [r3, #0]
 80023f2:	695b      	ldr	r3, [r3, #20]
 80023f4:	61bb      	str	r3, [r7, #24]
 80023f6:	68fb      	ldr	r3, [r7, #12]
 80023f8:	681b      	ldr	r3, [r3, #0]
 80023fa:	699b      	ldr	r3, [r3, #24]
 80023fc:	61bb      	str	r3, [r7, #24]
 80023fe:	69bb      	ldr	r3, [r7, #24]
 8002400:	68fb      	ldr	r3, [r7, #12]
 8002402:	681b      	ldr	r3, [r3, #0]
 8002404:	681a      	ldr	r2, [r3, #0]
 8002406:	68fb      	ldr	r3, [r7, #12]
 8002408:	681b      	ldr	r3, [r3, #0]
 800240a:	f442 7200 	orr.w	r2, r2, #512	@ 0x200
 800240e:	601a      	str	r2, [r3, #0]
 8002410:	b662      	cpsie	i
 8002412:	e035      	b.n	8002480 <HAL_I2C_Mem_Read+0x1c4>
 8002414:	68fb      	ldr	r3, [r7, #12]
 8002416:	8d1b      	ldrh	r3, [r3, #40]	@ 0x28
 8002418:	2b02      	cmp	r3, #2
 800241a:	d11e      	bne.n	800245a <HAL_I2C_Mem_Read+0x19e>
 800241c:	68fb      	ldr	r3, [r7, #12]
 800241e:	681b      	ldr	r3, [r3, #0]
 8002420:	681a      	ldr	r2, [r3, #0]
 8002422:	68fb      	ldr	r3, [r7, #12]
 8002424:	681b      	ldr	r3, [r3, #0]
 8002426:	f442 6200 	orr.w	r2, r2, #2048	@ 0x800
 800242a:	601a      	str	r2, [r3, #0]
 800242c:	b672      	cpsid	i
 800242e:	bf00      	nop
 8002430:	2300      	movs	r3, #0
 8002432:	617b      	str	r3, [r7, #20]
 8002434:	68fb      	ldr	r3, [r7, #12]
 8002436:	681b      	ldr	r3, [r3, #0]
 8002438:	695b      	ldr	r3, [r3, #20]
 800243a:	617b      	str	r3, [r7, #20]
 800243c:	68fb      	ldr	r3, [r7, #12]
 800243e:	681b      	ldr	r3, [r3, #0]
 8002440:	699b      	ldr	r3, [r3, #24]
 8002442:	617b      	str	r3, [r7, #20]
 8002444:	697b      	ldr	r3, [r7, #20]
 8002446:	68fb      	ldr	r3, [r7, #12]
 8002448:	681b      	ldr	r3, [r3, #0]
 800244a:	681a      	ldr	r2, [r3, #0]
 800244c:	68fb      	ldr	r3, [r7, #12]
 800244e:	681b      	ldr	r3, [r3, #0]
 8002450:	f422 6280 	bic.w	r2, r2, #1024	@ 0x400
 8002454:	601a      	str	r2, [r3, #0]
 8002456:	b662      	cpsie	i
 8002458:	e012      	b.n	8002480 <HAL_I2C_Mem_Read+0x1c4>
 800245a:	68fb      	ldr	r3, [r7, #12]
 800245c:	681b      	ldr	r3, [r3, #0]
 800245e:	681a      	ldr	r2, [r3, #0]
 8002460:	68fb      	ldr	r3, [r7, #12]
 8002462:	681b      	ldr	r3, [r3, #0]
 8002464:	f442 6280 	orr.w	r2, r2, #1024	@ 0x400
 8002468:	601a      	str	r2, [r3, #0]
 800246a:	2300      	movs	r3, #0
 800246c:	613b      	str	r3, [r7, #16]
 800246e:	68fb      	ldr	r3, [r7, #12]
 8002470:	681b      	ldr	r3, [r3, #0]
 8002472:	695b      	ldr	r3, [r3, #20]
 8002474:	613b      	str	r3, [r7, #16]
 8002476:	68fb      	ldr	r3, [r7, #12]
 8002478:	681b      	ldr	r3, [r3, #0]
 800247a:	699b      	ldr	r3, [r3, #24]
 800247c:	613b      	str	r3, [r7, #16]
 800247e:	693b      	ldr	r3, [r7, #16]
 8002480:	e166      	b.n	8002750 <HAL_I2C_Mem_Read+0x494>
 8002482:	68fb      	ldr	r3, [r7, #12]
 8002484:	8d1b      	ldrh	r3, [r3, #40]	@ 0x28
 8002486:	2b03      	cmp	r3, #3
 8002488:	f200 811f 	bhi.w	80026ca <HAL_I2C_Mem_Read+0x40e>
 800248c:	68fb      	ldr	r3, [r7, #12]
 800248e:	8d1b      	ldrh	r3, [r3, #40]	@ 0x28
 8002490:	2b01      	cmp	r3, #1
 8002492:	d123      	bne.n	80024dc <HAL_I2C_Mem_Read+0x220>
 8002494:	6a7a      	ldr	r2, [r7, #36]	@ 0x24
 8002496:	6bb9      	ldr	r1, [r7, #56]	@ 0x38
 8002498:	68f8      	ldr	r0, [r7, #12]
 800249a:	f000 fc9f 	bl	8002ddc <I2C_WaitOnRXNEFlagUntilTimeout>
 800249e:	4603      	mov	r3, r0
 80024a0:	2b00      	cmp	r3, #0
 80024a2:	d001      	beq.n	80024a8 <HAL_I2C_Mem_Read+0x1ec>
 80024a4:	2301      	movs	r3, #1
 80024a6:	e167      	b.n	8002778 <HAL_I2C_Mem_Read+0x4bc>
 80024a8:	68fb      	ldr	r3, [r7, #12]
 80024aa:	681b      	ldr	r3, [r3, #0]
 80024ac:	691a      	ldr	r2, [r3, #16]
 80024ae:	68fb      	ldr	r3, [r7, #12]
 80024b0:	6a5b      	ldr	r3, [r3, #36]	@ 0x24
 80024b2:	b2d2      	uxtb	r2, r2
 80024b4:	701a      	strb	r2, [r3, #0]
 80024b6:	68fb      	ldr	r3, [r7, #12]
 80024b8:	6a5b      	ldr	r3, [r3, #36]	@ 0x24
 80024ba:	1c5a      	adds	r2, r3, #1
 80024bc:	68fb      	ldr	r3, [r7, #12]
 80024be:	625a      	str	r2, [r3, #36]	@ 0x24
 80024c0:	68fb      	ldr	r3, [r7, #12]
 80024c2:	8d1b      	ldrh	r3, [r3, #40]	@ 0x28
 80024c4:	3b01      	subs	r3, #1
 80024c6:	b29a      	uxth	r2, r3
 80024c8:	68fb      	ldr	r3, [r7, #12]
 80024ca:	851a      	strh	r2, [r3, #40]	@ 0x28
 80024cc:	68fb      	ldr	r3, [r7, #12]
 80024ce:	8d5b      	ldrh	r3, [r3, #42]	@ 0x2a
 80024d0:	b29b      	uxth	r3, r3
 80024d2:	3b01      	subs	r3, #1
 80024d4:	b29a      	uxth	r2, r3
 80024d6:	68fb      	ldr	r3, [r7, #12]
 80024d8:	855a      	strh	r2, [r3, #42]	@ 0x2a
 80024da:	e139      	b.n	8002750 <HAL_I2C_Mem_Read+0x494>
 80024dc:	68fb      	ldr	r3, [r7, #12]
 80024de:	8d1b      	ldrh	r3, [r3, #40]	@ 0x28
 80024e0:	2b02      	cmp	r3, #2
 80024e2:	d152      	bne.n	800258a <HAL_I2C_Mem_Read+0x2ce>
 80024e4:	6a7b      	ldr	r3, [r7, #36]	@ 0x24
 80024e6:	9300      	str	r3, [sp, #0]
 80024e8:	6bbb      	ldr	r3, [r7, #56]	@ 0x38
 80024ea:	2200      	movs	r2, #0
 80024ec:	4906      	ldr	r1, [pc, #24]	@ (8002508 <HAL_I2C_Mem_Read+0x24c>)
 80024ee:	68f8      	ldr	r0, [r7, #12]
 80024f0:	f000 faca 	bl	8002a88 <I2C_WaitOnFlagUntilTimeout>
 80024f4:	4603      	mov	r3, r0
 80024f6:	2b00      	cmp	r3, #0
 80024f8:	d008      	beq.n	800250c <HAL_I2C_Mem_Read+0x250>
 80024fa:	2301      	movs	r3, #1
 80024fc:	e13c      	b.n	8002778 <HAL_I2C_Mem_Read+0x4bc>
 80024fe:	bf00      	nop
 8002500:	00100002 	.word	0x00100002
 8002504:	ffff0000 	.word	0xffff0000
 8002508:	00010004 	.word	0x00010004
 800250c:	b672      	cpsid	i
 800250e:	bf00      	nop
 8002510:	68fb      	ldr	r3, [r7, #12]
 8002512:	681b      	ldr	r3, [r3, #0]
 8002514:	681a      	ldr	r2, [r3, #0]
 8002516:	68fb      	ldr	r3, [r7, #12]
 8002518:	681b      	ldr	r3, [r3, #0]
 800251a:	f442 7200 	orr.w	r2, r2, #512	@ 0x200
 800251e:	601a      	str	r2, [r3, #0]
 8002520:	68fb      	ldr	r3, [r7, #12]
 8002522:	681b      	ldr	r3, [r3, #0]
 8002524:	691a      	ldr	r2, [r3, #16]
 8002526:	68fb      	ldr	r3, [r7, #12]
 8002528:	6a5b      	ldr	r3, [r3, #36]	@ 0x24
 800252a:	b2d2      	uxtb	r2, r2
 800252c:	701a      	strb	r2, [r3, #0]
 800252e:	68fb      	ldr	r3, [r7, #12]
 8002530:	6a5b      	ldr	r3, [r3, #36]	@ 0x24
 8002532:	1c5a      	adds	r2, r3, #1
 8002534:	68fb      	ldr	r3, [r7, #12]
 8002536:	625a      	str	r2, [r3, #36]	@ 0x24
 8002538:	68fb      	ldr	r3, [r7, #12]
 800253a:	8d1b      	ldrh	r3, [r3, #40]	@ 0x28
 800253c:	3b01      	subs	r3, #1
 800253e:	b29a      	uxth	r2, r3
 8002540:	68fb      	ldr	r3, [r7, #12]
 8002542:	851a      	strh	r2, [r3, #40]	@ 0x28
 8002544:	68fb      	ldr	r3, [r7, #12]
 8002546:	8d5b      	ldrh	r3, [r3, #42]	@ 0x2a
 8002548:	b29b      	uxth	r3, r3
 800254a:	3b01      	subs	r3, #1
 800254c:	b29a      	uxth	r2, r3
 800254e:	68fb      	ldr	r3, [r7, #12]
 8002550:	855a      	strh	r2, [r3, #42]	@ 0x2a
 8002552:	b662      	cpsie	i
 8002554:	bf00      	nop
 8002556:	68fb      	ldr	r3, [r7, #12]
 8002558:	681b      	ldr	r3, [r3, #0]
 800255a:	691a      	ldr	r2, [r3, #16]
 800255c:	68fb      	ldr	r3, [r7, #12]
 800255e:	6a5b      	ldr	r3, [r3, #36]	@ 0x24
 8002560:	b2d2      	uxtb	r2, r2
 8002562:	701a      	strb	r2, [r3, #0]
 8002564:	68fb      	ldr	r3, [r7, #12]
 8002566:	6a5b      	ldr	r3, [r3, #36]	@ 0x24
 8002568:	1c5a      	adds	r2, r3, #1
 800256a:	68fb      	ldr	r3, [r7, #12]
 800256c:	625a      	str	r2, [r3, #36]	@ 0x24
 800256e:	68fb      	ldr	r3, [r7, #12]
 8002570:	8d1b      	ldrh	r3, [r3, #40]	@ 0x28
 8002572:	3b01      	subs	r3, #1
 8002574:	b29a      	uxth	r2, r3
 8002576:	68fb      	ldr	r3, [r7, #12]
 8002578:	851a      	strh	r2, [r3, #40]	@ 0x28
 800257a:	68fb      	ldr	r3, [r7, #12]
 800257c:	8d5b      	ldrh	r3, [r3, #42]	@ 0x2a
 800257e:	b29b      	uxth	r3, r3
 8002580:	3b01      	subs	r3, #1
 8002582:	b29a      	uxth	r2, r3
 8002584:	68fb      	ldr	r3, [r7, #12]
 8002586:	855a      	strh	r2, [r3, #42]	@ 0x2a
 8002588:	e0e2      	b.n	8002750 <HAL_I2C_Mem_Read+0x494>
 800258a:	6a7b      	ldr	r3, [r7, #36]	@ 0x24
 800258c:	9300      	str	r3, [sp, #0]
 800258e:	6bbb      	ldr	r3, [r7, #56]	@ 0x38
 8002590:	2200      	movs	r2, #0
 8002592:	497b      	ldr	r1, [pc, #492]	@ (8002780 <HAL_I2C_Mem_Read+0x4c4>)
 8002594:	68f8      	ldr	r0, [r7, #12]
 8002596:	f000 fa77 	bl	8002a88 <I2C_WaitOnFlagUntilTimeout>
 800259a:	4603      	mov	r3, r0
 800259c:	2b00      	cmp	r3, #0
 800259e:	d001      	beq.n	80025a4 <HAL_I2C_Mem_Read+0x2e8>
 80025a0:	2301      	movs	r3, #1
 80025a2:	e0e9      	b.n	8002778 <HAL_I2C_Mem_Read+0x4bc>
 80025a4:	68fb      	ldr	r3, [r7, #12]
 80025a6:	681b      	ldr	r3, [r3, #0]
 80025a8:	681a      	ldr	r2, [r3, #0]
 80025aa:	68fb      	ldr	r3, [r7, #12]
 80025ac:	681b      	ldr	r3, [r3, #0]
 80025ae:	f422 6280 	bic.w	r2, r2, #1024	@ 0x400
 80025b2:	601a      	str	r2, [r3, #0]
 80025b4:	b672      	cpsid	i
 80025b6:	bf00      	nop
 80025b8:	68fb      	ldr	r3, [r7, #12]
 80025ba:	681b      	ldr	r3, [r3, #0]
 80025bc:	691a      	ldr	r2, [r3, #16]
 80025be:	68fb      	ldr	r3, [r7, #12]
 80025c0:	6a5b      	ldr	r3, [r3, #36]	@ 0x24
 80025c2:	b2d2      	uxtb	r2, r2
 80025c4:	701a      	strb	r2, [r3, #0]
 80025c6:	68fb      	ldr	r3, [r7, #12]
 80025c8:	6a5b      	ldr	r3, [r3, #36]	@ 0x24
 80025ca:	1c5a      	adds	r2, r3, #1
 80025cc:	68fb      	ldr	r3, [r7, #12]
 80025ce:	625a      	str	r2, [r3, #36]	@ 0x24
 80025d0:	68fb      	ldr	r3, [r7, #12]
 80025d2:	8d1b      	ldrh	r3, [r3, #40]	@ 0x28
 80025d4:	3b01      	subs	r3, #1
 80025d6:	b29a      	uxth	r2, r3
 80025d8:	68fb      	ldr	r3, [r7, #12]
 80025da:	851a      	strh	r2, [r3, #40]	@ 0x28
 80025dc:	68fb      	ldr	r3, [r7, #12]
 80025de:	8d5b      	ldrh	r3, [r3, #42]	@ 0x2a
 80025e0:	b29b      	uxth	r3, r3
 80025e2:	3b01      	subs	r3, #1
 80025e4:	b29a      	uxth	r2, r3
 80025e6:	68fb      	ldr	r3, [r7, #12]
 80025e8:	855a      	strh	r2, [r3, #42]	@ 0x2a
 80025ea:	4b66      	ldr	r3, [pc, #408]	@ (8002784 <HAL_I2C_Mem_Read+0x4c8>)
 80025ec:	681b      	ldr	r3, [r3, #0]
 80025ee:	08db      	lsrs	r3, r3, #3
 80025f0:	4a65      	ldr	r2, [pc, #404]	@ (8002788 <HAL_I2C_Mem_Read+0x4cc>)
 80025f2:	fba2 2303 	umull	r2, r3, r2, r3
 80025f6:	0a1a      	lsrs	r2, r3, #8
 80025f8:	4613      	mov	r3, r2
 80025fa:	009b      	lsls	r3, r3, #2
 80025fc:	4413      	add	r3, r2
 80025fe:	00da      	lsls	r2, r3, #3
 8002600:	1ad3      	subs	r3, r2, r3
 8002602:	623b      	str	r3, [r7, #32]
 8002604:	6a3b      	ldr	r3, [r7, #32]
 8002606:	3b01      	subs	r3, #1
 8002608:	623b      	str	r3, [r7, #32]
 800260a:	6a3b      	ldr	r3, [r7, #32]
 800260c:	2b00      	cmp	r3, #0
 800260e:	d118      	bne.n	8002642 <HAL_I2C_Mem_Read+0x386>
 8002610:	68fb      	ldr	r3, [r7, #12]
 8002612:	2200      	movs	r2, #0
 8002614:	631a      	str	r2, [r3, #48]	@ 0x30
 8002616:	68fb      	ldr	r3, [r7, #12]
 8002618:	2220      	movs	r2, #32
 800261a:	f883 203d 	strb.w	r2, [r3, #61]	@ 0x3d
 800261e:	68fb      	ldr	r3, [r7, #12]
 8002620:	2200      	movs	r2, #0
 8002622:	f883 203e 	strb.w	r2, [r3, #62]	@ 0x3e
 8002626:	68fb      	ldr	r3, [r7, #12]
 8002628:	6c1b      	ldr	r3, [r3, #64]	@ 0x40
 800262a:	f043 0220 	orr.w	r2, r3, #32
 800262e:	68fb      	ldr	r3, [r7, #12]
 8002630:	641a      	str	r2, [r3, #64]	@ 0x40
 8002632:	b662      	cpsie	i
 8002634:	bf00      	nop
 8002636:	68fb      	ldr	r3, [r7, #12]
 8002638:	2200      	movs	r2, #0
 800263a:	f883 203c 	strb.w	r2, [r3, #60]	@ 0x3c
 800263e:	2301      	movs	r3, #1
 8002640:	e09a      	b.n	8002778 <HAL_I2C_Mem_Read+0x4bc>
 8002642:	68fb      	ldr	r3, [r7, #12]
 8002644:	681b      	ldr	r3, [r3, #0]
 8002646:	695b      	ldr	r3, [r3, #20]
 8002648:	f003 0304 	and.w	r3, r3, #4
 800264c:	2b04      	cmp	r3, #4
 800264e:	d1d9      	bne.n	8002604 <HAL_I2C_Mem_Read+0x348>
 8002650:	68fb      	ldr	r3, [r7, #12]
 8002652:	681b      	ldr	r3, [r3, #0]
 8002654:	681a      	ldr	r2, [r3, #0]
 8002656:	68fb      	ldr	r3, [r7, #12]
 8002658:	681b      	ldr	r3, [r3, #0]
 800265a:	f442 7200 	orr.w	r2, r2, #512	@ 0x200
 800265e:	601a      	str	r2, [r3, #0]
 8002660:	68fb      	ldr	r3, [r7, #12]
 8002662:	681b      	ldr	r3, [r3, #0]
 8002664:	691a      	ldr	r2, [r3, #16]
 8002666:	68fb      	ldr	r3, [r7, #12]
 8002668:	6a5b      	ldr	r3, [r3, #36]	@ 0x24
 800266a:	b2d2      	uxtb	r2, r2
 800266c:	701a      	strb	r2, [r3, #0]
 800266e:	68fb      	ldr	r3, [r7, #12]
 8002670:	6a5b      	ldr	r3, [r3, #36]	@ 0x24
 8002672:	1c5a      	adds	r2, r3, #1
 8002674:	68fb      	ldr	r3, [r7, #12]
 8002676:	625a      	str	r2, [r3, #36]	@ 0x24
 8002678:	68fb      	ldr	r3, [r7, #12]
 800267a:	8d1b      	ldrh	r3, [r3, #40]	@ 0x28
 800267c:	3b01      	subs	r3, #1
 800267e:	b29a      	uxth	r2, r3
 8002680:	68fb      	ldr	r3, [r7, #12]
 8002682:	851a      	strh	r2, [r3, #40]	@ 0x28
 8002684:	68fb      	ldr	r3, [r7, #12]
 8002686:	8d5b      	ldrh	r3, [r3, #42]	@ 0x2a
 8002688:	b29b      	uxth	r3, r3
 800268a:	3b01      	subs	r3, #1
 800268c:	b29a      	uxth	r2, r3
 800268e:	68fb      	ldr	r3, [r7, #12]
 8002690:	855a      	strh	r2, [r3, #42]	@ 0x2a
 8002692:	b662      	cpsie	i
 8002694:	bf00      	nop
 8002696:	68fb      	ldr	r3, [r7, #12]
 8002698:	681b      	ldr	r3, [r3, #0]
 800269a:	691a      	ldr	r2, [r3, #16]
 800269c:	68fb      	ldr	r3, [r7, #12]
 800269e:	6a5b      	ldr	r3, [r3, #36]	@ 0x24
 80026a0:	b2d2      	uxtb	r2, r2
 80026a2:	701a      	strb	r2, [r3, #0]
 80026a4:	68fb      	ldr	r3, [r7, #12]
 80026a6:	6a5b      	ldr	r3, [r3, #36]	@ 0x24
 80026a8:	1c5a      	adds	r2, r3, #1
 80026aa:	68fb      	ldr	r3, [r7, #12]
 80026ac:	625a      	str	r2, [r3, #36]	@ 0x24
 80026ae:	68fb      	ldr	r3, [r7, #12]
 80026b0:	8d1b      	ldrh	r3, [r3, #40]	@ 0x28
 80026b2:	3b01      	subs	r3, #1
 80026b4:	b29a      	uxth	r2, r3
 80026b6:	68fb      	ldr	r3, [r7, #12]
 80026b8:	851a      	strh	r2, [r3, #40]	@ 0x28
 80026ba:	68fb      	ldr	r3, [r7, #12]
 80026bc:	8d5b      	ldrh	r3, [r3, #42]	@ 0x2a
 80026be:	b29b      	uxth	r3, r3
 80026c0:	3b01      	subs	r3, #1
 80026c2:	b29a      	uxth	r2, r3
 80026c4:	68fb      	ldr	r3, [r7, #12]
 80026c6:	855a      	strh	r2, [r3, #42]	@ 0x2a
 80026c8:	e042      	b.n	8002750 <HAL_I2C_Mem_Read+0x494>
 80026ca:	6a7a      	ldr	r2, [r7, #36]	@ 0x24
 80026cc:	6bb9      	ldr	r1, [r7, #56]	@ 0x38
 80026ce:	68f8      	ldr	r0, [r7, #12]
 80026d0:	f000 fb84 	bl	8002ddc <I2C_WaitOnRXNEFlagUntilTimeout>
 80026d4:	4603      	mov	r3, r0
 80026d6:	2b00      	cmp	r3, #0
 80026d8:	d001      	beq.n	80026de <HAL_I2C_Mem_Read+0x422>
 80026da:	2301      	movs	r3, #1
 80026dc:	e04c      	b.n	8002778 <HAL_I2C_Mem_Read+0x4bc>
 80026de:	68fb      	ldr	r3, [r7, #12]
 80026e0:	681b      	ldr	r3, [r3, #0]
 80026e2:	691a      	ldr	r2, [r3, #16]
 80026e4:	68fb      	ldr	r3, [r7, #12]
 80026e6:	6a5b      	ldr	r3, [r3, #36]	@ 0x24
 80026e8:	b2d2      	uxtb	r2, r2
 80026ea:	701a      	strb	r2, [r3, #0]
 80026ec:	68fb      	ldr	r3, [r7, #12]
 80026ee:	6a5b      	ldr	r3, [r3, #36]	@ 0x24
 80026f0:	1c5a      	adds	r2, r3, #1
 80026f2:	68fb      	ldr	r3, [r7, #12]
 80026f4:	625a      	str	r2, [r3, #36]	@ 0x24
 80026f6:	68fb      	ldr	r3, [r7, #12]
 80026f8:	8d1b      	ldrh	r3, [r3, #40]	@ 0x28
 80026fa:	3b01      	subs	r3, #1
 80026fc:	b29a      	uxth	r2, r3
 80026fe:	68fb      	ldr	r3, [r7, #12]
 8002700:	851a      	strh	r2, [r3, #40]	@ 0x28
 8002702:	68fb      	ldr	r3, [r7, #12]
 8002704:	8d5b      	ldrh	r3, [r3, #42]	@ 0x2a
 8002706:	b29b      	uxth	r3, r3
 8002708:	3b01      	subs	r3, #1
 800270a:	b29a      	uxth	r2, r3
 800270c:	68fb      	ldr	r3, [r7, #12]
 800270e:	855a      	strh	r2, [r3, #42]	@ 0x2a
 8002710:	68fb      	ldr	r3, [r7, #12]
 8002712:	681b      	ldr	r3, [r3, #0]
 8002714:	695b      	ldr	r3, [r3, #20]
 8002716:	f003 0304 	and.w	r3, r3, #4
 800271a:	2b04      	cmp	r3, #4
 800271c:	d118      	bne.n	8002750 <HAL_I2C_Mem_Read+0x494>
 800271e:	68fb      	ldr	r3, [r7, #12]
 8002720:	681b      	ldr	r3, [r3, #0]
 8002722:	691a      	ldr	r2, [r3, #16]
 8002724:	68fb      	ldr	r3, [r7, #12]
 8002726:	6a5b      	ldr	r3, [r3, #36]	@ 0x24
 8002728:	b2d2      	uxtb	r2, r2
 800272a:	701a      	strb	r2, [r3, #0]
 800272c:	68fb      	ldr	r3, [r7, #12]
 800272e:	6a5b      	ldr	r3, [r3, #36]	@ 0x24
 8002730:	1c5a      	adds	r2, r3, #1
 8002732:	68fb      	ldr	r3, [r7, #12]
 8002734:	625a      	str	r2, [r3, #36]	@ 0x24
 8002736:	68fb      	ldr	r3, [r7, #12]
 8002738:	8d1b      	ldrh	r3, [r3, #40]	@ 0x28
 800273a:	3b01      	subs	r3, #1
 800273c:	b29a      	uxth	r2, r3
 800273e:	68fb      	ldr	r3, [r7, #12]
 8002740:	851a      	strh	r2, [r3, #40]	@ 0x28
 8002742:	68fb      	ldr	r3, [r7, #12]
 8002744:	8d5b      	ldrh	r3, [r3, #42]	@ 0x2a
 8002746:	b29b      	uxth	r3, r3
 8002748:	3b01      	subs	r3, #1
 800274a:	b29a      	uxth	r2, r3
 800274c:	68fb      	ldr	r3, [r7, #12]
 800274e:	855a      	strh	r2, [r3, #42]	@ 0x2a
 8002750:	68fb      	ldr	r3, [r7, #12]
 8002752:	8d1b      	ldrh	r3, [r3, #40]	@ 0x28
 8002754:	2b00      	cmp	r3, #0
 8002756:	f47f ae94 	bne.w	8002482 <HAL_I2C_Mem_Read+0x1c6>
 800275a:	68fb      	ldr	r3, [r7, #12]
 800275c:	2220      	movs	r2, #32
 800275e:	f883 203d 	strb.w	r2, [r3, #61]	@ 0x3d
 8002762:	68fb      	ldr	r3, [r7, #12]
 8002764:	2200      	movs	r2, #0
 8002766:	f883 203e 	strb.w	r2, [r3, #62]	@ 0x3e
 800276a:	68fb      	ldr	r3, [r7, #12]
 800276c:	2200      	movs	r2, #0
 800276e:	f883 203c 	strb.w	r2, [r3, #60]	@ 0x3c
 8002772:	2300      	movs	r3, #0
 8002774:	e000      	b.n	8002778 <HAL_I2C_Mem_Read+0x4bc>
 8002776:	2302      	movs	r3, #2
 8002778:	4618      	mov	r0, r3
 800277a:	3728      	adds	r7, #40	@ 0x28
 800277c:	46bd      	mov	sp, r7
 800277e:	bd80      	pop	{r7, pc}
 8002780:	00010004 	.word	0x00010004
 8002784:	20000000 	.word	0x20000000
 8002788:	14f8b589 	.word	0x14f8b589

0800278c <I2C_RequestMemoryWrite>:
 800278c:	b580      	push	{r7, lr}
 800278e:	b088      	sub	sp, #32
 8002790:	af02      	add	r7, sp, #8
 8002792:	60f8      	str	r0, [r7, #12]
 8002794:	4608      	mov	r0, r1
 8002796:	4611      	mov	r1, r2
 8002798:	461a      	mov	r2, r3
 800279a:	4603      	mov	r3, r0
 800279c:	817b      	strh	r3, [r7, #10]
 800279e:	460b      	mov	r3, r1
 80027a0:	813b      	strh	r3, [r7, #8]
 80027a2:	4613      	mov	r3, r2
 80027a4:	80fb      	strh	r3, [r7, #6]
 80027a6:	68fb      	ldr	r3, [r7, #12]
 80027a8:	681b      	ldr	r3, [r3, #0]
 80027aa:	681a      	ldr	r2, [r3, #0]
 80027ac:	68fb      	ldr	r3, [r7, #12]
 80027ae:	681b      	ldr	r3, [r3, #0]
 80027b0:	f442 7280 	orr.w	r2, r2, #256	@ 0x100
 80027b4:	601a      	str	r2, [r3, #0]
 80027b6:	6a7b      	ldr	r3, [r7, #36]	@ 0x24
 80027b8:	9300      	str	r3, [sp, #0]
 80027ba:	6a3b      	ldr	r3, [r7, #32]
 80027bc:	2200      	movs	r2, #0
 80027be:	f04f 1101 	mov.w	r1, #65537	@ 0x10001
 80027c2:	68f8      	ldr	r0, [r7, #12]
 80027c4:	f000 f960 	bl	8002a88 <I2C_WaitOnFlagUntilTimeout>
 80027c8:	4603      	mov	r3, r0
 80027ca:	2b00      	cmp	r3, #0
 80027cc:	d00d      	beq.n	80027ea <I2C_RequestMemoryWrite+0x5e>
 80027ce:	68fb      	ldr	r3, [r7, #12]
 80027d0:	681b      	ldr	r3, [r3, #0]
 80027d2:	681b      	ldr	r3, [r3, #0]
 80027d4:	f403 7380 	and.w	r3, r3, #256	@ 0x100
 80027d8:	f5b3 7f80 	cmp.w	r3, #256	@ 0x100
 80027dc:	d103      	bne.n	80027e6 <I2C_RequestMemoryWrite+0x5a>
 80027de:	68fb      	ldr	r3, [r7, #12]
 80027e0:	f44f 7200 	mov.w	r2, #512	@ 0x200
 80027e4:	641a      	str	r2, [r3, #64]	@ 0x40
 80027e6:	2303      	movs	r3, #3
 80027e8:	e05f      	b.n	80028aa <I2C_RequestMemoryWrite+0x11e>
 80027ea:	897b      	ldrh	r3, [r7, #10]
 80027ec:	b2db      	uxtb	r3, r3
 80027ee:	461a      	mov	r2, r3
 80027f0:	68fb      	ldr	r3, [r7, #12]
 80027f2:	681b      	ldr	r3, [r3, #0]
 80027f4:	f002 02fe 	and.w	r2, r2, #254	@ 0xfe
 80027f8:	611a      	str	r2, [r3, #16]
 80027fa:	6a7b      	ldr	r3, [r7, #36]	@ 0x24
 80027fc:	6a3a      	ldr	r2, [r7, #32]
 80027fe:	492d      	ldr	r1, [pc, #180]	@ (80028b4 <I2C_RequestMemoryWrite+0x128>)
 8002800:	68f8      	ldr	r0, [r7, #12]
 8002802:	f000 f9bb 	bl	8002b7c <I2C_WaitOnMasterAddressFlagUntilTimeout>
 8002806:	4603      	mov	r3, r0
 8002808:	2b00      	cmp	r3, #0
 800280a:	d001      	beq.n	8002810 <I2C_RequestMemoryWrite+0x84>
 800280c:	2301      	movs	r3, #1
 800280e:	e04c      	b.n	80028aa <I2C_RequestMemoryWrite+0x11e>
 8002810:	2300      	movs	r3, #0
 8002812:	617b      	str	r3, [r7, #20]
 8002814:	68fb      	ldr	r3, [r7, #12]
 8002816:	681b      	ldr	r3, [r3, #0]
 8002818:	695b      	ldr	r3, [r3, #20]
 800281a:	617b      	str	r3, [r7, #20]
 800281c:	68fb      	ldr	r3, [r7, #12]
 800281e:	681b      	ldr	r3, [r3, #0]
 8002820:	699b      	ldr	r3, [r3, #24]
 8002822:	617b      	str	r3, [r7, #20]
 8002824:	697b      	ldr	r3, [r7, #20]
 8002826:	6a7a      	ldr	r2, [r7, #36]	@ 0x24
 8002828:	6a39      	ldr	r1, [r7, #32]
 800282a:	68f8      	ldr	r0, [r7, #12]
 800282c:	f000 fa46 	bl	8002cbc <I2C_WaitOnTXEFlagUntilTimeout>
 8002830:	4603      	mov	r3, r0
 8002832:	2b00      	cmp	r3, #0
 8002834:	d00d      	beq.n	8002852 <I2C_RequestMemoryWrite+0xc6>
 8002836:	68fb      	ldr	r3, [r7, #12]
 8002838:	6c1b      	ldr	r3, [r3, #64]	@ 0x40
 800283a:	2b04      	cmp	r3, #4
 800283c:	d107      	bne.n	800284e <I2C_RequestMemoryWrite+0xc2>
 800283e:	68fb      	ldr	r3, [r7, #12]
 8002840:	681b      	ldr	r3, [r3, #0]
 8002842:	681a      	ldr	r2, [r3, #0]
 8002844:	68fb      	ldr	r3, [r7, #12]
 8002846:	681b      	ldr	r3, [r3, #0]
 8002848:	f442 7200 	orr.w	r2, r2, #512	@ 0x200
 800284c:	601a      	str	r2, [r3, #0]
 800284e:	2301      	movs	r3, #1
 8002850:	e02b      	b.n	80028aa <I2C_RequestMemoryWrite+0x11e>
 8002852:	88fb      	ldrh	r3, [r7, #6]
 8002854:	2b01      	cmp	r3, #1
 8002856:	d105      	bne.n	8002864 <I2C_RequestMemoryWrite+0xd8>
 8002858:	893b      	ldrh	r3, [r7, #8]
 800285a:	b2da      	uxtb	r2, r3
 800285c:	68fb      	ldr	r3, [r7, #12]
 800285e:	681b      	ldr	r3, [r3, #0]
 8002860:	611a      	str	r2, [r3, #16]
 8002862:	e021      	b.n	80028a8 <I2C_RequestMemoryWrite+0x11c>
 8002864:	893b      	ldrh	r3, [r7, #8]
 8002866:	0a1b      	lsrs	r3, r3, #8
 8002868:	b29b      	uxth	r3, r3
 800286a:	b2da      	uxtb	r2, r3
 800286c:	68fb      	ldr	r3, [r7, #12]
 800286e:	681b      	ldr	r3, [r3, #0]
 8002870:	611a      	str	r2, [r3, #16]
 8002872:	6a7a      	ldr	r2, [r7, #36]	@ 0x24
 8002874:	6a39      	ldr	r1, [r7, #32]
 8002876:	68f8      	ldr	r0, [r7, #12]
 8002878:	f000 fa20 	bl	8002cbc <I2C_WaitOnTXEFlagUntilTimeout>
 800287c:	4603      	mov	r3, r0
 800287e:	2b00      	cmp	r3, #0
 8002880:	d00d      	beq.n	800289e <I2C_RequestMemoryWrite+0x112>
 8002882:	68fb      	ldr	r3, [r7, #12]
 8002884:	6c1b      	ldr	r3, [r3, #64]	@ 0x40
 8002886:	2b04      	cmp	r3, #4
 8002888:	d107      	bne.n	800289a <I2C_RequestMemoryWrite+0x10e>
 800288a:	68fb      	ldr	r3, [r7, #12]
 800288c:	681b      	ldr	r3, [r3, #0]
 800288e:	681a      	ldr	r2, [r3, #0]
 8002890:	68fb      	ldr	r3, [r7, #12]
 8002892:	681b      	ldr	r3, [r3, #0]
 8002894:	f442 7200 	orr.w	r2, r2, #512	@ 0x200
 8002898:	601a      	str	r2, [r3, #0]
 800289a:	2301      	movs	r3, #1
 800289c:	e005      	b.n	80028aa <I2C_RequestMemoryWrite+0x11e>
 800289e:	893b      	ldrh	r3, [r7, #8]
 80028a0:	b2da      	uxtb	r2, r3
 80028a2:	68fb      	ldr	r3, [r7, #12]
 80028a4:	681b      	ldr	r3, [r3, #0]
 80028a6:	611a      	str	r2, [r3, #16]
 80028a8:	2300      	movs	r3, #0
 80028aa:	4618      	mov	r0, r3
 80028ac:	3718      	adds	r7, #24
 80028ae:	46bd      	mov	sp, r7
 80028b0:	bd80      	pop	{r7, pc}
 80028b2:	bf00      	nop
 80028b4:	00010002 	.word	0x00010002

080028b8 <I2C_RequestMemoryRead>:
 80028b8:	b580      	push	{r7, lr}
 80028ba:	b088      	sub	sp, #32
 80028bc:	af02      	add	r7, sp, #8
 80028be:	60f8      	str	r0, [r7, #12]
 80028c0:	4608      	mov	r0, r1
 80028c2:	4611      	mov	r1, r2
 80028c4:	461a      	mov	r2, r3
 80028c6:	4603      	mov	r3, r0
 80028c8:	817b      	strh	r3, [r7, #10]
 80028ca:	460b      	mov	r3, r1
 80028cc:	813b      	strh	r3, [r7, #8]
 80028ce:	4613      	mov	r3, r2
 80028d0:	80fb      	strh	r3, [r7, #6]
 80028d2:	68fb      	ldr	r3, [r7, #12]
 80028d4:	681b      	ldr	r3, [r3, #0]
 80028d6:	681a      	ldr	r2, [r3, #0]
 80028d8:	68fb      	ldr	r3, [r7, #12]
 80028da:	681b      	ldr	r3, [r3, #0]
 80028dc:	f442 6280 	orr.w	r2, r2, #1024	@ 0x400
 80028e0:	601a      	str	r2, [r3, #0]
 80028e2:	68fb      	ldr	r3, [r7, #12]
 80028e4:	681b      	ldr	r3, [r3, #0]
 80028e6:	681a      	ldr	r2, [r3, #0]
 80028e8:	68fb      	ldr	r3, [r7, #12]
 80028ea:	681b      	ldr	r3, [r3, #0]
 80028ec:	f442 7280 	orr.w	r2, r2, #256	@ 0x100
 80028f0:	601a      	str	r2, [r3, #0]
 80028f2:	6a7b      	ldr	r3, [r7, #36]	@ 0x24
 80028f4:	9300      	str	r3, [sp, #0]
 80028f6:	6a3b      	ldr	r3, [r7, #32]
 80028f8:	2200      	movs	r2, #0
 80028fa:	f04f 1101 	mov.w	r1, #65537	@ 0x10001
 80028fe:	68f8      	ldr	r0, [r7, #12]
 8002900:	f000 f8c2 	bl	8002a88 <I2C_WaitOnFlagUntilTimeout>
 8002904:	4603      	mov	r3, r0
 8002906:	2b00      	cmp	r3, #0
 8002908:	d00d      	beq.n	8002926 <I2C_RequestMemoryRead+0x6e>
 800290a:	68fb      	ldr	r3, [r7, #12]
 800290c:	681b      	ldr	r3, [r3, #0]
 800290e:	681b      	ldr	r3, [r3, #0]
 8002910:	f403 7380 	and.w	r3, r3, #256	@ 0x100
 8002914:	f5b3 7f80 	cmp.w	r3, #256	@ 0x100
 8002918:	d103      	bne.n	8002922 <I2C_RequestMemoryRead+0x6a>
 800291a:	68fb      	ldr	r3, [r7, #12]
 800291c:	f44f 7200 	mov.w	r2, #512	@ 0x200
 8002920:	641a      	str	r2, [r3, #64]	@ 0x40
 8002922:	2303      	movs	r3, #3
 8002924:	e0aa      	b.n	8002a7c <I2C_RequestMemoryRead+0x1c4>
 8002926:	897b      	ldrh	r3, [r7, #10]
 8002928:	b2db      	uxtb	r3, r3
 800292a:	461a      	mov	r2, r3
 800292c:	68fb      	ldr	r3, [r7, #12]
 800292e:	681b      	ldr	r3, [r3, #0]
 8002930:	f002 02fe 	and.w	r2, r2, #254	@ 0xfe
 8002934:	611a      	str	r2, [r3, #16]
 8002936:	6a7b      	ldr	r3, [r7, #36]	@ 0x24
 8002938:	6a3a      	ldr	r2, [r7, #32]
 800293a:	4952      	ldr	r1, [pc, #328]	@ (8002a84 <I2C_RequestMemoryRead+0x1cc>)
 800293c:	68f8      	ldr	r0, [r7, #12]
 800293e:	f000 f91d 	bl	8002b7c <I2C_WaitOnMasterAddressFlagUntilTimeout>
 8002942:	4603      	mov	r3, r0
 8002944:	2b00      	cmp	r3, #0
 8002946:	d001      	beq.n	800294c <I2C_RequestMemoryRead+0x94>
 8002948:	2301      	movs	r3, #1
 800294a:	e097      	b.n	8002a7c <I2C_RequestMemoryRead+0x1c4>
 800294c:	2300      	movs	r3, #0
 800294e:	617b      	str	r3, [r7, #20]
 8002950:	68fb      	ldr	r3, [r7, #12]
 8002952:	681b      	ldr	r3, [r3, #0]
 8002954:	695b      	ldr	r3, [r3, #20]
 8002956:	617b      	str	r3, [r7, #20]
 8002958:	68fb      	ldr	r3, [r7, #12]
 800295a:	681b      	ldr	r3, [r3, #0]
 800295c:	699b      	ldr	r3, [r3, #24]
 800295e:	617b      	str	r3, [r7, #20]
 8002960:	697b      	ldr	r3, [r7, #20]
 8002962:	6a7a      	ldr	r2, [r7, #36]	@ 0x24
 8002964:	6a39      	ldr	r1, [r7, #32]
 8002966:	68f8      	ldr	r0, [r7, #12]
 8002968:	f000 f9a8 	bl	8002cbc <I2C_WaitOnTXEFlagUntilTimeout>
 800296c:	4603      	mov	r3, r0
 800296e:	2b00      	cmp	r3, #0
 8002970:	d00d      	beq.n	800298e <I2C_RequestMemoryRead+0xd6>
 8002972:	68fb      	ldr	r3, [r7, #12]
 8002974:	6c1b      	ldr	r3, [r3, #64]	@ 0x40
 8002976:	2b04      	cmp	r3, #4
 8002978:	d107      	bne.n	800298a <I2C_RequestMemoryRead+0xd2>
 800297a:	68fb      	ldr	r3, [r7, #12]
 800297c:	681b      	ldr	r3, [r3, #0]
 800297e:	681a      	ldr	r2, [r3, #0]
 8002980:	68fb      	ldr	r3, [r7, #12]
 8002982:	681b      	ldr	r3, [r3, #0]
 8002984:	f442 7200 	orr.w	r2, r2, #512	@ 0x200
 8002988:	601a      	str	r2, [r3, #0]
 800298a:	2301      	movs	r3, #1
 800298c:	e076      	b.n	8002a7c <I2C_RequestMemoryRead+0x1c4>
 800298e:	88fb      	ldrh	r3, [r7, #6]
 8002990:	2b01      	cmp	r3, #1
 8002992:	d105      	bne.n	80029a0 <I2C_RequestMemoryRead+0xe8>
 8002994:	893b      	ldrh	r3, [r7, #8]
 8002996:	b2da      	uxtb	r2, r3
 8002998:	68fb      	ldr	r3, [r7, #12]
 800299a:	681b      	ldr	r3, [r3, #0]
 800299c:	611a      	str	r2, [r3, #16]
 800299e:	e021      	b.n	80029e4 <I2C_RequestMemoryRead+0x12c>
 80029a0:	893b      	ldrh	r3, [r7, #8]
 80029a2:	0a1b      	lsrs	r3, r3, #8
 80029a4:	b29b      	uxth	r3, r3
 80029a6:	b2da      	uxtb	r2, r3
 80029a8:	68fb      	ldr	r3, [r7, #12]
 80029aa:	681b      	ldr	r3, [r3, #0]
 80029ac:	611a      	str	r2, [r3, #16]
 80029ae:	6a7a      	ldr	r2, [r7, #36]	@ 0x24
 80029b0:	6a39      	ldr	r1, [r7, #32]
 80029b2:	68f8      	ldr	r0, [r7, #12]
 80029b4:	f000 f982 	bl	8002cbc <I2C_WaitOnTXEFlagUntilTimeout>
 80029b8:	4603      	mov	r3, r0
 80029ba:	2b00      	cmp	r3, #0
 80029bc:	d00d      	beq.n	80029da <I2C_RequestMemoryRead+0x122>
 80029be:	68fb      	ldr	r3, [r7, #12]
 80029c0:	6c1b      	ldr	r3, [r3, #64]	@ 0x40
 80029c2:	2b04      	cmp	r3, #4
 80029c4:	d107      	bne.n	80029d6 <I2C_RequestMemoryRead+0x11e>
 80029c6:	68fb      	ldr	r3, [r7, #12]
 80029c8:	681b      	ldr	r3, [r3, #0]
 80029ca:	681a      	ldr	r2, [r3, #0]
 80029cc:	68fb      	ldr	r3, [r7, #12]
 80029ce:	681b      	ldr	r3, [r3, #0]
 80029d0:	f442 7200 	orr.w	r2, r2, #512	@ 0x200
 80029d4:	601a      	str	r2, [r3, #0]
 80029d6:	2301      	movs	r3, #1
 80029d8:	e050      	b.n	8002a7c <I2C_RequestMemoryRead+0x1c4>
 80029da:	893b      	ldrh	r3, [r7, #8]
 80029dc:	b2da      	uxtb	r2, r3
 80029de:	68fb      	ldr	r3, [r7, #12]
 80029e0:	681b      	ldr	r3, [r3, #0]
 80029e2:	611a      	str	r2, [r3, #16]
 80029e4:	6a7a      	ldr	r2, [r7, #36]	@ 0x24
 80029e6:	6a39      	ldr	r1, [r7, #32]
 80029e8:	68f8      	ldr	r0, [r7, #12]
 80029ea:	f000 f967 	bl	8002cbc <I2C_WaitOnTXEFlagUntilTimeout>
 80029ee:	4603      	mov	r3, r0
 80029f0:	2b00      	cmp	r3, #0
 80029f2:	d00d      	beq.n	8002a10 <I2C_RequestMemoryRead+0x158>
 80029f4:	68fb      	ldr	r3, [r7, #12]
 80029f6:	6c1b      	ldr	r3, [r3, #64]	@ 0x40
 80029f8:	2b04      	cmp	r3, #4
 80029fa:	d107      	bne.n	8002a0c <I2C_RequestMemoryRead+0x154>
 80029fc:	68fb      	ldr	r3, [r7, #12]
 80029fe:	681b      	ldr	r3, [r3, #0]
 8002a00:	681a      	ldr	r2, [r3, #0]
 8002a02:	68fb      	ldr	r3, [r7, #12]
 8002a04:	681b      	ldr	r3, [r3, #0]
 8002a06:	f442 7200 	orr.w	r2, r2, #512	@ 0x200
 8002a0a:	601a      	str	r2, [r3, #0]
 8002a0c:	2301      	movs	r3, #1
 8002a0e:	e035      	b.n	8002a7c <I2C_RequestMemoryRead+0x1c4>
 8002a10:	68fb      	ldr	r3, [r7, #12]
 8002a12:	681b      	ldr	r3, [r3, #0]
 8002a14:	681a      	ldr	r2, [r3, #0]
 8002a16:	68fb      	ldr	r3, [r7, #12]
 8002a18:	681b      	ldr	r3, [r3, #0]
 8002a1a:	f442 7280 	orr.w	r2, r2, #256	@ 0x100
 8002a1e:	601a      	str	r2, [r3, #0]
 8002a20:	6a7b      	ldr	r3, [r7, #36]	@ 0x24
 8002a22:	9300      	str	r3, [sp, #0]
 8002a24:	6a3b      	ldr	r3, [r7, #32]
 8002a26:	2200      	movs	r2, #0
 8002a28:	f04f 1101 	mov.w	r1, #65537	@ 0x10001
 8002a2c:	68f8      	ldr	r0, [r7, #12]
 8002a2e:	f000 f82b 	bl	8002a88 <I2C_WaitOnFlagUntilTimeout>
 8002a32:	4603      	mov	r3, r0
 8002a34:	2b00      	cmp	r3, #0
 8002a36:	d00d      	beq.n	8002a54 <I2C_RequestMemoryRead+0x19c>
 8002a38:	68fb      	ldr	r3, [r7, #12]
 8002a3a:	681b      	ldr	r3, [r3, #0]
 8002a3c:	681b      	ldr	r3, [r3, #0]
 8002a3e:	f403 7380 	and.w	r3, r3, #256	@ 0x100
 8002a42:	f5b3 7f80 	cmp.w	r3, #256	@ 0x100
 8002a46:	d103      	bne.n	8002a50 <I2C_RequestMemoryRead+0x198>
 8002a48:	68fb      	ldr	r3, [r7, #12]
 8002a4a:	f44f 7200 	mov.w	r2, #512	@ 0x200
 8002a4e:	641a      	str	r2, [r3, #64]	@ 0x40
 8002a50:	2303      	movs	r3, #3
 8002a52:	e013      	b.n	8002a7c <I2C_RequestMemoryRead+0x1c4>
 8002a54:	897b      	ldrh	r3, [r7, #10]
 8002a56:	b2db      	uxtb	r3, r3
 8002a58:	f043 0301 	orr.w	r3, r3, #1
 8002a5c:	b2da      	uxtb	r2, r3
 8002a5e:	68fb      	ldr	r3, [r7, #12]
 8002a60:	681b      	ldr	r3, [r3, #0]
 8002a62:	611a      	str	r2, [r3, #16]
 8002a64:	6a7b      	ldr	r3, [r7, #36]	@ 0x24
 8002a66:	6a3a      	ldr	r2, [r7, #32]
 8002a68:	4906      	ldr	r1, [pc, #24]	@ (8002a84 <I2C_RequestMemoryRead+0x1cc>)
 8002a6a:	68f8      	ldr	r0, [r7, #12]
 8002a6c:	f000 f886 	bl	8002b7c <I2C_WaitOnMasterAddressFlagUntilTimeout>
 8002a70:	4603      	mov	r3, r0
 8002a72:	2b00      	cmp	r3, #0
 8002a74:	d001      	beq.n	8002a7a <I2C_RequestMemoryRead+0x1c2>
 8002a76:	2301      	movs	r3, #1
 8002a78:	e000      	b.n	8002a7c <I2C_RequestMemoryRead+0x1c4>
 8002a7a:	2300      	movs	r3, #0
 8002a7c:	4618      	mov	r0, r3
 8002a7e:	3718      	adds	r7, #24
 8002a80:	46bd      	mov	sp, r7
 8002a82:	bd80      	pop	{r7, pc}
 8002a84:	00010002 	.word	0x00010002

08002a88 <I2C_WaitOnFlagUntilTimeout>:
 8002a88:	b580      	push	{r7, lr}
 8002a8a:	b084      	sub	sp, #16
 8002a8c:	af00      	add	r7, sp, #0
 8002a8e:	60f8      	str	r0, [r7, #12]
 8002a90:	60b9      	str	r1, [r7, #8]
 8002a92:	603b      	str	r3, [r7, #0]
 8002a94:	4613      	mov	r3, r2
 8002a96:	71fb      	strb	r3, [r7, #7]
 8002a98:	e048      	b.n	8002b2c <I2C_WaitOnFlagUntilTimeout+0xa4>
 8002a9a:	683b      	ldr	r3, [r7, #0]
 8002a9c:	f1b3 3fff 	cmp.w	r3, #4294967295
 8002aa0:	d044      	beq.n	8002b2c <I2C_WaitOnFlagUntilTimeout+0xa4>
 8002aa2:	f7fe fc5b 	bl	800135c <HAL_GetTick>
 8002aa6:	4602      	mov	r2, r0
 8002aa8:	69bb      	ldr	r3, [r7, #24]
 8002aaa:	1ad3      	subs	r3, r2, r3
 8002aac:	683a      	ldr	r2, [r7, #0]
 8002aae:	429a      	cmp	r2, r3
 8002ab0:	d302      	bcc.n	8002ab8 <I2C_WaitOnFlagUntilTimeout+0x30>
 8002ab2:	683b      	ldr	r3, [r7, #0]
 8002ab4:	2b00      	cmp	r3, #0
 8002ab6:	d139      	bne.n	8002b2c <I2C_WaitOnFlagUntilTimeout+0xa4>
 8002ab8:	68bb      	ldr	r3, [r7, #8]
 8002aba:	0c1b      	lsrs	r3, r3, #16
 8002abc:	b2db      	uxtb	r3, r3
 8002abe:	2b01      	cmp	r3, #1
 8002ac0:	d10d      	bne.n	8002ade <I2C_WaitOnFlagUntilTimeout+0x56>
 8002ac2:	68fb      	ldr	r3, [r7, #12]
 8002ac4:	681b      	ldr	r3, [r3, #0]
 8002ac6:	695b      	ldr	r3, [r3, #20]
 8002ac8:	43da      	mvns	r2, r3
 8002aca:	68bb      	ldr	r3, [r7, #8]
 8002acc:	4013      	ands	r3, r2
 8002ace:	b29b      	uxth	r3, r3
 8002ad0:	2b00      	cmp	r3, #0
 8002ad2:	bf0c      	ite	eq
 8002ad4:	2301      	moveq	r3, #1
 8002ad6:	2300      	movne	r3, #0
 8002ad8:	b2db      	uxtb	r3, r3
 8002ada:	461a      	mov	r2, r3
 8002adc:	e00c      	b.n	8002af8 <I2C_WaitOnFlagUntilTimeout+0x70>
 8002ade:	68fb      	ldr	r3, [r7, #12]
 8002ae0:	681b      	ldr	r3, [r3, #0]
 8002ae2:	699b      	ldr	r3, [r3, #24]
 8002ae4:	43da      	mvns	r2, r3
 8002ae6:	68bb      	ldr	r3, [r7, #8]
 8002ae8:	4013      	ands	r3, r2
 8002aea:	b29b      	uxth	r3, r3
 8002aec:	2b00      	cmp	r3, #0
 8002aee:	bf0c      	ite	eq
 8002af0:	2301      	moveq	r3, #1
 8002af2:	2300      	movne	r3, #0
 8002af4:	b2db      	uxtb	r3, r3
 8002af6:	461a      	mov	r2, r3
 8002af8:	79fb      	ldrb	r3, [r7, #7]
 8002afa:	429a      	cmp	r2, r3
 8002afc:	d116      	bne.n	8002b2c <I2C_WaitOnFlagUntilTimeout+0xa4>
 8002afe:	68fb      	ldr	r3, [r7, #12]
 8002b00:	2200      	movs	r2, #0
 8002b02:	631a      	str	r2, [r3, #48]	@ 0x30
 8002b04:	68fb      	ldr	r3, [r7, #12]
 8002b06:	2220      	movs	r2, #32
 8002b08:	f883 203d 	strb.w	r2, [r3, #61]	@ 0x3d
 8002b0c:	68fb      	ldr	r3, [r7, #12]
 8002b0e:	2200      	movs	r2, #0
 8002b10:	f883 203e 	strb.w	r2, [r3, #62]	@ 0x3e
 8002b14:	68fb      	ldr	r3, [r7, #12]
 8002b16:	6c1b      	ldr	r3, [r3, #64]	@ 0x40
 8002b18:	f043 0220 	orr.w	r2, r3, #32
 8002b1c:	68fb      	ldr	r3, [r7, #12]
 8002b1e:	641a      	str	r2, [r3, #64]	@ 0x40
 8002b20:	68fb      	ldr	r3, [r7, #12]
 8002b22:	2200      	movs	r2, #0
 8002b24:	f883 203c 	strb.w	r2, [r3, #60]	@ 0x3c
 8002b28:	2301      	movs	r3, #1
 8002b2a:	e023      	b.n	8002b74 <I2C_WaitOnFlagUntilTimeout+0xec>
 8002b2c:	68bb      	ldr	r3, [r7, #8]
 8002b2e:	0c1b      	lsrs	r3, r3, #16
 8002b30:	b2db      	uxtb	r3, r3
 8002b32:	2b01      	cmp	r3, #1
 8002b34:	d10d      	bne.n	8002b52 <I2C_WaitOnFlagUntilTimeout+0xca>
 8002b36:	68fb      	ldr	r3, [r7, #12]
 8002b38:	681b      	ldr	r3, [r3, #0]
 8002b3a:	695b      	ldr	r3, [r3, #20]
 8002b3c:	43da      	mvns	r2, r3
 8002b3e:	68bb      	ldr	r3, [r7, #8]
 8002b40:	4013      	ands	r3, r2
 8002b42:	b29b      	uxth	r3, r3
 8002b44:	2b00      	cmp	r3, #0
 8002b46:	bf0c      	ite	eq
 8002b48:	2301      	moveq	r3, #1
 8002b4a:	2300      	movne	r3, #0
 8002b4c:	b2db      	uxtb	r3, r3
 8002b4e:	461a      	mov	r2, r3
 8002b50:	e00c      	b.n	8002b6c <I2C_WaitOnFlagUntilTimeout+0xe4>
 8002b52:	68fb      	ldr	r3, [r7, #12]
 8002b54:	681b      	ldr	r3, [r3, #0]
 8002b56:	699b      	ldr	r3, [r3, #24]
 8002b58:	43da      	mvns	r2, r3
 8002b5a:	68bb      	ldr	r3, [r7, #8]
 8002b5c:	4013      	ands	r3, r2
 8002b5e:	b29b      	uxth	r3, r3
 8002b60:	2b00      	cmp	r3, #0
 8002b62:	bf0c      	ite	eq
 8002b64:	2301      	moveq	r3, #1
 8002b66:	2300      	movne	r3, #0
 8002b68:	b2db      	uxtb	r3, r3
 8002b6a:	461a      	mov	r2, r3
 8002b6c:	79fb      	ldrb	r3, [r7, #7]
 8002b6e:	429a      	cmp	r2, r3
 8002b70:	d093      	beq.n	8002a9a <I2C_WaitOnFlagUntilTimeout+0x12>
 8002b72:	2300      	movs	r3, #0
 8002b74:	4618      	mov	r0, r3
 8002b76:	3710      	adds	r7, #16
 8002b78:	46bd      	mov	sp, r7
 8002b7a:	bd80      	pop	{r7, pc}

08002b7c <I2C_WaitOnMasterAddressFlagUntilTimeout>:
 8002b7c:	b580      	push	{r7, lr}
 8002b7e:	b084      	sub	sp, #16
 8002b80:	af00      	add	r7, sp, #0
 8002b82:	60f8      	str	r0, [r7, #12]
 8002b84:	60b9      	str	r1, [r7, #8]
 8002b86:	607a      	str	r2, [r7, #4]
 8002b88:	603b      	str	r3, [r7, #0]
 8002b8a:	e071      	b.n	8002c70 <I2C_WaitOnMasterAddressFlagUntilTimeout+0xf4>
 8002b8c:	68fb      	ldr	r3, [r7, #12]
 8002b8e:	681b      	ldr	r3, [r3, #0]
 8002b90:	695b      	ldr	r3, [r3, #20]
 8002b92:	f403 6380 	and.w	r3, r3, #1024	@ 0x400
 8002b96:	f5b3 6f80 	cmp.w	r3, #1024	@ 0x400
 8002b9a:	d123      	bne.n	8002be4 <I2C_WaitOnMasterAddressFlagUntilTimeout+0x68>
 8002b9c:	68fb      	ldr	r3, [r7, #12]
 8002b9e:	681b      	ldr	r3, [r3, #0]
 8002ba0:	681a      	ldr	r2, [r3, #0]
 8002ba2:	68fb      	ldr	r3, [r7, #12]
 8002ba4:	681b      	ldr	r3, [r3, #0]
 8002ba6:	f442 7200 	orr.w	r2, r2, #512	@ 0x200
 8002baa:	601a      	str	r2, [r3, #0]
 8002bac:	68fb      	ldr	r3, [r7, #12]
 8002bae:	681b      	ldr	r3, [r3, #0]
 8002bb0:	f46f 6280 	mvn.w	r2, #1024	@ 0x400
 8002bb4:	615a      	str	r2, [r3, #20]
 8002bb6:	68fb      	ldr	r3, [r7, #12]
 8002bb8:	2200      	movs	r2, #0
 8002bba:	631a      	str	r2, [r3, #48]	@ 0x30
 8002bbc:	68fb      	ldr	r3, [r7, #12]
 8002bbe:	2220      	movs	r2, #32
 8002bc0:	f883 203d 	strb.w	r2, [r3, #61]	@ 0x3d
 8002bc4:	68fb      	ldr	r3, [r7, #12]
 8002bc6:	2200      	movs	r2, #0
 8002bc8:	f883 203e 	strb.w	r2, [r3, #62]	@ 0x3e
 8002bcc:	68fb      	ldr	r3, [r7, #12]
 8002bce:	6c1b      	ldr	r3, [r3, #64]	@ 0x40
 8002bd0:	f043 0204 	orr.w	r2, r3, #4
 8002bd4:	68fb      	ldr	r3, [r7, #12]
 8002bd6:	641a      	str	r2, [r3, #64]	@ 0x40
 8002bd8:	68fb      	ldr	r3, [r7, #12]
 8002bda:	2200      	movs	r2, #0
 8002bdc:	f883 203c 	strb.w	r2, [r3, #60]	@ 0x3c
 8002be0:	2301      	movs	r3, #1
 8002be2:	e067      	b.n	8002cb4 <I2C_WaitOnMasterAddressFlagUntilTimeout+0x138>
 8002be4:	687b      	ldr	r3, [r7, #4]
 8002be6:	f1b3 3fff 	cmp.w	r3, #4294967295
 8002bea:	d041      	beq.n	8002c70 <I2C_WaitOnMasterAddressFlagUntilTimeout+0xf4>
 8002bec:	f7fe fbb6 	bl	800135c <HAL_GetTick>
 8002bf0:	4602      	mov	r2, r0
 8002bf2:	683b      	ldr	r3, [r7, #0]
 8002bf4:	1ad3      	subs	r3, r2, r3
 8002bf6:	687a      	ldr	r2, [r7, #4]
 8002bf8:	429a      	cmp	r2, r3
 8002bfa:	d302      	bcc.n	8002c02 <I2C_WaitOnMasterAddressFlagUntilTimeout+0x86>
 8002bfc:	687b      	ldr	r3, [r7, #4]
 8002bfe:	2b00      	cmp	r3, #0
 8002c00:	d136      	bne.n	8002c70 <I2C_WaitOnMasterAddressFlagUntilTimeout+0xf4>
 8002c02:	68bb      	ldr	r3, [r7, #8]
 8002c04:	0c1b      	lsrs	r3, r3, #16
 8002c06:	b2db      	uxtb	r3, r3
 8002c08:	2b01      	cmp	r3, #1
 8002c0a:	d10c      	bne.n	8002c26 <I2C_WaitOnMasterAddressFlagUntilTimeout+0xaa>
 8002c0c:	68fb      	ldr	r3, [r7, #12]
 8002c0e:	681b      	ldr	r3, [r3, #0]
 8002c10:	695b      	ldr	r3, [r3, #20]
 8002c12:	43da      	mvns	r2, r3
 8002c14:	68bb      	ldr	r3, [r7, #8]
 8002c16:	4013      	ands	r3, r2
 8002c18:	b29b      	uxth	r3, r3
 8002c1a:	2b00      	cmp	r3, #0
 8002c1c:	bf14      	ite	ne
 8002c1e:	2301      	movne	r3, #1
 8002c20:	2300      	moveq	r3, #0
 8002c22:	b2db      	uxtb	r3, r3
 8002c24:	e00b      	b.n	8002c3e <I2C_WaitOnMasterAddressFlagUntilTimeout+0xc2>
 8002c26:	68fb      	ldr	r3, [r7, #12]
 8002c28:	681b      	ldr	r3, [r3, #0]
 8002c2a:	699b      	ldr	r3, [r3, #24]
 8002c2c:	43da      	mvns	r2, r3
 8002c2e:	68bb      	ldr	r3, [r7, #8]
 8002c30:	4013      	ands	r3, r2
 8002c32:	b29b      	uxth	r3, r3
 8002c34:	2b00      	cmp	r3, #0
 8002c36:	bf14      	ite	ne
 8002c38:	2301      	movne	r3, #1
 8002c3a:	2300      	moveq	r3, #0
 8002c3c:	b2db      	uxtb	r3, r3
 8002c3e:	2b00      	cmp	r3, #0
 8002c40:	d016      	beq.n	8002c70 <I2C_WaitOnMasterAddressFlagUntilTimeout+0xf4>
 8002c42:	68fb      	ldr	r3, [r7, #12]
 8002c44:	2200      	movs	r2, #0
 8002c46:	631a      	str	r2, [r3, #48]	@ 0x30
 8002c48:	68fb      	ldr	r3, [r7, #12]
 8002c4a:	2220      	movs	r2, #32
 8002c4c:	f883 203d 	strb.w	r2, [r3, #61]	@ 0x3d
 8002c50:	68fb      	ldr	r3, [r7, #12]
 8002c52:	2200      	movs	r2, #0
 8002c54:	f883 203e 	strb.w	r2, [r3, #62]	@ 0x3e
 8002c58:	68fb      	ldr	r3, [r7, #12]
 8002c5a:	6c1b      	ldr	r3, [r3, #64]	@ 0x40
 8002c5c:	f043 0220 	orr.w	r2, r3, #32
 8002c60:	68fb      	ldr	r3, [r7, #12]
 8002c62:	641a      	str	r2, [r3, #64]	@ 0x40
 8002c64:	68fb      	ldr	r3, [r7, #12]
 8002c66:	2200      	movs	r2, #0
 8002c68:	f883 203c 	strb.w	r2, [r3, #60]	@ 0x3c
 8002c6c:	2301      	movs	r3, #1
 8002c6e:	e021      	b.n	8002cb4 <I2C_WaitOnMasterAddressFlagUntilTimeout+0x138>
 8002c70:	68bb      	ldr	r3, [r7, #8]
 8002c72:	0c1b      	lsrs	r3, r3, #16
 8002c74:	b2db      	uxtb	r3, r3
 8002c76:	2b01      	cmp	r3, #1
 8002c78:	d10c      	bne.n	8002c94 <I2C_WaitOnMasterAddressFlagUntilTimeout+0x118>
 8002c7a:	68fb      	ldr	r3, [r7, #12]
 8002c7c:	681b      	ldr	r3, [r3, #0]
 8002c7e:	695b      	ldr	r3, [r3, #20]
 8002c80:	43da      	mvns	r2, r3
 8002c82:	68bb      	ldr	r3, [r7, #8]
 8002c84:	4013      	ands	r3, r2
 8002c86:	b29b      	uxth	r3, r3
 8002c88:	2b00      	cmp	r3, #0
 8002c8a:	bf14      	ite	ne
 8002c8c:	2301      	movne	r3, #1
 8002c8e:	2300      	moveq	r3, #0
 8002c90:	b2db      	uxtb	r3, r3
 8002c92:	e00b      	b.n	8002cac <I2C_WaitOnMasterAddressFlagUntilTimeout+0x130>
 8002c94:	68fb      	ldr	r3, [r7, #12]
 8002c96:	681b      	ldr	r3, [r3, #0]
 8002c98:	699b      	ldr	r3, [r3, #24]
 8002c9a:	43da      	mvns	r2, r3
 8002c9c:	68bb      	ldr	r3, [r7, #8]
 8002c9e:	4013      	ands	r3, r2
 8002ca0:	b29b      	uxth	r3, r3
 8002ca2:	2b00      	cmp	r3, #0
 8002ca4:	bf14      	ite	ne
 8002ca6:	2301      	movne	r3, #1
 8002ca8:	2300      	moveq	r3, #0
 8002caa:	b2db      	uxtb	r3, r3
 8002cac:	2b00      	cmp	r3, #0
 8002cae:	f47f af6d 	bne.w	8002b8c <I2C_WaitOnMasterAddressFlagUntilTimeout+0x10>
 8002cb2:	2300      	movs	r3, #0
 8002cb4:	4618      	mov	r0, r3
 8002cb6:	3710      	adds	r7, #16
 8002cb8:	46bd      	mov	sp, r7
 8002cba:	bd80      	pop	{r7, pc}

08002cbc <I2C_WaitOnTXEFlagUntilTimeout>:
 8002cbc:	b580      	push	{r7, lr}
 8002cbe:	b084      	sub	sp, #16
 8002cc0:	af00      	add	r7, sp, #0
 8002cc2:	60f8      	str	r0, [r7, #12]
 8002cc4:	60b9      	str	r1, [r7, #8]
 8002cc6:	607a      	str	r2, [r7, #4]
 8002cc8:	e034      	b.n	8002d34 <I2C_WaitOnTXEFlagUntilTimeout+0x78>
 8002cca:	68f8      	ldr	r0, [r7, #12]
 8002ccc:	f000 f8e3 	bl	8002e96 <I2C_IsAcknowledgeFailed>
 8002cd0:	4603      	mov	r3, r0
 8002cd2:	2b00      	cmp	r3, #0
 8002cd4:	d001      	beq.n	8002cda <I2C_WaitOnTXEFlagUntilTimeout+0x1e>
 8002cd6:	2301      	movs	r3, #1
 8002cd8:	e034      	b.n	8002d44 <I2C_WaitOnTXEFlagUntilTimeout+0x88>
 8002cda:	68bb      	ldr	r3, [r7, #8]
 8002cdc:	f1b3 3fff 	cmp.w	r3, #4294967295
 8002ce0:	d028      	beq.n	8002d34 <I2C_WaitOnTXEFlagUntilTimeout+0x78>
 8002ce2:	f7fe fb3b 	bl	800135c <HAL_GetTick>
 8002ce6:	4602      	mov	r2, r0
 8002ce8:	687b      	ldr	r3, [r7, #4]
 8002cea:	1ad3      	subs	r3, r2, r3
 8002cec:	68ba      	ldr	r2, [r7, #8]
 8002cee:	429a      	cmp	r2, r3
 8002cf0:	d302      	bcc.n	8002cf8 <I2C_WaitOnTXEFlagUntilTimeout+0x3c>
 8002cf2:	68bb      	ldr	r3, [r7, #8]
 8002cf4:	2b00      	cmp	r3, #0
 8002cf6:	d11d      	bne.n	8002d34 <I2C_WaitOnTXEFlagUntilTimeout+0x78>
 8002cf8:	68fb      	ldr	r3, [r7, #12]
 8002cfa:	681b      	ldr	r3, [r3, #0]
 8002cfc:	695b      	ldr	r3, [r3, #20]
 8002cfe:	f003 0380 	and.w	r3, r3, #128	@ 0x80
 8002d02:	2b80      	cmp	r3, #128	@ 0x80
 8002d04:	d016      	beq.n	8002d34 <I2C_WaitOnTXEFlagUntilTimeout+0x78>
 8002d06:	68fb      	ldr	r3, [r7, #12]
 8002d08:	2200      	movs	r2, #0
 8002d0a:	631a      	str	r2, [r3, #48]	@ 0x30
 8002d0c:	68fb      	ldr	r3, [r7, #12]
 8002d0e:	2220      	movs	r2, #32
 8002d10:	f883 203d 	strb.w	r2, [r3, #61]	@ 0x3d
 8002d14:	68fb      	ldr	r3, [r7, #12]
 8002d16:	2200      	movs	r2, #0
 8002d18:	f883 203e 	strb.w	r2, [r3, #62]	@ 0x3e
 8002d1c:	68fb      	ldr	r3, [r7, #12]
 8002d1e:	6c1b      	ldr	r3, [r3, #64]	@ 0x40
 8002d20:	f043 0220 	orr.w	r2, r3, #32
 8002d24:	68fb      	ldr	r3, [r7, #12]
 8002d26:	641a      	str	r2, [r3, #64]	@ 0x40
 8002d28:	68fb      	ldr	r3, [r7, #12]
 8002d2a:	2200      	movs	r2, #0
 8002d2c:	f883 203c 	strb.w	r2, [r3, #60]	@ 0x3c
 8002d30:	2301      	movs	r3, #1
 8002d32:	e007      	b.n	8002d44 <I2C_WaitOnTXEFlagUntilTimeout+0x88>
 8002d34:	68fb      	ldr	r3, [r7, #12]
 8002d36:	681b      	ldr	r3, [r3, #0]
 8002d38:	695b      	ldr	r3, [r3, #20]
 8002d3a:	f003 0380 	and.w	r3, r3, #128	@ 0x80
 8002d3e:	2b80      	cmp	r3, #128	@ 0x80
 8002d40:	d1c3      	bne.n	8002cca <I2C_WaitOnTXEFlagUntilTimeout+0xe>
 8002d42:	2300      	movs	r3, #0
 8002d44:	4618      	mov	r0, r3
 8002d46:	3710      	adds	r7, #16
 8002d48:	46bd      	mov	sp, r7
 8002d4a:	bd80      	pop	{r7, pc}

08002d4c <I2C_WaitOnBTFFlagUntilTimeout>:
 8002d4c:	b580      	push	{r7, lr}
 8002d4e:	b084      	sub	sp, #16
 8002d50:	af00      	add	r7, sp, #0
 8002d52:	60f8      	str	r0, [r7, #12]
 8002d54:	60b9      	str	r1, [r7, #8]
 8002d56:	607a      	str	r2, [r7, #4]
 8002d58:	e034      	b.n	8002dc4 <I2C_WaitOnBTFFlagUntilTimeout+0x78>
 8002d5a:	68f8      	ldr	r0, [r7, #12]
 8002d5c:	f000 f89b 	bl	8002e96 <I2C_IsAcknowledgeFailed>
 8002d60:	4603      	mov	r3, r0
 8002d62:	2b00      	cmp	r3, #0
 8002d64:	d001      	beq.n	8002d6a <I2C_WaitOnBTFFlagUntilTimeout+0x1e>
 8002d66:	2301      	movs	r3, #1
 8002d68:	e034      	b.n	8002dd4 <I2C_WaitOnBTFFlagUntilTimeout+0x88>
 8002d6a:	68bb      	ldr	r3, [r7, #8]
 8002d6c:	f1b3 3fff 	cmp.w	r3, #4294967295
 8002d70:	d028      	beq.n	8002dc4 <I2C_WaitOnBTFFlagUntilTimeout+0x78>
 8002d72:	f7fe faf3 	bl	800135c <HAL_GetTick>
 8002d76:	4602      	mov	r2, r0
 8002d78:	687b      	ldr	r3, [r7, #4]
 8002d7a:	1ad3      	subs	r3, r2, r3
 8002d7c:	68ba      	ldr	r2, [r7, #8]
 8002d7e:	429a      	cmp	r2, r3
 8002d80:	d302      	bcc.n	8002d88 <I2C_WaitOnBTFFlagUntilTimeout+0x3c>
 8002d82:	68bb      	ldr	r3, [r7, #8]
 8002d84:	2b00      	cmp	r3, #0
 8002d86:	d11d      	bne.n	8002dc4 <I2C_WaitOnBTFFlagUntilTimeout+0x78>
 8002d88:	68fb      	ldr	r3, [r7, #12]
 8002d8a:	681b      	ldr	r3, [r3, #0]
 8002d8c:	695b      	ldr	r3, [r3, #20]
 8002d8e:	f003 0304 	and.w	r3, r3, #4
 8002d92:	2b04      	cmp	r3, #4
 8002d94:	d016      	beq.n	8002dc4 <I2C_WaitOnBTFFlagUntilTimeout+0x78>
 8002d96:	68fb      	ldr	r3, [r7, #12]
 8002d98:	2200      	movs	r2, #0
 8002d9a:	631a      	str	r2, [r3, #48]	@ 0x30
 8002d9c:	68fb      	ldr	r3, [r7, #12]
 8002d9e:	2220      	movs	r2, #32
 8002da0:	f883 203d 	strb.w	r2, [r3, #61]	@ 0x3d
 8002da4:	68fb      	ldr	r3, [r7, #12]
 8002da6:	2200      	movs	r2, #0
 8002da8:	f883 203e 	strb.w	r2, [r3, #62]	@ 0x3e
 8002dac:	68fb      	ldr	r3, [r7, #12]
 8002dae:	6c1b      	ldr	r3, [r3, #64]	@ 0x40
 8002db0:	f043 0220 	orr.w	r2, r3, #32
 8002db4:	68fb      	ldr	r3, [r7, #12]
 8002db6:	641a      	str	r2, [r3, #64]	@ 0x40
 8002db8:	68fb      	ldr	r3, [r7, #12]
 8002dba:	2200      	movs	r2, #0
 8002dbc:	f883 203c 	strb.w	r2, [r3, #60]	@ 0x3c
 8002dc0:	2301      	movs	r3, #1
 8002dc2:	e007      	b.n	8002dd4 <I2C_WaitOnBTFFlagUntilTimeout+0x88>
 8002dc4:	68fb      	ldr	r3, [r7, #12]
 8002dc6:	681b      	ldr	r3, [r3, #0]
 8002dc8:	695b      	ldr	r3, [r3, #20]
 8002dca:	f003 0304 	and.w	r3, r3, #4
 8002dce:	2b04      	cmp	r3, #4
 8002dd0:	d1c3      	bne.n	8002d5a <I2C_WaitOnBTFFlagUntilTimeout+0xe>
 8002dd2:	2300      	movs	r3, #0
 8002dd4:	4618      	mov	r0, r3
 8002dd6:	3710      	adds	r7, #16
 8002dd8:	46bd      	mov	sp, r7
 8002dda:	bd80      	pop	{r7, pc}

08002ddc <I2C_WaitOnRXNEFlagUntilTimeout>:
 8002ddc:	b580      	push	{r7, lr}
 8002dde:	b084      	sub	sp, #16
 8002de0:	af00      	add	r7, sp, #0
 8002de2:	60f8      	str	r0, [r7, #12]
 8002de4:	60b9      	str	r1, [r7, #8]
 8002de6:	607a      	str	r2, [r7, #4]
 8002de8:	e049      	b.n	8002e7e <I2C_WaitOnRXNEFlagUntilTimeout+0xa2>
 8002dea:	68fb      	ldr	r3, [r7, #12]
 8002dec:	681b      	ldr	r3, [r3, #0]
 8002dee:	695b      	ldr	r3, [r3, #20]
 8002df0:	f003 0310 	and.w	r3, r3, #16
 8002df4:	2b10      	cmp	r3, #16
 8002df6:	d119      	bne.n	8002e2c <I2C_WaitOnRXNEFlagUntilTimeout+0x50>
 8002df8:	68fb      	ldr	r3, [r7, #12]
 8002dfa:	681b      	ldr	r3, [r3, #0]
 8002dfc:	f06f 0210 	mvn.w	r2, #16
 8002e00:	615a      	str	r2, [r3, #20]
 8002e02:	68fb      	ldr	r3, [r7, #12]
 8002e04:	2200      	movs	r2, #0
 8002e06:	631a      	str	r2, [r3, #48]	@ 0x30
 8002e08:	68fb      	ldr	r3, [r7, #12]
 8002e0a:	2220      	movs	r2, #32
 8002e0c:	f883 203d 	strb.w	r2, [r3, #61]	@ 0x3d
 8002e10:	68fb      	ldr	r3, [r7, #12]
 8002e12:	2200      	movs	r2, #0
 8002e14:	f883 203e 	strb.w	r2, [r3, #62]	@ 0x3e
 8002e18:	68fb      	ldr	r3, [r7, #12]
 8002e1a:	6c1a      	ldr	r2, [r3, #64]	@ 0x40
 8002e1c:	68fb      	ldr	r3, [r7, #12]
 8002e1e:	641a      	str	r2, [r3, #64]	@ 0x40
 8002e20:	68fb      	ldr	r3, [r7, #12]
 8002e22:	2200      	movs	r2, #0
 8002e24:	f883 203c 	strb.w	r2, [r3, #60]	@ 0x3c
 8002e28:	2301      	movs	r3, #1
 8002e2a:	e030      	b.n	8002e8e <I2C_WaitOnRXNEFlagUntilTimeout+0xb2>
 8002e2c:	f7fe fa96 	bl	800135c <HAL_GetTick>
 8002e30:	4602      	mov	r2, r0
 8002e32:	687b      	ldr	r3, [r7, #4]
 8002e34:	1ad3      	subs	r3, r2, r3
 8002e36:	68ba      	ldr	r2, [r7, #8]
 8002e38:	429a      	cmp	r2, r3
 8002e3a:	d302      	bcc.n	8002e42 <I2C_WaitOnRXNEFlagUntilTimeout+0x66>
 8002e3c:	68bb      	ldr	r3, [r7, #8]
 8002e3e:	2b00      	cmp	r3, #0
 8002e40:	d11d      	bne.n	8002e7e <I2C_WaitOnRXNEFlagUntilTimeout+0xa2>
 8002e42:	68fb      	ldr	r3, [r7, #12]
 8002e44:	681b      	ldr	r3, [r3, #0]
 8002e46:	695b      	ldr	r3, [r3, #20]
 8002e48:	f003 0340 	and.w	r3, r3, #64	@ 0x40
 8002e4c:	2b40      	cmp	r3, #64	@ 0x40
 8002e4e:	d016      	beq.n	8002e7e <I2C_WaitOnRXNEFlagUntilTimeout+0xa2>
 8002e50:	68fb      	ldr	r3, [r7, #12]
 8002e52:	2200      	movs	r2, #0
 8002e54:	631a      	str	r2, [r3, #48]	@ 0x30
 8002e56:	68fb      	ldr	r3, [r7, #12]
 8002e58:	2220      	movs	r2, #32
 8002e5a:	f883 203d 	strb.w	r2, [r3, #61]	@ 0x3d
 8002e5e:	68fb      	ldr	r3, [r7, #12]
 8002e60:	2200      	movs	r2, #0
 8002e62:	f883 203e 	strb.w	r2, [r3, #62]	@ 0x3e
 8002e66:	68fb      	ldr	r3, [r7, #12]
 8002e68:	6c1b      	ldr	r3, [r3, #64]	@ 0x40
 8002e6a:	f043 0220 	orr.w	r2, r3, #32
 8002e6e:	68fb      	ldr	r3, [r7, #12]
 8002e70:	641a      	str	r2, [r3, #64]	@ 0x40
 8002e72:	68fb      	ldr	r3, [r7, #12]
 8002e74:	2200      	movs	r2, #0
 8002e76:	f883 203c 	strb.w	r2, [r3, #60]	@ 0x3c
 8002e7a:	2301      	movs	r3, #1
 8002e7c:	e007      	b.n	8002e8e <I2C_WaitOnRXNEFlagUntilTimeout+0xb2>
 8002e7e:	68fb      	ldr	r3, [r7, #12]
 8002e80:	681b      	ldr	r3, [r3, #0]
 8002e82:	695b      	ldr	r3, [r3, #20]
 8002e84:	f003 0340 	and.w	r3, r3, #64	@ 0x40
 8002e88:	2b40      	cmp	r3, #64	@ 0x40
 8002e8a:	d1ae      	bne.n	8002dea <I2C_WaitOnRXNEFlagUntilTimeout+0xe>
 8002e8c:	2300      	movs	r3, #0
 8002e8e:	4618      	mov	r0, r3
 8002e90:	3710      	adds	r7, #16
 8002e92:	46bd      	mov	sp, r7
 8002e94:	bd80      	pop	{r7, pc}

08002e96 <I2C_IsAcknowledgeFailed>:
 8002e96:	b480      	push	{r7}
 8002e98:	b083      	sub	sp, #12
 8002e9a:	af00      	add	r7, sp, #0
 8002e9c:	6078      	str	r0, [r7, #4]
 8002e9e:	687b      	ldr	r3, [r7, #4]
 8002ea0:	681b      	ldr	r3, [r3, #0]
 8002ea2:	695b      	ldr	r3, [r3, #20]
 8002ea4:	f403 6380 	and.w	r3, r3, #1024	@ 0x400
 8002ea8:	f5b3 6f80 	cmp.w	r3, #1024	@ 0x400
 8002eac:	d11b      	bne.n	8002ee6 <I2C_IsAcknowledgeFailed+0x50>
 8002eae:	687b      	ldr	r3, [r7, #4]
 8002eb0:	681b      	ldr	r3, [r3, #0]
 8002eb2:	f46f 6280 	mvn.w	r2, #1024	@ 0x400
 8002eb6:	615a      	str	r2, [r3, #20]
 8002eb8:	687b      	ldr	r3, [r7, #4]
 8002eba:	2200      	movs	r2, #0
 8002ebc:	631a      	str	r2, [r3, #48]	@ 0x30
 8002ebe:	687b      	ldr	r3, [r7, #4]
 8002ec0:	2220      	movs	r2, #32
 8002ec2:	f883 203d 	strb.w	r2, [r3, #61]	@ 0x3d
 8002ec6:	687b      	ldr	r3, [r7, #4]
 8002ec8:	2200      	movs	r2, #0
 8002eca:	f883 203e 	strb.w	r2, [r3, #62]	@ 0x3e
 8002ece:	687b      	ldr	r3, [r7, #4]
 8002ed0:	6c1b      	ldr	r3, [r3, #64]	@ 0x40
 8002ed2:	f043 0204 	orr.w	r2, r3, #4
 8002ed6:	687b      	ldr	r3, [r7, #4]
 8002ed8:	641a      	str	r2, [r3, #64]	@ 0x40
 8002eda:	687b      	ldr	r3, [r7, #4]
 8002edc:	2200      	movs	r2, #0
 8002ede:	f883 203c 	strb.w	r2, [r3, #60]	@ 0x3c
 8002ee2:	2301      	movs	r3, #1
 8002ee4:	e000      	b.n	8002ee8 <I2C_IsAcknowledgeFailed+0x52>
 8002ee6:	2300      	movs	r3, #0
 8002ee8:	4618      	mov	r0, r3
 8002eea:	370c      	adds	r7, #12
 8002eec:	46bd      	mov	sp, r7
 8002eee:	bc80      	pop	{r7}
 8002ef0:	4770      	bx	lr
	...

08002ef4 <HAL_RCC_OscConfig>:
 8002ef4:	b580      	push	{r7, lr}
 8002ef6:	b086      	sub	sp, #24
 8002ef8:	af00      	add	r7, sp, #0
 8002efa:	6078      	str	r0, [r7, #4]
 8002efc:	687b      	ldr	r3, [r7, #4]
 8002efe:	2b00      	cmp	r3, #0
 8002f00:	d101      	bne.n	8002f06 <HAL_RCC_OscConfig+0x12>
 8002f02:	2301      	movs	r3, #1
 8002f04:	e272      	b.n	80033ec <HAL_RCC_OscConfig+0x4f8>
 8002f06:	687b      	ldr	r3, [r7, #4]
 8002f08:	681b      	ldr	r3, [r3, #0]
 8002f0a:	f003 0301 	and.w	r3, r3, #1
 8002f0e:	2b00      	cmp	r3, #0
 8002f10:	f000 8087 	beq.w	8003022 <HAL_RCC_OscConfig+0x12e>
 8002f14:	4b92      	ldr	r3, [pc, #584]	@ (8003160 <HAL_RCC_OscConfig+0x26c>)
 8002f16:	685b      	ldr	r3, [r3, #4]
 8002f18:	f003 030c 	and.w	r3, r3, #12
 8002f1c:	2b04      	cmp	r3, #4
 8002f1e:	d00c      	beq.n	8002f3a <HAL_RCC_OscConfig+0x46>
 8002f20:	4b8f      	ldr	r3, [pc, #572]	@ (8003160 <HAL_RCC_OscConfig+0x26c>)
 8002f22:	685b      	ldr	r3, [r3, #4]
 8002f24:	f003 030c 	and.w	r3, r3, #12
 8002f28:	2b08      	cmp	r3, #8
 8002f2a:	d112      	bne.n	8002f52 <HAL_RCC_OscConfig+0x5e>
 8002f2c:	4b8c      	ldr	r3, [pc, #560]	@ (8003160 <HAL_RCC_OscConfig+0x26c>)
 8002f2e:	685b      	ldr	r3, [r3, #4]
 8002f30:	f403 3380 	and.w	r3, r3, #65536	@ 0x10000
 8002f34:	f5b3 3f80 	cmp.w	r3, #65536	@ 0x10000
 8002f38:	d10b      	bne.n	8002f52 <HAL_RCC_OscConfig+0x5e>
 8002f3a:	4b89      	ldr	r3, [pc, #548]	@ (8003160 <HAL_RCC_OscConfig+0x26c>)
 8002f3c:	681b      	ldr	r3, [r3, #0]
 8002f3e:	f403 3300 	and.w	r3, r3, #131072	@ 0x20000
 8002f42:	2b00      	cmp	r3, #0
 8002f44:	d06c      	beq.n	8003020 <HAL_RCC_OscConfig+0x12c>
 8002f46:	687b      	ldr	r3, [r7, #4]
 8002f48:	685b      	ldr	r3, [r3, #4]
 8002f4a:	2b00      	cmp	r3, #0
 8002f4c:	d168      	bne.n	8003020 <HAL_RCC_OscConfig+0x12c>
 8002f4e:	2301      	movs	r3, #1
 8002f50:	e24c      	b.n	80033ec <HAL_RCC_OscConfig+0x4f8>
 8002f52:	687b      	ldr	r3, [r7, #4]
 8002f54:	685b      	ldr	r3, [r3, #4]
 8002f56:	f5b3 3f80 	cmp.w	r3, #65536	@ 0x10000
 8002f5a:	d106      	bne.n	8002f6a <HAL_RCC_OscConfig+0x76>
 8002f5c:	4b80      	ldr	r3, [pc, #512]	@ (8003160 <HAL_RCC_OscConfig+0x26c>)
 8002f5e:	681b      	ldr	r3, [r3, #0]
 8002f60:	4a7f      	ldr	r2, [pc, #508]	@ (8003160 <HAL_RCC_OscConfig+0x26c>)
 8002f62:	f443 3380 	orr.w	r3, r3, #65536	@ 0x10000
 8002f66:	6013      	str	r3, [r2, #0]
 8002f68:	e02e      	b.n	8002fc8 <HAL_RCC_OscConfig+0xd4>
 8002f6a:	687b      	ldr	r3, [r7, #4]
 8002f6c:	685b      	ldr	r3, [r3, #4]
 8002f6e:	2b00      	cmp	r3, #0
 8002f70:	d10c      	bne.n	8002f8c <HAL_RCC_OscConfig+0x98>
 8002f72:	4b7b      	ldr	r3, [pc, #492]	@ (8003160 <HAL_RCC_OscConfig+0x26c>)
 8002f74:	681b      	ldr	r3, [r3, #0]
 8002f76:	4a7a      	ldr	r2, [pc, #488]	@ (8003160 <HAL_RCC_OscConfig+0x26c>)
 8002f78:	f423 3380 	bic.w	r3, r3, #65536	@ 0x10000
 8002f7c:	6013      	str	r3, [r2, #0]
 8002f7e:	4b78      	ldr	r3, [pc, #480]	@ (8003160 <HAL_RCC_OscConfig+0x26c>)
 8002f80:	681b      	ldr	r3, [r3, #0]
 8002f82:	4a77      	ldr	r2, [pc, #476]	@ (8003160 <HAL_RCC_OscConfig+0x26c>)
 8002f84:	f423 2380 	bic.w	r3, r3, #262144	@ 0x40000
 8002f88:	6013      	str	r3, [r2, #0]
 8002f8a:	e01d      	b.n	8002fc8 <HAL_RCC_OscConfig+0xd4>
 8002f8c:	687b      	ldr	r3, [r7, #4]
 8002f8e:	685b      	ldr	r3, [r3, #4]
 8002f90:	f5b3 2fa0 	cmp.w	r3, #327680	@ 0x50000
 8002f94:	d10c      	bne.n	8002fb0 <HAL_RCC_OscConfig+0xbc>
 8002f96:	4b72      	ldr	r3, [pc, #456]	@ (8003160 <HAL_RCC_OscConfig+0x26c>)
 8002f98:	681b      	ldr	r3, [r3, #0]
 8002f9a:	4a71      	ldr	r2, [pc, #452]	@ (8003160 <HAL_RCC_OscConfig+0x26c>)
 8002f9c:	f443 2380 	orr.w	r3, r3, #262144	@ 0x40000
 8002fa0:	6013      	str	r3, [r2, #0]
 8002fa2:	4b6f      	ldr	r3, [pc, #444]	@ (8003160 <HAL_RCC_OscConfig+0x26c>)
 8002fa4:	681b      	ldr	r3, [r3, #0]
 8002fa6:	4a6e      	ldr	r2, [pc, #440]	@ (8003160 <HAL_RCC_OscConfig+0x26c>)
 8002fa8:	f443 3380 	orr.w	r3, r3, #65536	@ 0x10000
 8002fac:	6013      	str	r3, [r2, #0]
 8002fae:	e00b      	b.n	8002fc8 <HAL_RCC_OscConfig+0xd4>
 8002fb0:	4b6b      	ldr	r3, [pc, #428]	@ (8003160 <HAL_RCC_OscConfig+0x26c>)
 8002fb2:	681b      	ldr	r3, [r3, #0]
 8002fb4:	4a6a      	ldr	r2, [pc, #424]	@ (8003160 <HAL_RCC_OscConfig+0x26c>)
 8002fb6:	f423 3380 	bic.w	r3, r3, #65536	@ 0x10000
 8002fba:	6013      	str	r3, [r2, #0]
 8002fbc:	4b68      	ldr	r3, [pc, #416]	@ (8003160 <HAL_RCC_OscConfig+0x26c>)
 8002fbe:	681b      	ldr	r3, [r3, #0]
 8002fc0:	4a67      	ldr	r2, [pc, #412]	@ (8003160 <HAL_RCC_OscConfig+0x26c>)
 8002fc2:	f423 2380 	bic.w	r3, r3, #262144	@ 0x40000
 8002fc6:	6013      	str	r3, [r2, #0]
 8002fc8:	687b      	ldr	r3, [r7, #4]
 8002fca:	685b      	ldr	r3, [r3, #4]
 8002fcc:	2b00      	cmp	r3, #0
 8002fce:	d013      	beq.n	8002ff8 <HAL_RCC_OscConfig+0x104>
 8002fd0:	f7fe f9c4 	bl	800135c <HAL_GetTick>
 8002fd4:	6138      	str	r0, [r7, #16]
 8002fd6:	e008      	b.n	8002fea <HAL_RCC_OscConfig+0xf6>
 8002fd8:	f7fe f9c0 	bl	800135c <HAL_GetTick>
 8002fdc:	4602      	mov	r2, r0
 8002fde:	693b      	ldr	r3, [r7, #16]
 8002fe0:	1ad3      	subs	r3, r2, r3
 8002fe2:	2b64      	cmp	r3, #100	@ 0x64
 8002fe4:	d901      	bls.n	8002fea <HAL_RCC_OscConfig+0xf6>
 8002fe6:	2303      	movs	r3, #3
 8002fe8:	e200      	b.n	80033ec <HAL_RCC_OscConfig+0x4f8>
 8002fea:	4b5d      	ldr	r3, [pc, #372]	@ (8003160 <HAL_RCC_OscConfig+0x26c>)
 8002fec:	681b      	ldr	r3, [r3, #0]
 8002fee:	f403 3300 	and.w	r3, r3, #131072	@ 0x20000
 8002ff2:	2b00      	cmp	r3, #0
 8002ff4:	d0f0      	beq.n	8002fd8 <HAL_RCC_OscConfig+0xe4>
 8002ff6:	e014      	b.n	8003022 <HAL_RCC_OscConfig+0x12e>
 8002ff8:	f7fe f9b0 	bl	800135c <HAL_GetTick>
 8002ffc:	6138      	str	r0, [r7, #16]
 8002ffe:	e008      	b.n	8003012 <HAL_RCC_OscConfig+0x11e>
 8003000:	f7fe f9ac 	bl	800135c <HAL_GetTick>
 8003004:	4602      	mov	r2, r0
 8003006:	693b      	ldr	r3, [r7, #16]
 8003008:	1ad3      	subs	r3, r2, r3
 800300a:	2b64      	cmp	r3, #100	@ 0x64
 800300c:	d901      	bls.n	8003012 <HAL_RCC_OscConfig+0x11e>
 800300e:	2303      	movs	r3, #3
 8003010:	e1ec      	b.n	80033ec <HAL_RCC_OscConfig+0x4f8>
 8003012:	4b53      	ldr	r3, [pc, #332]	@ (8003160 <HAL_RCC_OscConfig+0x26c>)
 8003014:	681b      	ldr	r3, [r3, #0]
 8003016:	f403 3300 	and.w	r3, r3, #131072	@ 0x20000
 800301a:	2b00      	cmp	r3, #0
 800301c:	d1f0      	bne.n	8003000 <HAL_RCC_OscConfig+0x10c>
 800301e:	e000      	b.n	8003022 <HAL_RCC_OscConfig+0x12e>
 8003020:	bf00      	nop
 8003022:	687b      	ldr	r3, [r7, #4]
 8003024:	681b      	ldr	r3, [r3, #0]
 8003026:	f003 0302 	and.w	r3, r3, #2
 800302a:	2b00      	cmp	r3, #0
 800302c:	d063      	beq.n	80030f6 <HAL_RCC_OscConfig+0x202>
 800302e:	4b4c      	ldr	r3, [pc, #304]	@ (8003160 <HAL_RCC_OscConfig+0x26c>)
 8003030:	685b      	ldr	r3, [r3, #4]
 8003032:	f003 030c 	and.w	r3, r3, #12
 8003036:	2b00      	cmp	r3, #0
 8003038:	d00b      	beq.n	8003052 <HAL_RCC_OscConfig+0x15e>
 800303a:	4b49      	ldr	r3, [pc, #292]	@ (8003160 <HAL_RCC_OscConfig+0x26c>)
 800303c:	685b      	ldr	r3, [r3, #4]
 800303e:	f003 030c 	and.w	r3, r3, #12
 8003042:	2b08      	cmp	r3, #8
 8003044:	d11c      	bne.n	8003080 <HAL_RCC_OscConfig+0x18c>
 8003046:	4b46      	ldr	r3, [pc, #280]	@ (8003160 <HAL_RCC_OscConfig+0x26c>)
 8003048:	685b      	ldr	r3, [r3, #4]
 800304a:	f403 3380 	and.w	r3, r3, #65536	@ 0x10000
 800304e:	2b00      	cmp	r3, #0
 8003050:	d116      	bne.n	8003080 <HAL_RCC_OscConfig+0x18c>
 8003052:	4b43      	ldr	r3, [pc, #268]	@ (8003160 <HAL_RCC_OscConfig+0x26c>)
 8003054:	681b      	ldr	r3, [r3, #0]
 8003056:	f003 0302 	and.w	r3, r3, #2
 800305a:	2b00      	cmp	r3, #0
 800305c:	d005      	beq.n	800306a <HAL_RCC_OscConfig+0x176>
 800305e:	687b      	ldr	r3, [r7, #4]
 8003060:	691b      	ldr	r3, [r3, #16]
 8003062:	2b01      	cmp	r3, #1
 8003064:	d001      	beq.n	800306a <HAL_RCC_OscConfig+0x176>
 8003066:	2301      	movs	r3, #1
 8003068:	e1c0      	b.n	80033ec <HAL_RCC_OscConfig+0x4f8>
 800306a:	4b3d      	ldr	r3, [pc, #244]	@ (8003160 <HAL_RCC_OscConfig+0x26c>)
 800306c:	681b      	ldr	r3, [r3, #0]
 800306e:	f023 02f8 	bic.w	r2, r3, #248	@ 0xf8
 8003072:	687b      	ldr	r3, [r7, #4]
 8003074:	695b      	ldr	r3, [r3, #20]
 8003076:	00db      	lsls	r3, r3, #3
 8003078:	4939      	ldr	r1, [pc, #228]	@ (8003160 <HAL_RCC_OscConfig+0x26c>)
 800307a:	4313      	orrs	r3, r2
 800307c:	600b      	str	r3, [r1, #0]
 800307e:	e03a      	b.n	80030f6 <HAL_RCC_OscConfig+0x202>
 8003080:	687b      	ldr	r3, [r7, #4]
 8003082:	691b      	ldr	r3, [r3, #16]
 8003084:	2b00      	cmp	r3, #0
 8003086:	d020      	beq.n	80030ca <HAL_RCC_OscConfig+0x1d6>
 8003088:	4b36      	ldr	r3, [pc, #216]	@ (8003164 <HAL_RCC_OscConfig+0x270>)
 800308a:	2201      	movs	r2, #1
 800308c:	601a      	str	r2, [r3, #0]
 800308e:	f7fe f965 	bl	800135c <HAL_GetTick>
 8003092:	6138      	str	r0, [r7, #16]
 8003094:	e008      	b.n	80030a8 <HAL_RCC_OscConfig+0x1b4>
 8003096:	f7fe f961 	bl	800135c <HAL_GetTick>
 800309a:	4602      	mov	r2, r0
 800309c:	693b      	ldr	r3, [r7, #16]
 800309e:	1ad3      	subs	r3, r2, r3
 80030a0:	2b02      	cmp	r3, #2
 80030a2:	d901      	bls.n	80030a8 <HAL_RCC_OscConfig+0x1b4>
 80030a4:	2303      	movs	r3, #3
 80030a6:	e1a1      	b.n	80033ec <HAL_RCC_OscConfig+0x4f8>
 80030a8:	4b2d      	ldr	r3, [pc, #180]	@ (8003160 <HAL_RCC_OscConfig+0x26c>)
 80030aa:	681b      	ldr	r3, [r3, #0]
 80030ac:	f003 0302 	and.w	r3, r3, #2
 80030b0:	2b00      	cmp	r3, #0
 80030b2:	d0f0      	beq.n	8003096 <HAL_RCC_OscConfig+0x1a2>
 80030b4:	4b2a      	ldr	r3, [pc, #168]	@ (8003160 <HAL_RCC_OscConfig+0x26c>)
 80030b6:	681b      	ldr	r3, [r3, #0]
 80030b8:	f023 02f8 	bic.w	r2, r3, #248	@ 0xf8
 80030bc:	687b      	ldr	r3, [r7, #4]
 80030be:	695b      	ldr	r3, [r3, #20]
 80030c0:	00db      	lsls	r3, r3, #3
 80030c2:	4927      	ldr	r1, [pc, #156]	@ (8003160 <HAL_RCC_OscConfig+0x26c>)
 80030c4:	4313      	orrs	r3, r2
 80030c6:	600b      	str	r3, [r1, #0]
 80030c8:	e015      	b.n	80030f6 <HAL_RCC_OscConfig+0x202>
 80030ca:	4b26      	ldr	r3, [pc, #152]	@ (8003164 <HAL_RCC_OscConfig+0x270>)
 80030cc:	2200      	movs	r2, #0
 80030ce:	601a      	str	r2, [r3, #0]
 80030d0:	f7fe f944 	bl	800135c <HAL_GetTick>
 80030d4:	6138      	str	r0, [r7, #16]
 80030d6:	e008      	b.n	80030ea <HAL_RCC_OscConfig+0x1f6>
 80030d8:	f7fe f940 	bl	800135c <HAL_GetTick>
 80030dc:	4602      	mov	r2, r0
 80030de:	693b      	ldr	r3, [r7, #16]
 80030e0:	1ad3      	subs	r3, r2, r3
 80030e2:	2b02      	cmp	r3, #2
 80030e4:	d901      	bls.n	80030ea <HAL_RCC_OscConfig+0x1f6>
 80030e6:	2303      	movs	r3, #3
 80030e8:	e180      	b.n	80033ec <HAL_RCC_OscConfig+0x4f8>
 80030ea:	4b1d      	ldr	r3, [pc, #116]	@ (8003160 <HAL_RCC_OscConfig+0x26c>)
 80030ec:	681b      	ldr	r3, [r3, #0]
 80030ee:	f003 0302 	and.w	r3, r3, #2
 80030f2:	2b00      	cmp	r3, #0
 80030f4:	d1f0      	bne.n	80030d8 <HAL_RCC_OscConfig+0x1e4>
 80030f6:	687b      	ldr	r3, [r7, #4]
 80030f8:	681b      	ldr	r3, [r3, #0]
 80030fa:	f003 0308 	and.w	r3, r3, #8
 80030fe:	2b00      	cmp	r3, #0
 8003100:	d03a      	beq.n	8003178 <HAL_RCC_OscConfig+0x284>
 8003102:	687b      	ldr	r3, [r7, #4]
 8003104:	699b      	ldr	r3, [r3, #24]
 8003106:	2b00      	cmp	r3, #0
 8003108:	d019      	beq.n	800313e <HAL_RCC_OscConfig+0x24a>
 800310a:	4b17      	ldr	r3, [pc, #92]	@ (8003168 <HAL_RCC_OscConfig+0x274>)
 800310c:	2201      	movs	r2, #1
 800310e:	601a      	str	r2, [r3, #0]
 8003110:	f7fe f924 	bl	800135c <HAL_GetTick>
 8003114:	6138      	str	r0, [r7, #16]
 8003116:	e008      	b.n	800312a <HAL_RCC_OscConfig+0x236>
 8003118:	f7fe f920 	bl	800135c <HAL_GetTick>
 800311c:	4602      	mov	r2, r0
 800311e:	693b      	ldr	r3, [r7, #16]
 8003120:	1ad3      	subs	r3, r2, r3
 8003122:	2b02      	cmp	r3, #2
 8003124:	d901      	bls.n	800312a <HAL_RCC_OscConfig+0x236>
 8003126:	2303      	movs	r3, #3
 8003128:	e160      	b.n	80033ec <HAL_RCC_OscConfig+0x4f8>
 800312a:	4b0d      	ldr	r3, [pc, #52]	@ (8003160 <HAL_RCC_OscConfig+0x26c>)
 800312c:	6a5b      	ldr	r3, [r3, #36]	@ 0x24
 800312e:	f003 0302 	and.w	r3, r3, #2
 8003132:	2b00      	cmp	r3, #0
 8003134:	d0f0      	beq.n	8003118 <HAL_RCC_OscConfig+0x224>
 8003136:	2001      	movs	r0, #1
 8003138:	f000 face 	bl	80036d8 <RCC_Delay>
 800313c:	e01c      	b.n	8003178 <HAL_RCC_OscConfig+0x284>
 800313e:	4b0a      	ldr	r3, [pc, #40]	@ (8003168 <HAL_RCC_OscConfig+0x274>)
 8003140:	2200      	movs	r2, #0
 8003142:	601a      	str	r2, [r3, #0]
 8003144:	f7fe f90a 	bl	800135c <HAL_GetTick>
 8003148:	6138      	str	r0, [r7, #16]
 800314a:	e00f      	b.n	800316c <HAL_RCC_OscConfig+0x278>
 800314c:	f7fe f906 	bl	800135c <HAL_GetTick>
 8003150:	4602      	mov	r2, r0
 8003152:	693b      	ldr	r3, [r7, #16]
 8003154:	1ad3      	subs	r3, r2, r3
 8003156:	2b02      	cmp	r3, #2
 8003158:	d908      	bls.n	800316c <HAL_RCC_OscConfig+0x278>
 800315a:	2303      	movs	r3, #3
 800315c:	e146      	b.n	80033ec <HAL_RCC_OscConfig+0x4f8>
 800315e:	bf00      	nop
 8003160:	40021000 	.word	0x40021000
 8003164:	42420000 	.word	0x42420000
 8003168:	42420480 	.word	0x42420480
 800316c:	4b92      	ldr	r3, [pc, #584]	@ (80033b8 <HAL_RCC_OscConfig+0x4c4>)
 800316e:	6a5b      	ldr	r3, [r3, #36]	@ 0x24
 8003170:	f003 0302 	and.w	r3, r3, #2
 8003174:	2b00      	cmp	r3, #0
 8003176:	d1e9      	bne.n	800314c <HAL_RCC_OscConfig+0x258>
 8003178:	687b      	ldr	r3, [r7, #4]
 800317a:	681b      	ldr	r3, [r3, #0]
 800317c:	f003 0304 	and.w	r3, r3, #4
 8003180:	2b00      	cmp	r3, #0
 8003182:	f000 80a6 	beq.w	80032d2 <HAL_RCC_OscConfig+0x3de>
 8003186:	2300      	movs	r3, #0
 8003188:	75fb      	strb	r3, [r7, #23]
 800318a:	4b8b      	ldr	r3, [pc, #556]	@ (80033b8 <HAL_RCC_OscConfig+0x4c4>)
 800318c:	69db      	ldr	r3, [r3, #28]
 800318e:	f003 5380 	and.w	r3, r3, #268435456	@ 0x10000000
 8003192:	2b00      	cmp	r3, #0
 8003194:	d10d      	bne.n	80031b2 <HAL_RCC_OscConfig+0x2be>
 8003196:	4b88      	ldr	r3, [pc, #544]	@ (80033b8 <HAL_RCC_OscConfig+0x4c4>)
 8003198:	69db      	ldr	r3, [r3, #28]
 800319a:	4a87      	ldr	r2, [pc, #540]	@ (80033b8 <HAL_RCC_OscConfig+0x4c4>)
 800319c:	f043 5380 	orr.w	r3, r3, #268435456	@ 0x10000000
 80031a0:	61d3      	str	r3, [r2, #28]
 80031a2:	4b85      	ldr	r3, [pc, #532]	@ (80033b8 <HAL_RCC_OscConfig+0x4c4>)
 80031a4:	69db      	ldr	r3, [r3, #28]
 80031a6:	f003 5380 	and.w	r3, r3, #268435456	@ 0x10000000
 80031aa:	60bb      	str	r3, [r7, #8]
 80031ac:	68bb      	ldr	r3, [r7, #8]
 80031ae:	2301      	movs	r3, #1
 80031b0:	75fb      	strb	r3, [r7, #23]
 80031b2:	4b82      	ldr	r3, [pc, #520]	@ (80033bc <HAL_RCC_OscConfig+0x4c8>)
 80031b4:	681b      	ldr	r3, [r3, #0]
 80031b6:	f403 7380 	and.w	r3, r3, #256	@ 0x100
 80031ba:	2b00      	cmp	r3, #0
 80031bc:	d118      	bne.n	80031f0 <HAL_RCC_OscConfig+0x2fc>
 80031be:	4b7f      	ldr	r3, [pc, #508]	@ (80033bc <HAL_RCC_OscConfig+0x4c8>)
 80031c0:	681b      	ldr	r3, [r3, #0]
 80031c2:	4a7e      	ldr	r2, [pc, #504]	@ (80033bc <HAL_RCC_OscConfig+0x4c8>)
 80031c4:	f443 7380 	orr.w	r3, r3, #256	@ 0x100
 80031c8:	6013      	str	r3, [r2, #0]
 80031ca:	f7fe f8c7 	bl	800135c <HAL_GetTick>
 80031ce:	6138      	str	r0, [r7, #16]
 80031d0:	e008      	b.n	80031e4 <HAL_RCC_OscConfig+0x2f0>
 80031d2:	f7fe f8c3 	bl	800135c <HAL_GetTick>
 80031d6:	4602      	mov	r2, r0
 80031d8:	693b      	ldr	r3, [r7, #16]
 80031da:	1ad3      	subs	r3, r2, r3
 80031dc:	2b64      	cmp	r3, #100	@ 0x64
 80031de:	d901      	bls.n	80031e4 <HAL_RCC_OscConfig+0x2f0>
 80031e0:	2303      	movs	r3, #3
 80031e2:	e103      	b.n	80033ec <HAL_RCC_OscConfig+0x4f8>
 80031e4:	4b75      	ldr	r3, [pc, #468]	@ (80033bc <HAL_RCC_OscConfig+0x4c8>)
 80031e6:	681b      	ldr	r3, [r3, #0]
 80031e8:	f403 7380 	and.w	r3, r3, #256	@ 0x100
 80031ec:	2b00      	cmp	r3, #0
 80031ee:	d0f0      	beq.n	80031d2 <HAL_RCC_OscConfig+0x2de>
 80031f0:	687b      	ldr	r3, [r7, #4]
 80031f2:	68db      	ldr	r3, [r3, #12]
 80031f4:	2b01      	cmp	r3, #1
 80031f6:	d106      	bne.n	8003206 <HAL_RCC_OscConfig+0x312>
 80031f8:	4b6f      	ldr	r3, [pc, #444]	@ (80033b8 <HAL_RCC_OscConfig+0x4c4>)
 80031fa:	6a1b      	ldr	r3, [r3, #32]
 80031fc:	4a6e      	ldr	r2, [pc, #440]	@ (80033b8 <HAL_RCC_OscConfig+0x4c4>)
 80031fe:	f043 0301 	orr.w	r3, r3, #1
 8003202:	6213      	str	r3, [r2, #32]
 8003204:	e02d      	b.n	8003262 <HAL_RCC_OscConfig+0x36e>
 8003206:	687b      	ldr	r3, [r7, #4]
 8003208:	68db      	ldr	r3, [r3, #12]
 800320a:	2b00      	cmp	r3, #0
 800320c:	d10c      	bne.n	8003228 <HAL_RCC_OscConfig+0x334>
 800320e:	4b6a      	ldr	r3, [pc, #424]	@ (80033b8 <HAL_RCC_OscConfig+0x4c4>)
 8003210:	6a1b      	ldr	r3, [r3, #32]
 8003212:	4a69      	ldr	r2, [pc, #420]	@ (80033b8 <HAL_RCC_OscConfig+0x4c4>)
 8003214:	f023 0301 	bic.w	r3, r3, #1
 8003218:	6213      	str	r3, [r2, #32]
 800321a:	4b67      	ldr	r3, [pc, #412]	@ (80033b8 <HAL_RCC_OscConfig+0x4c4>)
 800321c:	6a1b      	ldr	r3, [r3, #32]
 800321e:	4a66      	ldr	r2, [pc, #408]	@ (80033b8 <HAL_RCC_OscConfig+0x4c4>)
 8003220:	f023 0304 	bic.w	r3, r3, #4
 8003224:	6213      	str	r3, [r2, #32]
 8003226:	e01c      	b.n	8003262 <HAL_RCC_OscConfig+0x36e>
 8003228:	687b      	ldr	r3, [r7, #4]
 800322a:	68db      	ldr	r3, [r3, #12]
 800322c:	2b05      	cmp	r3, #5
 800322e:	d10c      	bne.n	800324a <HAL_RCC_OscConfig+0x356>
 8003230:	4b61      	ldr	r3, [pc, #388]	@ (80033b8 <HAL_RCC_OscConfig+0x4c4>)
 8003232:	6a1b      	ldr	r3, [r3, #32]
 8003234:	4a60      	ldr	r2, [pc, #384]	@ (80033b8 <HAL_RCC_OscConfig+0x4c4>)
 8003236:	f043 0304 	orr.w	r3, r3, #4
 800323a:	6213      	str	r3, [r2, #32]
 800323c:	4b5e      	ldr	r3, [pc, #376]	@ (80033b8 <HAL_RCC_OscConfig+0x4c4>)
 800323e:	6a1b      	ldr	r3, [r3, #32]
 8003240:	4a5d      	ldr	r2, [pc, #372]	@ (80033b8 <HAL_RCC_OscConfig+0x4c4>)
 8003242:	f043 0301 	orr.w	r3, r3, #1
 8003246:	6213      	str	r3, [r2, #32]
 8003248:	e00b      	b.n	8003262 <HAL_RCC_OscConfig+0x36e>
 800324a:	4b5b      	ldr	r3, [pc, #364]	@ (80033b8 <HAL_RCC_OscConfig+0x4c4>)
 800324c:	6a1b      	ldr	r3, [r3, #32]
 800324e:	4a5a      	ldr	r2, [pc, #360]	@ (80033b8 <HAL_RCC_OscConfig+0x4c4>)
 8003250:	f023 0301 	bic.w	r3, r3, #1
 8003254:	6213      	str	r3, [r2, #32]
 8003256:	4b58      	ldr	r3, [pc, #352]	@ (80033b8 <HAL_RCC_OscConfig+0x4c4>)
 8003258:	6a1b      	ldr	r3, [r3, #32]
 800325a:	4a57      	ldr	r2, [pc, #348]	@ (80033b8 <HAL_RCC_OscConfig+0x4c4>)
 800325c:	f023 0304 	bic.w	r3, r3, #4
 8003260:	6213      	str	r3, [r2, #32]
 8003262:	687b      	ldr	r3, [r7, #4]
 8003264:	68db      	ldr	r3, [r3, #12]
 8003266:	2b00      	cmp	r3, #0
 8003268:	d015      	beq.n	8003296 <HAL_RCC_OscConfig+0x3a2>
 800326a:	f7fe f877 	bl	800135c <HAL_GetTick>
 800326e:	6138      	str	r0, [r7, #16]
 8003270:	e00a      	b.n	8003288 <HAL_RCC_OscConfig+0x394>
 8003272:	f7fe f873 	bl	800135c <HAL_GetTick>
 8003276:	4602      	mov	r2, r0
 8003278:	693b      	ldr	r3, [r7, #16]
 800327a:	1ad3      	subs	r3, r2, r3
 800327c:	f241 3288 	movw	r2, #5000	@ 0x1388
 8003280:	4293      	cmp	r3, r2
 8003282:	d901      	bls.n	8003288 <HAL_RCC_OscConfig+0x394>
 8003284:	2303      	movs	r3, #3
 8003286:	e0b1      	b.n	80033ec <HAL_RCC_OscConfig+0x4f8>
 8003288:	4b4b      	ldr	r3, [pc, #300]	@ (80033b8 <HAL_RCC_OscConfig+0x4c4>)
 800328a:	6a1b      	ldr	r3, [r3, #32]
 800328c:	f003 0302 	and.w	r3, r3, #2
 8003290:	2b00      	cmp	r3, #0
 8003292:	d0ee      	beq.n	8003272 <HAL_RCC_OscConfig+0x37e>
 8003294:	e014      	b.n	80032c0 <HAL_RCC_OscConfig+0x3cc>
 8003296:	f7fe f861 	bl	800135c <HAL_GetTick>
 800329a:	6138      	str	r0, [r7, #16]
 800329c:	e00a      	b.n	80032b4 <HAL_RCC_OscConfig+0x3c0>
 800329e:	f7fe f85d 	bl	800135c <HAL_GetTick>
 80032a2:	4602      	mov	r2, r0
 80032a4:	693b      	ldr	r3, [r7, #16]
 80032a6:	1ad3      	subs	r3, r2, r3
 80032a8:	f241 3288 	movw	r2, #5000	@ 0x1388
 80032ac:	4293      	cmp	r3, r2
 80032ae:	d901      	bls.n	80032b4 <HAL_RCC_OscConfig+0x3c0>
 80032b0:	2303      	movs	r3, #3
 80032b2:	e09b      	b.n	80033ec <HAL_RCC_OscConfig+0x4f8>
 80032b4:	4b40      	ldr	r3, [pc, #256]	@ (80033b8 <HAL_RCC_OscConfig+0x4c4>)
 80032b6:	6a1b      	ldr	r3, [r3, #32]
 80032b8:	f003 0302 	and.w	r3, r3, #2
 80032bc:	2b00      	cmp	r3, #0
 80032be:	d1ee      	bne.n	800329e <HAL_RCC_OscConfig+0x3aa>
 80032c0:	7dfb      	ldrb	r3, [r7, #23]
 80032c2:	2b01      	cmp	r3, #1
 80032c4:	d105      	bne.n	80032d2 <HAL_RCC_OscConfig+0x3de>
 80032c6:	4b3c      	ldr	r3, [pc, #240]	@ (80033b8 <HAL_RCC_OscConfig+0x4c4>)
 80032c8:	69db      	ldr	r3, [r3, #28]
 80032ca:	4a3b      	ldr	r2, [pc, #236]	@ (80033b8 <HAL_RCC_OscConfig+0x4c4>)
 80032cc:	f023 5380 	bic.w	r3, r3, #268435456	@ 0x10000000
 80032d0:	61d3      	str	r3, [r2, #28]
 80032d2:	687b      	ldr	r3, [r7, #4]
 80032d4:	69db      	ldr	r3, [r3, #28]
 80032d6:	2b00      	cmp	r3, #0
 80032d8:	f000 8087 	beq.w	80033ea <HAL_RCC_OscConfig+0x4f6>
 80032dc:	4b36      	ldr	r3, [pc, #216]	@ (80033b8 <HAL_RCC_OscConfig+0x4c4>)
 80032de:	685b      	ldr	r3, [r3, #4]
 80032e0:	f003 030c 	and.w	r3, r3, #12
 80032e4:	2b08      	cmp	r3, #8
 80032e6:	d061      	beq.n	80033ac <HAL_RCC_OscConfig+0x4b8>
 80032e8:	687b      	ldr	r3, [r7, #4]
 80032ea:	69db      	ldr	r3, [r3, #28]
 80032ec:	2b02      	cmp	r3, #2
 80032ee:	d146      	bne.n	800337e <HAL_RCC_OscConfig+0x48a>
 80032f0:	4b33      	ldr	r3, [pc, #204]	@ (80033c0 <HAL_RCC_OscConfig+0x4cc>)
 80032f2:	2200      	movs	r2, #0
 80032f4:	601a      	str	r2, [r3, #0]
 80032f6:	f7fe f831 	bl	800135c <HAL_GetTick>
 80032fa:	6138      	str	r0, [r7, #16]
 80032fc:	e008      	b.n	8003310 <HAL_RCC_OscConfig+0x41c>
 80032fe:	f7fe f82d 	bl	800135c <HAL_GetTick>
 8003302:	4602      	mov	r2, r0
 8003304:	693b      	ldr	r3, [r7, #16]
 8003306:	1ad3      	subs	r3, r2, r3
 8003308:	2b02      	cmp	r3, #2
 800330a:	d901      	bls.n	8003310 <HAL_RCC_OscConfig+0x41c>
 800330c:	2303      	movs	r3, #3
 800330e:	e06d      	b.n	80033ec <HAL_RCC_OscConfig+0x4f8>
 8003310:	4b29      	ldr	r3, [pc, #164]	@ (80033b8 <HAL_RCC_OscConfig+0x4c4>)
 8003312:	681b      	ldr	r3, [r3, #0]
 8003314:	f003 7300 	and.w	r3, r3, #33554432	@ 0x2000000
 8003318:	2b00      	cmp	r3, #0
 800331a:	d1f0      	bne.n	80032fe <HAL_RCC_OscConfig+0x40a>
 800331c:	687b      	ldr	r3, [r7, #4]
 800331e:	6a1b      	ldr	r3, [r3, #32]
 8003320:	f5b3 3f80 	cmp.w	r3, #65536	@ 0x10000
 8003324:	d108      	bne.n	8003338 <HAL_RCC_OscConfig+0x444>
 8003326:	4b24      	ldr	r3, [pc, #144]	@ (80033b8 <HAL_RCC_OscConfig+0x4c4>)
 8003328:	685b      	ldr	r3, [r3, #4]
 800332a:	f423 3200 	bic.w	r2, r3, #131072	@ 0x20000
 800332e:	687b      	ldr	r3, [r7, #4]
 8003330:	689b      	ldr	r3, [r3, #8]
 8003332:	4921      	ldr	r1, [pc, #132]	@ (80033b8 <HAL_RCC_OscConfig+0x4c4>)
 8003334:	4313      	orrs	r3, r2
 8003336:	604b      	str	r3, [r1, #4]
 8003338:	4b1f      	ldr	r3, [pc, #124]	@ (80033b8 <HAL_RCC_OscConfig+0x4c4>)
 800333a:	685b      	ldr	r3, [r3, #4]
 800333c:	f423 1274 	bic.w	r2, r3, #3997696	@ 0x3d0000
 8003340:	687b      	ldr	r3, [r7, #4]
 8003342:	6a19      	ldr	r1, [r3, #32]
 8003344:	687b      	ldr	r3, [r7, #4]
 8003346:	6a5b      	ldr	r3, [r3, #36]	@ 0x24
 8003348:	430b      	orrs	r3, r1
 800334a:	491b      	ldr	r1, [pc, #108]	@ (80033b8 <HAL_RCC_OscConfig+0x4c4>)
 800334c:	4313      	orrs	r3, r2
 800334e:	604b      	str	r3, [r1, #4]
 8003350:	4b1b      	ldr	r3, [pc, #108]	@ (80033c0 <HAL_RCC_OscConfig+0x4cc>)
 8003352:	2201      	movs	r2, #1
 8003354:	601a      	str	r2, [r3, #0]
 8003356:	f7fe f801 	bl	800135c <HAL_GetTick>
 800335a:	6138      	str	r0, [r7, #16]
 800335c:	e008      	b.n	8003370 <HAL_RCC_OscConfig+0x47c>
 800335e:	f7fd fffd 	bl	800135c <HAL_GetTick>
 8003362:	4602      	mov	r2, r0
 8003364:	693b      	ldr	r3, [r7, #16]
 8003366:	1ad3      	subs	r3, r2, r3
 8003368:	2b02      	cmp	r3, #2
 800336a:	d901      	bls.n	8003370 <HAL_RCC_OscConfig+0x47c>
 800336c:	2303      	movs	r3, #3
 800336e:	e03d      	b.n	80033ec <HAL_RCC_OscConfig+0x4f8>
 8003370:	4b11      	ldr	r3, [pc, #68]	@ (80033b8 <HAL_RCC_OscConfig+0x4c4>)
 8003372:	681b      	ldr	r3, [r3, #0]
 8003374:	f003 7300 	and.w	r3, r3, #33554432	@ 0x2000000
 8003378:	2b00      	cmp	r3, #0
 800337a:	d0f0      	beq.n	800335e <HAL_RCC_OscConfig+0x46a>
 800337c:	e035      	b.n	80033ea <HAL_RCC_OscConfig+0x4f6>
 800337e:	4b10      	ldr	r3, [pc, #64]	@ (80033c0 <HAL_RCC_OscConfig+0x4cc>)
 8003380:	2200      	movs	r2, #0
 8003382:	601a      	str	r2, [r3, #0]
 8003384:	f7fd ffea 	bl	800135c <HAL_GetTick>
 8003388:	6138      	str	r0, [r7, #16]
 800338a:	e008      	b.n	800339e <HAL_RCC_OscConfig+0x4aa>
 800338c:	f7fd ffe6 	bl	800135c <HAL_GetTick>
 8003390:	4602      	mov	r2, r0
 8003392:	693b      	ldr	r3, [r7, #16]
 8003394:	1ad3      	subs	r3, r2, r3
 8003396:	2b02      	cmp	r3, #2
 8003398:	d901      	bls.n	800339e <HAL_RCC_OscConfig+0x4aa>
 800339a:	2303      	movs	r3, #3
 800339c:	e026      	b.n	80033ec <HAL_RCC_OscConfig+0x4f8>
 800339e:	4b06      	ldr	r3, [pc, #24]	@ (80033b8 <HAL_RCC_OscConfig+0x4c4>)
 80033a0:	681b      	ldr	r3, [r3, #0]
 80033a2:	f003 7300 	and.w	r3, r3, #33554432	@ 0x2000000
 80033a6:	2b00      	cmp	r3, #0
 80033a8:	d1f0      	bne.n	800338c <HAL_RCC_OscConfig+0x498>
 80033aa:	e01e      	b.n	80033ea <HAL_RCC_OscConfig+0x4f6>
 80033ac:	687b      	ldr	r3, [r7, #4]
 80033ae:	69db      	ldr	r3, [r3, #28]
 80033b0:	2b01      	cmp	r3, #1
 80033b2:	d107      	bne.n	80033c4 <HAL_RCC_OscConfig+0x4d0>
 80033b4:	2301      	movs	r3, #1
 80033b6:	e019      	b.n	80033ec <HAL_RCC_OscConfig+0x4f8>
 80033b8:	40021000 	.word	0x40021000
 80033bc:	40007000 	.word	0x40007000
 80033c0:	42420060 	.word	0x42420060
 80033c4:	4b0b      	ldr	r3, [pc, #44]	@ (80033f4 <HAL_RCC_OscConfig+0x500>)
 80033c6:	685b      	ldr	r3, [r3, #4]
 80033c8:	60fb      	str	r3, [r7, #12]
 80033ca:	68fb      	ldr	r3, [r7, #12]
 80033cc:	f403 3280 	and.w	r2, r3, #65536	@ 0x10000
 80033d0:	687b      	ldr	r3, [r7, #4]
 80033d2:	6a1b      	ldr	r3, [r3, #32]
 80033d4:	429a      	cmp	r2, r3
 80033d6:	d106      	bne.n	80033e6 <HAL_RCC_OscConfig+0x4f2>
 80033d8:	68fb      	ldr	r3, [r7, #12]
 80033da:	f403 1270 	and.w	r2, r3, #3932160	@ 0x3c0000
 80033de:	687b      	ldr	r3, [r7, #4]
 80033e0:	6a5b      	ldr	r3, [r3, #36]	@ 0x24
 80033e2:	429a      	cmp	r2, r3
 80033e4:	d001      	beq.n	80033ea <HAL_RCC_OscConfig+0x4f6>
 80033e6:	2301      	movs	r3, #1
 80033e8:	e000      	b.n	80033ec <HAL_RCC_OscConfig+0x4f8>
 80033ea:	2300      	movs	r3, #0
 80033ec:	4618      	mov	r0, r3
 80033ee:	3718      	adds	r7, #24
 80033f0:	46bd      	mov	sp, r7
 80033f2:	bd80      	pop	{r7, pc}
 80033f4:	40021000 	.word	0x40021000

080033f8 <HAL_RCC_ClockConfig>:
 80033f8:	b580      	push	{r7, lr}
 80033fa:	b084      	sub	sp, #16
 80033fc:	af00      	add	r7, sp, #0
 80033fe:	6078      	str	r0, [r7, #4]
 8003400:	6039      	str	r1, [r7, #0]
 8003402:	687b      	ldr	r3, [r7, #4]
 8003404:	2b00      	cmp	r3, #0
 8003406:	d101      	bne.n	800340c <HAL_RCC_ClockConfig+0x14>
 8003408:	2301      	movs	r3, #1
 800340a:	e0d0      	b.n	80035ae <HAL_RCC_ClockConfig+0x1b6>
 800340c:	4b6a      	ldr	r3, [pc, #424]	@ (80035b8 <HAL_RCC_ClockConfig+0x1c0>)
 800340e:	681b      	ldr	r3, [r3, #0]
 8003410:	f003 0307 	and.w	r3, r3, #7
 8003414:	683a      	ldr	r2, [r7, #0]
 8003416:	429a      	cmp	r2, r3
 8003418:	d910      	bls.n	800343c <HAL_RCC_ClockConfig+0x44>
 800341a:	4b67      	ldr	r3, [pc, #412]	@ (80035b8 <HAL_RCC_ClockConfig+0x1c0>)
 800341c:	681b      	ldr	r3, [r3, #0]
 800341e:	f023 0207 	bic.w	r2, r3, #7
 8003422:	4965      	ldr	r1, [pc, #404]	@ (80035b8 <HAL_RCC_ClockConfig+0x1c0>)
 8003424:	683b      	ldr	r3, [r7, #0]
 8003426:	4313      	orrs	r3, r2
 8003428:	600b      	str	r3, [r1, #0]
 800342a:	4b63      	ldr	r3, [pc, #396]	@ (80035b8 <HAL_RCC_ClockConfig+0x1c0>)
 800342c:	681b      	ldr	r3, [r3, #0]
 800342e:	f003 0307 	and.w	r3, r3, #7
 8003432:	683a      	ldr	r2, [r7, #0]
 8003434:	429a      	cmp	r2, r3
 8003436:	d001      	beq.n	800343c <HAL_RCC_ClockConfig+0x44>
 8003438:	2301      	movs	r3, #1
 800343a:	e0b8      	b.n	80035ae <HAL_RCC_ClockConfig+0x1b6>
 800343c:	687b      	ldr	r3, [r7, #4]
 800343e:	681b      	ldr	r3, [r3, #0]
 8003440:	f003 0302 	and.w	r3, r3, #2
 8003444:	2b00      	cmp	r3, #0
 8003446:	d020      	beq.n	800348a <HAL_RCC_ClockConfig+0x92>
 8003448:	687b      	ldr	r3, [r7, #4]
 800344a:	681b      	ldr	r3, [r3, #0]
 800344c:	f003 0304 	and.w	r3, r3, #4
 8003450:	2b00      	cmp	r3, #0
 8003452:	d005      	beq.n	8003460 <HAL_RCC_ClockConfig+0x68>
 8003454:	4b59      	ldr	r3, [pc, #356]	@ (80035bc <HAL_RCC_ClockConfig+0x1c4>)
 8003456:	685b      	ldr	r3, [r3, #4]
 8003458:	4a58      	ldr	r2, [pc, #352]	@ (80035bc <HAL_RCC_ClockConfig+0x1c4>)
 800345a:	f443 63e0 	orr.w	r3, r3, #1792	@ 0x700
 800345e:	6053      	str	r3, [r2, #4]
 8003460:	687b      	ldr	r3, [r7, #4]
 8003462:	681b      	ldr	r3, [r3, #0]
 8003464:	f003 0308 	and.w	r3, r3, #8
 8003468:	2b00      	cmp	r3, #0
 800346a:	d005      	beq.n	8003478 <HAL_RCC_ClockConfig+0x80>
 800346c:	4b53      	ldr	r3, [pc, #332]	@ (80035bc <HAL_RCC_ClockConfig+0x1c4>)
 800346e:	685b      	ldr	r3, [r3, #4]
 8003470:	4a52      	ldr	r2, [pc, #328]	@ (80035bc <HAL_RCC_ClockConfig+0x1c4>)
 8003472:	f443 5360 	orr.w	r3, r3, #14336	@ 0x3800
 8003476:	6053      	str	r3, [r2, #4]
 8003478:	4b50      	ldr	r3, [pc, #320]	@ (80035bc <HAL_RCC_ClockConfig+0x1c4>)
 800347a:	685b      	ldr	r3, [r3, #4]
 800347c:	f023 02f0 	bic.w	r2, r3, #240	@ 0xf0
 8003480:	687b      	ldr	r3, [r7, #4]
 8003482:	689b      	ldr	r3, [r3, #8]
 8003484:	494d      	ldr	r1, [pc, #308]	@ (80035bc <HAL_RCC_ClockConfig+0x1c4>)
 8003486:	4313      	orrs	r3, r2
 8003488:	604b      	str	r3, [r1, #4]
 800348a:	687b      	ldr	r3, [r7, #4]
 800348c:	681b      	ldr	r3, [r3, #0]
 800348e:	f003 0301 	and.w	r3, r3, #1
 8003492:	2b00      	cmp	r3, #0
 8003494:	d040      	beq.n	8003518 <HAL_RCC_ClockConfig+0x120>
 8003496:	687b      	ldr	r3, [r7, #4]
 8003498:	685b      	ldr	r3, [r3, #4]
 800349a:	2b01      	cmp	r3, #1
 800349c:	d107      	bne.n	80034ae <HAL_RCC_ClockConfig+0xb6>
 800349e:	4b47      	ldr	r3, [pc, #284]	@ (80035bc <HAL_RCC_ClockConfig+0x1c4>)
 80034a0:	681b      	ldr	r3, [r3, #0]
 80034a2:	f403 3300 	and.w	r3, r3, #131072	@ 0x20000
 80034a6:	2b00      	cmp	r3, #0
 80034a8:	d115      	bne.n	80034d6 <HAL_RCC_ClockConfig+0xde>
 80034aa:	2301      	movs	r3, #1
 80034ac:	e07f      	b.n	80035ae <HAL_RCC_ClockConfig+0x1b6>
 80034ae:	687b      	ldr	r3, [r7, #4]
 80034b0:	685b      	ldr	r3, [r3, #4]
 80034b2:	2b02      	cmp	r3, #2
 80034b4:	d107      	bne.n	80034c6 <HAL_RCC_ClockConfig+0xce>
 80034b6:	4b41      	ldr	r3, [pc, #260]	@ (80035bc <HAL_RCC_ClockConfig+0x1c4>)
 80034b8:	681b      	ldr	r3, [r3, #0]
 80034ba:	f003 7300 	and.w	r3, r3, #33554432	@ 0x2000000
 80034be:	2b00      	cmp	r3, #0
 80034c0:	d109      	bne.n	80034d6 <HAL_RCC_ClockConfig+0xde>
 80034c2:	2301      	movs	r3, #1
 80034c4:	e073      	b.n	80035ae <HAL_RCC_ClockConfig+0x1b6>
 80034c6:	4b3d      	ldr	r3, [pc, #244]	@ (80035bc <HAL_RCC_ClockConfig+0x1c4>)
 80034c8:	681b      	ldr	r3, [r3, #0]
 80034ca:	f003 0302 	and.w	r3, r3, #2
 80034ce:	2b00      	cmp	r3, #0
 80034d0:	d101      	bne.n	80034d6 <HAL_RCC_ClockConfig+0xde>
 80034d2:	2301      	movs	r3, #1
 80034d4:	e06b      	b.n	80035ae <HAL_RCC_ClockConfig+0x1b6>
 80034d6:	4b39      	ldr	r3, [pc, #228]	@ (80035bc <HAL_RCC_ClockConfig+0x1c4>)
 80034d8:	685b      	ldr	r3, [r3, #4]
 80034da:	f023 0203 	bic.w	r2, r3, #3
 80034de:	687b      	ldr	r3, [r7, #4]
 80034e0:	685b      	ldr	r3, [r3, #4]
 80034e2:	4936      	ldr	r1, [pc, #216]	@ (80035bc <HAL_RCC_ClockConfig+0x1c4>)
 80034e4:	4313      	orrs	r3, r2
 80034e6:	604b      	str	r3, [r1, #4]
 80034e8:	f7fd ff38 	bl	800135c <HAL_GetTick>
 80034ec:	60f8      	str	r0, [r7, #12]
 80034ee:	e00a      	b.n	8003506 <HAL_RCC_ClockConfig+0x10e>
 80034f0:	f7fd ff34 	bl	800135c <HAL_GetTick>
 80034f4:	4602      	mov	r2, r0
 80034f6:	68fb      	ldr	r3, [r7, #12]
 80034f8:	1ad3      	subs	r3, r2, r3
 80034fa:	f241 3288 	movw	r2, #5000	@ 0x1388
 80034fe:	4293      	cmp	r3, r2
 8003500:	d901      	bls.n	8003506 <HAL_RCC_ClockConfig+0x10e>
 8003502:	2303      	movs	r3, #3
 8003504:	e053      	b.n	80035ae <HAL_RCC_ClockConfig+0x1b6>
 8003506:	4b2d      	ldr	r3, [pc, #180]	@ (80035bc <HAL_RCC_ClockConfig+0x1c4>)
 8003508:	685b      	ldr	r3, [r3, #4]
 800350a:	f003 020c 	and.w	r2, r3, #12
 800350e:	687b      	ldr	r3, [r7, #4]
 8003510:	685b      	ldr	r3, [r3, #4]
 8003512:	009b      	lsls	r3, r3, #2
 8003514:	429a      	cmp	r2, r3
 8003516:	d1eb      	bne.n	80034f0 <HAL_RCC_ClockConfig+0xf8>
 8003518:	4b27      	ldr	r3, [pc, #156]	@ (80035b8 <HAL_RCC_ClockConfig+0x1c0>)
 800351a:	681b      	ldr	r3, [r3, #0]
 800351c:	f003 0307 	and.w	r3, r3, #7
 8003520:	683a      	ldr	r2, [r7, #0]
 8003522:	429a      	cmp	r2, r3
 8003524:	d210      	bcs.n	8003548 <HAL_RCC_ClockConfig+0x150>
 8003526:	4b24      	ldr	r3, [pc, #144]	@ (80035b8 <HAL_RCC_ClockConfig+0x1c0>)
 8003528:	681b      	ldr	r3, [r3, #0]
 800352a:	f023 0207 	bic.w	r2, r3, #7
 800352e:	4922      	ldr	r1, [pc, #136]	@ (80035b8 <HAL_RCC_ClockConfig+0x1c0>)
 8003530:	683b      	ldr	r3, [r7, #0]
 8003532:	4313      	orrs	r3, r2
 8003534:	600b      	str	r3, [r1, #0]
 8003536:	4b20      	ldr	r3, [pc, #128]	@ (80035b8 <HAL_RCC_ClockConfig+0x1c0>)
 8003538:	681b      	ldr	r3, [r3, #0]
 800353a:	f003 0307 	and.w	r3, r3, #7
 800353e:	683a      	ldr	r2, [r7, #0]
 8003540:	429a      	cmp	r2, r3
 8003542:	d001      	beq.n	8003548 <HAL_RCC_ClockConfig+0x150>
 8003544:	2301      	movs	r3, #1
 8003546:	e032      	b.n	80035ae <HAL_RCC_ClockConfig+0x1b6>
 8003548:	687b      	ldr	r3, [r7, #4]
 800354a:	681b      	ldr	r3, [r3, #0]
 800354c:	f003 0304 	and.w	r3, r3, #4
 8003550:	2b00      	cmp	r3, #0
 8003552:	d008      	beq.n	8003566 <HAL_RCC_ClockConfig+0x16e>
 8003554:	4b19      	ldr	r3, [pc, #100]	@ (80035bc <HAL_RCC_ClockConfig+0x1c4>)
 8003556:	685b      	ldr	r3, [r3, #4]
 8003558:	f423 62e0 	bic.w	r2, r3, #1792	@ 0x700
 800355c:	687b      	ldr	r3, [r7, #4]
 800355e:	68db      	ldr	r3, [r3, #12]
 8003560:	4916      	ldr	r1, [pc, #88]	@ (80035bc <HAL_RCC_ClockConfig+0x1c4>)
 8003562:	4313      	orrs	r3, r2
 8003564:	604b      	str	r3, [r1, #4]
 8003566:	687b      	ldr	r3, [r7, #4]
 8003568:	681b      	ldr	r3, [r3, #0]
 800356a:	f003 0308 	and.w	r3, r3, #8
 800356e:	2b00      	cmp	r3, #0
 8003570:	d009      	beq.n	8003586 <HAL_RCC_ClockConfig+0x18e>
 8003572:	4b12      	ldr	r3, [pc, #72]	@ (80035bc <HAL_RCC_ClockConfig+0x1c4>)
 8003574:	685b      	ldr	r3, [r3, #4]
 8003576:	f423 5260 	bic.w	r2, r3, #14336	@ 0x3800
 800357a:	687b      	ldr	r3, [r7, #4]
 800357c:	691b      	ldr	r3, [r3, #16]
 800357e:	00db      	lsls	r3, r3, #3
 8003580:	490e      	ldr	r1, [pc, #56]	@ (80035bc <HAL_RCC_ClockConfig+0x1c4>)
 8003582:	4313      	orrs	r3, r2
 8003584:	604b      	str	r3, [r1, #4]
 8003586:	f000 f821 	bl	80035cc <HAL_RCC_GetSysClockFreq>
 800358a:	4602      	mov	r2, r0
 800358c:	4b0b      	ldr	r3, [pc, #44]	@ (80035bc <HAL_RCC_ClockConfig+0x1c4>)
 800358e:	685b      	ldr	r3, [r3, #4]
 8003590:	091b      	lsrs	r3, r3, #4
 8003592:	f003 030f 	and.w	r3, r3, #15
 8003596:	490a      	ldr	r1, [pc, #40]	@ (80035c0 <HAL_RCC_ClockConfig+0x1c8>)
 8003598:	5ccb      	ldrb	r3, [r1, r3]
 800359a:	fa22 f303 	lsr.w	r3, r2, r3
 800359e:	4a09      	ldr	r2, [pc, #36]	@ (80035c4 <HAL_RCC_ClockConfig+0x1cc>)
 80035a0:	6013      	str	r3, [r2, #0]
 80035a2:	4b09      	ldr	r3, [pc, #36]	@ (80035c8 <HAL_RCC_ClockConfig+0x1d0>)
 80035a4:	681b      	ldr	r3, [r3, #0]
 80035a6:	4618      	mov	r0, r3
 80035a8:	f7fd fe96 	bl	80012d8 <HAL_InitTick>
 80035ac:	2300      	movs	r3, #0
 80035ae:	4618      	mov	r0, r3
 80035b0:	3710      	adds	r7, #16
 80035b2:	46bd      	mov	sp, r7
 80035b4:	bd80      	pop	{r7, pc}
 80035b6:	bf00      	nop
 80035b8:	40022000 	.word	0x40022000
 80035bc:	40021000 	.word	0x40021000
 80035c0:	08005fb4 	.word	0x08005fb4
 80035c4:	20000000 	.word	0x20000000
 80035c8:	20000004 	.word	0x20000004

080035cc <HAL_RCC_GetSysClockFreq>:
 80035cc:	b480      	push	{r7}
 80035ce:	b087      	sub	sp, #28
 80035d0:	af00      	add	r7, sp, #0
 80035d2:	2300      	movs	r3, #0
 80035d4:	60fb      	str	r3, [r7, #12]
 80035d6:	2300      	movs	r3, #0
 80035d8:	60bb      	str	r3, [r7, #8]
 80035da:	2300      	movs	r3, #0
 80035dc:	617b      	str	r3, [r7, #20]
 80035de:	2300      	movs	r3, #0
 80035e0:	607b      	str	r3, [r7, #4]
 80035e2:	2300      	movs	r3, #0
 80035e4:	613b      	str	r3, [r7, #16]
 80035e6:	4b1e      	ldr	r3, [pc, #120]	@ (8003660 <HAL_RCC_GetSysClockFreq+0x94>)
 80035e8:	685b      	ldr	r3, [r3, #4]
 80035ea:	60fb      	str	r3, [r7, #12]
 80035ec:	68fb      	ldr	r3, [r7, #12]
 80035ee:	f003 030c 	and.w	r3, r3, #12
 80035f2:	2b04      	cmp	r3, #4
 80035f4:	d002      	beq.n	80035fc <HAL_RCC_GetSysClockFreq+0x30>
 80035f6:	2b08      	cmp	r3, #8
 80035f8:	d003      	beq.n	8003602 <HAL_RCC_GetSysClockFreq+0x36>
 80035fa:	e027      	b.n	800364c <HAL_RCC_GetSysClockFreq+0x80>
 80035fc:	4b19      	ldr	r3, [pc, #100]	@ (8003664 <HAL_RCC_GetSysClockFreq+0x98>)
 80035fe:	613b      	str	r3, [r7, #16]
 8003600:	e027      	b.n	8003652 <HAL_RCC_GetSysClockFreq+0x86>
 8003602:	68fb      	ldr	r3, [r7, #12]
 8003604:	0c9b      	lsrs	r3, r3, #18
 8003606:	f003 030f 	and.w	r3, r3, #15
 800360a:	4a17      	ldr	r2, [pc, #92]	@ (8003668 <HAL_RCC_GetSysClockFreq+0x9c>)
 800360c:	5cd3      	ldrb	r3, [r2, r3]
 800360e:	607b      	str	r3, [r7, #4]
 8003610:	68fb      	ldr	r3, [r7, #12]
 8003612:	f403 3380 	and.w	r3, r3, #65536	@ 0x10000
 8003616:	2b00      	cmp	r3, #0
 8003618:	d010      	beq.n	800363c <HAL_RCC_GetSysClockFreq+0x70>
 800361a:	4b11      	ldr	r3, [pc, #68]	@ (8003660 <HAL_RCC_GetSysClockFreq+0x94>)
 800361c:	685b      	ldr	r3, [r3, #4]
 800361e:	0c5b      	lsrs	r3, r3, #17
 8003620:	f003 0301 	and.w	r3, r3, #1
 8003624:	4a11      	ldr	r2, [pc, #68]	@ (800366c <HAL_RCC_GetSysClockFreq+0xa0>)
 8003626:	5cd3      	ldrb	r3, [r2, r3]
 8003628:	60bb      	str	r3, [r7, #8]
 800362a:	687b      	ldr	r3, [r7, #4]
 800362c:	4a0d      	ldr	r2, [pc, #52]	@ (8003664 <HAL_RCC_GetSysClockFreq+0x98>)
 800362e:	fb03 f202 	mul.w	r2, r3, r2
 8003632:	68bb      	ldr	r3, [r7, #8]
 8003634:	fbb2 f3f3 	udiv	r3, r2, r3
 8003638:	617b      	str	r3, [r7, #20]
 800363a:	e004      	b.n	8003646 <HAL_RCC_GetSysClockFreq+0x7a>
 800363c:	687b      	ldr	r3, [r7, #4]
 800363e:	4a0c      	ldr	r2, [pc, #48]	@ (8003670 <HAL_RCC_GetSysClockFreq+0xa4>)
 8003640:	fb02 f303 	mul.w	r3, r2, r3
 8003644:	617b      	str	r3, [r7, #20]
 8003646:	697b      	ldr	r3, [r7, #20]
 8003648:	613b      	str	r3, [r7, #16]
 800364a:	e002      	b.n	8003652 <HAL_RCC_GetSysClockFreq+0x86>
 800364c:	4b05      	ldr	r3, [pc, #20]	@ (8003664 <HAL_RCC_GetSysClockFreq+0x98>)
 800364e:	613b      	str	r3, [r7, #16]
 8003650:	bf00      	nop
 8003652:	693b      	ldr	r3, [r7, #16]
 8003654:	4618      	mov	r0, r3
 8003656:	371c      	adds	r7, #28
 8003658:	46bd      	mov	sp, r7
 800365a:	bc80      	pop	{r7}
 800365c:	4770      	bx	lr
 800365e:	bf00      	nop
 8003660:	40021000 	.word	0x40021000
 8003664:	007a1200 	.word	0x007a1200
 8003668:	08005fcc 	.word	0x08005fcc
 800366c:	08005fdc 	.word	0x08005fdc
 8003670:	003d0900 	.word	0x003d0900

08003674 <HAL_RCC_GetHCLKFreq>:
 8003674:	b480      	push	{r7}
 8003676:	af00      	add	r7, sp, #0
 8003678:	4b02      	ldr	r3, [pc, #8]	@ (8003684 <HAL_RCC_GetHCLKFreq+0x10>)
 800367a:	681b      	ldr	r3, [r3, #0]
 800367c:	4618      	mov	r0, r3
 800367e:	46bd      	mov	sp, r7
 8003680:	bc80      	pop	{r7}
 8003682:	4770      	bx	lr
 8003684:	20000000 	.word	0x20000000

08003688 <HAL_RCC_GetPCLK1Freq>:
 8003688:	b580      	push	{r7, lr}
 800368a:	af00      	add	r7, sp, #0
 800368c:	f7ff fff2 	bl	8003674 <HAL_RCC_GetHCLKFreq>
 8003690:	4602      	mov	r2, r0
 8003692:	4b05      	ldr	r3, [pc, #20]	@ (80036a8 <HAL_RCC_GetPCLK1Freq+0x20>)
 8003694:	685b      	ldr	r3, [r3, #4]
 8003696:	0a1b      	lsrs	r3, r3, #8
 8003698:	f003 0307 	and.w	r3, r3, #7
 800369c:	4903      	ldr	r1, [pc, #12]	@ (80036ac <HAL_RCC_GetPCLK1Freq+0x24>)
 800369e:	5ccb      	ldrb	r3, [r1, r3]
 80036a0:	fa22 f303 	lsr.w	r3, r2, r3
 80036a4:	4618      	mov	r0, r3
 80036a6:	bd80      	pop	{r7, pc}
 80036a8:	40021000 	.word	0x40021000
 80036ac:	08005fc4 	.word	0x08005fc4

080036b0 <HAL_RCC_GetPCLK2Freq>:
 80036b0:	b580      	push	{r7, lr}
 80036b2:	af00      	add	r7, sp, #0
 80036b4:	f7ff ffde 	bl	8003674 <HAL_RCC_GetHCLKFreq>
 80036b8:	4602      	mov	r2, r0
 80036ba:	4b05      	ldr	r3, [pc, #20]	@ (80036d0 <HAL_RCC_GetPCLK2Freq+0x20>)
 80036bc:	685b      	ldr	r3, [r3, #4]
 80036be:	0adb      	lsrs	r3, r3, #11
 80036c0:	f003 0307 	and.w	r3, r3, #7
 80036c4:	4903      	ldr	r1, [pc, #12]	@ (80036d4 <HAL_RCC_GetPCLK2Freq+0x24>)
 80036c6:	5ccb      	ldrb	r3, [r1, r3]
 80036c8:	fa22 f303 	lsr.w	r3, r2, r3
 80036cc:	4618      	mov	r0, r3
 80036ce:	bd80      	pop	{r7, pc}
 80036d0:	40021000 	.word	0x40021000
 80036d4:	08005fc4 	.word	0x08005fc4

080036d8 <RCC_Delay>:
 80036d8:	b480      	push	{r7}
 80036da:	b085      	sub	sp, #20
 80036dc:	af00      	add	r7, sp, #0
 80036de:	6078      	str	r0, [r7, #4]
 80036e0:	4b0a      	ldr	r3, [pc, #40]	@ (800370c <RCC_Delay+0x34>)
 80036e2:	681b      	ldr	r3, [r3, #0]
 80036e4:	4a0a      	ldr	r2, [pc, #40]	@ (8003710 <RCC_Delay+0x38>)
 80036e6:	fba2 2303 	umull	r2, r3, r2, r3
 80036ea:	0a5b      	lsrs	r3, r3, #9
 80036ec:	687a      	ldr	r2, [r7, #4]
 80036ee:	fb02 f303 	mul.w	r3, r2, r3
 80036f2:	60fb      	str	r3, [r7, #12]
 80036f4:	bf00      	nop
 80036f6:	68fb      	ldr	r3, [r7, #12]
 80036f8:	1e5a      	subs	r2, r3, #1
 80036fa:	60fa      	str	r2, [r7, #12]
 80036fc:	2b00      	cmp	r3, #0
 80036fe:	d1f9      	bne.n	80036f4 <RCC_Delay+0x1c>
 8003700:	bf00      	nop
 8003702:	bf00      	nop
 8003704:	3714      	adds	r7, #20
 8003706:	46bd      	mov	sp, r7
 8003708:	bc80      	pop	{r7}
 800370a:	4770      	bx	lr
 800370c:	20000000 	.word	0x20000000
 8003710:	10624dd3 	.word	0x10624dd3

08003714 <HAL_SPI_Init>:
 8003714:	b580      	push	{r7, lr}
 8003716:	b082      	sub	sp, #8
 8003718:	af00      	add	r7, sp, #0
 800371a:	6078      	str	r0, [r7, #4]
 800371c:	687b      	ldr	r3, [r7, #4]
 800371e:	2b00      	cmp	r3, #0
 8003720:	d101      	bne.n	8003726 <HAL_SPI_Init+0x12>
 8003722:	2301      	movs	r3, #1
 8003724:	e076      	b.n	8003814 <HAL_SPI_Init+0x100>
 8003726:	687b      	ldr	r3, [r7, #4]
 8003728:	6a5b      	ldr	r3, [r3, #36]	@ 0x24
 800372a:	2b00      	cmp	r3, #0
 800372c:	d108      	bne.n	8003740 <HAL_SPI_Init+0x2c>
 800372e:	687b      	ldr	r3, [r7, #4]
 8003730:	685b      	ldr	r3, [r3, #4]
 8003732:	f5b3 7f82 	cmp.w	r3, #260	@ 0x104
 8003736:	d009      	beq.n	800374c <HAL_SPI_Init+0x38>
 8003738:	687b      	ldr	r3, [r7, #4]
 800373a:	2200      	movs	r2, #0
 800373c:	61da      	str	r2, [r3, #28]
 800373e:	e005      	b.n	800374c <HAL_SPI_Init+0x38>
 8003740:	687b      	ldr	r3, [r7, #4]
 8003742:	2200      	movs	r2, #0
 8003744:	611a      	str	r2, [r3, #16]
 8003746:	687b      	ldr	r3, [r7, #4]
 8003748:	2200      	movs	r2, #0
 800374a:	615a      	str	r2, [r3, #20]
 800374c:	687b      	ldr	r3, [r7, #4]
 800374e:	2200      	movs	r2, #0
 8003750:	629a      	str	r2, [r3, #40]	@ 0x28
 8003752:	687b      	ldr	r3, [r7, #4]
 8003754:	f893 3051 	ldrb.w	r3, [r3, #81]	@ 0x51
 8003758:	b2db      	uxtb	r3, r3
 800375a:	2b00      	cmp	r3, #0
 800375c:	d106      	bne.n	800376c <HAL_SPI_Init+0x58>
 800375e:	687b      	ldr	r3, [r7, #4]
 8003760:	2200      	movs	r2, #0
 8003762:	f883 2050 	strb.w	r2, [r3, #80]	@ 0x50
 8003766:	6878      	ldr	r0, [r7, #4]
 8003768:	f7fd fbd4 	bl	8000f14 <HAL_SPI_MspInit>
 800376c:	687b      	ldr	r3, [r7, #4]
 800376e:	2202      	movs	r2, #2
 8003770:	f883 2051 	strb.w	r2, [r3, #81]	@ 0x51
 8003774:	687b      	ldr	r3, [r7, #4]
 8003776:	681b      	ldr	r3, [r3, #0]
 8003778:	681a      	ldr	r2, [r3, #0]
 800377a:	687b      	ldr	r3, [r7, #4]
 800377c:	681b      	ldr	r3, [r3, #0]
 800377e:	f022 0240 	bic.w	r2, r2, #64	@ 0x40
 8003782:	601a      	str	r2, [r3, #0]
 8003784:	687b      	ldr	r3, [r7, #4]
 8003786:	685b      	ldr	r3, [r3, #4]
 8003788:	f403 7282 	and.w	r2, r3, #260	@ 0x104
 800378c:	687b      	ldr	r3, [r7, #4]
 800378e:	689b      	ldr	r3, [r3, #8]
 8003790:	f403 4304 	and.w	r3, r3, #33792	@ 0x8400
 8003794:	431a      	orrs	r2, r3
 8003796:	687b      	ldr	r3, [r7, #4]
 8003798:	68db      	ldr	r3, [r3, #12]
 800379a:	f403 6300 	and.w	r3, r3, #2048	@ 0x800
 800379e:	431a      	orrs	r2, r3
 80037a0:	687b      	ldr	r3, [r7, #4]
 80037a2:	691b      	ldr	r3, [r3, #16]
 80037a4:	f003 0302 	and.w	r3, r3, #2
 80037a8:	431a      	orrs	r2, r3
 80037aa:	687b      	ldr	r3, [r7, #4]
 80037ac:	695b      	ldr	r3, [r3, #20]
 80037ae:	f003 0301 	and.w	r3, r3, #1
 80037b2:	431a      	orrs	r2, r3
 80037b4:	687b      	ldr	r3, [r7, #4]
 80037b6:	699b      	ldr	r3, [r3, #24]
 80037b8:	f403 7300 	and.w	r3, r3, #512	@ 0x200
 80037bc:	431a      	orrs	r2, r3
 80037be:	687b      	ldr	r3, [r7, #4]
 80037c0:	69db      	ldr	r3, [r3, #28]
 80037c2:	f003 0338 	and.w	r3, r3, #56	@ 0x38
 80037c6:	431a      	orrs	r2, r3
 80037c8:	687b      	ldr	r3, [r7, #4]
 80037ca:	6a1b      	ldr	r3, [r3, #32]
 80037cc:	f003 0380 	and.w	r3, r3, #128	@ 0x80
 80037d0:	ea42 0103 	orr.w	r1, r2, r3
 80037d4:	687b      	ldr	r3, [r7, #4]
 80037d6:	6a9b      	ldr	r3, [r3, #40]	@ 0x28
 80037d8:	f403 5200 	and.w	r2, r3, #8192	@ 0x2000
 80037dc:	687b      	ldr	r3, [r7, #4]
 80037de:	681b      	ldr	r3, [r3, #0]
 80037e0:	430a      	orrs	r2, r1
 80037e2:	601a      	str	r2, [r3, #0]
 80037e4:	687b      	ldr	r3, [r7, #4]
 80037e6:	699b      	ldr	r3, [r3, #24]
 80037e8:	0c1a      	lsrs	r2, r3, #16
 80037ea:	687b      	ldr	r3, [r7, #4]
 80037ec:	681b      	ldr	r3, [r3, #0]
 80037ee:	f002 0204 	and.w	r2, r2, #4
 80037f2:	605a      	str	r2, [r3, #4]
 80037f4:	687b      	ldr	r3, [r7, #4]
 80037f6:	681b      	ldr	r3, [r3, #0]
 80037f8:	69da      	ldr	r2, [r3, #28]
 80037fa:	687b      	ldr	r3, [r7, #4]
 80037fc:	681b      	ldr	r3, [r3, #0]
 80037fe:	f422 6200 	bic.w	r2, r2, #2048	@ 0x800
 8003802:	61da      	str	r2, [r3, #28]
 8003804:	687b      	ldr	r3, [r7, #4]
 8003806:	2200      	movs	r2, #0
 8003808:	655a      	str	r2, [r3, #84]	@ 0x54
 800380a:	687b      	ldr	r3, [r7, #4]
 800380c:	2201      	movs	r2, #1
 800380e:	f883 2051 	strb.w	r2, [r3, #81]	@ 0x51
 8003812:	2300      	movs	r3, #0
 8003814:	4618      	mov	r0, r3
 8003816:	3708      	adds	r7, #8
 8003818:	46bd      	mov	sp, r7
 800381a:	bd80      	pop	{r7, pc}

0800381c <HAL_SPI_Transmit>:
 800381c:	b580      	push	{r7, lr}
 800381e:	b088      	sub	sp, #32
 8003820:	af00      	add	r7, sp, #0
 8003822:	60f8      	str	r0, [r7, #12]
 8003824:	60b9      	str	r1, [r7, #8]
 8003826:	603b      	str	r3, [r7, #0]
 8003828:	4613      	mov	r3, r2
 800382a:	80fb      	strh	r3, [r7, #6]
 800382c:	2300      	movs	r3, #0
 800382e:	77fb      	strb	r3, [r7, #31]
 8003830:	68fb      	ldr	r3, [r7, #12]
 8003832:	f893 3050 	ldrb.w	r3, [r3, #80]	@ 0x50
 8003836:	2b01      	cmp	r3, #1
 8003838:	d101      	bne.n	800383e <HAL_SPI_Transmit+0x22>
 800383a:	2302      	movs	r3, #2
 800383c:	e12d      	b.n	8003a9a <HAL_SPI_Transmit+0x27e>
 800383e:	68fb      	ldr	r3, [r7, #12]
 8003840:	2201      	movs	r2, #1
 8003842:	f883 2050 	strb.w	r2, [r3, #80]	@ 0x50
 8003846:	f7fd fd89 	bl	800135c <HAL_GetTick>
 800384a:	61b8      	str	r0, [r7, #24]
 800384c:	88fb      	ldrh	r3, [r7, #6]
 800384e:	82fb      	strh	r3, [r7, #22]
 8003850:	68fb      	ldr	r3, [r7, #12]
 8003852:	f893 3051 	ldrb.w	r3, [r3, #81]	@ 0x51
 8003856:	b2db      	uxtb	r3, r3
 8003858:	2b01      	cmp	r3, #1
 800385a:	d002      	beq.n	8003862 <HAL_SPI_Transmit+0x46>
 800385c:	2302      	movs	r3, #2
 800385e:	77fb      	strb	r3, [r7, #31]
 8003860:	e116      	b.n	8003a90 <HAL_SPI_Transmit+0x274>
 8003862:	68bb      	ldr	r3, [r7, #8]
 8003864:	2b00      	cmp	r3, #0
 8003866:	d002      	beq.n	800386e <HAL_SPI_Transmit+0x52>
 8003868:	88fb      	ldrh	r3, [r7, #6]
 800386a:	2b00      	cmp	r3, #0
 800386c:	d102      	bne.n	8003874 <HAL_SPI_Transmit+0x58>
 800386e:	2301      	movs	r3, #1
 8003870:	77fb      	strb	r3, [r7, #31]
 8003872:	e10d      	b.n	8003a90 <HAL_SPI_Transmit+0x274>
 8003874:	68fb      	ldr	r3, [r7, #12]
 8003876:	2203      	movs	r2, #3
 8003878:	f883 2051 	strb.w	r2, [r3, #81]	@ 0x51
 800387c:	68fb      	ldr	r3, [r7, #12]
 800387e:	2200      	movs	r2, #0
 8003880:	655a      	str	r2, [r3, #84]	@ 0x54
 8003882:	68fb      	ldr	r3, [r7, #12]
 8003884:	68ba      	ldr	r2, [r7, #8]
 8003886:	631a      	str	r2, [r3, #48]	@ 0x30
 8003888:	68fb      	ldr	r3, [r7, #12]
 800388a:	88fa      	ldrh	r2, [r7, #6]
 800388c:	869a      	strh	r2, [r3, #52]	@ 0x34
 800388e:	68fb      	ldr	r3, [r7, #12]
 8003890:	88fa      	ldrh	r2, [r7, #6]
 8003892:	86da      	strh	r2, [r3, #54]	@ 0x36
 8003894:	68fb      	ldr	r3, [r7, #12]
 8003896:	2200      	movs	r2, #0
 8003898:	639a      	str	r2, [r3, #56]	@ 0x38
 800389a:	68fb      	ldr	r3, [r7, #12]
 800389c:	2200      	movs	r2, #0
 800389e:	879a      	strh	r2, [r3, #60]	@ 0x3c
 80038a0:	68fb      	ldr	r3, [r7, #12]
 80038a2:	2200      	movs	r2, #0
 80038a4:	87da      	strh	r2, [r3, #62]	@ 0x3e
 80038a6:	68fb      	ldr	r3, [r7, #12]
 80038a8:	2200      	movs	r2, #0
 80038aa:	645a      	str	r2, [r3, #68]	@ 0x44
 80038ac:	68fb      	ldr	r3, [r7, #12]
 80038ae:	2200      	movs	r2, #0
 80038b0:	641a      	str	r2, [r3, #64]	@ 0x40
 80038b2:	68fb      	ldr	r3, [r7, #12]
 80038b4:	689b      	ldr	r3, [r3, #8]
 80038b6:	f5b3 4f00 	cmp.w	r3, #32768	@ 0x8000
 80038ba:	d10f      	bne.n	80038dc <HAL_SPI_Transmit+0xc0>
 80038bc:	68fb      	ldr	r3, [r7, #12]
 80038be:	681b      	ldr	r3, [r3, #0]
 80038c0:	681a      	ldr	r2, [r3, #0]
 80038c2:	68fb      	ldr	r3, [r7, #12]
 80038c4:	681b      	ldr	r3, [r3, #0]
 80038c6:	f022 0240 	bic.w	r2, r2, #64	@ 0x40
 80038ca:	601a      	str	r2, [r3, #0]
 80038cc:	68fb      	ldr	r3, [r7, #12]
 80038ce:	681b      	ldr	r3, [r3, #0]
 80038d0:	681a      	ldr	r2, [r3, #0]
 80038d2:	68fb      	ldr	r3, [r7, #12]
 80038d4:	681b      	ldr	r3, [r3, #0]
 80038d6:	f442 4280 	orr.w	r2, r2, #16384	@ 0x4000
 80038da:	601a      	str	r2, [r3, #0]
 80038dc:	68fb      	ldr	r3, [r7, #12]
 80038de:	681b      	ldr	r3, [r3, #0]
 80038e0:	681b      	ldr	r3, [r3, #0]
 80038e2:	f003 0340 	and.w	r3, r3, #64	@ 0x40
 80038e6:	2b40      	cmp	r3, #64	@ 0x40
 80038e8:	d007      	beq.n	80038fa <HAL_SPI_Transmit+0xde>
 80038ea:	68fb      	ldr	r3, [r7, #12]
 80038ec:	681b      	ldr	r3, [r3, #0]
 80038ee:	681a      	ldr	r2, [r3, #0]
 80038f0:	68fb      	ldr	r3, [r7, #12]
 80038f2:	681b      	ldr	r3, [r3, #0]
 80038f4:	f042 0240 	orr.w	r2, r2, #64	@ 0x40
 80038f8:	601a      	str	r2, [r3, #0]
 80038fa:	68fb      	ldr	r3, [r7, #12]
 80038fc:	68db      	ldr	r3, [r3, #12]
 80038fe:	f5b3 6f00 	cmp.w	r3, #2048	@ 0x800
 8003902:	d14f      	bne.n	80039a4 <HAL_SPI_Transmit+0x188>
 8003904:	68fb      	ldr	r3, [r7, #12]
 8003906:	685b      	ldr	r3, [r3, #4]
 8003908:	2b00      	cmp	r3, #0
 800390a:	d002      	beq.n	8003912 <HAL_SPI_Transmit+0xf6>
 800390c:	8afb      	ldrh	r3, [r7, #22]
 800390e:	2b01      	cmp	r3, #1
 8003910:	d142      	bne.n	8003998 <HAL_SPI_Transmit+0x17c>
 8003912:	68fb      	ldr	r3, [r7, #12]
 8003914:	6b1b      	ldr	r3, [r3, #48]	@ 0x30
 8003916:	881a      	ldrh	r2, [r3, #0]
 8003918:	68fb      	ldr	r3, [r7, #12]
 800391a:	681b      	ldr	r3, [r3, #0]
 800391c:	60da      	str	r2, [r3, #12]
 800391e:	68fb      	ldr	r3, [r7, #12]
 8003920:	6b1b      	ldr	r3, [r3, #48]	@ 0x30
 8003922:	1c9a      	adds	r2, r3, #2
 8003924:	68fb      	ldr	r3, [r7, #12]
 8003926:	631a      	str	r2, [r3, #48]	@ 0x30
 8003928:	68fb      	ldr	r3, [r7, #12]
 800392a:	8edb      	ldrh	r3, [r3, #54]	@ 0x36
 800392c:	b29b      	uxth	r3, r3
 800392e:	3b01      	subs	r3, #1
 8003930:	b29a      	uxth	r2, r3
 8003932:	68fb      	ldr	r3, [r7, #12]
 8003934:	86da      	strh	r2, [r3, #54]	@ 0x36
 8003936:	e02f      	b.n	8003998 <HAL_SPI_Transmit+0x17c>
 8003938:	68fb      	ldr	r3, [r7, #12]
 800393a:	681b      	ldr	r3, [r3, #0]
 800393c:	689b      	ldr	r3, [r3, #8]
 800393e:	f003 0302 	and.w	r3, r3, #2
 8003942:	2b02      	cmp	r3, #2
 8003944:	d112      	bne.n	800396c <HAL_SPI_Transmit+0x150>
 8003946:	68fb      	ldr	r3, [r7, #12]
 8003948:	6b1b      	ldr	r3, [r3, #48]	@ 0x30
 800394a:	881a      	ldrh	r2, [r3, #0]
 800394c:	68fb      	ldr	r3, [r7, #12]
 800394e:	681b      	ldr	r3, [r3, #0]
 8003950:	60da      	str	r2, [r3, #12]
 8003952:	68fb      	ldr	r3, [r7, #12]
 8003954:	6b1b      	ldr	r3, [r3, #48]	@ 0x30
 8003956:	1c9a      	adds	r2, r3, #2
 8003958:	68fb      	ldr	r3, [r7, #12]
 800395a:	631a      	str	r2, [r3, #48]	@ 0x30
 800395c:	68fb      	ldr	r3, [r7, #12]
 800395e:	8edb      	ldrh	r3, [r3, #54]	@ 0x36
 8003960:	b29b      	uxth	r3, r3
 8003962:	3b01      	subs	r3, #1
 8003964:	b29a      	uxth	r2, r3
 8003966:	68fb      	ldr	r3, [r7, #12]
 8003968:	86da      	strh	r2, [r3, #54]	@ 0x36
 800396a:	e015      	b.n	8003998 <HAL_SPI_Transmit+0x17c>
 800396c:	f7fd fcf6 	bl	800135c <HAL_GetTick>
 8003970:	4602      	mov	r2, r0
 8003972:	69bb      	ldr	r3, [r7, #24]
 8003974:	1ad3      	subs	r3, r2, r3
 8003976:	683a      	ldr	r2, [r7, #0]
 8003978:	429a      	cmp	r2, r3
 800397a:	d803      	bhi.n	8003984 <HAL_SPI_Transmit+0x168>
 800397c:	683b      	ldr	r3, [r7, #0]
 800397e:	f1b3 3fff 	cmp.w	r3, #4294967295
 8003982:	d102      	bne.n	800398a <HAL_SPI_Transmit+0x16e>
 8003984:	683b      	ldr	r3, [r7, #0]
 8003986:	2b00      	cmp	r3, #0
 8003988:	d106      	bne.n	8003998 <HAL_SPI_Transmit+0x17c>
 800398a:	2303      	movs	r3, #3
 800398c:	77fb      	strb	r3, [r7, #31]
 800398e:	68fb      	ldr	r3, [r7, #12]
 8003990:	2201      	movs	r2, #1
 8003992:	f883 2051 	strb.w	r2, [r3, #81]	@ 0x51
 8003996:	e07b      	b.n	8003a90 <HAL_SPI_Transmit+0x274>
 8003998:	68fb      	ldr	r3, [r7, #12]
 800399a:	8edb      	ldrh	r3, [r3, #54]	@ 0x36
 800399c:	b29b      	uxth	r3, r3
 800399e:	2b00      	cmp	r3, #0
 80039a0:	d1ca      	bne.n	8003938 <HAL_SPI_Transmit+0x11c>
 80039a2:	e050      	b.n	8003a46 <HAL_SPI_Transmit+0x22a>
 80039a4:	68fb      	ldr	r3, [r7, #12]
 80039a6:	685b      	ldr	r3, [r3, #4]
 80039a8:	2b00      	cmp	r3, #0
 80039aa:	d002      	beq.n	80039b2 <HAL_SPI_Transmit+0x196>
 80039ac:	8afb      	ldrh	r3, [r7, #22]
 80039ae:	2b01      	cmp	r3, #1
 80039b0:	d144      	bne.n	8003a3c <HAL_SPI_Transmit+0x220>
 80039b2:	68fb      	ldr	r3, [r7, #12]
 80039b4:	6b1a      	ldr	r2, [r3, #48]	@ 0x30
 80039b6:	68fb      	ldr	r3, [r7, #12]
 80039b8:	681b      	ldr	r3, [r3, #0]
 80039ba:	330c      	adds	r3, #12
 80039bc:	7812      	ldrb	r2, [r2, #0]
 80039be:	701a      	strb	r2, [r3, #0]
 80039c0:	68fb      	ldr	r3, [r7, #12]
 80039c2:	6b1b      	ldr	r3, [r3, #48]	@ 0x30
 80039c4:	1c5a      	adds	r2, r3, #1
 80039c6:	68fb      	ldr	r3, [r7, #12]
 80039c8:	631a      	str	r2, [r3, #48]	@ 0x30
 80039ca:	68fb      	ldr	r3, [r7, #12]
 80039cc:	8edb      	ldrh	r3, [r3, #54]	@ 0x36
 80039ce:	b29b      	uxth	r3, r3
 80039d0:	3b01      	subs	r3, #1
 80039d2:	b29a      	uxth	r2, r3
 80039d4:	68fb      	ldr	r3, [r7, #12]
 80039d6:	86da      	strh	r2, [r3, #54]	@ 0x36
 80039d8:	e030      	b.n	8003a3c <HAL_SPI_Transmit+0x220>
 80039da:	68fb      	ldr	r3, [r7, #12]
 80039dc:	681b      	ldr	r3, [r3, #0]
 80039de:	689b      	ldr	r3, [r3, #8]
 80039e0:	f003 0302 	and.w	r3, r3, #2
 80039e4:	2b02      	cmp	r3, #2
 80039e6:	d113      	bne.n	8003a10 <HAL_SPI_Transmit+0x1f4>
 80039e8:	68fb      	ldr	r3, [r7, #12]
 80039ea:	6b1a      	ldr	r2, [r3, #48]	@ 0x30
 80039ec:	68fb      	ldr	r3, [r7, #12]
 80039ee:	681b      	ldr	r3, [r3, #0]
 80039f0:	330c      	adds	r3, #12
 80039f2:	7812      	ldrb	r2, [r2, #0]
 80039f4:	701a      	strb	r2, [r3, #0]
 80039f6:	68fb      	ldr	r3, [r7, #12]
 80039f8:	6b1b      	ldr	r3, [r3, #48]	@ 0x30
 80039fa:	1c5a      	adds	r2, r3, #1
 80039fc:	68fb      	ldr	r3, [r7, #12]
 80039fe:	631a      	str	r2, [r3, #48]	@ 0x30
 8003a00:	68fb      	ldr	r3, [r7, #12]
 8003a02:	8edb      	ldrh	r3, [r3, #54]	@ 0x36
 8003a04:	b29b      	uxth	r3, r3
 8003a06:	3b01      	subs	r3, #1
 8003a08:	b29a      	uxth	r2, r3
 8003a0a:	68fb      	ldr	r3, [r7, #12]
 8003a0c:	86da      	strh	r2, [r3, #54]	@ 0x36
 8003a0e:	e015      	b.n	8003a3c <HAL_SPI_Transmit+0x220>
 8003a10:	f7fd fca4 	bl	800135c <HAL_GetTick>
 8003a14:	4602      	mov	r2, r0
 8003a16:	69bb      	ldr	r3, [r7, #24]
 8003a18:	1ad3      	subs	r3, r2, r3
 8003a1a:	683a      	ldr	r2, [r7, #0]
 8003a1c:	429a      	cmp	r2, r3
 8003a1e:	d803      	bhi.n	8003a28 <HAL_SPI_Transmit+0x20c>
 8003a20:	683b      	ldr	r3, [r7, #0]
 8003a22:	f1b3 3fff 	cmp.w	r3, #4294967295
 8003a26:	d102      	bne.n	8003a2e <HAL_SPI_Transmit+0x212>
 8003a28:	683b      	ldr	r3, [r7, #0]
 8003a2a:	2b00      	cmp	r3, #0
 8003a2c:	d106      	bne.n	8003a3c <HAL_SPI_Transmit+0x220>
 8003a2e:	2303      	movs	r3, #3
 8003a30:	77fb      	strb	r3, [r7, #31]
 8003a32:	68fb      	ldr	r3, [r7, #12]
 8003a34:	2201      	movs	r2, #1
 8003a36:	f883 2051 	strb.w	r2, [r3, #81]	@ 0x51
 8003a3a:	e029      	b.n	8003a90 <HAL_SPI_Transmit+0x274>
 8003a3c:	68fb      	ldr	r3, [r7, #12]
 8003a3e:	8edb      	ldrh	r3, [r3, #54]	@ 0x36
 8003a40:	b29b      	uxth	r3, r3
 8003a42:	2b00      	cmp	r3, #0
 8003a44:	d1c9      	bne.n	80039da <HAL_SPI_Transmit+0x1be>
 8003a46:	69ba      	ldr	r2, [r7, #24]
 8003a48:	6839      	ldr	r1, [r7, #0]
 8003a4a:	68f8      	ldr	r0, [r7, #12]
 8003a4c:	f000 fbcc 	bl	80041e8 <SPI_EndRxTxTransaction>
 8003a50:	4603      	mov	r3, r0
 8003a52:	2b00      	cmp	r3, #0
 8003a54:	d002      	beq.n	8003a5c <HAL_SPI_Transmit+0x240>
 8003a56:	68fb      	ldr	r3, [r7, #12]
 8003a58:	2220      	movs	r2, #32
 8003a5a:	655a      	str	r2, [r3, #84]	@ 0x54
 8003a5c:	68fb      	ldr	r3, [r7, #12]
 8003a5e:	689b      	ldr	r3, [r3, #8]
 8003a60:	2b00      	cmp	r3, #0
 8003a62:	d10a      	bne.n	8003a7a <HAL_SPI_Transmit+0x25e>
 8003a64:	2300      	movs	r3, #0
 8003a66:	613b      	str	r3, [r7, #16]
 8003a68:	68fb      	ldr	r3, [r7, #12]
 8003a6a:	681b      	ldr	r3, [r3, #0]
 8003a6c:	68db      	ldr	r3, [r3, #12]
 8003a6e:	613b      	str	r3, [r7, #16]
 8003a70:	68fb      	ldr	r3, [r7, #12]
 8003a72:	681b      	ldr	r3, [r3, #0]
 8003a74:	689b      	ldr	r3, [r3, #8]
 8003a76:	613b      	str	r3, [r7, #16]
 8003a78:	693b      	ldr	r3, [r7, #16]
 8003a7a:	68fb      	ldr	r3, [r7, #12]
 8003a7c:	6d5b      	ldr	r3, [r3, #84]	@ 0x54
 8003a7e:	2b00      	cmp	r3, #0
 8003a80:	d002      	beq.n	8003a88 <HAL_SPI_Transmit+0x26c>
 8003a82:	2301      	movs	r3, #1
 8003a84:	77fb      	strb	r3, [r7, #31]
 8003a86:	e003      	b.n	8003a90 <HAL_SPI_Transmit+0x274>
 8003a88:	68fb      	ldr	r3, [r7, #12]
 8003a8a:	2201      	movs	r2, #1
 8003a8c:	f883 2051 	strb.w	r2, [r3, #81]	@ 0x51
 8003a90:	68fb      	ldr	r3, [r7, #12]
 8003a92:	2200      	movs	r2, #0
 8003a94:	f883 2050 	strb.w	r2, [r3, #80]	@ 0x50
 8003a98:	7ffb      	ldrb	r3, [r7, #31]
 8003a9a:	4618      	mov	r0, r3
 8003a9c:	3720      	adds	r7, #32
 8003a9e:	46bd      	mov	sp, r7
 8003aa0:	bd80      	pop	{r7, pc}

08003aa2 <HAL_SPI_Receive>:
 8003aa2:	b580      	push	{r7, lr}
 8003aa4:	b088      	sub	sp, #32
 8003aa6:	af02      	add	r7, sp, #8
 8003aa8:	60f8      	str	r0, [r7, #12]
 8003aaa:	60b9      	str	r1, [r7, #8]
 8003aac:	603b      	str	r3, [r7, #0]
 8003aae:	4613      	mov	r3, r2
 8003ab0:	80fb      	strh	r3, [r7, #6]
 8003ab2:	2300      	movs	r3, #0
 8003ab4:	75fb      	strb	r3, [r7, #23]
 8003ab6:	68fb      	ldr	r3, [r7, #12]
 8003ab8:	f893 3051 	ldrb.w	r3, [r3, #81]	@ 0x51
 8003abc:	b2db      	uxtb	r3, r3
 8003abe:	2b01      	cmp	r3, #1
 8003ac0:	d002      	beq.n	8003ac8 <HAL_SPI_Receive+0x26>
 8003ac2:	2302      	movs	r3, #2
 8003ac4:	75fb      	strb	r3, [r7, #23]
 8003ac6:	e0fb      	b.n	8003cc0 <HAL_SPI_Receive+0x21e>
 8003ac8:	68fb      	ldr	r3, [r7, #12]
 8003aca:	685b      	ldr	r3, [r3, #4]
 8003acc:	f5b3 7f82 	cmp.w	r3, #260	@ 0x104
 8003ad0:	d112      	bne.n	8003af8 <HAL_SPI_Receive+0x56>
 8003ad2:	68fb      	ldr	r3, [r7, #12]
 8003ad4:	689b      	ldr	r3, [r3, #8]
 8003ad6:	2b00      	cmp	r3, #0
 8003ad8:	d10e      	bne.n	8003af8 <HAL_SPI_Receive+0x56>
 8003ada:	68fb      	ldr	r3, [r7, #12]
 8003adc:	2204      	movs	r2, #4
 8003ade:	f883 2051 	strb.w	r2, [r3, #81]	@ 0x51
 8003ae2:	88fa      	ldrh	r2, [r7, #6]
 8003ae4:	683b      	ldr	r3, [r7, #0]
 8003ae6:	9300      	str	r3, [sp, #0]
 8003ae8:	4613      	mov	r3, r2
 8003aea:	68ba      	ldr	r2, [r7, #8]
 8003aec:	68b9      	ldr	r1, [r7, #8]
 8003aee:	68f8      	ldr	r0, [r7, #12]
 8003af0:	f000 f8ef 	bl	8003cd2 <HAL_SPI_TransmitReceive>
 8003af4:	4603      	mov	r3, r0
 8003af6:	e0e8      	b.n	8003cca <HAL_SPI_Receive+0x228>
 8003af8:	68fb      	ldr	r3, [r7, #12]
 8003afa:	f893 3050 	ldrb.w	r3, [r3, #80]	@ 0x50
 8003afe:	2b01      	cmp	r3, #1
 8003b00:	d101      	bne.n	8003b06 <HAL_SPI_Receive+0x64>
 8003b02:	2302      	movs	r3, #2
 8003b04:	e0e1      	b.n	8003cca <HAL_SPI_Receive+0x228>
 8003b06:	68fb      	ldr	r3, [r7, #12]
 8003b08:	2201      	movs	r2, #1
 8003b0a:	f883 2050 	strb.w	r2, [r3, #80]	@ 0x50
 8003b0e:	f7fd fc25 	bl	800135c <HAL_GetTick>
 8003b12:	6138      	str	r0, [r7, #16]
 8003b14:	68bb      	ldr	r3, [r7, #8]
 8003b16:	2b00      	cmp	r3, #0
 8003b18:	d002      	beq.n	8003b20 <HAL_SPI_Receive+0x7e>
 8003b1a:	88fb      	ldrh	r3, [r7, #6]
 8003b1c:	2b00      	cmp	r3, #0
 8003b1e:	d102      	bne.n	8003b26 <HAL_SPI_Receive+0x84>
 8003b20:	2301      	movs	r3, #1
 8003b22:	75fb      	strb	r3, [r7, #23]
 8003b24:	e0cc      	b.n	8003cc0 <HAL_SPI_Receive+0x21e>
 8003b26:	68fb      	ldr	r3, [r7, #12]
 8003b28:	2204      	movs	r2, #4
 8003b2a:	f883 2051 	strb.w	r2, [r3, #81]	@ 0x51
 8003b2e:	68fb      	ldr	r3, [r7, #12]
 8003b30:	2200      	movs	r2, #0
 8003b32:	655a      	str	r2, [r3, #84]	@ 0x54
 8003b34:	68fb      	ldr	r3, [r7, #12]
 8003b36:	68ba      	ldr	r2, [r7, #8]
 8003b38:	639a      	str	r2, [r3, #56]	@ 0x38
 8003b3a:	68fb      	ldr	r3, [r7, #12]
 8003b3c:	88fa      	ldrh	r2, [r7, #6]
 8003b3e:	879a      	strh	r2, [r3, #60]	@ 0x3c
 8003b40:	68fb      	ldr	r3, [r7, #12]
 8003b42:	88fa      	ldrh	r2, [r7, #6]
 8003b44:	87da      	strh	r2, [r3, #62]	@ 0x3e
 8003b46:	68fb      	ldr	r3, [r7, #12]
 8003b48:	2200      	movs	r2, #0
 8003b4a:	631a      	str	r2, [r3, #48]	@ 0x30
 8003b4c:	68fb      	ldr	r3, [r7, #12]
 8003b4e:	2200      	movs	r2, #0
 8003b50:	869a      	strh	r2, [r3, #52]	@ 0x34
 8003b52:	68fb      	ldr	r3, [r7, #12]
 8003b54:	2200      	movs	r2, #0
 8003b56:	86da      	strh	r2, [r3, #54]	@ 0x36
 8003b58:	68fb      	ldr	r3, [r7, #12]
 8003b5a:	2200      	movs	r2, #0
 8003b5c:	641a      	str	r2, [r3, #64]	@ 0x40
 8003b5e:	68fb      	ldr	r3, [r7, #12]
 8003b60:	2200      	movs	r2, #0
 8003b62:	645a      	str	r2, [r3, #68]	@ 0x44
 8003b64:	68fb      	ldr	r3, [r7, #12]
 8003b66:	689b      	ldr	r3, [r3, #8]
 8003b68:	f5b3 4f00 	cmp.w	r3, #32768	@ 0x8000
 8003b6c:	d10f      	bne.n	8003b8e <HAL_SPI_Receive+0xec>
 8003b6e:	68fb      	ldr	r3, [r7, #12]
 8003b70:	681b      	ldr	r3, [r3, #0]
 8003b72:	681a      	ldr	r2, [r3, #0]
 8003b74:	68fb      	ldr	r3, [r7, #12]
 8003b76:	681b      	ldr	r3, [r3, #0]
 8003b78:	f022 0240 	bic.w	r2, r2, #64	@ 0x40
 8003b7c:	601a      	str	r2, [r3, #0]
 8003b7e:	68fb      	ldr	r3, [r7, #12]
 8003b80:	681b      	ldr	r3, [r3, #0]
 8003b82:	681a      	ldr	r2, [r3, #0]
 8003b84:	68fb      	ldr	r3, [r7, #12]
 8003b86:	681b      	ldr	r3, [r3, #0]
 8003b88:	f422 4280 	bic.w	r2, r2, #16384	@ 0x4000
 8003b8c:	601a      	str	r2, [r3, #0]
 8003b8e:	68fb      	ldr	r3, [r7, #12]
 8003b90:	681b      	ldr	r3, [r3, #0]
 8003b92:	681b      	ldr	r3, [r3, #0]
 8003b94:	f003 0340 	and.w	r3, r3, #64	@ 0x40
 8003b98:	2b40      	cmp	r3, #64	@ 0x40
 8003b9a:	d007      	beq.n	8003bac <HAL_SPI_Receive+0x10a>
 8003b9c:	68fb      	ldr	r3, [r7, #12]
 8003b9e:	681b      	ldr	r3, [r3, #0]
 8003ba0:	681a      	ldr	r2, [r3, #0]
 8003ba2:	68fb      	ldr	r3, [r7, #12]
 8003ba4:	681b      	ldr	r3, [r3, #0]
 8003ba6:	f042 0240 	orr.w	r2, r2, #64	@ 0x40
 8003baa:	601a      	str	r2, [r3, #0]
 8003bac:	68fb      	ldr	r3, [r7, #12]
 8003bae:	68db      	ldr	r3, [r3, #12]
 8003bb0:	2b00      	cmp	r3, #0
 8003bb2:	d16a      	bne.n	8003c8a <HAL_SPI_Receive+0x1e8>
 8003bb4:	e032      	b.n	8003c1c <HAL_SPI_Receive+0x17a>
 8003bb6:	68fb      	ldr	r3, [r7, #12]
 8003bb8:	681b      	ldr	r3, [r3, #0]
 8003bba:	689b      	ldr	r3, [r3, #8]
 8003bbc:	f003 0301 	and.w	r3, r3, #1
 8003bc0:	2b01      	cmp	r3, #1
 8003bc2:	d115      	bne.n	8003bf0 <HAL_SPI_Receive+0x14e>
 8003bc4:	68fb      	ldr	r3, [r7, #12]
 8003bc6:	681b      	ldr	r3, [r3, #0]
 8003bc8:	f103 020c 	add.w	r2, r3, #12
 8003bcc:	68fb      	ldr	r3, [r7, #12]
 8003bce:	6b9b      	ldr	r3, [r3, #56]	@ 0x38
 8003bd0:	7812      	ldrb	r2, [r2, #0]
 8003bd2:	b2d2      	uxtb	r2, r2
 8003bd4:	701a      	strb	r2, [r3, #0]
 8003bd6:	68fb      	ldr	r3, [r7, #12]
 8003bd8:	6b9b      	ldr	r3, [r3, #56]	@ 0x38
 8003bda:	1c5a      	adds	r2, r3, #1
 8003bdc:	68fb      	ldr	r3, [r7, #12]
 8003bde:	639a      	str	r2, [r3, #56]	@ 0x38
 8003be0:	68fb      	ldr	r3, [r7, #12]
 8003be2:	8fdb      	ldrh	r3, [r3, #62]	@ 0x3e
 8003be4:	b29b      	uxth	r3, r3
 8003be6:	3b01      	subs	r3, #1
 8003be8:	b29a      	uxth	r2, r3
 8003bea:	68fb      	ldr	r3, [r7, #12]
 8003bec:	87da      	strh	r2, [r3, #62]	@ 0x3e
 8003bee:	e015      	b.n	8003c1c <HAL_SPI_Receive+0x17a>
 8003bf0:	f7fd fbb4 	bl	800135c <HAL_GetTick>
 8003bf4:	4602      	mov	r2, r0
 8003bf6:	693b      	ldr	r3, [r7, #16]
 8003bf8:	1ad3      	subs	r3, r2, r3
 8003bfa:	683a      	ldr	r2, [r7, #0]
 8003bfc:	429a      	cmp	r2, r3
 8003bfe:	d803      	bhi.n	8003c08 <HAL_SPI_Receive+0x166>
 8003c00:	683b      	ldr	r3, [r7, #0]
 8003c02:	f1b3 3fff 	cmp.w	r3, #4294967295
 8003c06:	d102      	bne.n	8003c0e <HAL_SPI_Receive+0x16c>
 8003c08:	683b      	ldr	r3, [r7, #0]
 8003c0a:	2b00      	cmp	r3, #0
 8003c0c:	d106      	bne.n	8003c1c <HAL_SPI_Receive+0x17a>
 8003c0e:	2303      	movs	r3, #3
 8003c10:	75fb      	strb	r3, [r7, #23]
 8003c12:	68fb      	ldr	r3, [r7, #12]
 8003c14:	2201      	movs	r2, #1
 8003c16:	f883 2051 	strb.w	r2, [r3, #81]	@ 0x51
 8003c1a:	e051      	b.n	8003cc0 <HAL_SPI_Receive+0x21e>
 8003c1c:	68fb      	ldr	r3, [r7, #12]
 8003c1e:	8fdb      	ldrh	r3, [r3, #62]	@ 0x3e
 8003c20:	b29b      	uxth	r3, r3
 8003c22:	2b00      	cmp	r3, #0
 8003c24:	d1c7      	bne.n	8003bb6 <HAL_SPI_Receive+0x114>
 8003c26:	e035      	b.n	8003c94 <HAL_SPI_Receive+0x1f2>
 8003c28:	68fb      	ldr	r3, [r7, #12]
 8003c2a:	681b      	ldr	r3, [r3, #0]
 8003c2c:	689b      	ldr	r3, [r3, #8]
 8003c2e:	f003 0301 	and.w	r3, r3, #1
 8003c32:	2b01      	cmp	r3, #1
 8003c34:	d113      	bne.n	8003c5e <HAL_SPI_Receive+0x1bc>
 8003c36:	68fb      	ldr	r3, [r7, #12]
 8003c38:	681b      	ldr	r3, [r3, #0]
 8003c3a:	68da      	ldr	r2, [r3, #12]
 8003c3c:	68fb      	ldr	r3, [r7, #12]
 8003c3e:	6b9b      	ldr	r3, [r3, #56]	@ 0x38
 8003c40:	b292      	uxth	r2, r2
 8003c42:	801a      	strh	r2, [r3, #0]
 8003c44:	68fb      	ldr	r3, [r7, #12]
 8003c46:	6b9b      	ldr	r3, [r3, #56]	@ 0x38
 8003c48:	1c9a      	adds	r2, r3, #2
 8003c4a:	68fb      	ldr	r3, [r7, #12]
 8003c4c:	639a      	str	r2, [r3, #56]	@ 0x38
 8003c4e:	68fb      	ldr	r3, [r7, #12]
 8003c50:	8fdb      	ldrh	r3, [r3, #62]	@ 0x3e
 8003c52:	b29b      	uxth	r3, r3
 8003c54:	3b01      	subs	r3, #1
 8003c56:	b29a      	uxth	r2, r3
 8003c58:	68fb      	ldr	r3, [r7, #12]
 8003c5a:	87da      	strh	r2, [r3, #62]	@ 0x3e
 8003c5c:	e015      	b.n	8003c8a <HAL_SPI_Receive+0x1e8>
 8003c5e:	f7fd fb7d 	bl	800135c <HAL_GetTick>
 8003c62:	4602      	mov	r2, r0
 8003c64:	693b      	ldr	r3, [r7, #16]
 8003c66:	1ad3      	subs	r3, r2, r3
 8003c68:	683a      	ldr	r2, [r7, #0]
 8003c6a:	429a      	cmp	r2, r3
 8003c6c:	d803      	bhi.n	8003c76 <HAL_SPI_Receive+0x1d4>
 8003c6e:	683b      	ldr	r3, [r7, #0]
 8003c70:	f1b3 3fff 	cmp.w	r3, #4294967295
 8003c74:	d102      	bne.n	8003c7c <HAL_SPI_Receive+0x1da>
 8003c76:	683b      	ldr	r3, [r7, #0]
 8003c78:	2b00      	cmp	r3, #0
 8003c7a:	d106      	bne.n	8003c8a <HAL_SPI_Receive+0x1e8>
 8003c7c:	2303      	movs	r3, #3
 8003c7e:	75fb      	strb	r3, [r7, #23]
 8003c80:	68fb      	ldr	r3, [r7, #12]
 8003c82:	2201      	movs	r2, #1
 8003c84:	f883 2051 	strb.w	r2, [r3, #81]	@ 0x51
 8003c88:	e01a      	b.n	8003cc0 <HAL_SPI_Receive+0x21e>
 8003c8a:	68fb      	ldr	r3, [r7, #12]
 8003c8c:	8fdb      	ldrh	r3, [r3, #62]	@ 0x3e
 8003c8e:	b29b      	uxth	r3, r3
 8003c90:	2b00      	cmp	r3, #0
 8003c92:	d1c9      	bne.n	8003c28 <HAL_SPI_Receive+0x186>
 8003c94:	693a      	ldr	r2, [r7, #16]
 8003c96:	6839      	ldr	r1, [r7, #0]
 8003c98:	68f8      	ldr	r0, [r7, #12]
 8003c9a:	f000 fa53 	bl	8004144 <SPI_EndRxTransaction>
 8003c9e:	4603      	mov	r3, r0
 8003ca0:	2b00      	cmp	r3, #0
 8003ca2:	d002      	beq.n	8003caa <HAL_SPI_Receive+0x208>
 8003ca4:	68fb      	ldr	r3, [r7, #12]
 8003ca6:	2220      	movs	r2, #32
 8003ca8:	655a      	str	r2, [r3, #84]	@ 0x54
 8003caa:	68fb      	ldr	r3, [r7, #12]
 8003cac:	6d5b      	ldr	r3, [r3, #84]	@ 0x54
 8003cae:	2b00      	cmp	r3, #0
 8003cb0:	d002      	beq.n	8003cb8 <HAL_SPI_Receive+0x216>
 8003cb2:	2301      	movs	r3, #1
 8003cb4:	75fb      	strb	r3, [r7, #23]
 8003cb6:	e003      	b.n	8003cc0 <HAL_SPI_Receive+0x21e>
 8003cb8:	68fb      	ldr	r3, [r7, #12]
 8003cba:	2201      	movs	r2, #1
 8003cbc:	f883 2051 	strb.w	r2, [r3, #81]	@ 0x51
 8003cc0:	68fb      	ldr	r3, [r7, #12]
 8003cc2:	2200      	movs	r2, #0
 8003cc4:	f883 2050 	strb.w	r2, [r3, #80]	@ 0x50
 8003cc8:	7dfb      	ldrb	r3, [r7, #23]
 8003cca:	4618      	mov	r0, r3
 8003ccc:	3718      	adds	r7, #24
 8003cce:	46bd      	mov	sp, r7
 8003cd0:	bd80      	pop	{r7, pc}

08003cd2 <HAL_SPI_TransmitReceive>:
 8003cd2:	b580      	push	{r7, lr}
 8003cd4:	b08c      	sub	sp, #48	@ 0x30
 8003cd6:	af00      	add	r7, sp, #0
 8003cd8:	60f8      	str	r0, [r7, #12]
 8003cda:	60b9      	str	r1, [r7, #8]
 8003cdc:	607a      	str	r2, [r7, #4]
 8003cde:	807b      	strh	r3, [r7, #2]
 8003ce0:	2301      	movs	r3, #1
 8003ce2:	62fb      	str	r3, [r7, #44]	@ 0x2c
 8003ce4:	2300      	movs	r3, #0
 8003ce6:	f887 302b 	strb.w	r3, [r7, #43]	@ 0x2b
 8003cea:	68fb      	ldr	r3, [r7, #12]
 8003cec:	f893 3050 	ldrb.w	r3, [r3, #80]	@ 0x50
 8003cf0:	2b01      	cmp	r3, #1
 8003cf2:	d101      	bne.n	8003cf8 <HAL_SPI_TransmitReceive+0x26>
 8003cf4:	2302      	movs	r3, #2
 8003cf6:	e198      	b.n	800402a <HAL_SPI_TransmitReceive+0x358>
 8003cf8:	68fb      	ldr	r3, [r7, #12]
 8003cfa:	2201      	movs	r2, #1
 8003cfc:	f883 2050 	strb.w	r2, [r3, #80]	@ 0x50
 8003d00:	f7fd fb2c 	bl	800135c <HAL_GetTick>
 8003d04:	6278      	str	r0, [r7, #36]	@ 0x24
 8003d06:	68fb      	ldr	r3, [r7, #12]
 8003d08:	f893 3051 	ldrb.w	r3, [r3, #81]	@ 0x51
 8003d0c:	f887 3023 	strb.w	r3, [r7, #35]	@ 0x23
 8003d10:	68fb      	ldr	r3, [r7, #12]
 8003d12:	685b      	ldr	r3, [r3, #4]
 8003d14:	61fb      	str	r3, [r7, #28]
 8003d16:	887b      	ldrh	r3, [r7, #2]
 8003d18:	837b      	strh	r3, [r7, #26]
 8003d1a:	f897 3023 	ldrb.w	r3, [r7, #35]	@ 0x23
 8003d1e:	2b01      	cmp	r3, #1
 8003d20:	d00f      	beq.n	8003d42 <HAL_SPI_TransmitReceive+0x70>
 8003d22:	69fb      	ldr	r3, [r7, #28]
 8003d24:	f5b3 7f82 	cmp.w	r3, #260	@ 0x104
 8003d28:	d107      	bne.n	8003d3a <HAL_SPI_TransmitReceive+0x68>
 8003d2a:	68fb      	ldr	r3, [r7, #12]
 8003d2c:	689b      	ldr	r3, [r3, #8]
 8003d2e:	2b00      	cmp	r3, #0
 8003d30:	d103      	bne.n	8003d3a <HAL_SPI_TransmitReceive+0x68>
 8003d32:	f897 3023 	ldrb.w	r3, [r7, #35]	@ 0x23
 8003d36:	2b04      	cmp	r3, #4
 8003d38:	d003      	beq.n	8003d42 <HAL_SPI_TransmitReceive+0x70>
 8003d3a:	2302      	movs	r3, #2
 8003d3c:	f887 302b 	strb.w	r3, [r7, #43]	@ 0x2b
 8003d40:	e16d      	b.n	800401e <HAL_SPI_TransmitReceive+0x34c>
 8003d42:	68bb      	ldr	r3, [r7, #8]
 8003d44:	2b00      	cmp	r3, #0
 8003d46:	d005      	beq.n	8003d54 <HAL_SPI_TransmitReceive+0x82>
 8003d48:	687b      	ldr	r3, [r7, #4]
 8003d4a:	2b00      	cmp	r3, #0
 8003d4c:	d002      	beq.n	8003d54 <HAL_SPI_TransmitReceive+0x82>
 8003d4e:	887b      	ldrh	r3, [r7, #2]
 8003d50:	2b00      	cmp	r3, #0
 8003d52:	d103      	bne.n	8003d5c <HAL_SPI_TransmitReceive+0x8a>
 8003d54:	2301      	movs	r3, #1
 8003d56:	f887 302b 	strb.w	r3, [r7, #43]	@ 0x2b
 8003d5a:	e160      	b.n	800401e <HAL_SPI_TransmitReceive+0x34c>
 8003d5c:	68fb      	ldr	r3, [r7, #12]
 8003d5e:	f893 3051 	ldrb.w	r3, [r3, #81]	@ 0x51
 8003d62:	b2db      	uxtb	r3, r3
 8003d64:	2b04      	cmp	r3, #4
 8003d66:	d003      	beq.n	8003d70 <HAL_SPI_TransmitReceive+0x9e>
 8003d68:	68fb      	ldr	r3, [r7, #12]
 8003d6a:	2205      	movs	r2, #5
 8003d6c:	f883 2051 	strb.w	r2, [r3, #81]	@ 0x51
 8003d70:	68fb      	ldr	r3, [r7, #12]
 8003d72:	2200      	movs	r2, #0
 8003d74:	655a      	str	r2, [r3, #84]	@ 0x54
 8003d76:	68fb      	ldr	r3, [r7, #12]
 8003d78:	687a      	ldr	r2, [r7, #4]
 8003d7a:	639a      	str	r2, [r3, #56]	@ 0x38
 8003d7c:	68fb      	ldr	r3, [r7, #12]
 8003d7e:	887a      	ldrh	r2, [r7, #2]
 8003d80:	87da      	strh	r2, [r3, #62]	@ 0x3e
 8003d82:	68fb      	ldr	r3, [r7, #12]
 8003d84:	887a      	ldrh	r2, [r7, #2]
 8003d86:	879a      	strh	r2, [r3, #60]	@ 0x3c
 8003d88:	68fb      	ldr	r3, [r7, #12]
 8003d8a:	68ba      	ldr	r2, [r7, #8]
 8003d8c:	631a      	str	r2, [r3, #48]	@ 0x30
 8003d8e:	68fb      	ldr	r3, [r7, #12]
 8003d90:	887a      	ldrh	r2, [r7, #2]
 8003d92:	86da      	strh	r2, [r3, #54]	@ 0x36
 8003d94:	68fb      	ldr	r3, [r7, #12]
 8003d96:	887a      	ldrh	r2, [r7, #2]
 8003d98:	869a      	strh	r2, [r3, #52]	@ 0x34
 8003d9a:	68fb      	ldr	r3, [r7, #12]
 8003d9c:	2200      	movs	r2, #0
 8003d9e:	641a      	str	r2, [r3, #64]	@ 0x40
 8003da0:	68fb      	ldr	r3, [r7, #12]
 8003da2:	2200      	movs	r2, #0
 8003da4:	645a      	str	r2, [r3, #68]	@ 0x44
 8003da6:	68fb      	ldr	r3, [r7, #12]
 8003da8:	681b      	ldr	r3, [r3, #0]
 8003daa:	681b      	ldr	r3, [r3, #0]
 8003dac:	f003 0340 	and.w	r3, r3, #64	@ 0x40
 8003db0:	2b40      	cmp	r3, #64	@ 0x40
 8003db2:	d007      	beq.n	8003dc4 <HAL_SPI_TransmitReceive+0xf2>
 8003db4:	68fb      	ldr	r3, [r7, #12]
 8003db6:	681b      	ldr	r3, [r3, #0]
 8003db8:	681a      	ldr	r2, [r3, #0]
 8003dba:	68fb      	ldr	r3, [r7, #12]
 8003dbc:	681b      	ldr	r3, [r3, #0]
 8003dbe:	f042 0240 	orr.w	r2, r2, #64	@ 0x40
 8003dc2:	601a      	str	r2, [r3, #0]
 8003dc4:	68fb      	ldr	r3, [r7, #12]
 8003dc6:	68db      	ldr	r3, [r3, #12]
 8003dc8:	f5b3 6f00 	cmp.w	r3, #2048	@ 0x800
 8003dcc:	d17c      	bne.n	8003ec8 <HAL_SPI_TransmitReceive+0x1f6>
 8003dce:	68fb      	ldr	r3, [r7, #12]
 8003dd0:	685b      	ldr	r3, [r3, #4]
 8003dd2:	2b00      	cmp	r3, #0
 8003dd4:	d002      	beq.n	8003ddc <HAL_SPI_TransmitReceive+0x10a>
 8003dd6:	8b7b      	ldrh	r3, [r7, #26]
 8003dd8:	2b01      	cmp	r3, #1
 8003dda:	d16a      	bne.n	8003eb2 <HAL_SPI_TransmitReceive+0x1e0>
 8003ddc:	68fb      	ldr	r3, [r7, #12]
 8003dde:	6b1b      	ldr	r3, [r3, #48]	@ 0x30
 8003de0:	881a      	ldrh	r2, [r3, #0]
 8003de2:	68fb      	ldr	r3, [r7, #12]
 8003de4:	681b      	ldr	r3, [r3, #0]
 8003de6:	60da      	str	r2, [r3, #12]
 8003de8:	68fb      	ldr	r3, [r7, #12]
 8003dea:	6b1b      	ldr	r3, [r3, #48]	@ 0x30
 8003dec:	1c9a      	adds	r2, r3, #2
 8003dee:	68fb      	ldr	r3, [r7, #12]
 8003df0:	631a      	str	r2, [r3, #48]	@ 0x30
 8003df2:	68fb      	ldr	r3, [r7, #12]
 8003df4:	8edb      	ldrh	r3, [r3, #54]	@ 0x36
 8003df6:	b29b      	uxth	r3, r3
 8003df8:	3b01      	subs	r3, #1
 8003dfa:	b29a      	uxth	r2, r3
 8003dfc:	68fb      	ldr	r3, [r7, #12]
 8003dfe:	86da      	strh	r2, [r3, #54]	@ 0x36
 8003e00:	e057      	b.n	8003eb2 <HAL_SPI_TransmitReceive+0x1e0>
 8003e02:	68fb      	ldr	r3, [r7, #12]
 8003e04:	681b      	ldr	r3, [r3, #0]
 8003e06:	689b      	ldr	r3, [r3, #8]
 8003e08:	f003 0302 	and.w	r3, r3, #2
 8003e0c:	2b02      	cmp	r3, #2
 8003e0e:	d11b      	bne.n	8003e48 <HAL_SPI_TransmitReceive+0x176>
 8003e10:	68fb      	ldr	r3, [r7, #12]
 8003e12:	8edb      	ldrh	r3, [r3, #54]	@ 0x36
 8003e14:	b29b      	uxth	r3, r3
 8003e16:	2b00      	cmp	r3, #0
 8003e18:	d016      	beq.n	8003e48 <HAL_SPI_TransmitReceive+0x176>
 8003e1a:	6afb      	ldr	r3, [r7, #44]	@ 0x2c
 8003e1c:	2b01      	cmp	r3, #1
 8003e1e:	d113      	bne.n	8003e48 <HAL_SPI_TransmitReceive+0x176>
 8003e20:	68fb      	ldr	r3, [r7, #12]
 8003e22:	6b1b      	ldr	r3, [r3, #48]	@ 0x30
 8003e24:	881a      	ldrh	r2, [r3, #0]
 8003e26:	68fb      	ldr	r3, [r7, #12]
 8003e28:	681b      	ldr	r3, [r3, #0]
 8003e2a:	60da      	str	r2, [r3, #12]
 8003e2c:	68fb      	ldr	r3, [r7, #12]
 8003e2e:	6b1b      	ldr	r3, [r3, #48]	@ 0x30
 8003e30:	1c9a      	adds	r2, r3, #2
 8003e32:	68fb      	ldr	r3, [r7, #12]
 8003e34:	631a      	str	r2, [r3, #48]	@ 0x30
 8003e36:	68fb      	ldr	r3, [r7, #12]
 8003e38:	8edb      	ldrh	r3, [r3, #54]	@ 0x36
 8003e3a:	b29b      	uxth	r3, r3
 8003e3c:	3b01      	subs	r3, #1
 8003e3e:	b29a      	uxth	r2, r3
 8003e40:	68fb      	ldr	r3, [r7, #12]
 8003e42:	86da      	strh	r2, [r3, #54]	@ 0x36
 8003e44:	2300      	movs	r3, #0
 8003e46:	62fb      	str	r3, [r7, #44]	@ 0x2c
 8003e48:	68fb      	ldr	r3, [r7, #12]
 8003e4a:	681b      	ldr	r3, [r3, #0]
 8003e4c:	689b      	ldr	r3, [r3, #8]
 8003e4e:	f003 0301 	and.w	r3, r3, #1
 8003e52:	2b01      	cmp	r3, #1
 8003e54:	d119      	bne.n	8003e8a <HAL_SPI_TransmitReceive+0x1b8>
 8003e56:	68fb      	ldr	r3, [r7, #12]
 8003e58:	8fdb      	ldrh	r3, [r3, #62]	@ 0x3e
 8003e5a:	b29b      	uxth	r3, r3
 8003e5c:	2b00      	cmp	r3, #0
 8003e5e:	d014      	beq.n	8003e8a <HAL_SPI_TransmitReceive+0x1b8>
 8003e60:	68fb      	ldr	r3, [r7, #12]
 8003e62:	681b      	ldr	r3, [r3, #0]
 8003e64:	68da      	ldr	r2, [r3, #12]
 8003e66:	68fb      	ldr	r3, [r7, #12]
 8003e68:	6b9b      	ldr	r3, [r3, #56]	@ 0x38
 8003e6a:	b292      	uxth	r2, r2
 8003e6c:	801a      	strh	r2, [r3, #0]
 8003e6e:	68fb      	ldr	r3, [r7, #12]
 8003e70:	6b9b      	ldr	r3, [r3, #56]	@ 0x38
 8003e72:	1c9a      	adds	r2, r3, #2
 8003e74:	68fb      	ldr	r3, [r7, #12]
 8003e76:	639a      	str	r2, [r3, #56]	@ 0x38
 8003e78:	68fb      	ldr	r3, [r7, #12]
 8003e7a:	8fdb      	ldrh	r3, [r3, #62]	@ 0x3e
 8003e7c:	b29b      	uxth	r3, r3
 8003e7e:	3b01      	subs	r3, #1
 8003e80:	b29a      	uxth	r2, r3
 8003e82:	68fb      	ldr	r3, [r7, #12]
 8003e84:	87da      	strh	r2, [r3, #62]	@ 0x3e
 8003e86:	2301      	movs	r3, #1
 8003e88:	62fb      	str	r3, [r7, #44]	@ 0x2c
 8003e8a:	f7fd fa67 	bl	800135c <HAL_GetTick>
 8003e8e:	4602      	mov	r2, r0
 8003e90:	6a7b      	ldr	r3, [r7, #36]	@ 0x24
 8003e92:	1ad3      	subs	r3, r2, r3
 8003e94:	6bba      	ldr	r2, [r7, #56]	@ 0x38
 8003e96:	429a      	cmp	r2, r3
 8003e98:	d80b      	bhi.n	8003eb2 <HAL_SPI_TransmitReceive+0x1e0>
 8003e9a:	6bbb      	ldr	r3, [r7, #56]	@ 0x38
 8003e9c:	f1b3 3fff 	cmp.w	r3, #4294967295
 8003ea0:	d007      	beq.n	8003eb2 <HAL_SPI_TransmitReceive+0x1e0>
 8003ea2:	2303      	movs	r3, #3
 8003ea4:	f887 302b 	strb.w	r3, [r7, #43]	@ 0x2b
 8003ea8:	68fb      	ldr	r3, [r7, #12]
 8003eaa:	2201      	movs	r2, #1
 8003eac:	f883 2051 	strb.w	r2, [r3, #81]	@ 0x51
 8003eb0:	e0b5      	b.n	800401e <HAL_SPI_TransmitReceive+0x34c>
 8003eb2:	68fb      	ldr	r3, [r7, #12]
 8003eb4:	8edb      	ldrh	r3, [r3, #54]	@ 0x36
 8003eb6:	b29b      	uxth	r3, r3
 8003eb8:	2b00      	cmp	r3, #0
 8003eba:	d1a2      	bne.n	8003e02 <HAL_SPI_TransmitReceive+0x130>
 8003ebc:	68fb      	ldr	r3, [r7, #12]
 8003ebe:	8fdb      	ldrh	r3, [r3, #62]	@ 0x3e
 8003ec0:	b29b      	uxth	r3, r3
 8003ec2:	2b00      	cmp	r3, #0
 8003ec4:	d19d      	bne.n	8003e02 <HAL_SPI_TransmitReceive+0x130>
 8003ec6:	e080      	b.n	8003fca <HAL_SPI_TransmitReceive+0x2f8>
 8003ec8:	68fb      	ldr	r3, [r7, #12]
 8003eca:	685b      	ldr	r3, [r3, #4]
 8003ecc:	2b00      	cmp	r3, #0
 8003ece:	d002      	beq.n	8003ed6 <HAL_SPI_TransmitReceive+0x204>
 8003ed0:	8b7b      	ldrh	r3, [r7, #26]
 8003ed2:	2b01      	cmp	r3, #1
 8003ed4:	d16f      	bne.n	8003fb6 <HAL_SPI_TransmitReceive+0x2e4>
 8003ed6:	68fb      	ldr	r3, [r7, #12]
 8003ed8:	6b1a      	ldr	r2, [r3, #48]	@ 0x30
 8003eda:	68fb      	ldr	r3, [r7, #12]
 8003edc:	681b      	ldr	r3, [r3, #0]
 8003ede:	330c      	adds	r3, #12
 8003ee0:	7812      	ldrb	r2, [r2, #0]
 8003ee2:	701a      	strb	r2, [r3, #0]
 8003ee4:	68fb      	ldr	r3, [r7, #12]
 8003ee6:	6b1b      	ldr	r3, [r3, #48]	@ 0x30
 8003ee8:	1c5a      	adds	r2, r3, #1
 8003eea:	68fb      	ldr	r3, [r7, #12]
 8003eec:	631a      	str	r2, [r3, #48]	@ 0x30
 8003eee:	68fb      	ldr	r3, [r7, #12]
 8003ef0:	8edb      	ldrh	r3, [r3, #54]	@ 0x36
 8003ef2:	b29b      	uxth	r3, r3
 8003ef4:	3b01      	subs	r3, #1
 8003ef6:	b29a      	uxth	r2, r3
 8003ef8:	68fb      	ldr	r3, [r7, #12]
 8003efa:	86da      	strh	r2, [r3, #54]	@ 0x36
 8003efc:	e05b      	b.n	8003fb6 <HAL_SPI_TransmitReceive+0x2e4>
 8003efe:	68fb      	ldr	r3, [r7, #12]
 8003f00:	681b      	ldr	r3, [r3, #0]
 8003f02:	689b      	ldr	r3, [r3, #8]
 8003f04:	f003 0302 	and.w	r3, r3, #2
 8003f08:	2b02      	cmp	r3, #2
 8003f0a:	d11c      	bne.n	8003f46 <HAL_SPI_TransmitReceive+0x274>
 8003f0c:	68fb      	ldr	r3, [r7, #12]
 8003f0e:	8edb      	ldrh	r3, [r3, #54]	@ 0x36
 8003f10:	b29b      	uxth	r3, r3
 8003f12:	2b00      	cmp	r3, #0
 8003f14:	d017      	beq.n	8003f46 <HAL_SPI_TransmitReceive+0x274>
 8003f16:	6afb      	ldr	r3, [r7, #44]	@ 0x2c
 8003f18:	2b01      	cmp	r3, #1
 8003f1a:	d114      	bne.n	8003f46 <HAL_SPI_TransmitReceive+0x274>
 8003f1c:	68fb      	ldr	r3, [r7, #12]
 8003f1e:	6b1a      	ldr	r2, [r3, #48]	@ 0x30
 8003f20:	68fb      	ldr	r3, [r7, #12]
 8003f22:	681b      	ldr	r3, [r3, #0]
 8003f24:	330c      	adds	r3, #12
 8003f26:	7812      	ldrb	r2, [r2, #0]
 8003f28:	701a      	strb	r2, [r3, #0]
 8003f2a:	68fb      	ldr	r3, [r7, #12]
 8003f2c:	6b1b      	ldr	r3, [r3, #48]	@ 0x30
 8003f2e:	1c5a      	adds	r2, r3, #1
 8003f30:	68fb      	ldr	r3, [r7, #12]
 8003f32:	631a      	str	r2, [r3, #48]	@ 0x30
 8003f34:	68fb      	ldr	r3, [r7, #12]
 8003f36:	8edb      	ldrh	r3, [r3, #54]	@ 0x36
 8003f38:	b29b      	uxth	r3, r3
 8003f3a:	3b01      	subs	r3, #1
 8003f3c:	b29a      	uxth	r2, r3
 8003f3e:	68fb      	ldr	r3, [r7, #12]
 8003f40:	86da      	strh	r2, [r3, #54]	@ 0x36
 8003f42:	2300      	movs	r3, #0
 8003f44:	62fb      	str	r3, [r7, #44]	@ 0x2c
 8003f46:	68fb      	ldr	r3, [r7, #12]
 8003f48:	681b      	ldr	r3, [r3, #0]
 8003f4a:	689b      	ldr	r3, [r3, #8]
 8003f4c:	f003 0301 	and.w	r3, r3, #1
 8003f50:	2b01      	cmp	r3, #1
 8003f52:	d119      	bne.n	8003f88 <HAL_SPI_TransmitReceive+0x2b6>
 8003f54:	68fb      	ldr	r3, [r7, #12]
 8003f56:	8fdb      	ldrh	r3, [r3, #62]	@ 0x3e
 8003f58:	b29b      	uxth	r3, r3
 8003f5a:	2b00      	cmp	r3, #0
 8003f5c:	d014      	beq.n	8003f88 <HAL_SPI_TransmitReceive+0x2b6>
 8003f5e:	68fb      	ldr	r3, [r7, #12]
 8003f60:	681b      	ldr	r3, [r3, #0]
 8003f62:	68da      	ldr	r2, [r3, #12]
 8003f64:	68fb      	ldr	r3, [r7, #12]
 8003f66:	6b9b      	ldr	r3, [r3, #56]	@ 0x38
 8003f68:	b2d2      	uxtb	r2, r2
 8003f6a:	701a      	strb	r2, [r3, #0]
 8003f6c:	68fb      	ldr	r3, [r7, #12]
 8003f6e:	6b9b      	ldr	r3, [r3, #56]	@ 0x38
 8003f70:	1c5a      	adds	r2, r3, #1
 8003f72:	68fb      	ldr	r3, [r7, #12]
 8003f74:	639a      	str	r2, [r3, #56]	@ 0x38
 8003f76:	68fb      	ldr	r3, [r7, #12]
 8003f78:	8fdb      	ldrh	r3, [r3, #62]	@ 0x3e
 8003f7a:	b29b      	uxth	r3, r3
 8003f7c:	3b01      	subs	r3, #1
 8003f7e:	b29a      	uxth	r2, r3
 8003f80:	68fb      	ldr	r3, [r7, #12]
 8003f82:	87da      	strh	r2, [r3, #62]	@ 0x3e
 8003f84:	2301      	movs	r3, #1
 8003f86:	62fb      	str	r3, [r7, #44]	@ 0x2c
 8003f88:	f7fd f9e8 	bl	800135c <HAL_GetTick>
 8003f8c:	4602      	mov	r2, r0
 8003f8e:	6a7b      	ldr	r3, [r7, #36]	@ 0x24
 8003f90:	1ad3      	subs	r3, r2, r3
 8003f92:	6bba      	ldr	r2, [r7, #56]	@ 0x38
 8003f94:	429a      	cmp	r2, r3
 8003f96:	d803      	bhi.n	8003fa0 <HAL_SPI_TransmitReceive+0x2ce>
 8003f98:	6bbb      	ldr	r3, [r7, #56]	@ 0x38
 8003f9a:	f1b3 3fff 	cmp.w	r3, #4294967295
 8003f9e:	d102      	bne.n	8003fa6 <HAL_SPI_TransmitReceive+0x2d4>
 8003fa0:	6bbb      	ldr	r3, [r7, #56]	@ 0x38
 8003fa2:	2b00      	cmp	r3, #0
 8003fa4:	d107      	bne.n	8003fb6 <HAL_SPI_TransmitReceive+0x2e4>
 8003fa6:	2303      	movs	r3, #3
 8003fa8:	f887 302b 	strb.w	r3, [r7, #43]	@ 0x2b
 8003fac:	68fb      	ldr	r3, [r7, #12]
 8003fae:	2201      	movs	r2, #1
 8003fb0:	f883 2051 	strb.w	r2, [r3, #81]	@ 0x51
 8003fb4:	e033      	b.n	800401e <HAL_SPI_TransmitReceive+0x34c>
 8003fb6:	68fb      	ldr	r3, [r7, #12]
 8003fb8:	8edb      	ldrh	r3, [r3, #54]	@ 0x36
 8003fba:	b29b      	uxth	r3, r3
 8003fbc:	2b00      	cmp	r3, #0
 8003fbe:	d19e      	bne.n	8003efe <HAL_SPI_TransmitReceive+0x22c>
 8003fc0:	68fb      	ldr	r3, [r7, #12]
 8003fc2:	8fdb      	ldrh	r3, [r3, #62]	@ 0x3e
 8003fc4:	b29b      	uxth	r3, r3
 8003fc6:	2b00      	cmp	r3, #0
 8003fc8:	d199      	bne.n	8003efe <HAL_SPI_TransmitReceive+0x22c>
 8003fca:	6a7a      	ldr	r2, [r7, #36]	@ 0x24
 8003fcc:	6bb9      	ldr	r1, [r7, #56]	@ 0x38
 8003fce:	68f8      	ldr	r0, [r7, #12]
 8003fd0:	f000 f90a 	bl	80041e8 <SPI_EndRxTxTransaction>
 8003fd4:	4603      	mov	r3, r0
 8003fd6:	2b00      	cmp	r3, #0
 8003fd8:	d006      	beq.n	8003fe8 <HAL_SPI_TransmitReceive+0x316>
 8003fda:	2301      	movs	r3, #1
 8003fdc:	f887 302b 	strb.w	r3, [r7, #43]	@ 0x2b
 8003fe0:	68fb      	ldr	r3, [r7, #12]
 8003fe2:	2220      	movs	r2, #32
 8003fe4:	655a      	str	r2, [r3, #84]	@ 0x54
 8003fe6:	e01a      	b.n	800401e <HAL_SPI_TransmitReceive+0x34c>
 8003fe8:	68fb      	ldr	r3, [r7, #12]
 8003fea:	689b      	ldr	r3, [r3, #8]
 8003fec:	2b00      	cmp	r3, #0
 8003fee:	d10a      	bne.n	8004006 <HAL_SPI_TransmitReceive+0x334>
 8003ff0:	2300      	movs	r3, #0
 8003ff2:	617b      	str	r3, [r7, #20]
 8003ff4:	68fb      	ldr	r3, [r7, #12]
 8003ff6:	681b      	ldr	r3, [r3, #0]
 8003ff8:	68db      	ldr	r3, [r3, #12]
 8003ffa:	617b      	str	r3, [r7, #20]
 8003ffc:	68fb      	ldr	r3, [r7, #12]
 8003ffe:	681b      	ldr	r3, [r3, #0]
 8004000:	689b      	ldr	r3, [r3, #8]
 8004002:	617b      	str	r3, [r7, #20]
 8004004:	697b      	ldr	r3, [r7, #20]
 8004006:	68fb      	ldr	r3, [r7, #12]
 8004008:	6d5b      	ldr	r3, [r3, #84]	@ 0x54
 800400a:	2b00      	cmp	r3, #0
 800400c:	d003      	beq.n	8004016 <HAL_SPI_TransmitReceive+0x344>
 800400e:	2301      	movs	r3, #1
 8004010:	f887 302b 	strb.w	r3, [r7, #43]	@ 0x2b
 8004014:	e003      	b.n	800401e <HAL_SPI_TransmitReceive+0x34c>
 8004016:	68fb      	ldr	r3, [r7, #12]
 8004018:	2201      	movs	r2, #1
 800401a:	f883 2051 	strb.w	r2, [r3, #81]	@ 0x51
 800401e:	68fb      	ldr	r3, [r7, #12]
 8004020:	2200      	movs	r2, #0
 8004022:	f883 2050 	strb.w	r2, [r3, #80]	@ 0x50
 8004026:	f897 302b 	ldrb.w	r3, [r7, #43]	@ 0x2b
 800402a:	4618      	mov	r0, r3
 800402c:	3730      	adds	r7, #48	@ 0x30
 800402e:	46bd      	mov	sp, r7
 8004030:	bd80      	pop	{r7, pc}
	...

08004034 <SPI_WaitFlagStateUntilTimeout>:
 8004034:	b580      	push	{r7, lr}
 8004036:	b088      	sub	sp, #32
 8004038:	af00      	add	r7, sp, #0
 800403a:	60f8      	str	r0, [r7, #12]
 800403c:	60b9      	str	r1, [r7, #8]
 800403e:	603b      	str	r3, [r7, #0]
 8004040:	4613      	mov	r3, r2
 8004042:	71fb      	strb	r3, [r7, #7]
 8004044:	f7fd f98a 	bl	800135c <HAL_GetTick>
 8004048:	4602      	mov	r2, r0
 800404a:	6abb      	ldr	r3, [r7, #40]	@ 0x28
 800404c:	1a9b      	subs	r3, r3, r2
 800404e:	683a      	ldr	r2, [r7, #0]
 8004050:	4413      	add	r3, r2
 8004052:	61fb      	str	r3, [r7, #28]
 8004054:	f7fd f982 	bl	800135c <HAL_GetTick>
 8004058:	61b8      	str	r0, [r7, #24]
 800405a:	4b39      	ldr	r3, [pc, #228]	@ (8004140 <SPI_WaitFlagStateUntilTimeout+0x10c>)
 800405c:	681b      	ldr	r3, [r3, #0]
 800405e:	015b      	lsls	r3, r3, #5
 8004060:	0d1b      	lsrs	r3, r3, #20
 8004062:	69fa      	ldr	r2, [r7, #28]
 8004064:	fb02 f303 	mul.w	r3, r2, r3
 8004068:	617b      	str	r3, [r7, #20]
 800406a:	e054      	b.n	8004116 <SPI_WaitFlagStateUntilTimeout+0xe2>
 800406c:	683b      	ldr	r3, [r7, #0]
 800406e:	f1b3 3fff 	cmp.w	r3, #4294967295
 8004072:	d050      	beq.n	8004116 <SPI_WaitFlagStateUntilTimeout+0xe2>
 8004074:	f7fd f972 	bl	800135c <HAL_GetTick>
 8004078:	4602      	mov	r2, r0
 800407a:	69bb      	ldr	r3, [r7, #24]
 800407c:	1ad3      	subs	r3, r2, r3
 800407e:	69fa      	ldr	r2, [r7, #28]
 8004080:	429a      	cmp	r2, r3
 8004082:	d902      	bls.n	800408a <SPI_WaitFlagStateUntilTimeout+0x56>
 8004084:	69fb      	ldr	r3, [r7, #28]
 8004086:	2b00      	cmp	r3, #0
 8004088:	d13d      	bne.n	8004106 <SPI_WaitFlagStateUntilTimeout+0xd2>
 800408a:	68fb      	ldr	r3, [r7, #12]
 800408c:	681b      	ldr	r3, [r3, #0]
 800408e:	685a      	ldr	r2, [r3, #4]
 8004090:	68fb      	ldr	r3, [r7, #12]
 8004092:	681b      	ldr	r3, [r3, #0]
 8004094:	f022 02e0 	bic.w	r2, r2, #224	@ 0xe0
 8004098:	605a      	str	r2, [r3, #4]
 800409a:	68fb      	ldr	r3, [r7, #12]
 800409c:	685b      	ldr	r3, [r3, #4]
 800409e:	f5b3 7f82 	cmp.w	r3, #260	@ 0x104
 80040a2:	d111      	bne.n	80040c8 <SPI_WaitFlagStateUntilTimeout+0x94>
 80040a4:	68fb      	ldr	r3, [r7, #12]
 80040a6:	689b      	ldr	r3, [r3, #8]
 80040a8:	f5b3 4f00 	cmp.w	r3, #32768	@ 0x8000
 80040ac:	d004      	beq.n	80040b8 <SPI_WaitFlagStateUntilTimeout+0x84>
 80040ae:	68fb      	ldr	r3, [r7, #12]
 80040b0:	689b      	ldr	r3, [r3, #8]
 80040b2:	f5b3 6f80 	cmp.w	r3, #1024	@ 0x400
 80040b6:	d107      	bne.n	80040c8 <SPI_WaitFlagStateUntilTimeout+0x94>
 80040b8:	68fb      	ldr	r3, [r7, #12]
 80040ba:	681b      	ldr	r3, [r3, #0]
 80040bc:	681a      	ldr	r2, [r3, #0]
 80040be:	68fb      	ldr	r3, [r7, #12]
 80040c0:	681b      	ldr	r3, [r3, #0]
 80040c2:	f022 0240 	bic.w	r2, r2, #64	@ 0x40
 80040c6:	601a      	str	r2, [r3, #0]
 80040c8:	68fb      	ldr	r3, [r7, #12]
 80040ca:	6a9b      	ldr	r3, [r3, #40]	@ 0x28
 80040cc:	f5b3 5f00 	cmp.w	r3, #8192	@ 0x2000
 80040d0:	d10f      	bne.n	80040f2 <SPI_WaitFlagStateUntilTimeout+0xbe>
 80040d2:	68fb      	ldr	r3, [r7, #12]
 80040d4:	681b      	ldr	r3, [r3, #0]
 80040d6:	681a      	ldr	r2, [r3, #0]
 80040d8:	68fb      	ldr	r3, [r7, #12]
 80040da:	681b      	ldr	r3, [r3, #0]
 80040dc:	f422 5200 	bic.w	r2, r2, #8192	@ 0x2000
 80040e0:	601a      	str	r2, [r3, #0]
 80040e2:	68fb      	ldr	r3, [r7, #12]
 80040e4:	681b      	ldr	r3, [r3, #0]
 80040e6:	681a      	ldr	r2, [r3, #0]
 80040e8:	68fb      	ldr	r3, [r7, #12]
 80040ea:	681b      	ldr	r3, [r3, #0]
 80040ec:	f442 5200 	orr.w	r2, r2, #8192	@ 0x2000
 80040f0:	601a      	str	r2, [r3, #0]
 80040f2:	68fb      	ldr	r3, [r7, #12]
 80040f4:	2201      	movs	r2, #1
 80040f6:	f883 2051 	strb.w	r2, [r3, #81]	@ 0x51
 80040fa:	68fb      	ldr	r3, [r7, #12]
 80040fc:	2200      	movs	r2, #0
 80040fe:	f883 2050 	strb.w	r2, [r3, #80]	@ 0x50
 8004102:	2303      	movs	r3, #3
 8004104:	e017      	b.n	8004136 <SPI_WaitFlagStateUntilTimeout+0x102>
 8004106:	697b      	ldr	r3, [r7, #20]
 8004108:	2b00      	cmp	r3, #0
 800410a:	d101      	bne.n	8004110 <SPI_WaitFlagStateUntilTimeout+0xdc>
 800410c:	2300      	movs	r3, #0
 800410e:	61fb      	str	r3, [r7, #28]
 8004110:	697b      	ldr	r3, [r7, #20]
 8004112:	3b01      	subs	r3, #1
 8004114:	617b      	str	r3, [r7, #20]
 8004116:	68fb      	ldr	r3, [r7, #12]
 8004118:	681b      	ldr	r3, [r3, #0]
 800411a:	689a      	ldr	r2, [r3, #8]
 800411c:	68bb      	ldr	r3, [r7, #8]
 800411e:	4013      	ands	r3, r2
 8004120:	68ba      	ldr	r2, [r7, #8]
 8004122:	429a      	cmp	r2, r3
 8004124:	bf0c      	ite	eq
 8004126:	2301      	moveq	r3, #1
 8004128:	2300      	movne	r3, #0
 800412a:	b2db      	uxtb	r3, r3
 800412c:	461a      	mov	r2, r3
 800412e:	79fb      	ldrb	r3, [r7, #7]
 8004130:	429a      	cmp	r2, r3
 8004132:	d19b      	bne.n	800406c <SPI_WaitFlagStateUntilTimeout+0x38>
 8004134:	2300      	movs	r3, #0
 8004136:	4618      	mov	r0, r3
 8004138:	3720      	adds	r7, #32
 800413a:	46bd      	mov	sp, r7
 800413c:	bd80      	pop	{r7, pc}
 800413e:	bf00      	nop
 8004140:	20000000 	.word	0x20000000

08004144 <SPI_EndRxTransaction>:
 8004144:	b580      	push	{r7, lr}
 8004146:	b086      	sub	sp, #24
 8004148:	af02      	add	r7, sp, #8
 800414a:	60f8      	str	r0, [r7, #12]
 800414c:	60b9      	str	r1, [r7, #8]
 800414e:	607a      	str	r2, [r7, #4]
 8004150:	68fb      	ldr	r3, [r7, #12]
 8004152:	685b      	ldr	r3, [r3, #4]
 8004154:	f5b3 7f82 	cmp.w	r3, #260	@ 0x104
 8004158:	d111      	bne.n	800417e <SPI_EndRxTransaction+0x3a>
 800415a:	68fb      	ldr	r3, [r7, #12]
 800415c:	689b      	ldr	r3, [r3, #8]
 800415e:	f5b3 4f00 	cmp.w	r3, #32768	@ 0x8000
 8004162:	d004      	beq.n	800416e <SPI_EndRxTransaction+0x2a>
 8004164:	68fb      	ldr	r3, [r7, #12]
 8004166:	689b      	ldr	r3, [r3, #8]
 8004168:	f5b3 6f80 	cmp.w	r3, #1024	@ 0x400
 800416c:	d107      	bne.n	800417e <SPI_EndRxTransaction+0x3a>
 800416e:	68fb      	ldr	r3, [r7, #12]
 8004170:	681b      	ldr	r3, [r3, #0]
 8004172:	681a      	ldr	r2, [r3, #0]
 8004174:	68fb      	ldr	r3, [r7, #12]
 8004176:	681b      	ldr	r3, [r3, #0]
 8004178:	f022 0240 	bic.w	r2, r2, #64	@ 0x40
 800417c:	601a      	str	r2, [r3, #0]
 800417e:	68fb      	ldr	r3, [r7, #12]
 8004180:	685b      	ldr	r3, [r3, #4]
 8004182:	f5b3 7f82 	cmp.w	r3, #260	@ 0x104
 8004186:	d117      	bne.n	80041b8 <SPI_EndRxTransaction+0x74>
 8004188:	68fb      	ldr	r3, [r7, #12]
 800418a:	689b      	ldr	r3, [r3, #8]
 800418c:	f5b3 6f80 	cmp.w	r3, #1024	@ 0x400
 8004190:	d112      	bne.n	80041b8 <SPI_EndRxTransaction+0x74>
 8004192:	687b      	ldr	r3, [r7, #4]
 8004194:	9300      	str	r3, [sp, #0]
 8004196:	68bb      	ldr	r3, [r7, #8]
 8004198:	2200      	movs	r2, #0
 800419a:	2101      	movs	r1, #1
 800419c:	68f8      	ldr	r0, [r7, #12]
 800419e:	f7ff ff49 	bl	8004034 <SPI_WaitFlagStateUntilTimeout>
 80041a2:	4603      	mov	r3, r0
 80041a4:	2b00      	cmp	r3, #0
 80041a6:	d01a      	beq.n	80041de <SPI_EndRxTransaction+0x9a>
 80041a8:	68fb      	ldr	r3, [r7, #12]
 80041aa:	6d5b      	ldr	r3, [r3, #84]	@ 0x54
 80041ac:	f043 0220 	orr.w	r2, r3, #32
 80041b0:	68fb      	ldr	r3, [r7, #12]
 80041b2:	655a      	str	r2, [r3, #84]	@ 0x54
 80041b4:	2303      	movs	r3, #3
 80041b6:	e013      	b.n	80041e0 <SPI_EndRxTransaction+0x9c>
 80041b8:	687b      	ldr	r3, [r7, #4]
 80041ba:	9300      	str	r3, [sp, #0]
 80041bc:	68bb      	ldr	r3, [r7, #8]
 80041be:	2200      	movs	r2, #0
 80041c0:	2180      	movs	r1, #128	@ 0x80
 80041c2:	68f8      	ldr	r0, [r7, #12]
 80041c4:	f7ff ff36 	bl	8004034 <SPI_WaitFlagStateUntilTimeout>
 80041c8:	4603      	mov	r3, r0
 80041ca:	2b00      	cmp	r3, #0
 80041cc:	d007      	beq.n	80041de <SPI_EndRxTransaction+0x9a>
 80041ce:	68fb      	ldr	r3, [r7, #12]
 80041d0:	6d5b      	ldr	r3, [r3, #84]	@ 0x54
 80041d2:	f043 0220 	orr.w	r2, r3, #32
 80041d6:	68fb      	ldr	r3, [r7, #12]
 80041d8:	655a      	str	r2, [r3, #84]	@ 0x54
 80041da:	2303      	movs	r3, #3
 80041dc:	e000      	b.n	80041e0 <SPI_EndRxTransaction+0x9c>
 80041de:	2300      	movs	r3, #0
 80041e0:	4618      	mov	r0, r3
 80041e2:	3710      	adds	r7, #16
 80041e4:	46bd      	mov	sp, r7
 80041e6:	bd80      	pop	{r7, pc}

080041e8 <SPI_EndRxTxTransaction>:
 80041e8:	b580      	push	{r7, lr}
 80041ea:	b086      	sub	sp, #24
 80041ec:	af02      	add	r7, sp, #8
 80041ee:	60f8      	str	r0, [r7, #12]
 80041f0:	60b9      	str	r1, [r7, #8]
 80041f2:	607a      	str	r2, [r7, #4]
 80041f4:	687b      	ldr	r3, [r7, #4]
 80041f6:	9300      	str	r3, [sp, #0]
 80041f8:	68bb      	ldr	r3, [r7, #8]
 80041fa:	2200      	movs	r2, #0
 80041fc:	2180      	movs	r1, #128	@ 0x80
 80041fe:	68f8      	ldr	r0, [r7, #12]
 8004200:	f7ff ff18 	bl	8004034 <SPI_WaitFlagStateUntilTimeout>
 8004204:	4603      	mov	r3, r0
 8004206:	2b00      	cmp	r3, #0
 8004208:	d007      	beq.n	800421a <SPI_EndRxTxTransaction+0x32>
 800420a:	68fb      	ldr	r3, [r7, #12]
 800420c:	6d5b      	ldr	r3, [r3, #84]	@ 0x54
 800420e:	f043 0220 	orr.w	r2, r3, #32
 8004212:	68fb      	ldr	r3, [r7, #12]
 8004214:	655a      	str	r2, [r3, #84]	@ 0x54
 8004216:	2303      	movs	r3, #3
 8004218:	e000      	b.n	800421c <SPI_EndRxTxTransaction+0x34>
 800421a:	2300      	movs	r3, #0
 800421c:	4618      	mov	r0, r3
 800421e:	3710      	adds	r7, #16
 8004220:	46bd      	mov	sp, r7
 8004222:	bd80      	pop	{r7, pc}

08004224 <HAL_UART_Init>:
 8004224:	b580      	push	{r7, lr}
 8004226:	b082      	sub	sp, #8
 8004228:	af00      	add	r7, sp, #0
 800422a:	6078      	str	r0, [r7, #4]
 800422c:	687b      	ldr	r3, [r7, #4]
 800422e:	2b00      	cmp	r3, #0
 8004230:	d101      	bne.n	8004236 <HAL_UART_Init+0x12>
 8004232:	2301      	movs	r3, #1
 8004234:	e042      	b.n	80042bc <HAL_UART_Init+0x98>
 8004236:	687b      	ldr	r3, [r7, #4]
 8004238:	f893 3041 	ldrb.w	r3, [r3, #65]	@ 0x41
 800423c:	b2db      	uxtb	r3, r3
 800423e:	2b00      	cmp	r3, #0
 8004240:	d106      	bne.n	8004250 <HAL_UART_Init+0x2c>
 8004242:	687b      	ldr	r3, [r7, #4]
 8004244:	2200      	movs	r2, #0
 8004246:	f883 2040 	strb.w	r2, [r3, #64]	@ 0x40
 800424a:	6878      	ldr	r0, [r7, #4]
 800424c:	f7fc feac 	bl	8000fa8 <HAL_UART_MspInit>
 8004250:	687b      	ldr	r3, [r7, #4]
 8004252:	2224      	movs	r2, #36	@ 0x24
 8004254:	f883 2041 	strb.w	r2, [r3, #65]	@ 0x41
 8004258:	687b      	ldr	r3, [r7, #4]
 800425a:	681b      	ldr	r3, [r3, #0]
 800425c:	68da      	ldr	r2, [r3, #12]
 800425e:	687b      	ldr	r3, [r7, #4]
 8004260:	681b      	ldr	r3, [r3, #0]
 8004262:	f422 5200 	bic.w	r2, r2, #8192	@ 0x2000
 8004266:	60da      	str	r2, [r3, #12]
 8004268:	6878      	ldr	r0, [r7, #4]
 800426a:	f001 f913 	bl	8005494 <UART_SetConfig>
 800426e:	687b      	ldr	r3, [r7, #4]
 8004270:	681b      	ldr	r3, [r3, #0]
 8004272:	691a      	ldr	r2, [r3, #16]
 8004274:	687b      	ldr	r3, [r7, #4]
 8004276:	681b      	ldr	r3, [r3, #0]
 8004278:	f422 4290 	bic.w	r2, r2, #18432	@ 0x4800
 800427c:	611a      	str	r2, [r3, #16]
 800427e:	687b      	ldr	r3, [r7, #4]
 8004280:	681b      	ldr	r3, [r3, #0]
 8004282:	695a      	ldr	r2, [r3, #20]
 8004284:	687b      	ldr	r3, [r7, #4]
 8004286:	681b      	ldr	r3, [r3, #0]
 8004288:	f022 022a 	bic.w	r2, r2, #42	@ 0x2a
 800428c:	615a      	str	r2, [r3, #20]
 800428e:	687b      	ldr	r3, [r7, #4]
 8004290:	681b      	ldr	r3, [r3, #0]
 8004292:	68da      	ldr	r2, [r3, #12]
 8004294:	687b      	ldr	r3, [r7, #4]
 8004296:	681b      	ldr	r3, [r3, #0]
 8004298:	f442 5200 	orr.w	r2, r2, #8192	@ 0x2000
 800429c:	60da      	str	r2, [r3, #12]
 800429e:	687b      	ldr	r3, [r7, #4]
 80042a0:	2200      	movs	r2, #0
 80042a2:	645a      	str	r2, [r3, #68]	@ 0x44
 80042a4:	687b      	ldr	r3, [r7, #4]
 80042a6:	2220      	movs	r2, #32
 80042a8:	f883 2041 	strb.w	r2, [r3, #65]	@ 0x41
 80042ac:	687b      	ldr	r3, [r7, #4]
 80042ae:	2220      	movs	r2, #32
 80042b0:	f883 2042 	strb.w	r2, [r3, #66]	@ 0x42
 80042b4:	687b      	ldr	r3, [r7, #4]
 80042b6:	2200      	movs	r2, #0
 80042b8:	635a      	str	r2, [r3, #52]	@ 0x34
 80042ba:	2300      	movs	r3, #0
 80042bc:	4618      	mov	r0, r3
 80042be:	3708      	adds	r7, #8
 80042c0:	46bd      	mov	sp, r7
 80042c2:	bd80      	pop	{r7, pc}

080042c4 <HAL_HalfDuplex_Init>:
 80042c4:	b580      	push	{r7, lr}
 80042c6:	b082      	sub	sp, #8
 80042c8:	af00      	add	r7, sp, #0
 80042ca:	6078      	str	r0, [r7, #4]
 80042cc:	687b      	ldr	r3, [r7, #4]
 80042ce:	2b00      	cmp	r3, #0
 80042d0:	d101      	bne.n	80042d6 <HAL_HalfDuplex_Init+0x12>
 80042d2:	2301      	movs	r3, #1
 80042d4:	e04a      	b.n	800436c <HAL_HalfDuplex_Init+0xa8>
 80042d6:	687b      	ldr	r3, [r7, #4]
 80042d8:	f893 3041 	ldrb.w	r3, [r3, #65]	@ 0x41
 80042dc:	b2db      	uxtb	r3, r3
 80042de:	2b00      	cmp	r3, #0
 80042e0:	d106      	bne.n	80042f0 <HAL_HalfDuplex_Init+0x2c>
 80042e2:	687b      	ldr	r3, [r7, #4]
 80042e4:	2200      	movs	r2, #0
 80042e6:	f883 2040 	strb.w	r2, [r3, #64]	@ 0x40
 80042ea:	6878      	ldr	r0, [r7, #4]
 80042ec:	f7fc fe5c 	bl	8000fa8 <HAL_UART_MspInit>
 80042f0:	687b      	ldr	r3, [r7, #4]
 80042f2:	2224      	movs	r2, #36	@ 0x24
 80042f4:	f883 2041 	strb.w	r2, [r3, #65]	@ 0x41
 80042f8:	687b      	ldr	r3, [r7, #4]
 80042fa:	681b      	ldr	r3, [r3, #0]
 80042fc:	68da      	ldr	r2, [r3, #12]
 80042fe:	687b      	ldr	r3, [r7, #4]
 8004300:	681b      	ldr	r3, [r3, #0]
 8004302:	f422 5200 	bic.w	r2, r2, #8192	@ 0x2000
 8004306:	60da      	str	r2, [r3, #12]
 8004308:	6878      	ldr	r0, [r7, #4]
 800430a:	f001 f8c3 	bl	8005494 <UART_SetConfig>
 800430e:	687b      	ldr	r3, [r7, #4]
 8004310:	681b      	ldr	r3, [r3, #0]
 8004312:	691a      	ldr	r2, [r3, #16]
 8004314:	687b      	ldr	r3, [r7, #4]
 8004316:	681b      	ldr	r3, [r3, #0]
 8004318:	f422 4290 	bic.w	r2, r2, #18432	@ 0x4800
 800431c:	611a      	str	r2, [r3, #16]
 800431e:	687b      	ldr	r3, [r7, #4]
 8004320:	681b      	ldr	r3, [r3, #0]
 8004322:	695a      	ldr	r2, [r3, #20]
 8004324:	687b      	ldr	r3, [r7, #4]
 8004326:	681b      	ldr	r3, [r3, #0]
 8004328:	f022 0222 	bic.w	r2, r2, #34	@ 0x22
 800432c:	615a      	str	r2, [r3, #20]
 800432e:	687b      	ldr	r3, [r7, #4]
 8004330:	681b      	ldr	r3, [r3, #0]
 8004332:	695a      	ldr	r2, [r3, #20]
 8004334:	687b      	ldr	r3, [r7, #4]
 8004336:	681b      	ldr	r3, [r3, #0]
 8004338:	f042 0208 	orr.w	r2, r2, #8
 800433c:	615a      	str	r2, [r3, #20]
 800433e:	687b      	ldr	r3, [r7, #4]
 8004340:	681b      	ldr	r3, [r3, #0]
 8004342:	68da      	ldr	r2, [r3, #12]
 8004344:	687b      	ldr	r3, [r7, #4]
 8004346:	681b      	ldr	r3, [r3, #0]
 8004348:	f442 5200 	orr.w	r2, r2, #8192	@ 0x2000
 800434c:	60da      	str	r2, [r3, #12]
 800434e:	687b      	ldr	r3, [r7, #4]
 8004350:	2200      	movs	r2, #0
 8004352:	645a      	str	r2, [r3, #68]	@ 0x44
 8004354:	687b      	ldr	r3, [r7, #4]
 8004356:	2220      	movs	r2, #32
 8004358:	f883 2041 	strb.w	r2, [r3, #65]	@ 0x41
 800435c:	687b      	ldr	r3, [r7, #4]
 800435e:	2220      	movs	r2, #32
 8004360:	f883 2042 	strb.w	r2, [r3, #66]	@ 0x42
 8004364:	687b      	ldr	r3, [r7, #4]
 8004366:	2200      	movs	r2, #0
 8004368:	635a      	str	r2, [r3, #52]	@ 0x34
 800436a:	2300      	movs	r3, #0
 800436c:	4618      	mov	r0, r3
 800436e:	3708      	adds	r7, #8
 8004370:	46bd      	mov	sp, r7
 8004372:	bd80      	pop	{r7, pc}

08004374 <HAL_UART_Transmit>:
 8004374:	b580      	push	{r7, lr}
 8004376:	b08a      	sub	sp, #40	@ 0x28
 8004378:	af02      	add	r7, sp, #8
 800437a:	60f8      	str	r0, [r7, #12]
 800437c:	60b9      	str	r1, [r7, #8]
 800437e:	603b      	str	r3, [r7, #0]
 8004380:	4613      	mov	r3, r2
 8004382:	80fb      	strh	r3, [r7, #6]
 8004384:	2300      	movs	r3, #0
 8004386:	617b      	str	r3, [r7, #20]
 8004388:	68fb      	ldr	r3, [r7, #12]
 800438a:	f893 3041 	ldrb.w	r3, [r3, #65]	@ 0x41
 800438e:	b2db      	uxtb	r3, r3
 8004390:	2b20      	cmp	r3, #32
 8004392:	d16d      	bne.n	8004470 <HAL_UART_Transmit+0xfc>
 8004394:	68bb      	ldr	r3, [r7, #8]
 8004396:	2b00      	cmp	r3, #0
 8004398:	d002      	beq.n	80043a0 <HAL_UART_Transmit+0x2c>
 800439a:	88fb      	ldrh	r3, [r7, #6]
 800439c:	2b00      	cmp	r3, #0
 800439e:	d101      	bne.n	80043a4 <HAL_UART_Transmit+0x30>
 80043a0:	2301      	movs	r3, #1
 80043a2:	e066      	b.n	8004472 <HAL_UART_Transmit+0xfe>
 80043a4:	68fb      	ldr	r3, [r7, #12]
 80043a6:	2200      	movs	r2, #0
 80043a8:	645a      	str	r2, [r3, #68]	@ 0x44
 80043aa:	68fb      	ldr	r3, [r7, #12]
 80043ac:	2221      	movs	r2, #33	@ 0x21
 80043ae:	f883 2041 	strb.w	r2, [r3, #65]	@ 0x41
 80043b2:	f7fc ffd3 	bl	800135c <HAL_GetTick>
 80043b6:	6178      	str	r0, [r7, #20]
 80043b8:	68fb      	ldr	r3, [r7, #12]
 80043ba:	88fa      	ldrh	r2, [r7, #6]
 80043bc:	849a      	strh	r2, [r3, #36]	@ 0x24
 80043be:	68fb      	ldr	r3, [r7, #12]
 80043c0:	88fa      	ldrh	r2, [r7, #6]
 80043c2:	84da      	strh	r2, [r3, #38]	@ 0x26
 80043c4:	68fb      	ldr	r3, [r7, #12]
 80043c6:	689b      	ldr	r3, [r3, #8]
 80043c8:	f5b3 5f80 	cmp.w	r3, #4096	@ 0x1000
 80043cc:	d108      	bne.n	80043e0 <HAL_UART_Transmit+0x6c>
 80043ce:	68fb      	ldr	r3, [r7, #12]
 80043d0:	691b      	ldr	r3, [r3, #16]
 80043d2:	2b00      	cmp	r3, #0
 80043d4:	d104      	bne.n	80043e0 <HAL_UART_Transmit+0x6c>
 80043d6:	2300      	movs	r3, #0
 80043d8:	61fb      	str	r3, [r7, #28]
 80043da:	68bb      	ldr	r3, [r7, #8]
 80043dc:	61bb      	str	r3, [r7, #24]
 80043de:	e003      	b.n	80043e8 <HAL_UART_Transmit+0x74>
 80043e0:	68bb      	ldr	r3, [r7, #8]
 80043e2:	61fb      	str	r3, [r7, #28]
 80043e4:	2300      	movs	r3, #0
 80043e6:	61bb      	str	r3, [r7, #24]
 80043e8:	e02a      	b.n	8004440 <HAL_UART_Transmit+0xcc>
 80043ea:	683b      	ldr	r3, [r7, #0]
 80043ec:	9300      	str	r3, [sp, #0]
 80043ee:	697b      	ldr	r3, [r7, #20]
 80043f0:	2200      	movs	r2, #0
 80043f2:	2180      	movs	r1, #128	@ 0x80
 80043f4:	68f8      	ldr	r0, [r7, #12]
 80043f6:	f000 fd83 	bl	8004f00 <UART_WaitOnFlagUntilTimeout>
 80043fa:	4603      	mov	r3, r0
 80043fc:	2b00      	cmp	r3, #0
 80043fe:	d001      	beq.n	8004404 <HAL_UART_Transmit+0x90>
 8004400:	2303      	movs	r3, #3
 8004402:	e036      	b.n	8004472 <HAL_UART_Transmit+0xfe>
 8004404:	69fb      	ldr	r3, [r7, #28]
 8004406:	2b00      	cmp	r3, #0
 8004408:	d10b      	bne.n	8004422 <HAL_UART_Transmit+0xae>
 800440a:	69bb      	ldr	r3, [r7, #24]
 800440c:	881b      	ldrh	r3, [r3, #0]
 800440e:	461a      	mov	r2, r3
 8004410:	68fb      	ldr	r3, [r7, #12]
 8004412:	681b      	ldr	r3, [r3, #0]
 8004414:	f3c2 0208 	ubfx	r2, r2, #0, #9
 8004418:	605a      	str	r2, [r3, #4]
 800441a:	69bb      	ldr	r3, [r7, #24]
 800441c:	3302      	adds	r3, #2
 800441e:	61bb      	str	r3, [r7, #24]
 8004420:	e007      	b.n	8004432 <HAL_UART_Transmit+0xbe>
 8004422:	69fb      	ldr	r3, [r7, #28]
 8004424:	781a      	ldrb	r2, [r3, #0]
 8004426:	68fb      	ldr	r3, [r7, #12]
 8004428:	681b      	ldr	r3, [r3, #0]
 800442a:	605a      	str	r2, [r3, #4]
 800442c:	69fb      	ldr	r3, [r7, #28]
 800442e:	3301      	adds	r3, #1
 8004430:	61fb      	str	r3, [r7, #28]
 8004432:	68fb      	ldr	r3, [r7, #12]
 8004434:	8cdb      	ldrh	r3, [r3, #38]	@ 0x26
 8004436:	b29b      	uxth	r3, r3
 8004438:	3b01      	subs	r3, #1
 800443a:	b29a      	uxth	r2, r3
 800443c:	68fb      	ldr	r3, [r7, #12]
 800443e:	84da      	strh	r2, [r3, #38]	@ 0x26
 8004440:	68fb      	ldr	r3, [r7, #12]
 8004442:	8cdb      	ldrh	r3, [r3, #38]	@ 0x26
 8004444:	b29b      	uxth	r3, r3
 8004446:	2b00      	cmp	r3, #0
 8004448:	d1cf      	bne.n	80043ea <HAL_UART_Transmit+0x76>
 800444a:	683b      	ldr	r3, [r7, #0]
 800444c:	9300      	str	r3, [sp, #0]
 800444e:	697b      	ldr	r3, [r7, #20]
 8004450:	2200      	movs	r2, #0
 8004452:	2140      	movs	r1, #64	@ 0x40
 8004454:	68f8      	ldr	r0, [r7, #12]
 8004456:	f000 fd53 	bl	8004f00 <UART_WaitOnFlagUntilTimeout>
 800445a:	4603      	mov	r3, r0
 800445c:	2b00      	cmp	r3, #0
 800445e:	d001      	beq.n	8004464 <HAL_UART_Transmit+0xf0>
 8004460:	2303      	movs	r3, #3
 8004462:	e006      	b.n	8004472 <HAL_UART_Transmit+0xfe>
 8004464:	68fb      	ldr	r3, [r7, #12]
 8004466:	2220      	movs	r2, #32
 8004468:	f883 2041 	strb.w	r2, [r3, #65]	@ 0x41
 800446c:	2300      	movs	r3, #0
 800446e:	e000      	b.n	8004472 <HAL_UART_Transmit+0xfe>
 8004470:	2302      	movs	r3, #2
 8004472:	4618      	mov	r0, r3
 8004474:	3720      	adds	r7, #32
 8004476:	46bd      	mov	sp, r7
 8004478:	bd80      	pop	{r7, pc}

0800447a <HAL_UART_Receive>:
 800447a:	b580      	push	{r7, lr}
 800447c:	b08a      	sub	sp, #40	@ 0x28
 800447e:	af02      	add	r7, sp, #8
 8004480:	60f8      	str	r0, [r7, #12]
 8004482:	60b9      	str	r1, [r7, #8]
 8004484:	603b      	str	r3, [r7, #0]
 8004486:	4613      	mov	r3, r2
 8004488:	80fb      	strh	r3, [r7, #6]
 800448a:	2300      	movs	r3, #0
 800448c:	617b      	str	r3, [r7, #20]
 800448e:	68fb      	ldr	r3, [r7, #12]
 8004490:	f893 3042 	ldrb.w	r3, [r3, #66]	@ 0x42
 8004494:	b2db      	uxtb	r3, r3
 8004496:	2b20      	cmp	r3, #32
 8004498:	d17c      	bne.n	8004594 <HAL_UART_Receive+0x11a>
 800449a:	68bb      	ldr	r3, [r7, #8]
 800449c:	2b00      	cmp	r3, #0
 800449e:	d002      	beq.n	80044a6 <HAL_UART_Receive+0x2c>
 80044a0:	88fb      	ldrh	r3, [r7, #6]
 80044a2:	2b00      	cmp	r3, #0
 80044a4:	d101      	bne.n	80044aa <HAL_UART_Receive+0x30>
 80044a6:	2301      	movs	r3, #1
 80044a8:	e075      	b.n	8004596 <HAL_UART_Receive+0x11c>
 80044aa:	68fb      	ldr	r3, [r7, #12]
 80044ac:	2200      	movs	r2, #0
 80044ae:	645a      	str	r2, [r3, #68]	@ 0x44
 80044b0:	68fb      	ldr	r3, [r7, #12]
 80044b2:	2222      	movs	r2, #34	@ 0x22
 80044b4:	f883 2042 	strb.w	r2, [r3, #66]	@ 0x42
 80044b8:	68fb      	ldr	r3, [r7, #12]
 80044ba:	2200      	movs	r2, #0
 80044bc:	631a      	str	r2, [r3, #48]	@ 0x30
 80044be:	f7fc ff4d 	bl	800135c <HAL_GetTick>
 80044c2:	6178      	str	r0, [r7, #20]
 80044c4:	68fb      	ldr	r3, [r7, #12]
 80044c6:	88fa      	ldrh	r2, [r7, #6]
 80044c8:	859a      	strh	r2, [r3, #44]	@ 0x2c
 80044ca:	68fb      	ldr	r3, [r7, #12]
 80044cc:	88fa      	ldrh	r2, [r7, #6]
 80044ce:	85da      	strh	r2, [r3, #46]	@ 0x2e
 80044d0:	68fb      	ldr	r3, [r7, #12]
 80044d2:	689b      	ldr	r3, [r3, #8]
 80044d4:	f5b3 5f80 	cmp.w	r3, #4096	@ 0x1000
 80044d8:	d108      	bne.n	80044ec <HAL_UART_Receive+0x72>
 80044da:	68fb      	ldr	r3, [r7, #12]
 80044dc:	691b      	ldr	r3, [r3, #16]
 80044de:	2b00      	cmp	r3, #0
 80044e0:	d104      	bne.n	80044ec <HAL_UART_Receive+0x72>
 80044e2:	2300      	movs	r3, #0
 80044e4:	61fb      	str	r3, [r7, #28]
 80044e6:	68bb      	ldr	r3, [r7, #8]
 80044e8:	61bb      	str	r3, [r7, #24]
 80044ea:	e003      	b.n	80044f4 <HAL_UART_Receive+0x7a>
 80044ec:	68bb      	ldr	r3, [r7, #8]
 80044ee:	61fb      	str	r3, [r7, #28]
 80044f0:	2300      	movs	r3, #0
 80044f2:	61bb      	str	r3, [r7, #24]
 80044f4:	e043      	b.n	800457e <HAL_UART_Receive+0x104>
 80044f6:	683b      	ldr	r3, [r7, #0]
 80044f8:	9300      	str	r3, [sp, #0]
 80044fa:	697b      	ldr	r3, [r7, #20]
 80044fc:	2200      	movs	r2, #0
 80044fe:	2120      	movs	r1, #32
 8004500:	68f8      	ldr	r0, [r7, #12]
 8004502:	f000 fcfd 	bl	8004f00 <UART_WaitOnFlagUntilTimeout>
 8004506:	4603      	mov	r3, r0
 8004508:	2b00      	cmp	r3, #0
 800450a:	d001      	beq.n	8004510 <HAL_UART_Receive+0x96>
 800450c:	2303      	movs	r3, #3
 800450e:	e042      	b.n	8004596 <HAL_UART_Receive+0x11c>
 8004510:	69fb      	ldr	r3, [r7, #28]
 8004512:	2b00      	cmp	r3, #0
 8004514:	d10c      	bne.n	8004530 <HAL_UART_Receive+0xb6>
 8004516:	68fb      	ldr	r3, [r7, #12]
 8004518:	681b      	ldr	r3, [r3, #0]
 800451a:	685b      	ldr	r3, [r3, #4]
 800451c:	b29b      	uxth	r3, r3
 800451e:	f3c3 0308 	ubfx	r3, r3, #0, #9
 8004522:	b29a      	uxth	r2, r3
 8004524:	69bb      	ldr	r3, [r7, #24]
 8004526:	801a      	strh	r2, [r3, #0]
 8004528:	69bb      	ldr	r3, [r7, #24]
 800452a:	3302      	adds	r3, #2
 800452c:	61bb      	str	r3, [r7, #24]
 800452e:	e01f      	b.n	8004570 <HAL_UART_Receive+0xf6>
 8004530:	68fb      	ldr	r3, [r7, #12]
 8004532:	689b      	ldr	r3, [r3, #8]
 8004534:	f5b3 5f80 	cmp.w	r3, #4096	@ 0x1000
 8004538:	d007      	beq.n	800454a <HAL_UART_Receive+0xd0>
 800453a:	68fb      	ldr	r3, [r7, #12]
 800453c:	689b      	ldr	r3, [r3, #8]
 800453e:	2b00      	cmp	r3, #0
 8004540:	d10a      	bne.n	8004558 <HAL_UART_Receive+0xde>
 8004542:	68fb      	ldr	r3, [r7, #12]
 8004544:	691b      	ldr	r3, [r3, #16]
 8004546:	2b00      	cmp	r3, #0
 8004548:	d106      	bne.n	8004558 <HAL_UART_Receive+0xde>
 800454a:	68fb      	ldr	r3, [r7, #12]
 800454c:	681b      	ldr	r3, [r3, #0]
 800454e:	685b      	ldr	r3, [r3, #4]
 8004550:	b2da      	uxtb	r2, r3
 8004552:	69fb      	ldr	r3, [r7, #28]
 8004554:	701a      	strb	r2, [r3, #0]
 8004556:	e008      	b.n	800456a <HAL_UART_Receive+0xf0>
 8004558:	68fb      	ldr	r3, [r7, #12]
 800455a:	681b      	ldr	r3, [r3, #0]
 800455c:	685b      	ldr	r3, [r3, #4]
 800455e:	b2db      	uxtb	r3, r3
 8004560:	f003 037f 	and.w	r3, r3, #127	@ 0x7f
 8004564:	b2da      	uxtb	r2, r3
 8004566:	69fb      	ldr	r3, [r7, #28]
 8004568:	701a      	strb	r2, [r3, #0]
 800456a:	69fb      	ldr	r3, [r7, #28]
 800456c:	3301      	adds	r3, #1
 800456e:	61fb      	str	r3, [r7, #28]
 8004570:	68fb      	ldr	r3, [r7, #12]
 8004572:	8ddb      	ldrh	r3, [r3, #46]	@ 0x2e
 8004574:	b29b      	uxth	r3, r3
 8004576:	3b01      	subs	r3, #1
 8004578:	b29a      	uxth	r2, r3
 800457a:	68fb      	ldr	r3, [r7, #12]
 800457c:	85da      	strh	r2, [r3, #46]	@ 0x2e
 800457e:	68fb      	ldr	r3, [r7, #12]
 8004580:	8ddb      	ldrh	r3, [r3, #46]	@ 0x2e
 8004582:	b29b      	uxth	r3, r3
 8004584:	2b00      	cmp	r3, #0
 8004586:	d1b6      	bne.n	80044f6 <HAL_UART_Receive+0x7c>
 8004588:	68fb      	ldr	r3, [r7, #12]
 800458a:	2220      	movs	r2, #32
 800458c:	f883 2042 	strb.w	r2, [r3, #66]	@ 0x42
 8004590:	2300      	movs	r3, #0
 8004592:	e000      	b.n	8004596 <HAL_UART_Receive+0x11c>
 8004594:	2302      	movs	r3, #2
 8004596:	4618      	mov	r0, r3
 8004598:	3720      	adds	r7, #32
 800459a:	46bd      	mov	sp, r7
 800459c:	bd80      	pop	{r7, pc}
	...

080045a0 <HAL_UART_Transmit_DMA>:
 80045a0:	b580      	push	{r7, lr}
 80045a2:	b08c      	sub	sp, #48	@ 0x30
 80045a4:	af00      	add	r7, sp, #0
 80045a6:	60f8      	str	r0, [r7, #12]
 80045a8:	60b9      	str	r1, [r7, #8]
 80045aa:	4613      	mov	r3, r2
 80045ac:	80fb      	strh	r3, [r7, #6]
 80045ae:	68fb      	ldr	r3, [r7, #12]
 80045b0:	f893 3041 	ldrb.w	r3, [r3, #65]	@ 0x41
 80045b4:	b2db      	uxtb	r3, r3
 80045b6:	2b20      	cmp	r3, #32
 80045b8:	d156      	bne.n	8004668 <HAL_UART_Transmit_DMA+0xc8>
 80045ba:	68bb      	ldr	r3, [r7, #8]
 80045bc:	2b00      	cmp	r3, #0
 80045be:	d002      	beq.n	80045c6 <HAL_UART_Transmit_DMA+0x26>
 80045c0:	88fb      	ldrh	r3, [r7, #6]
 80045c2:	2b00      	cmp	r3, #0
 80045c4:	d101      	bne.n	80045ca <HAL_UART_Transmit_DMA+0x2a>
 80045c6:	2301      	movs	r3, #1
 80045c8:	e04f      	b.n	800466a <HAL_UART_Transmit_DMA+0xca>
 80045ca:	68ba      	ldr	r2, [r7, #8]
 80045cc:	68fb      	ldr	r3, [r7, #12]
 80045ce:	621a      	str	r2, [r3, #32]
 80045d0:	68fb      	ldr	r3, [r7, #12]
 80045d2:	88fa      	ldrh	r2, [r7, #6]
 80045d4:	849a      	strh	r2, [r3, #36]	@ 0x24
 80045d6:	68fb      	ldr	r3, [r7, #12]
 80045d8:	88fa      	ldrh	r2, [r7, #6]
 80045da:	84da      	strh	r2, [r3, #38]	@ 0x26
 80045dc:	68fb      	ldr	r3, [r7, #12]
 80045de:	2200      	movs	r2, #0
 80045e0:	645a      	str	r2, [r3, #68]	@ 0x44
 80045e2:	68fb      	ldr	r3, [r7, #12]
 80045e4:	2221      	movs	r2, #33	@ 0x21
 80045e6:	f883 2041 	strb.w	r2, [r3, #65]	@ 0x41
 80045ea:	68fb      	ldr	r3, [r7, #12]
 80045ec:	6b9b      	ldr	r3, [r3, #56]	@ 0x38
 80045ee:	4a21      	ldr	r2, [pc, #132]	@ (8004674 <HAL_UART_Transmit_DMA+0xd4>)
 80045f0:	629a      	str	r2, [r3, #40]	@ 0x28
 80045f2:	68fb      	ldr	r3, [r7, #12]
 80045f4:	6b9b      	ldr	r3, [r3, #56]	@ 0x38
 80045f6:	4a20      	ldr	r2, [pc, #128]	@ (8004678 <HAL_UART_Transmit_DMA+0xd8>)
 80045f8:	62da      	str	r2, [r3, #44]	@ 0x2c
 80045fa:	68fb      	ldr	r3, [r7, #12]
 80045fc:	6b9b      	ldr	r3, [r3, #56]	@ 0x38
 80045fe:	4a1f      	ldr	r2, [pc, #124]	@ (800467c <HAL_UART_Transmit_DMA+0xdc>)
 8004600:	631a      	str	r2, [r3, #48]	@ 0x30
 8004602:	68fb      	ldr	r3, [r7, #12]
 8004604:	6b9b      	ldr	r3, [r3, #56]	@ 0x38
 8004606:	2200      	movs	r2, #0
 8004608:	635a      	str	r2, [r3, #52]	@ 0x34
 800460a:	f107 0308 	add.w	r3, r7, #8
 800460e:	62fb      	str	r3, [r7, #44]	@ 0x2c
 8004610:	68fb      	ldr	r3, [r7, #12]
 8004612:	6b98      	ldr	r0, [r3, #56]	@ 0x38
 8004614:	6afb      	ldr	r3, [r7, #44]	@ 0x2c
 8004616:	6819      	ldr	r1, [r3, #0]
 8004618:	68fb      	ldr	r3, [r7, #12]
 800461a:	681b      	ldr	r3, [r3, #0]
 800461c:	3304      	adds	r3, #4
 800461e:	461a      	mov	r2, r3
 8004620:	88fb      	ldrh	r3, [r7, #6]
 8004622:	f7fd f831 	bl	8001688 <HAL_DMA_Start_IT>
 8004626:	68fb      	ldr	r3, [r7, #12]
 8004628:	681b      	ldr	r3, [r3, #0]
 800462a:	f06f 0240 	mvn.w	r2, #64	@ 0x40
 800462e:	601a      	str	r2, [r3, #0]
 8004630:	68fb      	ldr	r3, [r7, #12]
 8004632:	681b      	ldr	r3, [r3, #0]
 8004634:	3314      	adds	r3, #20
 8004636:	61bb      	str	r3, [r7, #24]
 8004638:	69bb      	ldr	r3, [r7, #24]
 800463a:	e853 3f00 	ldrex	r3, [r3]
 800463e:	617b      	str	r3, [r7, #20]
 8004640:	697b      	ldr	r3, [r7, #20]
 8004642:	f043 0380 	orr.w	r3, r3, #128	@ 0x80
 8004646:	62bb      	str	r3, [r7, #40]	@ 0x28
 8004648:	68fb      	ldr	r3, [r7, #12]
 800464a:	681b      	ldr	r3, [r3, #0]
 800464c:	3314      	adds	r3, #20
 800464e:	6aba      	ldr	r2, [r7, #40]	@ 0x28
 8004650:	627a      	str	r2, [r7, #36]	@ 0x24
 8004652:	623b      	str	r3, [r7, #32]
 8004654:	6a39      	ldr	r1, [r7, #32]
 8004656:	6a7a      	ldr	r2, [r7, #36]	@ 0x24
 8004658:	e841 2300 	strex	r3, r2, [r1]
 800465c:	61fb      	str	r3, [r7, #28]
 800465e:	69fb      	ldr	r3, [r7, #28]
 8004660:	2b00      	cmp	r3, #0
 8004662:	d1e5      	bne.n	8004630 <HAL_UART_Transmit_DMA+0x90>
 8004664:	2300      	movs	r3, #0
 8004666:	e000      	b.n	800466a <HAL_UART_Transmit_DMA+0xca>
 8004668:	2302      	movs	r3, #2
 800466a:	4618      	mov	r0, r3
 800466c:	3730      	adds	r7, #48	@ 0x30
 800466e:	46bd      	mov	sp, r7
 8004670:	bd80      	pop	{r7, pc}
 8004672:	bf00      	nop
 8004674:	08004c4f 	.word	0x08004c4f
 8004678:	08004ce9 	.word	0x08004ce9
 800467c:	08004e6d 	.word	0x08004e6d

08004680 <HAL_UART_Receive_DMA>:
 8004680:	b580      	push	{r7, lr}
 8004682:	b084      	sub	sp, #16
 8004684:	af00      	add	r7, sp, #0
 8004686:	60f8      	str	r0, [r7, #12]
 8004688:	60b9      	str	r1, [r7, #8]
 800468a:	4613      	mov	r3, r2
 800468c:	80fb      	strh	r3, [r7, #6]
 800468e:	68fb      	ldr	r3, [r7, #12]
 8004690:	f893 3042 	ldrb.w	r3, [r3, #66]	@ 0x42
 8004694:	b2db      	uxtb	r3, r3
 8004696:	2b20      	cmp	r3, #32
 8004698:	d112      	bne.n	80046c0 <HAL_UART_Receive_DMA+0x40>
 800469a:	68bb      	ldr	r3, [r7, #8]
 800469c:	2b00      	cmp	r3, #0
 800469e:	d002      	beq.n	80046a6 <HAL_UART_Receive_DMA+0x26>
 80046a0:	88fb      	ldrh	r3, [r7, #6]
 80046a2:	2b00      	cmp	r3, #0
 80046a4:	d101      	bne.n	80046aa <HAL_UART_Receive_DMA+0x2a>
 80046a6:	2301      	movs	r3, #1
 80046a8:	e00b      	b.n	80046c2 <HAL_UART_Receive_DMA+0x42>
 80046aa:	68fb      	ldr	r3, [r7, #12]
 80046ac:	2200      	movs	r2, #0
 80046ae:	631a      	str	r2, [r3, #48]	@ 0x30
 80046b0:	88fb      	ldrh	r3, [r7, #6]
 80046b2:	461a      	mov	r2, r3
 80046b4:	68b9      	ldr	r1, [r7, #8]
 80046b6:	68f8      	ldr	r0, [r7, #12]
 80046b8:	f000 fc90 	bl	8004fdc <UART_Start_Receive_DMA>
 80046bc:	4603      	mov	r3, r0
 80046be:	e000      	b.n	80046c2 <HAL_UART_Receive_DMA+0x42>
 80046c0:	2302      	movs	r3, #2
 80046c2:	4618      	mov	r0, r3
 80046c4:	3710      	adds	r7, #16
 80046c6:	46bd      	mov	sp, r7
 80046c8:	bd80      	pop	{r7, pc}
	...

080046cc <HAL_UART_IRQHandler>:
 80046cc:	b580      	push	{r7, lr}
 80046ce:	b0ba      	sub	sp, #232	@ 0xe8
 80046d0:	af00      	add	r7, sp, #0
 80046d2:	6078      	str	r0, [r7, #4]
 80046d4:	687b      	ldr	r3, [r7, #4]
 80046d6:	681b      	ldr	r3, [r3, #0]
 80046d8:	681b      	ldr	r3, [r3, #0]
 80046da:	f8c7 30e4 	str.w	r3, [r7, #228]	@ 0xe4
 80046de:	687b      	ldr	r3, [r7, #4]
 80046e0:	681b      	ldr	r3, [r3, #0]
 80046e2:	68db      	ldr	r3, [r3, #12]
 80046e4:	f8c7 30e0 	str.w	r3, [r7, #224]	@ 0xe0
 80046e8:	687b      	ldr	r3, [r7, #4]
 80046ea:	681b      	ldr	r3, [r3, #0]
 80046ec:	695b      	ldr	r3, [r3, #20]
 80046ee:	f8c7 30dc 	str.w	r3, [r7, #220]	@ 0xdc
 80046f2:	2300      	movs	r3, #0
 80046f4:	f8c7 30d8 	str.w	r3, [r7, #216]	@ 0xd8
 80046f8:	2300      	movs	r3, #0
 80046fa:	f8c7 30d4 	str.w	r3, [r7, #212]	@ 0xd4
 80046fe:	f8d7 30e4 	ldr.w	r3, [r7, #228]	@ 0xe4
 8004702:	f003 030f 	and.w	r3, r3, #15
 8004706:	f8c7 30d8 	str.w	r3, [r7, #216]	@ 0xd8
 800470a:	f8d7 30d8 	ldr.w	r3, [r7, #216]	@ 0xd8
 800470e:	2b00      	cmp	r3, #0
 8004710:	d10f      	bne.n	8004732 <HAL_UART_IRQHandler+0x66>
 8004712:	f8d7 30e4 	ldr.w	r3, [r7, #228]	@ 0xe4
 8004716:	f003 0320 	and.w	r3, r3, #32
 800471a:	2b00      	cmp	r3, #0
 800471c:	d009      	beq.n	8004732 <HAL_UART_IRQHandler+0x66>
 800471e:	f8d7 30e0 	ldr.w	r3, [r7, #224]	@ 0xe0
 8004722:	f003 0320 	and.w	r3, r3, #32
 8004726:	2b00      	cmp	r3, #0
 8004728:	d003      	beq.n	8004732 <HAL_UART_IRQHandler+0x66>
 800472a:	6878      	ldr	r0, [r7, #4]
 800472c:	f000 fdf4 	bl	8005318 <UART_Receive_IT>
 8004730:	e25b      	b.n	8004bea <HAL_UART_IRQHandler+0x51e>
 8004732:	f8d7 30d8 	ldr.w	r3, [r7, #216]	@ 0xd8
 8004736:	2b00      	cmp	r3, #0
 8004738:	f000 80de 	beq.w	80048f8 <HAL_UART_IRQHandler+0x22c>
 800473c:	f8d7 30dc 	ldr.w	r3, [r7, #220]	@ 0xdc
 8004740:	f003 0301 	and.w	r3, r3, #1
 8004744:	2b00      	cmp	r3, #0
 8004746:	d106      	bne.n	8004756 <HAL_UART_IRQHandler+0x8a>
 8004748:	f8d7 30e0 	ldr.w	r3, [r7, #224]	@ 0xe0
 800474c:	f403 7390 	and.w	r3, r3, #288	@ 0x120
 8004750:	2b00      	cmp	r3, #0
 8004752:	f000 80d1 	beq.w	80048f8 <HAL_UART_IRQHandler+0x22c>
 8004756:	f8d7 30e4 	ldr.w	r3, [r7, #228]	@ 0xe4
 800475a:	f003 0301 	and.w	r3, r3, #1
 800475e:	2b00      	cmp	r3, #0
 8004760:	d00b      	beq.n	800477a <HAL_UART_IRQHandler+0xae>
 8004762:	f8d7 30e0 	ldr.w	r3, [r7, #224]	@ 0xe0
 8004766:	f403 7380 	and.w	r3, r3, #256	@ 0x100
 800476a:	2b00      	cmp	r3, #0
 800476c:	d005      	beq.n	800477a <HAL_UART_IRQHandler+0xae>
 800476e:	687b      	ldr	r3, [r7, #4]
 8004770:	6c5b      	ldr	r3, [r3, #68]	@ 0x44
 8004772:	f043 0201 	orr.w	r2, r3, #1
 8004776:	687b      	ldr	r3, [r7, #4]
 8004778:	645a      	str	r2, [r3, #68]	@ 0x44
 800477a:	f8d7 30e4 	ldr.w	r3, [r7, #228]	@ 0xe4
 800477e:	f003 0304 	and.w	r3, r3, #4
 8004782:	2b00      	cmp	r3, #0
 8004784:	d00b      	beq.n	800479e <HAL_UART_IRQHandler+0xd2>
 8004786:	f8d7 30dc 	ldr.w	r3, [r7, #220]	@ 0xdc
 800478a:	f003 0301 	and.w	r3, r3, #1
 800478e:	2b00      	cmp	r3, #0
 8004790:	d005      	beq.n	800479e <HAL_UART_IRQHandler+0xd2>
 8004792:	687b      	ldr	r3, [r7, #4]
 8004794:	6c5b      	ldr	r3, [r3, #68]	@ 0x44
 8004796:	f043 0202 	orr.w	r2, r3, #2
 800479a:	687b      	ldr	r3, [r7, #4]
 800479c:	645a      	str	r2, [r3, #68]	@ 0x44
 800479e:	f8d7 30e4 	ldr.w	r3, [r7, #228]	@ 0xe4
 80047a2:	f003 0302 	and.w	r3, r3, #2
 80047a6:	2b00      	cmp	r3, #0
 80047a8:	d00b      	beq.n	80047c2 <HAL_UART_IRQHandler+0xf6>
 80047aa:	f8d7 30dc 	ldr.w	r3, [r7, #220]	@ 0xdc
 80047ae:	f003 0301 	and.w	r3, r3, #1
 80047b2:	2b00      	cmp	r3, #0
 80047b4:	d005      	beq.n	80047c2 <HAL_UART_IRQHandler+0xf6>
 80047b6:	687b      	ldr	r3, [r7, #4]
 80047b8:	6c5b      	ldr	r3, [r3, #68]	@ 0x44
 80047ba:	f043 0204 	orr.w	r2, r3, #4
 80047be:	687b      	ldr	r3, [r7, #4]
 80047c0:	645a      	str	r2, [r3, #68]	@ 0x44
 80047c2:	f8d7 30e4 	ldr.w	r3, [r7, #228]	@ 0xe4
 80047c6:	f003 0308 	and.w	r3, r3, #8
 80047ca:	2b00      	cmp	r3, #0
 80047cc:	d011      	beq.n	80047f2 <HAL_UART_IRQHandler+0x126>
 80047ce:	f8d7 30e0 	ldr.w	r3, [r7, #224]	@ 0xe0
 80047d2:	f003 0320 	and.w	r3, r3, #32
 80047d6:	2b00      	cmp	r3, #0
 80047d8:	d105      	bne.n	80047e6 <HAL_UART_IRQHandler+0x11a>
 80047da:	f8d7 30dc 	ldr.w	r3, [r7, #220]	@ 0xdc
 80047de:	f003 0301 	and.w	r3, r3, #1
 80047e2:	2b00      	cmp	r3, #0
 80047e4:	d005      	beq.n	80047f2 <HAL_UART_IRQHandler+0x126>
 80047e6:	687b      	ldr	r3, [r7, #4]
 80047e8:	6c5b      	ldr	r3, [r3, #68]	@ 0x44
 80047ea:	f043 0208 	orr.w	r2, r3, #8
 80047ee:	687b      	ldr	r3, [r7, #4]
 80047f0:	645a      	str	r2, [r3, #68]	@ 0x44
 80047f2:	687b      	ldr	r3, [r7, #4]
 80047f4:	6c5b      	ldr	r3, [r3, #68]	@ 0x44
 80047f6:	2b00      	cmp	r3, #0
 80047f8:	f000 81f2 	beq.w	8004be0 <HAL_UART_IRQHandler+0x514>
 80047fc:	f8d7 30e4 	ldr.w	r3, [r7, #228]	@ 0xe4
 8004800:	f003 0320 	and.w	r3, r3, #32
 8004804:	2b00      	cmp	r3, #0
 8004806:	d008      	beq.n	800481a <HAL_UART_IRQHandler+0x14e>
 8004808:	f8d7 30e0 	ldr.w	r3, [r7, #224]	@ 0xe0
 800480c:	f003 0320 	and.w	r3, r3, #32
 8004810:	2b00      	cmp	r3, #0
 8004812:	d002      	beq.n	800481a <HAL_UART_IRQHandler+0x14e>
 8004814:	6878      	ldr	r0, [r7, #4]
 8004816:	f000 fd7f 	bl	8005318 <UART_Receive_IT>
 800481a:	687b      	ldr	r3, [r7, #4]
 800481c:	681b      	ldr	r3, [r3, #0]
 800481e:	695b      	ldr	r3, [r3, #20]
 8004820:	f003 0340 	and.w	r3, r3, #64	@ 0x40
 8004824:	2b00      	cmp	r3, #0
 8004826:	bf14      	ite	ne
 8004828:	2301      	movne	r3, #1
 800482a:	2300      	moveq	r3, #0
 800482c:	b2db      	uxtb	r3, r3
 800482e:	f8c7 30d4 	str.w	r3, [r7, #212]	@ 0xd4
 8004832:	687b      	ldr	r3, [r7, #4]
 8004834:	6c5b      	ldr	r3, [r3, #68]	@ 0x44
 8004836:	f003 0308 	and.w	r3, r3, #8
 800483a:	2b00      	cmp	r3, #0
 800483c:	d103      	bne.n	8004846 <HAL_UART_IRQHandler+0x17a>
 800483e:	f8d7 30d4 	ldr.w	r3, [r7, #212]	@ 0xd4
 8004842:	2b00      	cmp	r3, #0
 8004844:	d04f      	beq.n	80048e6 <HAL_UART_IRQHandler+0x21a>
 8004846:	6878      	ldr	r0, [r7, #4]
 8004848:	f000 fc89 	bl	800515e <UART_EndRxTransfer>
 800484c:	687b      	ldr	r3, [r7, #4]
 800484e:	681b      	ldr	r3, [r3, #0]
 8004850:	695b      	ldr	r3, [r3, #20]
 8004852:	f003 0340 	and.w	r3, r3, #64	@ 0x40
 8004856:	2b00      	cmp	r3, #0
 8004858:	d041      	beq.n	80048de <HAL_UART_IRQHandler+0x212>
 800485a:	687b      	ldr	r3, [r7, #4]
 800485c:	681b      	ldr	r3, [r3, #0]
 800485e:	3314      	adds	r3, #20
 8004860:	f8c7 309c 	str.w	r3, [r7, #156]	@ 0x9c
 8004864:	f8d7 309c 	ldr.w	r3, [r7, #156]	@ 0x9c
 8004868:	e853 3f00 	ldrex	r3, [r3]
 800486c:	f8c7 3098 	str.w	r3, [r7, #152]	@ 0x98
 8004870:	f8d7 3098 	ldr.w	r3, [r7, #152]	@ 0x98
 8004874:	f023 0340 	bic.w	r3, r3, #64	@ 0x40
 8004878:	f8c7 30d0 	str.w	r3, [r7, #208]	@ 0xd0
 800487c:	687b      	ldr	r3, [r7, #4]
 800487e:	681b      	ldr	r3, [r3, #0]
 8004880:	3314      	adds	r3, #20
 8004882:	f8d7 20d0 	ldr.w	r2, [r7, #208]	@ 0xd0
 8004886:	f8c7 20a8 	str.w	r2, [r7, #168]	@ 0xa8
 800488a:	f8c7 30a4 	str.w	r3, [r7, #164]	@ 0xa4
 800488e:	f8d7 10a4 	ldr.w	r1, [r7, #164]	@ 0xa4
 8004892:	f8d7 20a8 	ldr.w	r2, [r7, #168]	@ 0xa8
 8004896:	e841 2300 	strex	r3, r2, [r1]
 800489a:	f8c7 30a0 	str.w	r3, [r7, #160]	@ 0xa0
 800489e:	f8d7 30a0 	ldr.w	r3, [r7, #160]	@ 0xa0
 80048a2:	2b00      	cmp	r3, #0
 80048a4:	d1d9      	bne.n	800485a <HAL_UART_IRQHandler+0x18e>
 80048a6:	687b      	ldr	r3, [r7, #4]
 80048a8:	6bdb      	ldr	r3, [r3, #60]	@ 0x3c
 80048aa:	2b00      	cmp	r3, #0
 80048ac:	d013      	beq.n	80048d6 <HAL_UART_IRQHandler+0x20a>
 80048ae:	687b      	ldr	r3, [r7, #4]
 80048b0:	6bdb      	ldr	r3, [r3, #60]	@ 0x3c
 80048b2:	4a7e      	ldr	r2, [pc, #504]	@ (8004aac <HAL_UART_IRQHandler+0x3e0>)
 80048b4:	635a      	str	r2, [r3, #52]	@ 0x34
 80048b6:	687b      	ldr	r3, [r7, #4]
 80048b8:	6bdb      	ldr	r3, [r3, #60]	@ 0x3c
 80048ba:	4618      	mov	r0, r3
 80048bc:	f7fc ff80 	bl	80017c0 <HAL_DMA_Abort_IT>
 80048c0:	4603      	mov	r3, r0
 80048c2:	2b00      	cmp	r3, #0
 80048c4:	d016      	beq.n	80048f4 <HAL_UART_IRQHandler+0x228>
 80048c6:	687b      	ldr	r3, [r7, #4]
 80048c8:	6bdb      	ldr	r3, [r3, #60]	@ 0x3c
 80048ca:	6b5b      	ldr	r3, [r3, #52]	@ 0x34
 80048cc:	687a      	ldr	r2, [r7, #4]
 80048ce:	6bd2      	ldr	r2, [r2, #60]	@ 0x3c
 80048d0:	4610      	mov	r0, r2
 80048d2:	4798      	blx	r3
 80048d4:	e00e      	b.n	80048f4 <HAL_UART_IRQHandler+0x228>
 80048d6:	6878      	ldr	r0, [r7, #4]
 80048d8:	f000 f9a5 	bl	8004c26 <HAL_UART_ErrorCallback>
 80048dc:	e00a      	b.n	80048f4 <HAL_UART_IRQHandler+0x228>
 80048de:	6878      	ldr	r0, [r7, #4]
 80048e0:	f000 f9a1 	bl	8004c26 <HAL_UART_ErrorCallback>
 80048e4:	e006      	b.n	80048f4 <HAL_UART_IRQHandler+0x228>
 80048e6:	6878      	ldr	r0, [r7, #4]
 80048e8:	f000 f99d 	bl	8004c26 <HAL_UART_ErrorCallback>
 80048ec:	687b      	ldr	r3, [r7, #4]
 80048ee:	2200      	movs	r2, #0
 80048f0:	645a      	str	r2, [r3, #68]	@ 0x44
 80048f2:	e175      	b.n	8004be0 <HAL_UART_IRQHandler+0x514>
 80048f4:	bf00      	nop
 80048f6:	e173      	b.n	8004be0 <HAL_UART_IRQHandler+0x514>
 80048f8:	687b      	ldr	r3, [r7, #4]
 80048fa:	6b1b      	ldr	r3, [r3, #48]	@ 0x30
 80048fc:	2b01      	cmp	r3, #1
 80048fe:	f040 814f 	bne.w	8004ba0 <HAL_UART_IRQHandler+0x4d4>
 8004902:	f8d7 30e4 	ldr.w	r3, [r7, #228]	@ 0xe4
 8004906:	f003 0310 	and.w	r3, r3, #16
 800490a:	2b00      	cmp	r3, #0
 800490c:	f000 8148 	beq.w	8004ba0 <HAL_UART_IRQHandler+0x4d4>
 8004910:	f8d7 30e0 	ldr.w	r3, [r7, #224]	@ 0xe0
 8004914:	f003 0310 	and.w	r3, r3, #16
 8004918:	2b00      	cmp	r3, #0
 800491a:	f000 8141 	beq.w	8004ba0 <HAL_UART_IRQHandler+0x4d4>
 800491e:	2300      	movs	r3, #0
 8004920:	60bb      	str	r3, [r7, #8]
 8004922:	687b      	ldr	r3, [r7, #4]
 8004924:	681b      	ldr	r3, [r3, #0]
 8004926:	681b      	ldr	r3, [r3, #0]
 8004928:	60bb      	str	r3, [r7, #8]
 800492a:	687b      	ldr	r3, [r7, #4]
 800492c:	681b      	ldr	r3, [r3, #0]
 800492e:	685b      	ldr	r3, [r3, #4]
 8004930:	60bb      	str	r3, [r7, #8]
 8004932:	68bb      	ldr	r3, [r7, #8]
 8004934:	687b      	ldr	r3, [r7, #4]
 8004936:	681b      	ldr	r3, [r3, #0]
 8004938:	695b      	ldr	r3, [r3, #20]
 800493a:	f003 0340 	and.w	r3, r3, #64	@ 0x40
 800493e:	2b00      	cmp	r3, #0
 8004940:	f000 80b6 	beq.w	8004ab0 <HAL_UART_IRQHandler+0x3e4>
 8004944:	687b      	ldr	r3, [r7, #4]
 8004946:	6bdb      	ldr	r3, [r3, #60]	@ 0x3c
 8004948:	681b      	ldr	r3, [r3, #0]
 800494a:	685b      	ldr	r3, [r3, #4]
 800494c:	f8a7 30be 	strh.w	r3, [r7, #190]	@ 0xbe
 8004950:	f8b7 30be 	ldrh.w	r3, [r7, #190]	@ 0xbe
 8004954:	2b00      	cmp	r3, #0
 8004956:	f000 8145 	beq.w	8004be4 <HAL_UART_IRQHandler+0x518>
 800495a:	687b      	ldr	r3, [r7, #4]
 800495c:	8d9b      	ldrh	r3, [r3, #44]	@ 0x2c
 800495e:	f8b7 20be 	ldrh.w	r2, [r7, #190]	@ 0xbe
 8004962:	429a      	cmp	r2, r3
 8004964:	f080 813e 	bcs.w	8004be4 <HAL_UART_IRQHandler+0x518>
 8004968:	687b      	ldr	r3, [r7, #4]
 800496a:	f8b7 20be 	ldrh.w	r2, [r7, #190]	@ 0xbe
 800496e:	85da      	strh	r2, [r3, #46]	@ 0x2e
 8004970:	687b      	ldr	r3, [r7, #4]
 8004972:	6bdb      	ldr	r3, [r3, #60]	@ 0x3c
 8004974:	699b      	ldr	r3, [r3, #24]
 8004976:	2b20      	cmp	r3, #32
 8004978:	f000 8088 	beq.w	8004a8c <HAL_UART_IRQHandler+0x3c0>
 800497c:	687b      	ldr	r3, [r7, #4]
 800497e:	681b      	ldr	r3, [r3, #0]
 8004980:	330c      	adds	r3, #12
 8004982:	f8c7 3088 	str.w	r3, [r7, #136]	@ 0x88
 8004986:	f8d7 3088 	ldr.w	r3, [r7, #136]	@ 0x88
 800498a:	e853 3f00 	ldrex	r3, [r3]
 800498e:	f8c7 3084 	str.w	r3, [r7, #132]	@ 0x84
 8004992:	f8d7 3084 	ldr.w	r3, [r7, #132]	@ 0x84
 8004996:	f423 7380 	bic.w	r3, r3, #256	@ 0x100
 800499a:	f8c7 30b8 	str.w	r3, [r7, #184]	@ 0xb8
 800499e:	687b      	ldr	r3, [r7, #4]
 80049a0:	681b      	ldr	r3, [r3, #0]
 80049a2:	330c      	adds	r3, #12
 80049a4:	f8d7 20b8 	ldr.w	r2, [r7, #184]	@ 0xb8
 80049a8:	f8c7 2094 	str.w	r2, [r7, #148]	@ 0x94
 80049ac:	f8c7 3090 	str.w	r3, [r7, #144]	@ 0x90
 80049b0:	f8d7 1090 	ldr.w	r1, [r7, #144]	@ 0x90
 80049b4:	f8d7 2094 	ldr.w	r2, [r7, #148]	@ 0x94
 80049b8:	e841 2300 	strex	r3, r2, [r1]
 80049bc:	f8c7 308c 	str.w	r3, [r7, #140]	@ 0x8c
 80049c0:	f8d7 308c 	ldr.w	r3, [r7, #140]	@ 0x8c
 80049c4:	2b00      	cmp	r3, #0
 80049c6:	d1d9      	bne.n	800497c <HAL_UART_IRQHandler+0x2b0>
 80049c8:	687b      	ldr	r3, [r7, #4]
 80049ca:	681b      	ldr	r3, [r3, #0]
 80049cc:	3314      	adds	r3, #20
 80049ce:	677b      	str	r3, [r7, #116]	@ 0x74
 80049d0:	6f7b      	ldr	r3, [r7, #116]	@ 0x74
 80049d2:	e853 3f00 	ldrex	r3, [r3]
 80049d6:	673b      	str	r3, [r7, #112]	@ 0x70
 80049d8:	6f3b      	ldr	r3, [r7, #112]	@ 0x70
 80049da:	f023 0301 	bic.w	r3, r3, #1
 80049de:	f8c7 30b4 	str.w	r3, [r7, #180]	@ 0xb4
 80049e2:	687b      	ldr	r3, [r7, #4]
 80049e4:	681b      	ldr	r3, [r3, #0]
 80049e6:	3314      	adds	r3, #20
 80049e8:	f8d7 20b4 	ldr.w	r2, [r7, #180]	@ 0xb4
 80049ec:	f8c7 2080 	str.w	r2, [r7, #128]	@ 0x80
 80049f0:	67fb      	str	r3, [r7, #124]	@ 0x7c
 80049f2:	6ff9      	ldr	r1, [r7, #124]	@ 0x7c
 80049f4:	f8d7 2080 	ldr.w	r2, [r7, #128]	@ 0x80
 80049f8:	e841 2300 	strex	r3, r2, [r1]
 80049fc:	67bb      	str	r3, [r7, #120]	@ 0x78
 80049fe:	6fbb      	ldr	r3, [r7, #120]	@ 0x78
 8004a00:	2b00      	cmp	r3, #0
 8004a02:	d1e1      	bne.n	80049c8 <HAL_UART_IRQHandler+0x2fc>
 8004a04:	687b      	ldr	r3, [r7, #4]
 8004a06:	681b      	ldr	r3, [r3, #0]
 8004a08:	3314      	adds	r3, #20
 8004a0a:	663b      	str	r3, [r7, #96]	@ 0x60
 8004a0c:	6e3b      	ldr	r3, [r7, #96]	@ 0x60
 8004a0e:	e853 3f00 	ldrex	r3, [r3]
 8004a12:	65fb      	str	r3, [r7, #92]	@ 0x5c
 8004a14:	6dfb      	ldr	r3, [r7, #92]	@ 0x5c
 8004a16:	f023 0340 	bic.w	r3, r3, #64	@ 0x40
 8004a1a:	f8c7 30b0 	str.w	r3, [r7, #176]	@ 0xb0
 8004a1e:	687b      	ldr	r3, [r7, #4]
 8004a20:	681b      	ldr	r3, [r3, #0]
 8004a22:	3314      	adds	r3, #20
 8004a24:	f8d7 20b0 	ldr.w	r2, [r7, #176]	@ 0xb0
 8004a28:	66fa      	str	r2, [r7, #108]	@ 0x6c
 8004a2a:	66bb      	str	r3, [r7, #104]	@ 0x68
 8004a2c:	6eb9      	ldr	r1, [r7, #104]	@ 0x68
 8004a2e:	6efa      	ldr	r2, [r7, #108]	@ 0x6c
 8004a30:	e841 2300 	strex	r3, r2, [r1]
 8004a34:	667b      	str	r3, [r7, #100]	@ 0x64
 8004a36:	6e7b      	ldr	r3, [r7, #100]	@ 0x64
 8004a38:	2b00      	cmp	r3, #0
 8004a3a:	d1e3      	bne.n	8004a04 <HAL_UART_IRQHandler+0x338>
 8004a3c:	687b      	ldr	r3, [r7, #4]
 8004a3e:	2220      	movs	r2, #32
 8004a40:	f883 2042 	strb.w	r2, [r3, #66]	@ 0x42
 8004a44:	687b      	ldr	r3, [r7, #4]
 8004a46:	2200      	movs	r2, #0
 8004a48:	631a      	str	r2, [r3, #48]	@ 0x30
 8004a4a:	687b      	ldr	r3, [r7, #4]
 8004a4c:	681b      	ldr	r3, [r3, #0]
 8004a4e:	330c      	adds	r3, #12
 8004a50:	64fb      	str	r3, [r7, #76]	@ 0x4c
 8004a52:	6cfb      	ldr	r3, [r7, #76]	@ 0x4c
 8004a54:	e853 3f00 	ldrex	r3, [r3]
 8004a58:	64bb      	str	r3, [r7, #72]	@ 0x48
 8004a5a:	6cbb      	ldr	r3, [r7, #72]	@ 0x48
 8004a5c:	f023 0310 	bic.w	r3, r3, #16
 8004a60:	f8c7 30ac 	str.w	r3, [r7, #172]	@ 0xac
 8004a64:	687b      	ldr	r3, [r7, #4]
 8004a66:	681b      	ldr	r3, [r3, #0]
 8004a68:	330c      	adds	r3, #12
 8004a6a:	f8d7 20ac 	ldr.w	r2, [r7, #172]	@ 0xac
 8004a6e:	65ba      	str	r2, [r7, #88]	@ 0x58
 8004a70:	657b      	str	r3, [r7, #84]	@ 0x54
 8004a72:	6d79      	ldr	r1, [r7, #84]	@ 0x54
 8004a74:	6dba      	ldr	r2, [r7, #88]	@ 0x58
 8004a76:	e841 2300 	strex	r3, r2, [r1]
 8004a7a:	653b      	str	r3, [r7, #80]	@ 0x50
 8004a7c:	6d3b      	ldr	r3, [r7, #80]	@ 0x50
 8004a7e:	2b00      	cmp	r3, #0
 8004a80:	d1e3      	bne.n	8004a4a <HAL_UART_IRQHandler+0x37e>
 8004a82:	687b      	ldr	r3, [r7, #4]
 8004a84:	6bdb      	ldr	r3, [r3, #60]	@ 0x3c
 8004a86:	4618      	mov	r0, r3
 8004a88:	f7fc fe5e 	bl	8001748 <HAL_DMA_Abort>
 8004a8c:	687b      	ldr	r3, [r7, #4]
 8004a8e:	2202      	movs	r2, #2
 8004a90:	635a      	str	r2, [r3, #52]	@ 0x34
 8004a92:	687b      	ldr	r3, [r7, #4]
 8004a94:	8d9a      	ldrh	r2, [r3, #44]	@ 0x2c
 8004a96:	687b      	ldr	r3, [r7, #4]
 8004a98:	8ddb      	ldrh	r3, [r3, #46]	@ 0x2e
 8004a9a:	b29b      	uxth	r3, r3
 8004a9c:	1ad3      	subs	r3, r2, r3
 8004a9e:	b29b      	uxth	r3, r3
 8004aa0:	4619      	mov	r1, r3
 8004aa2:	6878      	ldr	r0, [r7, #4]
 8004aa4:	f000 f8c8 	bl	8004c38 <HAL_UARTEx_RxEventCallback>
 8004aa8:	e09c      	b.n	8004be4 <HAL_UART_IRQHandler+0x518>
 8004aaa:	bf00      	nop
 8004aac:	08005223 	.word	0x08005223
 8004ab0:	687b      	ldr	r3, [r7, #4]
 8004ab2:	8d9a      	ldrh	r2, [r3, #44]	@ 0x2c
 8004ab4:	687b      	ldr	r3, [r7, #4]
 8004ab6:	8ddb      	ldrh	r3, [r3, #46]	@ 0x2e
 8004ab8:	b29b      	uxth	r3, r3
 8004aba:	1ad3      	subs	r3, r2, r3
 8004abc:	f8a7 30ce 	strh.w	r3, [r7, #206]	@ 0xce
 8004ac0:	687b      	ldr	r3, [r7, #4]
 8004ac2:	8ddb      	ldrh	r3, [r3, #46]	@ 0x2e
 8004ac4:	b29b      	uxth	r3, r3
 8004ac6:	2b00      	cmp	r3, #0
 8004ac8:	f000 808e 	beq.w	8004be8 <HAL_UART_IRQHandler+0x51c>
 8004acc:	f8b7 30ce 	ldrh.w	r3, [r7, #206]	@ 0xce
 8004ad0:	2b00      	cmp	r3, #0
 8004ad2:	f000 8089 	beq.w	8004be8 <HAL_UART_IRQHandler+0x51c>
 8004ad6:	687b      	ldr	r3, [r7, #4]
 8004ad8:	681b      	ldr	r3, [r3, #0]
 8004ada:	330c      	adds	r3, #12
 8004adc:	63bb      	str	r3, [r7, #56]	@ 0x38
 8004ade:	6bbb      	ldr	r3, [r7, #56]	@ 0x38
 8004ae0:	e853 3f00 	ldrex	r3, [r3]
 8004ae4:	637b      	str	r3, [r7, #52]	@ 0x34
 8004ae6:	6b7b      	ldr	r3, [r7, #52]	@ 0x34
 8004ae8:	f423 7390 	bic.w	r3, r3, #288	@ 0x120
 8004aec:	f8c7 30c8 	str.w	r3, [r7, #200]	@ 0xc8
 8004af0:	687b      	ldr	r3, [r7, #4]
 8004af2:	681b      	ldr	r3, [r3, #0]
 8004af4:	330c      	adds	r3, #12
 8004af6:	f8d7 20c8 	ldr.w	r2, [r7, #200]	@ 0xc8
 8004afa:	647a      	str	r2, [r7, #68]	@ 0x44
 8004afc:	643b      	str	r3, [r7, #64]	@ 0x40
 8004afe:	6c39      	ldr	r1, [r7, #64]	@ 0x40
 8004b00:	6c7a      	ldr	r2, [r7, #68]	@ 0x44
 8004b02:	e841 2300 	strex	r3, r2, [r1]
 8004b06:	63fb      	str	r3, [r7, #60]	@ 0x3c
 8004b08:	6bfb      	ldr	r3, [r7, #60]	@ 0x3c
 8004b0a:	2b00      	cmp	r3, #0
 8004b0c:	d1e3      	bne.n	8004ad6 <HAL_UART_IRQHandler+0x40a>
 8004b0e:	687b      	ldr	r3, [r7, #4]
 8004b10:	681b      	ldr	r3, [r3, #0]
 8004b12:	3314      	adds	r3, #20
 8004b14:	627b      	str	r3, [r7, #36]	@ 0x24
 8004b16:	6a7b      	ldr	r3, [r7, #36]	@ 0x24
 8004b18:	e853 3f00 	ldrex	r3, [r3]
 8004b1c:	623b      	str	r3, [r7, #32]
 8004b1e:	6a3b      	ldr	r3, [r7, #32]
 8004b20:	f023 0301 	bic.w	r3, r3, #1
 8004b24:	f8c7 30c4 	str.w	r3, [r7, #196]	@ 0xc4
 8004b28:	687b      	ldr	r3, [r7, #4]
 8004b2a:	681b      	ldr	r3, [r3, #0]
 8004b2c:	3314      	adds	r3, #20
 8004b2e:	f8d7 20c4 	ldr.w	r2, [r7, #196]	@ 0xc4
 8004b32:	633a      	str	r2, [r7, #48]	@ 0x30
 8004b34:	62fb      	str	r3, [r7, #44]	@ 0x2c
 8004b36:	6af9      	ldr	r1, [r7, #44]	@ 0x2c
 8004b38:	6b3a      	ldr	r2, [r7, #48]	@ 0x30
 8004b3a:	e841 2300 	strex	r3, r2, [r1]
 8004b3e:	62bb      	str	r3, [r7, #40]	@ 0x28
 8004b40:	6abb      	ldr	r3, [r7, #40]	@ 0x28
 8004b42:	2b00      	cmp	r3, #0
 8004b44:	d1e3      	bne.n	8004b0e <HAL_UART_IRQHandler+0x442>
 8004b46:	687b      	ldr	r3, [r7, #4]
 8004b48:	2220      	movs	r2, #32
 8004b4a:	f883 2042 	strb.w	r2, [r3, #66]	@ 0x42
 8004b4e:	687b      	ldr	r3, [r7, #4]
 8004b50:	2200      	movs	r2, #0
 8004b52:	631a      	str	r2, [r3, #48]	@ 0x30
 8004b54:	687b      	ldr	r3, [r7, #4]
 8004b56:	681b      	ldr	r3, [r3, #0]
 8004b58:	330c      	adds	r3, #12
 8004b5a:	613b      	str	r3, [r7, #16]
 8004b5c:	693b      	ldr	r3, [r7, #16]
 8004b5e:	e853 3f00 	ldrex	r3, [r3]
 8004b62:	60fb      	str	r3, [r7, #12]
 8004b64:	68fb      	ldr	r3, [r7, #12]
 8004b66:	f023 0310 	bic.w	r3, r3, #16
 8004b6a:	f8c7 30c0 	str.w	r3, [r7, #192]	@ 0xc0
 8004b6e:	687b      	ldr	r3, [r7, #4]
 8004b70:	681b      	ldr	r3, [r3, #0]
 8004b72:	330c      	adds	r3, #12
 8004b74:	f8d7 20c0 	ldr.w	r2, [r7, #192]	@ 0xc0
 8004b78:	61fa      	str	r2, [r7, #28]
 8004b7a:	61bb      	str	r3, [r7, #24]
 8004b7c:	69b9      	ldr	r1, [r7, #24]
 8004b7e:	69fa      	ldr	r2, [r7, #28]
 8004b80:	e841 2300 	strex	r3, r2, [r1]
 8004b84:	617b      	str	r3, [r7, #20]
 8004b86:	697b      	ldr	r3, [r7, #20]
 8004b88:	2b00      	cmp	r3, #0
 8004b8a:	d1e3      	bne.n	8004b54 <HAL_UART_IRQHandler+0x488>
 8004b8c:	687b      	ldr	r3, [r7, #4]
 8004b8e:	2202      	movs	r2, #2
 8004b90:	635a      	str	r2, [r3, #52]	@ 0x34
 8004b92:	f8b7 30ce 	ldrh.w	r3, [r7, #206]	@ 0xce
 8004b96:	4619      	mov	r1, r3
 8004b98:	6878      	ldr	r0, [r7, #4]
 8004b9a:	f000 f84d 	bl	8004c38 <HAL_UARTEx_RxEventCallback>
 8004b9e:	e023      	b.n	8004be8 <HAL_UART_IRQHandler+0x51c>
 8004ba0:	f8d7 30e4 	ldr.w	r3, [r7, #228]	@ 0xe4
 8004ba4:	f003 0380 	and.w	r3, r3, #128	@ 0x80
 8004ba8:	2b00      	cmp	r3, #0
 8004baa:	d009      	beq.n	8004bc0 <HAL_UART_IRQHandler+0x4f4>
 8004bac:	f8d7 30e0 	ldr.w	r3, [r7, #224]	@ 0xe0
 8004bb0:	f003 0380 	and.w	r3, r3, #128	@ 0x80
 8004bb4:	2b00      	cmp	r3, #0
 8004bb6:	d003      	beq.n	8004bc0 <HAL_UART_IRQHandler+0x4f4>
 8004bb8:	6878      	ldr	r0, [r7, #4]
 8004bba:	f000 fb46 	bl	800524a <UART_Transmit_IT>
 8004bbe:	e014      	b.n	8004bea <HAL_UART_IRQHandler+0x51e>
 8004bc0:	f8d7 30e4 	ldr.w	r3, [r7, #228]	@ 0xe4
 8004bc4:	f003 0340 	and.w	r3, r3, #64	@ 0x40
 8004bc8:	2b00      	cmp	r3, #0
 8004bca:	d00e      	beq.n	8004bea <HAL_UART_IRQHandler+0x51e>
 8004bcc:	f8d7 30e0 	ldr.w	r3, [r7, #224]	@ 0xe0
 8004bd0:	f003 0340 	and.w	r3, r3, #64	@ 0x40
 8004bd4:	2b00      	cmp	r3, #0
 8004bd6:	d008      	beq.n	8004bea <HAL_UART_IRQHandler+0x51e>
 8004bd8:	6878      	ldr	r0, [r7, #4]
 8004bda:	f000 fb85 	bl	80052e8 <UART_EndTransmit_IT>
 8004bde:	e004      	b.n	8004bea <HAL_UART_IRQHandler+0x51e>
 8004be0:	bf00      	nop
 8004be2:	e002      	b.n	8004bea <HAL_UART_IRQHandler+0x51e>
 8004be4:	bf00      	nop
 8004be6:	e000      	b.n	8004bea <HAL_UART_IRQHandler+0x51e>
 8004be8:	bf00      	nop
 8004bea:	37e8      	adds	r7, #232	@ 0xe8
 8004bec:	46bd      	mov	sp, r7
 8004bee:	bd80      	pop	{r7, pc}

08004bf0 <HAL_UART_TxCpltCallback>:
 8004bf0:	b480      	push	{r7}
 8004bf2:	b083      	sub	sp, #12
 8004bf4:	af00      	add	r7, sp, #0
 8004bf6:	6078      	str	r0, [r7, #4]
 8004bf8:	bf00      	nop
 8004bfa:	370c      	adds	r7, #12
 8004bfc:	46bd      	mov	sp, r7
 8004bfe:	bc80      	pop	{r7}
 8004c00:	4770      	bx	lr

08004c02 <HAL_UART_TxHalfCpltCallback>:
 8004c02:	b480      	push	{r7}
 8004c04:	b083      	sub	sp, #12
 8004c06:	af00      	add	r7, sp, #0
 8004c08:	6078      	str	r0, [r7, #4]
 8004c0a:	bf00      	nop
 8004c0c:	370c      	adds	r7, #12
 8004c0e:	46bd      	mov	sp, r7
 8004c10:	bc80      	pop	{r7}
 8004c12:	4770      	bx	lr

08004c14 <HAL_UART_RxHalfCpltCallback>:
 8004c14:	b480      	push	{r7}
 8004c16:	b083      	sub	sp, #12
 8004c18:	af00      	add	r7, sp, #0
 8004c1a:	6078      	str	r0, [r7, #4]
 8004c1c:	bf00      	nop
 8004c1e:	370c      	adds	r7, #12
 8004c20:	46bd      	mov	sp, r7
 8004c22:	bc80      	pop	{r7}
 8004c24:	4770      	bx	lr

08004c26 <HAL_UART_ErrorCallback>:
 8004c26:	b480      	push	{r7}
 8004c28:	b083      	sub	sp, #12
 8004c2a:	af00      	add	r7, sp, #0
 8004c2c:	6078      	str	r0, [r7, #4]
 8004c2e:	bf00      	nop
 8004c30:	370c      	adds	r7, #12
 8004c32:	46bd      	mov	sp, r7
 8004c34:	bc80      	pop	{r7}
 8004c36:	4770      	bx	lr

08004c38 <HAL_UARTEx_RxEventCallback>:
 8004c38:	b480      	push	{r7}
 8004c3a:	b083      	sub	sp, #12
 8004c3c:	af00      	add	r7, sp, #0
 8004c3e:	6078      	str	r0, [r7, #4]
 8004c40:	460b      	mov	r3, r1
 8004c42:	807b      	strh	r3, [r7, #2]
 8004c44:	bf00      	nop
 8004c46:	370c      	adds	r7, #12
 8004c48:	46bd      	mov	sp, r7
 8004c4a:	bc80      	pop	{r7}
 8004c4c:	4770      	bx	lr

08004c4e <UART_DMATransmitCplt>:
 8004c4e:	b580      	push	{r7, lr}
 8004c50:	b090      	sub	sp, #64	@ 0x40
 8004c52:	af00      	add	r7, sp, #0
 8004c54:	6078      	str	r0, [r7, #4]
 8004c56:	687b      	ldr	r3, [r7, #4]
 8004c58:	6a5b      	ldr	r3, [r3, #36]	@ 0x24
 8004c5a:	63fb      	str	r3, [r7, #60]	@ 0x3c
 8004c5c:	687b      	ldr	r3, [r7, #4]
 8004c5e:	681b      	ldr	r3, [r3, #0]
 8004c60:	681b      	ldr	r3, [r3, #0]
 8004c62:	f003 0320 	and.w	r3, r3, #32
 8004c66:	2b00      	cmp	r3, #0
 8004c68:	d137      	bne.n	8004cda <UART_DMATransmitCplt+0x8c>
 8004c6a:	6bfb      	ldr	r3, [r7, #60]	@ 0x3c
 8004c6c:	2200      	movs	r2, #0
 8004c6e:	84da      	strh	r2, [r3, #38]	@ 0x26
 8004c70:	6bfb      	ldr	r3, [r7, #60]	@ 0x3c
 8004c72:	681b      	ldr	r3, [r3, #0]
 8004c74:	3314      	adds	r3, #20
 8004c76:	627b      	str	r3, [r7, #36]	@ 0x24
 8004c78:	6a7b      	ldr	r3, [r7, #36]	@ 0x24
 8004c7a:	e853 3f00 	ldrex	r3, [r3]
 8004c7e:	623b      	str	r3, [r7, #32]
 8004c80:	6a3b      	ldr	r3, [r7, #32]
 8004c82:	f023 0380 	bic.w	r3, r3, #128	@ 0x80
 8004c86:	63bb      	str	r3, [r7, #56]	@ 0x38
 8004c88:	6bfb      	ldr	r3, [r7, #60]	@ 0x3c
 8004c8a:	681b      	ldr	r3, [r3, #0]
 8004c8c:	3314      	adds	r3, #20
 8004c8e:	6bba      	ldr	r2, [r7, #56]	@ 0x38
 8004c90:	633a      	str	r2, [r7, #48]	@ 0x30
 8004c92:	62fb      	str	r3, [r7, #44]	@ 0x2c
 8004c94:	6af9      	ldr	r1, [r7, #44]	@ 0x2c
 8004c96:	6b3a      	ldr	r2, [r7, #48]	@ 0x30
 8004c98:	e841 2300 	strex	r3, r2, [r1]
 8004c9c:	62bb      	str	r3, [r7, #40]	@ 0x28
 8004c9e:	6abb      	ldr	r3, [r7, #40]	@ 0x28
 8004ca0:	2b00      	cmp	r3, #0
 8004ca2:	d1e5      	bne.n	8004c70 <UART_DMATransmitCplt+0x22>
 8004ca4:	6bfb      	ldr	r3, [r7, #60]	@ 0x3c
 8004ca6:	681b      	ldr	r3, [r3, #0]
 8004ca8:	330c      	adds	r3, #12
 8004caa:	613b      	str	r3, [r7, #16]
 8004cac:	693b      	ldr	r3, [r7, #16]
 8004cae:	e853 3f00 	ldrex	r3, [r3]
 8004cb2:	60fb      	str	r3, [r7, #12]
 8004cb4:	68fb      	ldr	r3, [r7, #12]
 8004cb6:	f043 0340 	orr.w	r3, r3, #64	@ 0x40
 8004cba:	637b      	str	r3, [r7, #52]	@ 0x34
 8004cbc:	6bfb      	ldr	r3, [r7, #60]	@ 0x3c
 8004cbe:	681b      	ldr	r3, [r3, #0]
 8004cc0:	330c      	adds	r3, #12
 8004cc2:	6b7a      	ldr	r2, [r7, #52]	@ 0x34
 8004cc4:	61fa      	str	r2, [r7, #28]
 8004cc6:	61bb      	str	r3, [r7, #24]
 8004cc8:	69b9      	ldr	r1, [r7, #24]
 8004cca:	69fa      	ldr	r2, [r7, #28]
 8004ccc:	e841 2300 	strex	r3, r2, [r1]
 8004cd0:	617b      	str	r3, [r7, #20]
 8004cd2:	697b      	ldr	r3, [r7, #20]
 8004cd4:	2b00      	cmp	r3, #0
 8004cd6:	d1e5      	bne.n	8004ca4 <UART_DMATransmitCplt+0x56>
 8004cd8:	e002      	b.n	8004ce0 <UART_DMATransmitCplt+0x92>
 8004cda:	6bf8      	ldr	r0, [r7, #60]	@ 0x3c
 8004cdc:	f7ff ff88 	bl	8004bf0 <HAL_UART_TxCpltCallback>
 8004ce0:	bf00      	nop
 8004ce2:	3740      	adds	r7, #64	@ 0x40
 8004ce4:	46bd      	mov	sp, r7
 8004ce6:	bd80      	pop	{r7, pc}

08004ce8 <UART_DMATxHalfCplt>:
 8004ce8:	b580      	push	{r7, lr}
 8004cea:	b084      	sub	sp, #16
 8004cec:	af00      	add	r7, sp, #0
 8004cee:	6078      	str	r0, [r7, #4]
 8004cf0:	687b      	ldr	r3, [r7, #4]
 8004cf2:	6a5b      	ldr	r3, [r3, #36]	@ 0x24
 8004cf4:	60fb      	str	r3, [r7, #12]
 8004cf6:	68f8      	ldr	r0, [r7, #12]
 8004cf8:	f7ff ff83 	bl	8004c02 <HAL_UART_TxHalfCpltCallback>
 8004cfc:	bf00      	nop
 8004cfe:	3710      	adds	r7, #16
 8004d00:	46bd      	mov	sp, r7
 8004d02:	bd80      	pop	{r7, pc}

08004d04 <UART_DMAReceiveCplt>:
 8004d04:	b580      	push	{r7, lr}
 8004d06:	b09c      	sub	sp, #112	@ 0x70
 8004d08:	af00      	add	r7, sp, #0
 8004d0a:	6078      	str	r0, [r7, #4]
 8004d0c:	687b      	ldr	r3, [r7, #4]
 8004d0e:	6a5b      	ldr	r3, [r3, #36]	@ 0x24
 8004d10:	66fb      	str	r3, [r7, #108]	@ 0x6c
 8004d12:	687b      	ldr	r3, [r7, #4]
 8004d14:	681b      	ldr	r3, [r3, #0]
 8004d16:	681b      	ldr	r3, [r3, #0]
 8004d18:	f003 0320 	and.w	r3, r3, #32
 8004d1c:	2b00      	cmp	r3, #0
 8004d1e:	d172      	bne.n	8004e06 <UART_DMAReceiveCplt+0x102>
 8004d20:	6efb      	ldr	r3, [r7, #108]	@ 0x6c
 8004d22:	2200      	movs	r2, #0
 8004d24:	85da      	strh	r2, [r3, #46]	@ 0x2e
 8004d26:	6efb      	ldr	r3, [r7, #108]	@ 0x6c
 8004d28:	681b      	ldr	r3, [r3, #0]
 8004d2a:	330c      	adds	r3, #12
 8004d2c:	64fb      	str	r3, [r7, #76]	@ 0x4c
 8004d2e:	6cfb      	ldr	r3, [r7, #76]	@ 0x4c
 8004d30:	e853 3f00 	ldrex	r3, [r3]
 8004d34:	64bb      	str	r3, [r7, #72]	@ 0x48
 8004d36:	6cbb      	ldr	r3, [r7, #72]	@ 0x48
 8004d38:	f423 7380 	bic.w	r3, r3, #256	@ 0x100
 8004d3c:	66bb      	str	r3, [r7, #104]	@ 0x68
 8004d3e:	6efb      	ldr	r3, [r7, #108]	@ 0x6c
 8004d40:	681b      	ldr	r3, [r3, #0]
 8004d42:	330c      	adds	r3, #12
 8004d44:	6eba      	ldr	r2, [r7, #104]	@ 0x68
 8004d46:	65ba      	str	r2, [r7, #88]	@ 0x58
 8004d48:	657b      	str	r3, [r7, #84]	@ 0x54
 8004d4a:	6d79      	ldr	r1, [r7, #84]	@ 0x54
 8004d4c:	6dba      	ldr	r2, [r7, #88]	@ 0x58
 8004d4e:	e841 2300 	strex	r3, r2, [r1]
 8004d52:	653b      	str	r3, [r7, #80]	@ 0x50
 8004d54:	6d3b      	ldr	r3, [r7, #80]	@ 0x50
 8004d56:	2b00      	cmp	r3, #0
 8004d58:	d1e5      	bne.n	8004d26 <UART_DMAReceiveCplt+0x22>
 8004d5a:	6efb      	ldr	r3, [r7, #108]	@ 0x6c
 8004d5c:	681b      	ldr	r3, [r3, #0]
 8004d5e:	3314      	adds	r3, #20
 8004d60:	63bb      	str	r3, [r7, #56]	@ 0x38
 8004d62:	6bbb      	ldr	r3, [r7, #56]	@ 0x38
 8004d64:	e853 3f00 	ldrex	r3, [r3]
 8004d68:	637b      	str	r3, [r7, #52]	@ 0x34
 8004d6a:	6b7b      	ldr	r3, [r7, #52]	@ 0x34
 8004d6c:	f023 0301 	bic.w	r3, r3, #1
 8004d70:	667b      	str	r3, [r7, #100]	@ 0x64
 8004d72:	6efb      	ldr	r3, [r7, #108]	@ 0x6c
 8004d74:	681b      	ldr	r3, [r3, #0]
 8004d76:	3314      	adds	r3, #20
 8004d78:	6e7a      	ldr	r2, [r7, #100]	@ 0x64
 8004d7a:	647a      	str	r2, [r7, #68]	@ 0x44
 8004d7c:	643b      	str	r3, [r7, #64]	@ 0x40
 8004d7e:	6c39      	ldr	r1, [r7, #64]	@ 0x40
 8004d80:	6c7a      	ldr	r2, [r7, #68]	@ 0x44
 8004d82:	e841 2300 	strex	r3, r2, [r1]
 8004d86:	63fb      	str	r3, [r7, #60]	@ 0x3c
 8004d88:	6bfb      	ldr	r3, [r7, #60]	@ 0x3c
 8004d8a:	2b00      	cmp	r3, #0
 8004d8c:	d1e5      	bne.n	8004d5a <UART_DMAReceiveCplt+0x56>
 8004d8e:	6efb      	ldr	r3, [r7, #108]	@ 0x6c
 8004d90:	681b      	ldr	r3, [r3, #0]
 8004d92:	3314      	adds	r3, #20
 8004d94:	627b      	str	r3, [r7, #36]	@ 0x24
 8004d96:	6a7b      	ldr	r3, [r7, #36]	@ 0x24
 8004d98:	e853 3f00 	ldrex	r3, [r3]
 8004d9c:	623b      	str	r3, [r7, #32]
 8004d9e:	6a3b      	ldr	r3, [r7, #32]
 8004da0:	f023 0340 	bic.w	r3, r3, #64	@ 0x40
 8004da4:	663b      	str	r3, [r7, #96]	@ 0x60
 8004da6:	6efb      	ldr	r3, [r7, #108]	@ 0x6c
 8004da8:	681b      	ldr	r3, [r3, #0]
 8004daa:	3314      	adds	r3, #20
 8004dac:	6e3a      	ldr	r2, [r7, #96]	@ 0x60
 8004dae:	633a      	str	r2, [r7, #48]	@ 0x30
 8004db0:	62fb      	str	r3, [r7, #44]	@ 0x2c
 8004db2:	6af9      	ldr	r1, [r7, #44]	@ 0x2c
 8004db4:	6b3a      	ldr	r2, [r7, #48]	@ 0x30
 8004db6:	e841 2300 	strex	r3, r2, [r1]
 8004dba:	62bb      	str	r3, [r7, #40]	@ 0x28
 8004dbc:	6abb      	ldr	r3, [r7, #40]	@ 0x28
 8004dbe:	2b00      	cmp	r3, #0
 8004dc0:	d1e5      	bne.n	8004d8e <UART_DMAReceiveCplt+0x8a>
 8004dc2:	6efb      	ldr	r3, [r7, #108]	@ 0x6c
 8004dc4:	2220      	movs	r2, #32
 8004dc6:	f883 2042 	strb.w	r2, [r3, #66]	@ 0x42
 8004dca:	6efb      	ldr	r3, [r7, #108]	@ 0x6c
 8004dcc:	6b1b      	ldr	r3, [r3, #48]	@ 0x30
 8004dce:	2b01      	cmp	r3, #1
 8004dd0:	d119      	bne.n	8004e06 <UART_DMAReceiveCplt+0x102>
 8004dd2:	6efb      	ldr	r3, [r7, #108]	@ 0x6c
 8004dd4:	681b      	ldr	r3, [r3, #0]
 8004dd6:	330c      	adds	r3, #12
 8004dd8:	613b      	str	r3, [r7, #16]
 8004dda:	693b      	ldr	r3, [r7, #16]
 8004ddc:	e853 3f00 	ldrex	r3, [r3]
 8004de0:	60fb      	str	r3, [r7, #12]
 8004de2:	68fb      	ldr	r3, [r7, #12]
 8004de4:	f023 0310 	bic.w	r3, r3, #16
 8004de8:	65fb      	str	r3, [r7, #92]	@ 0x5c
 8004dea:	6efb      	ldr	r3, [r7, #108]	@ 0x6c
 8004dec:	681b      	ldr	r3, [r3, #0]
 8004dee:	330c      	adds	r3, #12
 8004df0:	6dfa      	ldr	r2, [r7, #92]	@ 0x5c
 8004df2:	61fa      	str	r2, [r7, #28]
 8004df4:	61bb      	str	r3, [r7, #24]
 8004df6:	69b9      	ldr	r1, [r7, #24]
 8004df8:	69fa      	ldr	r2, [r7, #28]
 8004dfa:	e841 2300 	strex	r3, r2, [r1]
 8004dfe:	617b      	str	r3, [r7, #20]
 8004e00:	697b      	ldr	r3, [r7, #20]
 8004e02:	2b00      	cmp	r3, #0
 8004e04:	d1e5      	bne.n	8004dd2 <UART_DMAReceiveCplt+0xce>
 8004e06:	6efb      	ldr	r3, [r7, #108]	@ 0x6c
 8004e08:	2200      	movs	r2, #0
 8004e0a:	635a      	str	r2, [r3, #52]	@ 0x34
 8004e0c:	6efb      	ldr	r3, [r7, #108]	@ 0x6c
 8004e0e:	6b1b      	ldr	r3, [r3, #48]	@ 0x30
 8004e10:	2b01      	cmp	r3, #1
 8004e12:	d106      	bne.n	8004e22 <UART_DMAReceiveCplt+0x11e>
 8004e14:	6efb      	ldr	r3, [r7, #108]	@ 0x6c
 8004e16:	8d9b      	ldrh	r3, [r3, #44]	@ 0x2c
 8004e18:	4619      	mov	r1, r3
 8004e1a:	6ef8      	ldr	r0, [r7, #108]	@ 0x6c
 8004e1c:	f7ff ff0c 	bl	8004c38 <HAL_UARTEx_RxEventCallback>
 8004e20:	e002      	b.n	8004e28 <UART_DMAReceiveCplt+0x124>
 8004e22:	6ef8      	ldr	r0, [r7, #108]	@ 0x6c
 8004e24:	f7fb fd2e 	bl	8000884 <HAL_UART_RxCpltCallback>
 8004e28:	bf00      	nop
 8004e2a:	3770      	adds	r7, #112	@ 0x70
 8004e2c:	46bd      	mov	sp, r7
 8004e2e:	bd80      	pop	{r7, pc}

08004e30 <UART_DMARxHalfCplt>:
 8004e30:	b580      	push	{r7, lr}
 8004e32:	b084      	sub	sp, #16
 8004e34:	af00      	add	r7, sp, #0
 8004e36:	6078      	str	r0, [r7, #4]
 8004e38:	687b      	ldr	r3, [r7, #4]
 8004e3a:	6a5b      	ldr	r3, [r3, #36]	@ 0x24
 8004e3c:	60fb      	str	r3, [r7, #12]
 8004e3e:	68fb      	ldr	r3, [r7, #12]
 8004e40:	2201      	movs	r2, #1
 8004e42:	635a      	str	r2, [r3, #52]	@ 0x34
 8004e44:	68fb      	ldr	r3, [r7, #12]
 8004e46:	6b1b      	ldr	r3, [r3, #48]	@ 0x30
 8004e48:	2b01      	cmp	r3, #1
 8004e4a:	d108      	bne.n	8004e5e <UART_DMARxHalfCplt+0x2e>
 8004e4c:	68fb      	ldr	r3, [r7, #12]
 8004e4e:	8d9b      	ldrh	r3, [r3, #44]	@ 0x2c
 8004e50:	085b      	lsrs	r3, r3, #1
 8004e52:	b29b      	uxth	r3, r3
 8004e54:	4619      	mov	r1, r3
 8004e56:	68f8      	ldr	r0, [r7, #12]
 8004e58:	f7ff feee 	bl	8004c38 <HAL_UARTEx_RxEventCallback>
 8004e5c:	e002      	b.n	8004e64 <UART_DMARxHalfCplt+0x34>
 8004e5e:	68f8      	ldr	r0, [r7, #12]
 8004e60:	f7ff fed8 	bl	8004c14 <HAL_UART_RxHalfCpltCallback>
 8004e64:	bf00      	nop
 8004e66:	3710      	adds	r7, #16
 8004e68:	46bd      	mov	sp, r7
 8004e6a:	bd80      	pop	{r7, pc}

08004e6c <UART_DMAError>:
 8004e6c:	b580      	push	{r7, lr}
 8004e6e:	b084      	sub	sp, #16
 8004e70:	af00      	add	r7, sp, #0
 8004e72:	6078      	str	r0, [r7, #4]
 8004e74:	2300      	movs	r3, #0
 8004e76:	60fb      	str	r3, [r7, #12]
 8004e78:	687b      	ldr	r3, [r7, #4]
 8004e7a:	6a5b      	ldr	r3, [r3, #36]	@ 0x24
 8004e7c:	60bb      	str	r3, [r7, #8]
 8004e7e:	68bb      	ldr	r3, [r7, #8]
 8004e80:	681b      	ldr	r3, [r3, #0]
 8004e82:	695b      	ldr	r3, [r3, #20]
 8004e84:	f003 0380 	and.w	r3, r3, #128	@ 0x80
 8004e88:	2b00      	cmp	r3, #0
 8004e8a:	bf14      	ite	ne
 8004e8c:	2301      	movne	r3, #1
 8004e8e:	2300      	moveq	r3, #0
 8004e90:	b2db      	uxtb	r3, r3
 8004e92:	60fb      	str	r3, [r7, #12]
 8004e94:	68bb      	ldr	r3, [r7, #8]
 8004e96:	f893 3041 	ldrb.w	r3, [r3, #65]	@ 0x41
 8004e9a:	b2db      	uxtb	r3, r3
 8004e9c:	2b21      	cmp	r3, #33	@ 0x21
 8004e9e:	d108      	bne.n	8004eb2 <UART_DMAError+0x46>
 8004ea0:	68fb      	ldr	r3, [r7, #12]
 8004ea2:	2b00      	cmp	r3, #0
 8004ea4:	d005      	beq.n	8004eb2 <UART_DMAError+0x46>
 8004ea6:	68bb      	ldr	r3, [r7, #8]
 8004ea8:	2200      	movs	r2, #0
 8004eaa:	84da      	strh	r2, [r3, #38]	@ 0x26
 8004eac:	68b8      	ldr	r0, [r7, #8]
 8004eae:	f000 f92f 	bl	8005110 <UART_EndTxTransfer>
 8004eb2:	68bb      	ldr	r3, [r7, #8]
 8004eb4:	681b      	ldr	r3, [r3, #0]
 8004eb6:	695b      	ldr	r3, [r3, #20]
 8004eb8:	f003 0340 	and.w	r3, r3, #64	@ 0x40
 8004ebc:	2b00      	cmp	r3, #0
 8004ebe:	bf14      	ite	ne
 8004ec0:	2301      	movne	r3, #1
 8004ec2:	2300      	moveq	r3, #0
 8004ec4:	b2db      	uxtb	r3, r3
 8004ec6:	60fb      	str	r3, [r7, #12]
 8004ec8:	68bb      	ldr	r3, [r7, #8]
 8004eca:	f893 3042 	ldrb.w	r3, [r3, #66]	@ 0x42
 8004ece:	b2db      	uxtb	r3, r3
 8004ed0:	2b22      	cmp	r3, #34	@ 0x22
 8004ed2:	d108      	bne.n	8004ee6 <UART_DMAError+0x7a>
 8004ed4:	68fb      	ldr	r3, [r7, #12]
 8004ed6:	2b00      	cmp	r3, #0
 8004ed8:	d005      	beq.n	8004ee6 <UART_DMAError+0x7a>
 8004eda:	68bb      	ldr	r3, [r7, #8]
 8004edc:	2200      	movs	r2, #0
 8004ede:	85da      	strh	r2, [r3, #46]	@ 0x2e
 8004ee0:	68b8      	ldr	r0, [r7, #8]
 8004ee2:	f000 f93c 	bl	800515e <UART_EndRxTransfer>
 8004ee6:	68bb      	ldr	r3, [r7, #8]
 8004ee8:	6c5b      	ldr	r3, [r3, #68]	@ 0x44
 8004eea:	f043 0210 	orr.w	r2, r3, #16
 8004eee:	68bb      	ldr	r3, [r7, #8]
 8004ef0:	645a      	str	r2, [r3, #68]	@ 0x44
 8004ef2:	68b8      	ldr	r0, [r7, #8]
 8004ef4:	f7ff fe97 	bl	8004c26 <HAL_UART_ErrorCallback>
 8004ef8:	bf00      	nop
 8004efa:	3710      	adds	r7, #16
 8004efc:	46bd      	mov	sp, r7
 8004efe:	bd80      	pop	{r7, pc}

08004f00 <UART_WaitOnFlagUntilTimeout>:
 8004f00:	b580      	push	{r7, lr}
 8004f02:	b090      	sub	sp, #64	@ 0x40
 8004f04:	af00      	add	r7, sp, #0
 8004f06:	60f8      	str	r0, [r7, #12]
 8004f08:	60b9      	str	r1, [r7, #8]
 8004f0a:	603b      	str	r3, [r7, #0]
 8004f0c:	4613      	mov	r3, r2
 8004f0e:	71fb      	strb	r3, [r7, #7]
 8004f10:	e050      	b.n	8004fb4 <UART_WaitOnFlagUntilTimeout+0xb4>
 8004f12:	6cbb      	ldr	r3, [r7, #72]	@ 0x48
 8004f14:	f1b3 3fff 	cmp.w	r3, #4294967295
 8004f18:	d04c      	beq.n	8004fb4 <UART_WaitOnFlagUntilTimeout+0xb4>
 8004f1a:	6cbb      	ldr	r3, [r7, #72]	@ 0x48
 8004f1c:	2b00      	cmp	r3, #0
 8004f1e:	d007      	beq.n	8004f30 <UART_WaitOnFlagUntilTimeout+0x30>
 8004f20:	f7fc fa1c 	bl	800135c <HAL_GetTick>
 8004f24:	4602      	mov	r2, r0
 8004f26:	683b      	ldr	r3, [r7, #0]
 8004f28:	1ad3      	subs	r3, r2, r3
 8004f2a:	6cba      	ldr	r2, [r7, #72]	@ 0x48
 8004f2c:	429a      	cmp	r2, r3
 8004f2e:	d241      	bcs.n	8004fb4 <UART_WaitOnFlagUntilTimeout+0xb4>
 8004f30:	68fb      	ldr	r3, [r7, #12]
 8004f32:	681b      	ldr	r3, [r3, #0]
 8004f34:	330c      	adds	r3, #12
 8004f36:	62bb      	str	r3, [r7, #40]	@ 0x28
 8004f38:	6abb      	ldr	r3, [r7, #40]	@ 0x28
 8004f3a:	e853 3f00 	ldrex	r3, [r3]
 8004f3e:	627b      	str	r3, [r7, #36]	@ 0x24
 8004f40:	6a7b      	ldr	r3, [r7, #36]	@ 0x24
 8004f42:	f423 73d0 	bic.w	r3, r3, #416	@ 0x1a0
 8004f46:	63fb      	str	r3, [r7, #60]	@ 0x3c
 8004f48:	68fb      	ldr	r3, [r7, #12]
 8004f4a:	681b      	ldr	r3, [r3, #0]
 8004f4c:	330c      	adds	r3, #12
 8004f4e:	6bfa      	ldr	r2, [r7, #60]	@ 0x3c
 8004f50:	637a      	str	r2, [r7, #52]	@ 0x34
 8004f52:	633b      	str	r3, [r7, #48]	@ 0x30
 8004f54:	6b39      	ldr	r1, [r7, #48]	@ 0x30
 8004f56:	6b7a      	ldr	r2, [r7, #52]	@ 0x34
 8004f58:	e841 2300 	strex	r3, r2, [r1]
 8004f5c:	62fb      	str	r3, [r7, #44]	@ 0x2c
 8004f5e:	6afb      	ldr	r3, [r7, #44]	@ 0x2c
 8004f60:	2b00      	cmp	r3, #0
 8004f62:	d1e5      	bne.n	8004f30 <UART_WaitOnFlagUntilTimeout+0x30>
 8004f64:	68fb      	ldr	r3, [r7, #12]
 8004f66:	681b      	ldr	r3, [r3, #0]
 8004f68:	3314      	adds	r3, #20
 8004f6a:	617b      	str	r3, [r7, #20]
 8004f6c:	697b      	ldr	r3, [r7, #20]
 8004f6e:	e853 3f00 	ldrex	r3, [r3]
 8004f72:	613b      	str	r3, [r7, #16]
 8004f74:	693b      	ldr	r3, [r7, #16]
 8004f76:	f023 0301 	bic.w	r3, r3, #1
 8004f7a:	63bb      	str	r3, [r7, #56]	@ 0x38
 8004f7c:	68fb      	ldr	r3, [r7, #12]
 8004f7e:	681b      	ldr	r3, [r3, #0]
 8004f80:	3314      	adds	r3, #20
 8004f82:	6bba      	ldr	r2, [r7, #56]	@ 0x38
 8004f84:	623a      	str	r2, [r7, #32]
 8004f86:	61fb      	str	r3, [r7, #28]
 8004f88:	69f9      	ldr	r1, [r7, #28]
 8004f8a:	6a3a      	ldr	r2, [r7, #32]
 8004f8c:	e841 2300 	strex	r3, r2, [r1]
 8004f90:	61bb      	str	r3, [r7, #24]
 8004f92:	69bb      	ldr	r3, [r7, #24]
 8004f94:	2b00      	cmp	r3, #0
 8004f96:	d1e5      	bne.n	8004f64 <UART_WaitOnFlagUntilTimeout+0x64>
 8004f98:	68fb      	ldr	r3, [r7, #12]
 8004f9a:	2220      	movs	r2, #32
 8004f9c:	f883 2041 	strb.w	r2, [r3, #65]	@ 0x41
 8004fa0:	68fb      	ldr	r3, [r7, #12]
 8004fa2:	2220      	movs	r2, #32
 8004fa4:	f883 2042 	strb.w	r2, [r3, #66]	@ 0x42
 8004fa8:	68fb      	ldr	r3, [r7, #12]
 8004faa:	2200      	movs	r2, #0
 8004fac:	f883 2040 	strb.w	r2, [r3, #64]	@ 0x40
 8004fb0:	2303      	movs	r3, #3
 8004fb2:	e00f      	b.n	8004fd4 <UART_WaitOnFlagUntilTimeout+0xd4>
 8004fb4:	68fb      	ldr	r3, [r7, #12]
 8004fb6:	681b      	ldr	r3, [r3, #0]
 8004fb8:	681a      	ldr	r2, [r3, #0]
 8004fba:	68bb      	ldr	r3, [r7, #8]
 8004fbc:	4013      	ands	r3, r2
 8004fbe:	68ba      	ldr	r2, [r7, #8]
 8004fc0:	429a      	cmp	r2, r3
 8004fc2:	bf0c      	ite	eq
 8004fc4:	2301      	moveq	r3, #1
 8004fc6:	2300      	movne	r3, #0
 8004fc8:	b2db      	uxtb	r3, r3
 8004fca:	461a      	mov	r2, r3
 8004fcc:	79fb      	ldrb	r3, [r7, #7]
 8004fce:	429a      	cmp	r2, r3
 8004fd0:	d09f      	beq.n	8004f12 <UART_WaitOnFlagUntilTimeout+0x12>
 8004fd2:	2300      	movs	r3, #0
 8004fd4:	4618      	mov	r0, r3
 8004fd6:	3740      	adds	r7, #64	@ 0x40
 8004fd8:	46bd      	mov	sp, r7
 8004fda:	bd80      	pop	{r7, pc}

08004fdc <UART_Start_Receive_DMA>:
 8004fdc:	b580      	push	{r7, lr}
 8004fde:	b098      	sub	sp, #96	@ 0x60
 8004fe0:	af00      	add	r7, sp, #0
 8004fe2:	60f8      	str	r0, [r7, #12]
 8004fe4:	60b9      	str	r1, [r7, #8]
 8004fe6:	4613      	mov	r3, r2
 8004fe8:	80fb      	strh	r3, [r7, #6]
 8004fea:	68ba      	ldr	r2, [r7, #8]
 8004fec:	68fb      	ldr	r3, [r7, #12]
 8004fee:	629a      	str	r2, [r3, #40]	@ 0x28
 8004ff0:	68fb      	ldr	r3, [r7, #12]
 8004ff2:	88fa      	ldrh	r2, [r7, #6]
 8004ff4:	859a      	strh	r2, [r3, #44]	@ 0x2c
 8004ff6:	68fb      	ldr	r3, [r7, #12]
 8004ff8:	2200      	movs	r2, #0
 8004ffa:	645a      	str	r2, [r3, #68]	@ 0x44
 8004ffc:	68fb      	ldr	r3, [r7, #12]
 8004ffe:	2222      	movs	r2, #34	@ 0x22
 8005000:	f883 2042 	strb.w	r2, [r3, #66]	@ 0x42
 8005004:	68fb      	ldr	r3, [r7, #12]
 8005006:	6bdb      	ldr	r3, [r3, #60]	@ 0x3c
 8005008:	4a3e      	ldr	r2, [pc, #248]	@ (8005104 <UART_Start_Receive_DMA+0x128>)
 800500a:	629a      	str	r2, [r3, #40]	@ 0x28
 800500c:	68fb      	ldr	r3, [r7, #12]
 800500e:	6bdb      	ldr	r3, [r3, #60]	@ 0x3c
 8005010:	4a3d      	ldr	r2, [pc, #244]	@ (8005108 <UART_Start_Receive_DMA+0x12c>)
 8005012:	62da      	str	r2, [r3, #44]	@ 0x2c
 8005014:	68fb      	ldr	r3, [r7, #12]
 8005016:	6bdb      	ldr	r3, [r3, #60]	@ 0x3c
 8005018:	4a3c      	ldr	r2, [pc, #240]	@ (800510c <UART_Start_Receive_DMA+0x130>)
 800501a:	631a      	str	r2, [r3, #48]	@ 0x30
 800501c:	68fb      	ldr	r3, [r7, #12]
 800501e:	6bdb      	ldr	r3, [r3, #60]	@ 0x3c
 8005020:	2200      	movs	r2, #0
 8005022:	635a      	str	r2, [r3, #52]	@ 0x34
 8005024:	f107 0308 	add.w	r3, r7, #8
 8005028:	65fb      	str	r3, [r7, #92]	@ 0x5c
 800502a:	68fb      	ldr	r3, [r7, #12]
 800502c:	6bd8      	ldr	r0, [r3, #60]	@ 0x3c
 800502e:	68fb      	ldr	r3, [r7, #12]
 8005030:	681b      	ldr	r3, [r3, #0]
 8005032:	3304      	adds	r3, #4
 8005034:	4619      	mov	r1, r3
 8005036:	6dfb      	ldr	r3, [r7, #92]	@ 0x5c
 8005038:	681a      	ldr	r2, [r3, #0]
 800503a:	88fb      	ldrh	r3, [r7, #6]
 800503c:	f7fc fb24 	bl	8001688 <HAL_DMA_Start_IT>
 8005040:	2300      	movs	r3, #0
 8005042:	613b      	str	r3, [r7, #16]
 8005044:	68fb      	ldr	r3, [r7, #12]
 8005046:	681b      	ldr	r3, [r3, #0]
 8005048:	681b      	ldr	r3, [r3, #0]
 800504a:	613b      	str	r3, [r7, #16]
 800504c:	68fb      	ldr	r3, [r7, #12]
 800504e:	681b      	ldr	r3, [r3, #0]
 8005050:	685b      	ldr	r3, [r3, #4]
 8005052:	613b      	str	r3, [r7, #16]
 8005054:	693b      	ldr	r3, [r7, #16]
 8005056:	68fb      	ldr	r3, [r7, #12]
 8005058:	691b      	ldr	r3, [r3, #16]
 800505a:	2b00      	cmp	r3, #0
 800505c:	d019      	beq.n	8005092 <UART_Start_Receive_DMA+0xb6>
 800505e:	68fb      	ldr	r3, [r7, #12]
 8005060:	681b      	ldr	r3, [r3, #0]
 8005062:	330c      	adds	r3, #12
 8005064:	643b      	str	r3, [r7, #64]	@ 0x40
 8005066:	6c3b      	ldr	r3, [r7, #64]	@ 0x40
 8005068:	e853 3f00 	ldrex	r3, [r3]
 800506c:	63fb      	str	r3, [r7, #60]	@ 0x3c
 800506e:	6bfb      	ldr	r3, [r7, #60]	@ 0x3c
 8005070:	f443 7380 	orr.w	r3, r3, #256	@ 0x100
 8005074:	65bb      	str	r3, [r7, #88]	@ 0x58
 8005076:	68fb      	ldr	r3, [r7, #12]
 8005078:	681b      	ldr	r3, [r3, #0]
 800507a:	330c      	adds	r3, #12
 800507c:	6dba      	ldr	r2, [r7, #88]	@ 0x58
 800507e:	64fa      	str	r2, [r7, #76]	@ 0x4c
 8005080:	64bb      	str	r3, [r7, #72]	@ 0x48
 8005082:	6cb9      	ldr	r1, [r7, #72]	@ 0x48
 8005084:	6cfa      	ldr	r2, [r7, #76]	@ 0x4c
 8005086:	e841 2300 	strex	r3, r2, [r1]
 800508a:	647b      	str	r3, [r7, #68]	@ 0x44
 800508c:	6c7b      	ldr	r3, [r7, #68]	@ 0x44
 800508e:	2b00      	cmp	r3, #0
 8005090:	d1e5      	bne.n	800505e <UART_Start_Receive_DMA+0x82>
 8005092:	68fb      	ldr	r3, [r7, #12]
 8005094:	681b      	ldr	r3, [r3, #0]
 8005096:	3314      	adds	r3, #20
 8005098:	62fb      	str	r3, [r7, #44]	@ 0x2c
 800509a:	6afb      	ldr	r3, [r7, #44]	@ 0x2c
 800509c:	e853 3f00 	ldrex	r3, [r3]
 80050a0:	62bb      	str	r3, [r7, #40]	@ 0x28
 80050a2:	6abb      	ldr	r3, [r7, #40]	@ 0x28
 80050a4:	f043 0301 	orr.w	r3, r3, #1
 80050a8:	657b      	str	r3, [r7, #84]	@ 0x54
 80050aa:	68fb      	ldr	r3, [r7, #12]
 80050ac:	681b      	ldr	r3, [r3, #0]
 80050ae:	3314      	adds	r3, #20
 80050b0:	6d7a      	ldr	r2, [r7, #84]	@ 0x54
 80050b2:	63ba      	str	r2, [r7, #56]	@ 0x38
 80050b4:	637b      	str	r3, [r7, #52]	@ 0x34
 80050b6:	6b79      	ldr	r1, [r7, #52]	@ 0x34
 80050b8:	6bba      	ldr	r2, [r7, #56]	@ 0x38
 80050ba:	e841 2300 	strex	r3, r2, [r1]
 80050be:	633b      	str	r3, [r7, #48]	@ 0x30
 80050c0:	6b3b      	ldr	r3, [r7, #48]	@ 0x30
 80050c2:	2b00      	cmp	r3, #0
 80050c4:	d1e5      	bne.n	8005092 <UART_Start_Receive_DMA+0xb6>
 80050c6:	68fb      	ldr	r3, [r7, #12]
 80050c8:	681b      	ldr	r3, [r3, #0]
 80050ca:	3314      	adds	r3, #20
 80050cc:	61bb      	str	r3, [r7, #24]
 80050ce:	69bb      	ldr	r3, [r7, #24]
 80050d0:	e853 3f00 	ldrex	r3, [r3]
 80050d4:	617b      	str	r3, [r7, #20]
 80050d6:	697b      	ldr	r3, [r7, #20]
 80050d8:	f043 0340 	orr.w	r3, r3, #64	@ 0x40
 80050dc:	653b      	str	r3, [r7, #80]	@ 0x50
 80050de:	68fb      	ldr	r3, [r7, #12]
 80050e0:	681b      	ldr	r3, [r3, #0]
 80050e2:	3314      	adds	r3, #20
 80050e4:	6d3a      	ldr	r2, [r7, #80]	@ 0x50
 80050e6:	627a      	str	r2, [r7, #36]	@ 0x24
 80050e8:	623b      	str	r3, [r7, #32]
 80050ea:	6a39      	ldr	r1, [r7, #32]
 80050ec:	6a7a      	ldr	r2, [r7, #36]	@ 0x24
 80050ee:	e841 2300 	strex	r3, r2, [r1]
 80050f2:	61fb      	str	r3, [r7, #28]
 80050f4:	69fb      	ldr	r3, [r7, #28]
 80050f6:	2b00      	cmp	r3, #0
 80050f8:	d1e5      	bne.n	80050c6 <UART_Start_Receive_DMA+0xea>
 80050fa:	2300      	movs	r3, #0
 80050fc:	4618      	mov	r0, r3
 80050fe:	3760      	adds	r7, #96	@ 0x60
 8005100:	46bd      	mov	sp, r7
 8005102:	bd80      	pop	{r7, pc}
 8005104:	08004d05 	.word	0x08004d05
 8005108:	08004e31 	.word	0x08004e31
 800510c:	08004e6d 	.word	0x08004e6d

08005110 <UART_EndTxTransfer>:
 8005110:	b480      	push	{r7}
 8005112:	b089      	sub	sp, #36	@ 0x24
 8005114:	af00      	add	r7, sp, #0
 8005116:	6078      	str	r0, [r7, #4]
 8005118:	687b      	ldr	r3, [r7, #4]
 800511a:	681b      	ldr	r3, [r3, #0]
 800511c:	330c      	adds	r3, #12
 800511e:	60fb      	str	r3, [r7, #12]
 8005120:	68fb      	ldr	r3, [r7, #12]
 8005122:	e853 3f00 	ldrex	r3, [r3]
 8005126:	60bb      	str	r3, [r7, #8]
 8005128:	68bb      	ldr	r3, [r7, #8]
 800512a:	f023 03c0 	bic.w	r3, r3, #192	@ 0xc0
 800512e:	61fb      	str	r3, [r7, #28]
 8005130:	687b      	ldr	r3, [r7, #4]
 8005132:	681b      	ldr	r3, [r3, #0]
 8005134:	330c      	adds	r3, #12
 8005136:	69fa      	ldr	r2, [r7, #28]
 8005138:	61ba      	str	r2, [r7, #24]
 800513a:	617b      	str	r3, [r7, #20]
 800513c:	6979      	ldr	r1, [r7, #20]
 800513e:	69ba      	ldr	r2, [r7, #24]
 8005140:	e841 2300 	strex	r3, r2, [r1]
 8005144:	613b      	str	r3, [r7, #16]
 8005146:	693b      	ldr	r3, [r7, #16]
 8005148:	2b00      	cmp	r3, #0
 800514a:	d1e5      	bne.n	8005118 <UART_EndTxTransfer+0x8>
 800514c:	687b      	ldr	r3, [r7, #4]
 800514e:	2220      	movs	r2, #32
 8005150:	f883 2041 	strb.w	r2, [r3, #65]	@ 0x41
 8005154:	bf00      	nop
 8005156:	3724      	adds	r7, #36	@ 0x24
 8005158:	46bd      	mov	sp, r7
 800515a:	bc80      	pop	{r7}
 800515c:	4770      	bx	lr

0800515e <UART_EndRxTransfer>:
 800515e:	b480      	push	{r7}
 8005160:	b095      	sub	sp, #84	@ 0x54
 8005162:	af00      	add	r7, sp, #0
 8005164:	6078      	str	r0, [r7, #4]
 8005166:	687b      	ldr	r3, [r7, #4]
 8005168:	681b      	ldr	r3, [r3, #0]
 800516a:	330c      	adds	r3, #12
 800516c:	637b      	str	r3, [r7, #52]	@ 0x34
 800516e:	6b7b      	ldr	r3, [r7, #52]	@ 0x34
 8005170:	e853 3f00 	ldrex	r3, [r3]
 8005174:	633b      	str	r3, [r7, #48]	@ 0x30
 8005176:	6b3b      	ldr	r3, [r7, #48]	@ 0x30
 8005178:	f423 7390 	bic.w	r3, r3, #288	@ 0x120
 800517c:	64fb      	str	r3, [r7, #76]	@ 0x4c
 800517e:	687b      	ldr	r3, [r7, #4]
 8005180:	681b      	ldr	r3, [r3, #0]
 8005182:	330c      	adds	r3, #12
 8005184:	6cfa      	ldr	r2, [r7, #76]	@ 0x4c
 8005186:	643a      	str	r2, [r7, #64]	@ 0x40
 8005188:	63fb      	str	r3, [r7, #60]	@ 0x3c
 800518a:	6bf9      	ldr	r1, [r7, #60]	@ 0x3c
 800518c:	6c3a      	ldr	r2, [r7, #64]	@ 0x40
 800518e:	e841 2300 	strex	r3, r2, [r1]
 8005192:	63bb      	str	r3, [r7, #56]	@ 0x38
 8005194:	6bbb      	ldr	r3, [r7, #56]	@ 0x38
 8005196:	2b00      	cmp	r3, #0
 8005198:	d1e5      	bne.n	8005166 <UART_EndRxTransfer+0x8>
 800519a:	687b      	ldr	r3, [r7, #4]
 800519c:	681b      	ldr	r3, [r3, #0]
 800519e:	3314      	adds	r3, #20
 80051a0:	623b      	str	r3, [r7, #32]
 80051a2:	6a3b      	ldr	r3, [r7, #32]
 80051a4:	e853 3f00 	ldrex	r3, [r3]
 80051a8:	61fb      	str	r3, [r7, #28]
 80051aa:	69fb      	ldr	r3, [r7, #28]
 80051ac:	f023 0301 	bic.w	r3, r3, #1
 80051b0:	64bb      	str	r3, [r7, #72]	@ 0x48
 80051b2:	687b      	ldr	r3, [r7, #4]
 80051b4:	681b      	ldr	r3, [r3, #0]
 80051b6:	3314      	adds	r3, #20
 80051b8:	6cba      	ldr	r2, [r7, #72]	@ 0x48
 80051ba:	62fa      	str	r2, [r7, #44]	@ 0x2c
 80051bc:	62bb      	str	r3, [r7, #40]	@ 0x28
 80051be:	6ab9      	ldr	r1, [r7, #40]	@ 0x28
 80051c0:	6afa      	ldr	r2, [r7, #44]	@ 0x2c
 80051c2:	e841 2300 	strex	r3, r2, [r1]
 80051c6:	627b      	str	r3, [r7, #36]	@ 0x24
 80051c8:	6a7b      	ldr	r3, [r7, #36]	@ 0x24
 80051ca:	2b00      	cmp	r3, #0
 80051cc:	d1e5      	bne.n	800519a <UART_EndRxTransfer+0x3c>
 80051ce:	687b      	ldr	r3, [r7, #4]
 80051d0:	6b1b      	ldr	r3, [r3, #48]	@ 0x30
 80051d2:	2b01      	cmp	r3, #1
 80051d4:	d119      	bne.n	800520a <UART_EndRxTransfer+0xac>
 80051d6:	687b      	ldr	r3, [r7, #4]
 80051d8:	681b      	ldr	r3, [r3, #0]
 80051da:	330c      	adds	r3, #12
 80051dc:	60fb      	str	r3, [r7, #12]
 80051de:	68fb      	ldr	r3, [r7, #12]
 80051e0:	e853 3f00 	ldrex	r3, [r3]
 80051e4:	60bb      	str	r3, [r7, #8]
 80051e6:	68bb      	ldr	r3, [r7, #8]
 80051e8:	f023 0310 	bic.w	r3, r3, #16
 80051ec:	647b      	str	r3, [r7, #68]	@ 0x44
 80051ee:	687b      	ldr	r3, [r7, #4]
 80051f0:	681b      	ldr	r3, [r3, #0]
 80051f2:	330c      	adds	r3, #12
 80051f4:	6c7a      	ldr	r2, [r7, #68]	@ 0x44
 80051f6:	61ba      	str	r2, [r7, #24]
 80051f8:	617b      	str	r3, [r7, #20]
 80051fa:	6979      	ldr	r1, [r7, #20]
 80051fc:	69ba      	ldr	r2, [r7, #24]
 80051fe:	e841 2300 	strex	r3, r2, [r1]
 8005202:	613b      	str	r3, [r7, #16]
 8005204:	693b      	ldr	r3, [r7, #16]
 8005206:	2b00      	cmp	r3, #0
 8005208:	d1e5      	bne.n	80051d6 <UART_EndRxTransfer+0x78>
 800520a:	687b      	ldr	r3, [r7, #4]
 800520c:	2220      	movs	r2, #32
 800520e:	f883 2042 	strb.w	r2, [r3, #66]	@ 0x42
 8005212:	687b      	ldr	r3, [r7, #4]
 8005214:	2200      	movs	r2, #0
 8005216:	631a      	str	r2, [r3, #48]	@ 0x30
 8005218:	bf00      	nop
 800521a:	3754      	adds	r7, #84	@ 0x54
 800521c:	46bd      	mov	sp, r7
 800521e:	bc80      	pop	{r7}
 8005220:	4770      	bx	lr

08005222 <UART_DMAAbortOnError>:
 8005222:	b580      	push	{r7, lr}
 8005224:	b084      	sub	sp, #16
 8005226:	af00      	add	r7, sp, #0
 8005228:	6078      	str	r0, [r7, #4]
 800522a:	687b      	ldr	r3, [r7, #4]
 800522c:	6a5b      	ldr	r3, [r3, #36]	@ 0x24
 800522e:	60fb      	str	r3, [r7, #12]
 8005230:	68fb      	ldr	r3, [r7, #12]
 8005232:	2200      	movs	r2, #0
 8005234:	85da      	strh	r2, [r3, #46]	@ 0x2e
 8005236:	68fb      	ldr	r3, [r7, #12]
 8005238:	2200      	movs	r2, #0
 800523a:	84da      	strh	r2, [r3, #38]	@ 0x26
 800523c:	68f8      	ldr	r0, [r7, #12]
 800523e:	f7ff fcf2 	bl	8004c26 <HAL_UART_ErrorCallback>
 8005242:	bf00      	nop
 8005244:	3710      	adds	r7, #16
 8005246:	46bd      	mov	sp, r7
 8005248:	bd80      	pop	{r7, pc}

0800524a <UART_Transmit_IT>:
 800524a:	b480      	push	{r7}
 800524c:	b085      	sub	sp, #20
 800524e:	af00      	add	r7, sp, #0
 8005250:	6078      	str	r0, [r7, #4]
 8005252:	687b      	ldr	r3, [r7, #4]
 8005254:	f893 3041 	ldrb.w	r3, [r3, #65]	@ 0x41
 8005258:	b2db      	uxtb	r3, r3
 800525a:	2b21      	cmp	r3, #33	@ 0x21
 800525c:	d13e      	bne.n	80052dc <UART_Transmit_IT+0x92>
 800525e:	687b      	ldr	r3, [r7, #4]
 8005260:	689b      	ldr	r3, [r3, #8]
 8005262:	f5b3 5f80 	cmp.w	r3, #4096	@ 0x1000
 8005266:	d114      	bne.n	8005292 <UART_Transmit_IT+0x48>
 8005268:	687b      	ldr	r3, [r7, #4]
 800526a:	691b      	ldr	r3, [r3, #16]
 800526c:	2b00      	cmp	r3, #0
 800526e:	d110      	bne.n	8005292 <UART_Transmit_IT+0x48>
 8005270:	687b      	ldr	r3, [r7, #4]
 8005272:	6a1b      	ldr	r3, [r3, #32]
 8005274:	60fb      	str	r3, [r7, #12]
 8005276:	68fb      	ldr	r3, [r7, #12]
 8005278:	881b      	ldrh	r3, [r3, #0]
 800527a:	461a      	mov	r2, r3
 800527c:	687b      	ldr	r3, [r7, #4]
 800527e:	681b      	ldr	r3, [r3, #0]
 8005280:	f3c2 0208 	ubfx	r2, r2, #0, #9
 8005284:	605a      	str	r2, [r3, #4]
 8005286:	687b      	ldr	r3, [r7, #4]
 8005288:	6a1b      	ldr	r3, [r3, #32]
 800528a:	1c9a      	adds	r2, r3, #2
 800528c:	687b      	ldr	r3, [r7, #4]
 800528e:	621a      	str	r2, [r3, #32]
 8005290:	e008      	b.n	80052a4 <UART_Transmit_IT+0x5a>
 8005292:	687b      	ldr	r3, [r7, #4]
 8005294:	6a1b      	ldr	r3, [r3, #32]
 8005296:	1c59      	adds	r1, r3, #1
 8005298:	687a      	ldr	r2, [r7, #4]
 800529a:	6211      	str	r1, [r2, #32]
 800529c:	781a      	ldrb	r2, [r3, #0]
 800529e:	687b      	ldr	r3, [r7, #4]
 80052a0:	681b      	ldr	r3, [r3, #0]
 80052a2:	605a      	str	r2, [r3, #4]
 80052a4:	687b      	ldr	r3, [r7, #4]
 80052a6:	8cdb      	ldrh	r3, [r3, #38]	@ 0x26
 80052a8:	b29b      	uxth	r3, r3
 80052aa:	3b01      	subs	r3, #1
 80052ac:	b29b      	uxth	r3, r3
 80052ae:	687a      	ldr	r2, [r7, #4]
 80052b0:	4619      	mov	r1, r3
 80052b2:	84d1      	strh	r1, [r2, #38]	@ 0x26
 80052b4:	2b00      	cmp	r3, #0
 80052b6:	d10f      	bne.n	80052d8 <UART_Transmit_IT+0x8e>
 80052b8:	687b      	ldr	r3, [r7, #4]
 80052ba:	681b      	ldr	r3, [r3, #0]
 80052bc:	68da      	ldr	r2, [r3, #12]
 80052be:	687b      	ldr	r3, [r7, #4]
 80052c0:	681b      	ldr	r3, [r3, #0]
 80052c2:	f022 0280 	bic.w	r2, r2, #128	@ 0x80
 80052c6:	60da      	str	r2, [r3, #12]
 80052c8:	687b      	ldr	r3, [r7, #4]
 80052ca:	681b      	ldr	r3, [r3, #0]
 80052cc:	68da      	ldr	r2, [r3, #12]
 80052ce:	687b      	ldr	r3, [r7, #4]
 80052d0:	681b      	ldr	r3, [r3, #0]
 80052d2:	f042 0240 	orr.w	r2, r2, #64	@ 0x40
 80052d6:	60da      	str	r2, [r3, #12]
 80052d8:	2300      	movs	r3, #0
 80052da:	e000      	b.n	80052de <UART_Transmit_IT+0x94>
 80052dc:	2302      	movs	r3, #2
 80052de:	4618      	mov	r0, r3
 80052e0:	3714      	adds	r7, #20
 80052e2:	46bd      	mov	sp, r7
 80052e4:	bc80      	pop	{r7}
 80052e6:	4770      	bx	lr

080052e8 <UART_EndTransmit_IT>:
 80052e8:	b580      	push	{r7, lr}
 80052ea:	b082      	sub	sp, #8
 80052ec:	af00      	add	r7, sp, #0
 80052ee:	6078      	str	r0, [r7, #4]
 80052f0:	687b      	ldr	r3, [r7, #4]
 80052f2:	681b      	ldr	r3, [r3, #0]
 80052f4:	68da      	ldr	r2, [r3, #12]
 80052f6:	687b      	ldr	r3, [r7, #4]
 80052f8:	681b      	ldr	r3, [r3, #0]
 80052fa:	f022 0240 	bic.w	r2, r2, #64	@ 0x40
 80052fe:	60da      	str	r2, [r3, #12]
 8005300:	687b      	ldr	r3, [r7, #4]
 8005302:	2220      	movs	r2, #32
 8005304:	f883 2041 	strb.w	r2, [r3, #65]	@ 0x41
 8005308:	6878      	ldr	r0, [r7, #4]
 800530a:	f7ff fc71 	bl	8004bf0 <HAL_UART_TxCpltCallback>
 800530e:	2300      	movs	r3, #0
 8005310:	4618      	mov	r0, r3
 8005312:	3708      	adds	r7, #8
 8005314:	46bd      	mov	sp, r7
 8005316:	bd80      	pop	{r7, pc}

08005318 <UART_Receive_IT>:
 8005318:	b580      	push	{r7, lr}
 800531a:	b08c      	sub	sp, #48	@ 0x30
 800531c:	af00      	add	r7, sp, #0
 800531e:	6078      	str	r0, [r7, #4]
 8005320:	687b      	ldr	r3, [r7, #4]
 8005322:	f893 3042 	ldrb.w	r3, [r3, #66]	@ 0x42
 8005326:	b2db      	uxtb	r3, r3
 8005328:	2b22      	cmp	r3, #34	@ 0x22
 800532a:	f040 80ae 	bne.w	800548a <UART_Receive_IT+0x172>
 800532e:	687b      	ldr	r3, [r7, #4]
 8005330:	689b      	ldr	r3, [r3, #8]
 8005332:	f5b3 5f80 	cmp.w	r3, #4096	@ 0x1000
 8005336:	d117      	bne.n	8005368 <UART_Receive_IT+0x50>
 8005338:	687b      	ldr	r3, [r7, #4]
 800533a:	691b      	ldr	r3, [r3, #16]
 800533c:	2b00      	cmp	r3, #0
 800533e:	d113      	bne.n	8005368 <UART_Receive_IT+0x50>
 8005340:	2300      	movs	r3, #0
 8005342:	62fb      	str	r3, [r7, #44]	@ 0x2c
 8005344:	687b      	ldr	r3, [r7, #4]
 8005346:	6a9b      	ldr	r3, [r3, #40]	@ 0x28
 8005348:	62bb      	str	r3, [r7, #40]	@ 0x28
 800534a:	687b      	ldr	r3, [r7, #4]
 800534c:	681b      	ldr	r3, [r3, #0]
 800534e:	685b      	ldr	r3, [r3, #4]
 8005350:	b29b      	uxth	r3, r3
 8005352:	f3c3 0308 	ubfx	r3, r3, #0, #9
 8005356:	b29a      	uxth	r2, r3
 8005358:	6abb      	ldr	r3, [r7, #40]	@ 0x28
 800535a:	801a      	strh	r2, [r3, #0]
 800535c:	687b      	ldr	r3, [r7, #4]
 800535e:	6a9b      	ldr	r3, [r3, #40]	@ 0x28
 8005360:	1c9a      	adds	r2, r3, #2
 8005362:	687b      	ldr	r3, [r7, #4]
 8005364:	629a      	str	r2, [r3, #40]	@ 0x28
 8005366:	e026      	b.n	80053b6 <UART_Receive_IT+0x9e>
 8005368:	687b      	ldr	r3, [r7, #4]
 800536a:	6a9b      	ldr	r3, [r3, #40]	@ 0x28
 800536c:	62fb      	str	r3, [r7, #44]	@ 0x2c
 800536e:	2300      	movs	r3, #0
 8005370:	62bb      	str	r3, [r7, #40]	@ 0x28
 8005372:	687b      	ldr	r3, [r7, #4]
 8005374:	689b      	ldr	r3, [r3, #8]
 8005376:	f5b3 5f80 	cmp.w	r3, #4096	@ 0x1000
 800537a:	d007      	beq.n	800538c <UART_Receive_IT+0x74>
 800537c:	687b      	ldr	r3, [r7, #4]
 800537e:	689b      	ldr	r3, [r3, #8]
 8005380:	2b00      	cmp	r3, #0
 8005382:	d10a      	bne.n	800539a <UART_Receive_IT+0x82>
 8005384:	687b      	ldr	r3, [r7, #4]
 8005386:	691b      	ldr	r3, [r3, #16]
 8005388:	2b00      	cmp	r3, #0
 800538a:	d106      	bne.n	800539a <UART_Receive_IT+0x82>
 800538c:	687b      	ldr	r3, [r7, #4]
 800538e:	681b      	ldr	r3, [r3, #0]
 8005390:	685b      	ldr	r3, [r3, #4]
 8005392:	b2da      	uxtb	r2, r3
 8005394:	6afb      	ldr	r3, [r7, #44]	@ 0x2c
 8005396:	701a      	strb	r2, [r3, #0]
 8005398:	e008      	b.n	80053ac <UART_Receive_IT+0x94>
 800539a:	687b      	ldr	r3, [r7, #4]
 800539c:	681b      	ldr	r3, [r3, #0]
 800539e:	685b      	ldr	r3, [r3, #4]
 80053a0:	b2db      	uxtb	r3, r3
 80053a2:	f003 037f 	and.w	r3, r3, #127	@ 0x7f
 80053a6:	b2da      	uxtb	r2, r3
 80053a8:	6afb      	ldr	r3, [r7, #44]	@ 0x2c
 80053aa:	701a      	strb	r2, [r3, #0]
 80053ac:	687b      	ldr	r3, [r7, #4]
 80053ae:	6a9b      	ldr	r3, [r3, #40]	@ 0x28
 80053b0:	1c5a      	adds	r2, r3, #1
 80053b2:	687b      	ldr	r3, [r7, #4]
 80053b4:	629a      	str	r2, [r3, #40]	@ 0x28
 80053b6:	687b      	ldr	r3, [r7, #4]
 80053b8:	8ddb      	ldrh	r3, [r3, #46]	@ 0x2e
 80053ba:	b29b      	uxth	r3, r3
 80053bc:	3b01      	subs	r3, #1
 80053be:	b29b      	uxth	r3, r3
 80053c0:	687a      	ldr	r2, [r7, #4]
 80053c2:	4619      	mov	r1, r3
 80053c4:	85d1      	strh	r1, [r2, #46]	@ 0x2e
 80053c6:	2b00      	cmp	r3, #0
 80053c8:	d15d      	bne.n	8005486 <UART_Receive_IT+0x16e>
 80053ca:	687b      	ldr	r3, [r7, #4]
 80053cc:	681b      	ldr	r3, [r3, #0]
 80053ce:	68da      	ldr	r2, [r3, #12]
 80053d0:	687b      	ldr	r3, [r7, #4]
 80053d2:	681b      	ldr	r3, [r3, #0]
 80053d4:	f022 0220 	bic.w	r2, r2, #32
 80053d8:	60da      	str	r2, [r3, #12]
 80053da:	687b      	ldr	r3, [r7, #4]
 80053dc:	681b      	ldr	r3, [r3, #0]
 80053de:	68da      	ldr	r2, [r3, #12]
 80053e0:	687b      	ldr	r3, [r7, #4]
 80053e2:	681b      	ldr	r3, [r3, #0]
 80053e4:	f422 7280 	bic.w	r2, r2, #256	@ 0x100
 80053e8:	60da      	str	r2, [r3, #12]
 80053ea:	687b      	ldr	r3, [r7, #4]
 80053ec:	681b      	ldr	r3, [r3, #0]
 80053ee:	695a      	ldr	r2, [r3, #20]
 80053f0:	687b      	ldr	r3, [r7, #4]
 80053f2:	681b      	ldr	r3, [r3, #0]
 80053f4:	f022 0201 	bic.w	r2, r2, #1
 80053f8:	615a      	str	r2, [r3, #20]
 80053fa:	687b      	ldr	r3, [r7, #4]
 80053fc:	2220      	movs	r2, #32
 80053fe:	f883 2042 	strb.w	r2, [r3, #66]	@ 0x42
 8005402:	687b      	ldr	r3, [r7, #4]
 8005404:	2200      	movs	r2, #0
 8005406:	635a      	str	r2, [r3, #52]	@ 0x34
 8005408:	687b      	ldr	r3, [r7, #4]
 800540a:	6b1b      	ldr	r3, [r3, #48]	@ 0x30
 800540c:	2b01      	cmp	r3, #1
 800540e:	d135      	bne.n	800547c <UART_Receive_IT+0x164>
 8005410:	687b      	ldr	r3, [r7, #4]
 8005412:	2200      	movs	r2, #0
 8005414:	631a      	str	r2, [r3, #48]	@ 0x30
 8005416:	687b      	ldr	r3, [r7, #4]
 8005418:	681b      	ldr	r3, [r3, #0]
 800541a:	330c      	adds	r3, #12
 800541c:	617b      	str	r3, [r7, #20]
 800541e:	697b      	ldr	r3, [r7, #20]
 8005420:	e853 3f00 	ldrex	r3, [r3]
 8005424:	613b      	str	r3, [r7, #16]
 8005426:	693b      	ldr	r3, [r7, #16]
 8005428:	f023 0310 	bic.w	r3, r3, #16
 800542c:	627b      	str	r3, [r7, #36]	@ 0x24
 800542e:	687b      	ldr	r3, [r7, #4]
 8005430:	681b      	ldr	r3, [r3, #0]
 8005432:	330c      	adds	r3, #12
 8005434:	6a7a      	ldr	r2, [r7, #36]	@ 0x24
 8005436:	623a      	str	r2, [r7, #32]
 8005438:	61fb      	str	r3, [r7, #28]
 800543a:	69f9      	ldr	r1, [r7, #28]
 800543c:	6a3a      	ldr	r2, [r7, #32]
 800543e:	e841 2300 	strex	r3, r2, [r1]
 8005442:	61bb      	str	r3, [r7, #24]
 8005444:	69bb      	ldr	r3, [r7, #24]
 8005446:	2b00      	cmp	r3, #0
 8005448:	d1e5      	bne.n	8005416 <UART_Receive_IT+0xfe>
 800544a:	687b      	ldr	r3, [r7, #4]
 800544c:	681b      	ldr	r3, [r3, #0]
 800544e:	681b      	ldr	r3, [r3, #0]
 8005450:	f003 0310 	and.w	r3, r3, #16
 8005454:	2b10      	cmp	r3, #16
 8005456:	d10a      	bne.n	800546e <UART_Receive_IT+0x156>
 8005458:	2300      	movs	r3, #0
 800545a:	60fb      	str	r3, [r7, #12]
 800545c:	687b      	ldr	r3, [r7, #4]
 800545e:	681b      	ldr	r3, [r3, #0]
 8005460:	681b      	ldr	r3, [r3, #0]
 8005462:	60fb      	str	r3, [r7, #12]
 8005464:	687b      	ldr	r3, [r7, #4]
 8005466:	681b      	ldr	r3, [r3, #0]
 8005468:	685b      	ldr	r3, [r3, #4]
 800546a:	60fb      	str	r3, [r7, #12]
 800546c:	68fb      	ldr	r3, [r7, #12]
 800546e:	687b      	ldr	r3, [r7, #4]
 8005470:	8d9b      	ldrh	r3, [r3, #44]	@ 0x2c
 8005472:	4619      	mov	r1, r3
 8005474:	6878      	ldr	r0, [r7, #4]
 8005476:	f7ff fbdf 	bl	8004c38 <HAL_UARTEx_RxEventCallback>
 800547a:	e002      	b.n	8005482 <UART_Receive_IT+0x16a>
 800547c:	6878      	ldr	r0, [r7, #4]
 800547e:	f7fb fa01 	bl	8000884 <HAL_UART_RxCpltCallback>
 8005482:	2300      	movs	r3, #0
 8005484:	e002      	b.n	800548c <UART_Receive_IT+0x174>
 8005486:	2300      	movs	r3, #0
 8005488:	e000      	b.n	800548c <UART_Receive_IT+0x174>
 800548a:	2302      	movs	r3, #2
 800548c:	4618      	mov	r0, r3
 800548e:	3730      	adds	r7, #48	@ 0x30
 8005490:	46bd      	mov	sp, r7
 8005492:	bd80      	pop	{r7, pc}

08005494 <UART_SetConfig>:
 8005494:	b580      	push	{r7, lr}
 8005496:	b084      	sub	sp, #16
 8005498:	af00      	add	r7, sp, #0
 800549a:	6078      	str	r0, [r7, #4]
 800549c:	687b      	ldr	r3, [r7, #4]
 800549e:	681b      	ldr	r3, [r3, #0]
 80054a0:	691b      	ldr	r3, [r3, #16]
 80054a2:	f423 5140 	bic.w	r1, r3, #12288	@ 0x3000
 80054a6:	687b      	ldr	r3, [r7, #4]
 80054a8:	68da      	ldr	r2, [r3, #12]
 80054aa:	687b      	ldr	r3, [r7, #4]
 80054ac:	681b      	ldr	r3, [r3, #0]
 80054ae:	430a      	orrs	r2, r1
 80054b0:	611a      	str	r2, [r3, #16]
 80054b2:	687b      	ldr	r3, [r7, #4]
 80054b4:	689a      	ldr	r2, [r3, #8]
 80054b6:	687b      	ldr	r3, [r7, #4]
 80054b8:	691b      	ldr	r3, [r3, #16]
 80054ba:	431a      	orrs	r2, r3
 80054bc:	687b      	ldr	r3, [r7, #4]
 80054be:	695b      	ldr	r3, [r3, #20]
 80054c0:	4313      	orrs	r3, r2
 80054c2:	60bb      	str	r3, [r7, #8]
 80054c4:	687b      	ldr	r3, [r7, #4]
 80054c6:	681b      	ldr	r3, [r3, #0]
 80054c8:	68db      	ldr	r3, [r3, #12]
 80054ca:	f423 53b0 	bic.w	r3, r3, #5632	@ 0x1600
 80054ce:	f023 030c 	bic.w	r3, r3, #12
 80054d2:	687a      	ldr	r2, [r7, #4]
 80054d4:	6812      	ldr	r2, [r2, #0]
 80054d6:	68b9      	ldr	r1, [r7, #8]
 80054d8:	430b      	orrs	r3, r1
 80054da:	60d3      	str	r3, [r2, #12]
 80054dc:	687b      	ldr	r3, [r7, #4]
 80054de:	681b      	ldr	r3, [r3, #0]
 80054e0:	695b      	ldr	r3, [r3, #20]
 80054e2:	f423 7140 	bic.w	r1, r3, #768	@ 0x300
 80054e6:	687b      	ldr	r3, [r7, #4]
 80054e8:	699a      	ldr	r2, [r3, #24]
 80054ea:	687b      	ldr	r3, [r7, #4]
 80054ec:	681b      	ldr	r3, [r3, #0]
 80054ee:	430a      	orrs	r2, r1
 80054f0:	615a      	str	r2, [r3, #20]
 80054f2:	687b      	ldr	r3, [r7, #4]
 80054f4:	681b      	ldr	r3, [r3, #0]
 80054f6:	4a2c      	ldr	r2, [pc, #176]	@ (80055a8 <UART_SetConfig+0x114>)
 80054f8:	4293      	cmp	r3, r2
 80054fa:	d103      	bne.n	8005504 <UART_SetConfig+0x70>
 80054fc:	f7fe f8d8 	bl	80036b0 <HAL_RCC_GetPCLK2Freq>
 8005500:	60f8      	str	r0, [r7, #12]
 8005502:	e002      	b.n	800550a <UART_SetConfig+0x76>
 8005504:	f7fe f8c0 	bl	8003688 <HAL_RCC_GetPCLK1Freq>
 8005508:	60f8      	str	r0, [r7, #12]
 800550a:	68fa      	ldr	r2, [r7, #12]
 800550c:	4613      	mov	r3, r2
 800550e:	009b      	lsls	r3, r3, #2
 8005510:	4413      	add	r3, r2
 8005512:	009a      	lsls	r2, r3, #2
 8005514:	441a      	add	r2, r3
 8005516:	687b      	ldr	r3, [r7, #4]
 8005518:	685b      	ldr	r3, [r3, #4]
 800551a:	009b      	lsls	r3, r3, #2
 800551c:	fbb2 f3f3 	udiv	r3, r2, r3
 8005520:	4a22      	ldr	r2, [pc, #136]	@ (80055ac <UART_SetConfig+0x118>)
 8005522:	fba2 2303 	umull	r2, r3, r2, r3
 8005526:	095b      	lsrs	r3, r3, #5
 8005528:	0119      	lsls	r1, r3, #4
 800552a:	68fa      	ldr	r2, [r7, #12]
 800552c:	4613      	mov	r3, r2
 800552e:	009b      	lsls	r3, r3, #2
 8005530:	4413      	add	r3, r2
 8005532:	009a      	lsls	r2, r3, #2
 8005534:	441a      	add	r2, r3
 8005536:	687b      	ldr	r3, [r7, #4]
 8005538:	685b      	ldr	r3, [r3, #4]
 800553a:	009b      	lsls	r3, r3, #2
 800553c:	fbb2 f2f3 	udiv	r2, r2, r3
 8005540:	4b1a      	ldr	r3, [pc, #104]	@ (80055ac <UART_SetConfig+0x118>)
 8005542:	fba3 0302 	umull	r0, r3, r3, r2
 8005546:	095b      	lsrs	r3, r3, #5
 8005548:	2064      	movs	r0, #100	@ 0x64
 800554a:	fb00 f303 	mul.w	r3, r0, r3
 800554e:	1ad3      	subs	r3, r2, r3
 8005550:	011b      	lsls	r3, r3, #4
 8005552:	3332      	adds	r3, #50	@ 0x32
 8005554:	4a15      	ldr	r2, [pc, #84]	@ (80055ac <UART_SetConfig+0x118>)
 8005556:	fba2 2303 	umull	r2, r3, r2, r3
 800555a:	095b      	lsrs	r3, r3, #5
 800555c:	f003 03f0 	and.w	r3, r3, #240	@ 0xf0
 8005560:	4419      	add	r1, r3
 8005562:	68fa      	ldr	r2, [r7, #12]
 8005564:	4613      	mov	r3, r2
 8005566:	009b      	lsls	r3, r3, #2
 8005568:	4413      	add	r3, r2
 800556a:	009a      	lsls	r2, r3, #2
 800556c:	441a      	add	r2, r3
 800556e:	687b      	ldr	r3, [r7, #4]
 8005570:	685b      	ldr	r3, [r3, #4]
 8005572:	009b      	lsls	r3, r3, #2
 8005574:	fbb2 f2f3 	udiv	r2, r2, r3
 8005578:	4b0c      	ldr	r3, [pc, #48]	@ (80055ac <UART_SetConfig+0x118>)
 800557a:	fba3 0302 	umull	r0, r3, r3, r2
 800557e:	095b      	lsrs	r3, r3, #5
 8005580:	2064      	movs	r0, #100	@ 0x64
 8005582:	fb00 f303 	mul.w	r3, r0, r3
 8005586:	1ad3      	subs	r3, r2, r3
 8005588:	011b      	lsls	r3, r3, #4
 800558a:	3332      	adds	r3, #50	@ 0x32
 800558c:	4a07      	ldr	r2, [pc, #28]	@ (80055ac <UART_SetConfig+0x118>)
 800558e:	fba2 2303 	umull	r2, r3, r2, r3
 8005592:	095b      	lsrs	r3, r3, #5
 8005594:	f003 020f 	and.w	r2, r3, #15
 8005598:	687b      	ldr	r3, [r7, #4]
 800559a:	681b      	ldr	r3, [r3, #0]
 800559c:	440a      	add	r2, r1
 800559e:	609a      	str	r2, [r3, #8]
 80055a0:	bf00      	nop
 80055a2:	3710      	adds	r7, #16
 80055a4:	46bd      	mov	sp, r7
 80055a6:	bd80      	pop	{r7, pc}
 80055a8:	40013800 	.word	0x40013800
 80055ac:	51eb851f 	.word	0x51eb851f

080055b0 <sniprintf>:
 80055b0:	b40c      	push	{r2, r3}
 80055b2:	b530      	push	{r4, r5, lr}
 80055b4:	4b17      	ldr	r3, [pc, #92]	@ (8005614 <sniprintf+0x64>)
 80055b6:	1e0c      	subs	r4, r1, #0
 80055b8:	681d      	ldr	r5, [r3, #0]
 80055ba:	b09d      	sub	sp, #116	@ 0x74
 80055bc:	da08      	bge.n	80055d0 <sniprintf+0x20>
 80055be:	238b      	movs	r3, #139	@ 0x8b
 80055c0:	f04f 30ff 	mov.w	r0, #4294967295
 80055c4:	602b      	str	r3, [r5, #0]
 80055c6:	b01d      	add	sp, #116	@ 0x74
 80055c8:	e8bd 4030 	ldmia.w	sp!, {r4, r5, lr}
 80055cc:	b002      	add	sp, #8
 80055ce:	4770      	bx	lr
 80055d0:	f44f 7302 	mov.w	r3, #520	@ 0x208
 80055d4:	f8ad 3014 	strh.w	r3, [sp, #20]
 80055d8:	bf0c      	ite	eq
 80055da:	4623      	moveq	r3, r4
 80055dc:	f104 33ff 	addne.w	r3, r4, #4294967295
 80055e0:	9304      	str	r3, [sp, #16]
 80055e2:	9307      	str	r3, [sp, #28]
 80055e4:	f64f 73ff 	movw	r3, #65535	@ 0xffff
 80055e8:	9002      	str	r0, [sp, #8]
 80055ea:	9006      	str	r0, [sp, #24]
 80055ec:	f8ad 3016 	strh.w	r3, [sp, #22]
 80055f0:	4628      	mov	r0, r5
 80055f2:	ab21      	add	r3, sp, #132	@ 0x84
 80055f4:	9a20      	ldr	r2, [sp, #128]	@ 0x80
 80055f6:	a902      	add	r1, sp, #8
 80055f8:	9301      	str	r3, [sp, #4]
 80055fa:	f000 f993 	bl	8005924 <_svfiprintf_r>
 80055fe:	1c43      	adds	r3, r0, #1
 8005600:	bfbc      	itt	lt
 8005602:	238b      	movlt	r3, #139	@ 0x8b
 8005604:	602b      	strlt	r3, [r5, #0]
 8005606:	2c00      	cmp	r4, #0
 8005608:	d0dd      	beq.n	80055c6 <sniprintf+0x16>
 800560a:	2200      	movs	r2, #0
 800560c:	9b02      	ldr	r3, [sp, #8]
 800560e:	701a      	strb	r2, [r3, #0]
 8005610:	e7d9      	b.n	80055c6 <sniprintf+0x16>
 8005612:	bf00      	nop
 8005614:	2000000c 	.word	0x2000000c

08005618 <memset>:
 8005618:	4603      	mov	r3, r0
 800561a:	4402      	add	r2, r0
 800561c:	4293      	cmp	r3, r2
 800561e:	d100      	bne.n	8005622 <memset+0xa>
 8005620:	4770      	bx	lr
 8005622:	f803 1b01 	strb.w	r1, [r3], #1
 8005626:	e7f9      	b.n	800561c <memset+0x4>

08005628 <__errno>:
 8005628:	4b01      	ldr	r3, [pc, #4]	@ (8005630 <__errno+0x8>)
 800562a:	6818      	ldr	r0, [r3, #0]
 800562c:	4770      	bx	lr
 800562e:	bf00      	nop
 8005630:	2000000c 	.word	0x2000000c

08005634 <__libc_init_array>:
 8005634:	b570      	push	{r4, r5, r6, lr}
 8005636:	2600      	movs	r6, #0
 8005638:	4d0c      	ldr	r5, [pc, #48]	@ (800566c <__libc_init_array+0x38>)
 800563a:	4c0d      	ldr	r4, [pc, #52]	@ (8005670 <__libc_init_array+0x3c>)
 800563c:	1b64      	subs	r4, r4, r5
 800563e:	10a4      	asrs	r4, r4, #2
 8005640:	42a6      	cmp	r6, r4
 8005642:	d109      	bne.n	8005658 <__libc_init_array+0x24>
 8005644:	f000 fc78 	bl	8005f38 <_init>
 8005648:	2600      	movs	r6, #0
 800564a:	4d0a      	ldr	r5, [pc, #40]	@ (8005674 <__libc_init_array+0x40>)
 800564c:	4c0a      	ldr	r4, [pc, #40]	@ (8005678 <__libc_init_array+0x44>)
 800564e:	1b64      	subs	r4, r4, r5
 8005650:	10a4      	asrs	r4, r4, #2
 8005652:	42a6      	cmp	r6, r4
 8005654:	d105      	bne.n	8005662 <__libc_init_array+0x2e>
 8005656:	bd70      	pop	{r4, r5, r6, pc}
 8005658:	f855 3b04 	ldr.w	r3, [r5], #4
 800565c:	4798      	blx	r3
 800565e:	3601      	adds	r6, #1
 8005660:	e7ee      	b.n	8005640 <__libc_init_array+0xc>
 8005662:	f855 3b04 	ldr.w	r3, [r5], #4
 8005666:	4798      	blx	r3
 8005668:	3601      	adds	r6, #1
 800566a:	e7f2      	b.n	8005652 <__libc_init_array+0x1e>
 800566c:	0800601c 	.word	0x0800601c
 8005670:	0800601c 	.word	0x0800601c
 8005674:	0800601c 	.word	0x0800601c
 8005678:	08006020 	.word	0x08006020

0800567c <__retarget_lock_acquire_recursive>:
 800567c:	4770      	bx	lr

0800567e <__retarget_lock_release_recursive>:
 800567e:	4770      	bx	lr

08005680 <_free_r>:
 8005680:	b538      	push	{r3, r4, r5, lr}
 8005682:	4605      	mov	r5, r0
 8005684:	2900      	cmp	r1, #0
 8005686:	d040      	beq.n	800570a <_free_r+0x8a>
 8005688:	f851 3c04 	ldr.w	r3, [r1, #-4]
 800568c:	1f0c      	subs	r4, r1, #4
 800568e:	2b00      	cmp	r3, #0
 8005690:	bfb8      	it	lt
 8005692:	18e4      	addlt	r4, r4, r3
 8005694:	f000 f8de 	bl	8005854 <__malloc_lock>
 8005698:	4a1c      	ldr	r2, [pc, #112]	@ (800570c <_free_r+0x8c>)
 800569a:	6813      	ldr	r3, [r2, #0]
 800569c:	b933      	cbnz	r3, 80056ac <_free_r+0x2c>
 800569e:	6063      	str	r3, [r4, #4]
 80056a0:	6014      	str	r4, [r2, #0]
 80056a2:	4628      	mov	r0, r5
 80056a4:	e8bd 4038 	ldmia.w	sp!, {r3, r4, r5, lr}
 80056a8:	f000 b8da 	b.w	8005860 <__malloc_unlock>
 80056ac:	42a3      	cmp	r3, r4
 80056ae:	d908      	bls.n	80056c2 <_free_r+0x42>
 80056b0:	6820      	ldr	r0, [r4, #0]
 80056b2:	1821      	adds	r1, r4, r0
 80056b4:	428b      	cmp	r3, r1
 80056b6:	bf01      	itttt	eq
 80056b8:	6819      	ldreq	r1, [r3, #0]
 80056ba:	685b      	ldreq	r3, [r3, #4]
 80056bc:	1809      	addeq	r1, r1, r0
 80056be:	6021      	streq	r1, [r4, #0]
 80056c0:	e7ed      	b.n	800569e <_free_r+0x1e>
 80056c2:	461a      	mov	r2, r3
 80056c4:	685b      	ldr	r3, [r3, #4]
 80056c6:	b10b      	cbz	r3, 80056cc <_free_r+0x4c>
 80056c8:	42a3      	cmp	r3, r4
 80056ca:	d9fa      	bls.n	80056c2 <_free_r+0x42>
 80056cc:	6811      	ldr	r1, [r2, #0]
 80056ce:	1850      	adds	r0, r2, r1
 80056d0:	42a0      	cmp	r0, r4
 80056d2:	d10b      	bne.n	80056ec <_free_r+0x6c>
 80056d4:	6820      	ldr	r0, [r4, #0]
 80056d6:	4401      	add	r1, r0
 80056d8:	1850      	adds	r0, r2, r1
 80056da:	4283      	cmp	r3, r0
 80056dc:	6011      	str	r1, [r2, #0]
 80056de:	d1e0      	bne.n	80056a2 <_free_r+0x22>
 80056e0:	6818      	ldr	r0, [r3, #0]
 80056e2:	685b      	ldr	r3, [r3, #4]
 80056e4:	4408      	add	r0, r1
 80056e6:	6010      	str	r0, [r2, #0]
 80056e8:	6053      	str	r3, [r2, #4]
 80056ea:	e7da      	b.n	80056a2 <_free_r+0x22>
 80056ec:	d902      	bls.n	80056f4 <_free_r+0x74>
 80056ee:	230c      	movs	r3, #12
 80056f0:	602b      	str	r3, [r5, #0]
 80056f2:	e7d6      	b.n	80056a2 <_free_r+0x22>
 80056f4:	6820      	ldr	r0, [r4, #0]
 80056f6:	1821      	adds	r1, r4, r0
 80056f8:	428b      	cmp	r3, r1
 80056fa:	bf01      	itttt	eq
 80056fc:	6819      	ldreq	r1, [r3, #0]
 80056fe:	685b      	ldreq	r3, [r3, #4]
 8005700:	1809      	addeq	r1, r1, r0
 8005702:	6021      	streq	r1, [r4, #0]
 8005704:	6063      	str	r3, [r4, #4]
 8005706:	6054      	str	r4, [r2, #4]
 8005708:	e7cb      	b.n	80056a2 <_free_r+0x22>
 800570a:	bd38      	pop	{r3, r4, r5, pc}
 800570c:	200003ac 	.word	0x200003ac

08005710 <sbrk_aligned>:
 8005710:	b570      	push	{r4, r5, r6, lr}
 8005712:	4e0f      	ldr	r6, [pc, #60]	@ (8005750 <sbrk_aligned+0x40>)
 8005714:	460c      	mov	r4, r1
 8005716:	6831      	ldr	r1, [r6, #0]
 8005718:	4605      	mov	r5, r0
 800571a:	b911      	cbnz	r1, 8005722 <sbrk_aligned+0x12>
 800571c:	f000 fbaa 	bl	8005e74 <_sbrk_r>
 8005720:	6030      	str	r0, [r6, #0]
 8005722:	4621      	mov	r1, r4
 8005724:	4628      	mov	r0, r5
 8005726:	f000 fba5 	bl	8005e74 <_sbrk_r>
 800572a:	1c43      	adds	r3, r0, #1
 800572c:	d103      	bne.n	8005736 <sbrk_aligned+0x26>
 800572e:	f04f 34ff 	mov.w	r4, #4294967295
 8005732:	4620      	mov	r0, r4
 8005734:	bd70      	pop	{r4, r5, r6, pc}
 8005736:	1cc4      	adds	r4, r0, #3
 8005738:	f024 0403 	bic.w	r4, r4, #3
 800573c:	42a0      	cmp	r0, r4
 800573e:	d0f8      	beq.n	8005732 <sbrk_aligned+0x22>
 8005740:	1a21      	subs	r1, r4, r0
 8005742:	4628      	mov	r0, r5
 8005744:	f000 fb96 	bl	8005e74 <_sbrk_r>
 8005748:	3001      	adds	r0, #1
 800574a:	d1f2      	bne.n	8005732 <sbrk_aligned+0x22>
 800574c:	e7ef      	b.n	800572e <sbrk_aligned+0x1e>
 800574e:	bf00      	nop
 8005750:	200003a8 	.word	0x200003a8

08005754 <_malloc_r>:
 8005754:	e92d 43f8 	stmdb	sp!, {r3, r4, r5, r6, r7, r8, r9, lr}
 8005758:	1ccd      	adds	r5, r1, #3
 800575a:	f025 0503 	bic.w	r5, r5, #3
 800575e:	3508      	adds	r5, #8
 8005760:	2d0c      	cmp	r5, #12
 8005762:	bf38      	it	cc
 8005764:	250c      	movcc	r5, #12
 8005766:	2d00      	cmp	r5, #0
 8005768:	4606      	mov	r6, r0
 800576a:	db01      	blt.n	8005770 <_malloc_r+0x1c>
 800576c:	42a9      	cmp	r1, r5
 800576e:	d904      	bls.n	800577a <_malloc_r+0x26>
 8005770:	230c      	movs	r3, #12
 8005772:	6033      	str	r3, [r6, #0]
 8005774:	2000      	movs	r0, #0
 8005776:	e8bd 83f8 	ldmia.w	sp!, {r3, r4, r5, r6, r7, r8, r9, pc}
 800577a:	f8df 80d4 	ldr.w	r8, [pc, #212]	@ 8005850 <_malloc_r+0xfc>
 800577e:	f000 f869 	bl	8005854 <__malloc_lock>
 8005782:	f8d8 3000 	ldr.w	r3, [r8]
 8005786:	461c      	mov	r4, r3
 8005788:	bb44      	cbnz	r4, 80057dc <_malloc_r+0x88>
 800578a:	4629      	mov	r1, r5
 800578c:	4630      	mov	r0, r6
 800578e:	f7ff ffbf 	bl	8005710 <sbrk_aligned>
 8005792:	1c43      	adds	r3, r0, #1
 8005794:	4604      	mov	r4, r0
 8005796:	d158      	bne.n	800584a <_malloc_r+0xf6>
 8005798:	f8d8 4000 	ldr.w	r4, [r8]
 800579c:	4627      	mov	r7, r4
 800579e:	2f00      	cmp	r7, #0
 80057a0:	d143      	bne.n	800582a <_malloc_r+0xd6>
 80057a2:	2c00      	cmp	r4, #0
 80057a4:	d04b      	beq.n	800583e <_malloc_r+0xea>
 80057a6:	6823      	ldr	r3, [r4, #0]
 80057a8:	4639      	mov	r1, r7
 80057aa:	4630      	mov	r0, r6
 80057ac:	eb04 0903 	add.w	r9, r4, r3
 80057b0:	f000 fb60 	bl	8005e74 <_sbrk_r>
 80057b4:	4581      	cmp	r9, r0
 80057b6:	d142      	bne.n	800583e <_malloc_r+0xea>
 80057b8:	6821      	ldr	r1, [r4, #0]
 80057ba:	4630      	mov	r0, r6
 80057bc:	1a6d      	subs	r5, r5, r1
 80057be:	4629      	mov	r1, r5
 80057c0:	f7ff ffa6 	bl	8005710 <sbrk_aligned>
 80057c4:	3001      	adds	r0, #1
 80057c6:	d03a      	beq.n	800583e <_malloc_r+0xea>
 80057c8:	6823      	ldr	r3, [r4, #0]
 80057ca:	442b      	add	r3, r5
 80057cc:	6023      	str	r3, [r4, #0]
 80057ce:	f8d8 3000 	ldr.w	r3, [r8]
 80057d2:	685a      	ldr	r2, [r3, #4]
 80057d4:	bb62      	cbnz	r2, 8005830 <_malloc_r+0xdc>
 80057d6:	f8c8 7000 	str.w	r7, [r8]
 80057da:	e00f      	b.n	80057fc <_malloc_r+0xa8>
 80057dc:	6822      	ldr	r2, [r4, #0]
 80057de:	1b52      	subs	r2, r2, r5
 80057e0:	d420      	bmi.n	8005824 <_malloc_r+0xd0>
 80057e2:	2a0b      	cmp	r2, #11
 80057e4:	d917      	bls.n	8005816 <_malloc_r+0xc2>
 80057e6:	1961      	adds	r1, r4, r5
 80057e8:	42a3      	cmp	r3, r4
 80057ea:	6025      	str	r5, [r4, #0]
 80057ec:	bf18      	it	ne
 80057ee:	6059      	strne	r1, [r3, #4]
 80057f0:	6863      	ldr	r3, [r4, #4]
 80057f2:	bf08      	it	eq
 80057f4:	f8c8 1000 	streq.w	r1, [r8]
 80057f8:	5162      	str	r2, [r4, r5]
 80057fa:	604b      	str	r3, [r1, #4]
 80057fc:	4630      	mov	r0, r6
 80057fe:	f000 f82f 	bl	8005860 <__malloc_unlock>
 8005802:	f104 000b 	add.w	r0, r4, #11
 8005806:	1d23      	adds	r3, r4, #4
 8005808:	f020 0007 	bic.w	r0, r0, #7
 800580c:	1ac2      	subs	r2, r0, r3
 800580e:	bf1c      	itt	ne
 8005810:	1a1b      	subne	r3, r3, r0
 8005812:	50a3      	strne	r3, [r4, r2]
 8005814:	e7af      	b.n	8005776 <_malloc_r+0x22>
 8005816:	6862      	ldr	r2, [r4, #4]
 8005818:	42a3      	cmp	r3, r4
 800581a:	bf0c      	ite	eq
 800581c:	f8c8 2000 	streq.w	r2, [r8]
 8005820:	605a      	strne	r2, [r3, #4]
 8005822:	e7eb      	b.n	80057fc <_malloc_r+0xa8>
 8005824:	4623      	mov	r3, r4
 8005826:	6864      	ldr	r4, [r4, #4]
 8005828:	e7ae      	b.n	8005788 <_malloc_r+0x34>
 800582a:	463c      	mov	r4, r7
 800582c:	687f      	ldr	r7, [r7, #4]
 800582e:	e7b6      	b.n	800579e <_malloc_r+0x4a>
 8005830:	461a      	mov	r2, r3
 8005832:	685b      	ldr	r3, [r3, #4]
 8005834:	42a3      	cmp	r3, r4
 8005836:	d1fb      	bne.n	8005830 <_malloc_r+0xdc>
 8005838:	2300      	movs	r3, #0
 800583a:	6053      	str	r3, [r2, #4]
 800583c:	e7de      	b.n	80057fc <_malloc_r+0xa8>
 800583e:	230c      	movs	r3, #12
 8005840:	4630      	mov	r0, r6
 8005842:	6033      	str	r3, [r6, #0]
 8005844:	f000 f80c 	bl	8005860 <__malloc_unlock>
 8005848:	e794      	b.n	8005774 <_malloc_r+0x20>
 800584a:	6005      	str	r5, [r0, #0]
 800584c:	e7d6      	b.n	80057fc <_malloc_r+0xa8>
 800584e:	bf00      	nop
 8005850:	200003ac 	.word	0x200003ac

08005854 <__malloc_lock>:
 8005854:	4801      	ldr	r0, [pc, #4]	@ (800585c <__malloc_lock+0x8>)
 8005856:	f7ff bf11 	b.w	800567c <__retarget_lock_acquire_recursive>
 800585a:	bf00      	nop
 800585c:	200003a4 	.word	0x200003a4

08005860 <__malloc_unlock>:
 8005860:	4801      	ldr	r0, [pc, #4]	@ (8005868 <__malloc_unlock+0x8>)
 8005862:	f7ff bf0c 	b.w	800567e <__retarget_lock_release_recursive>
 8005866:	bf00      	nop
 8005868:	200003a4 	.word	0x200003a4

0800586c <__ssputs_r>:
 800586c:	e92d 47f0 	stmdb	sp!, {r4, r5, r6, r7, r8, r9, sl, lr}
 8005870:	461f      	mov	r7, r3
 8005872:	688e      	ldr	r6, [r1, #8]
 8005874:	4682      	mov	sl, r0
 8005876:	42be      	cmp	r6, r7
 8005878:	460c      	mov	r4, r1
 800587a:	4690      	mov	r8, r2
 800587c:	680b      	ldr	r3, [r1, #0]
 800587e:	d82d      	bhi.n	80058dc <__ssputs_r+0x70>
 8005880:	f9b1 200c 	ldrsh.w	r2, [r1, #12]
 8005884:	f412 6f90 	tst.w	r2, #1152	@ 0x480
 8005888:	d026      	beq.n	80058d8 <__ssputs_r+0x6c>
 800588a:	6965      	ldr	r5, [r4, #20]
 800588c:	6909      	ldr	r1, [r1, #16]
 800588e:	eb05 0545 	add.w	r5, r5, r5, lsl #1
 8005892:	eba3 0901 	sub.w	r9, r3, r1
 8005896:	eb05 75d5 	add.w	r5, r5, r5, lsr #31
 800589a:	1c7b      	adds	r3, r7, #1
 800589c:	444b      	add	r3, r9
 800589e:	106d      	asrs	r5, r5, #1
 80058a0:	429d      	cmp	r5, r3
 80058a2:	bf38      	it	cc
 80058a4:	461d      	movcc	r5, r3
 80058a6:	0553      	lsls	r3, r2, #21
 80058a8:	d527      	bpl.n	80058fa <__ssputs_r+0x8e>
 80058aa:	4629      	mov	r1, r5
 80058ac:	f7ff ff52 	bl	8005754 <_malloc_r>
 80058b0:	4606      	mov	r6, r0
 80058b2:	b360      	cbz	r0, 800590e <__ssputs_r+0xa2>
 80058b4:	464a      	mov	r2, r9
 80058b6:	6921      	ldr	r1, [r4, #16]
 80058b8:	f000 fafa 	bl	8005eb0 <memcpy>
 80058bc:	89a3      	ldrh	r3, [r4, #12]
 80058be:	f423 6390 	bic.w	r3, r3, #1152	@ 0x480
 80058c2:	f043 0380 	orr.w	r3, r3, #128	@ 0x80
 80058c6:	81a3      	strh	r3, [r4, #12]
 80058c8:	6126      	str	r6, [r4, #16]
 80058ca:	444e      	add	r6, r9
 80058cc:	6026      	str	r6, [r4, #0]
 80058ce:	463e      	mov	r6, r7
 80058d0:	6165      	str	r5, [r4, #20]
 80058d2:	eba5 0509 	sub.w	r5, r5, r9
 80058d6:	60a5      	str	r5, [r4, #8]
 80058d8:	42be      	cmp	r6, r7
 80058da:	d900      	bls.n	80058de <__ssputs_r+0x72>
 80058dc:	463e      	mov	r6, r7
 80058de:	4632      	mov	r2, r6
 80058e0:	4641      	mov	r1, r8
 80058e2:	6820      	ldr	r0, [r4, #0]
 80058e4:	f000 faac 	bl	8005e40 <memmove>
 80058e8:	2000      	movs	r0, #0
 80058ea:	68a3      	ldr	r3, [r4, #8]
 80058ec:	1b9b      	subs	r3, r3, r6
 80058ee:	60a3      	str	r3, [r4, #8]
 80058f0:	6823      	ldr	r3, [r4, #0]
 80058f2:	4433      	add	r3, r6
 80058f4:	6023      	str	r3, [r4, #0]
 80058f6:	e8bd 87f0 	ldmia.w	sp!, {r4, r5, r6, r7, r8, r9, sl, pc}
 80058fa:	462a      	mov	r2, r5
 80058fc:	f000 fae6 	bl	8005ecc <_realloc_r>
 8005900:	4606      	mov	r6, r0
 8005902:	2800      	cmp	r0, #0
 8005904:	d1e0      	bne.n	80058c8 <__ssputs_r+0x5c>
 8005906:	4650      	mov	r0, sl
 8005908:	6921      	ldr	r1, [r4, #16]
 800590a:	f7ff feb9 	bl	8005680 <_free_r>
 800590e:	230c      	movs	r3, #12
 8005910:	f8ca 3000 	str.w	r3, [sl]
 8005914:	89a3      	ldrh	r3, [r4, #12]
 8005916:	f04f 30ff 	mov.w	r0, #4294967295
 800591a:	f043 0340 	orr.w	r3, r3, #64	@ 0x40
 800591e:	81a3      	strh	r3, [r4, #12]
 8005920:	e7e9      	b.n	80058f6 <__ssputs_r+0x8a>
	...

08005924 <_svfiprintf_r>:
 8005924:	e92d 4ff0 	stmdb	sp!, {r4, r5, r6, r7, r8, r9, sl, fp, lr}
 8005928:	4698      	mov	r8, r3
 800592a:	898b      	ldrh	r3, [r1, #12]
 800592c:	4607      	mov	r7, r0
 800592e:	061b      	lsls	r3, r3, #24
 8005930:	460d      	mov	r5, r1
 8005932:	4614      	mov	r4, r2
 8005934:	b09d      	sub	sp, #116	@ 0x74
 8005936:	d510      	bpl.n	800595a <_svfiprintf_r+0x36>
 8005938:	690b      	ldr	r3, [r1, #16]
 800593a:	b973      	cbnz	r3, 800595a <_svfiprintf_r+0x36>
 800593c:	2140      	movs	r1, #64	@ 0x40
 800593e:	f7ff ff09 	bl	8005754 <_malloc_r>
 8005942:	6028      	str	r0, [r5, #0]
 8005944:	6128      	str	r0, [r5, #16]
 8005946:	b930      	cbnz	r0, 8005956 <_svfiprintf_r+0x32>
 8005948:	230c      	movs	r3, #12
 800594a:	603b      	str	r3, [r7, #0]
 800594c:	f04f 30ff 	mov.w	r0, #4294967295
 8005950:	b01d      	add	sp, #116	@ 0x74
 8005952:	e8bd 8ff0 	ldmia.w	sp!, {r4, r5, r6, r7, r8, r9, sl, fp, pc}
 8005956:	2340      	movs	r3, #64	@ 0x40
 8005958:	616b      	str	r3, [r5, #20]
 800595a:	2300      	movs	r3, #0
 800595c:	9309      	str	r3, [sp, #36]	@ 0x24
 800595e:	2320      	movs	r3, #32
 8005960:	f88d 3029 	strb.w	r3, [sp, #41]	@ 0x29
 8005964:	2330      	movs	r3, #48	@ 0x30
 8005966:	f04f 0901 	mov.w	r9, #1
 800596a:	f8cd 800c 	str.w	r8, [sp, #12]
 800596e:	f8df 8198 	ldr.w	r8, [pc, #408]	@ 8005b08 <_svfiprintf_r+0x1e4>
 8005972:	f88d 302a 	strb.w	r3, [sp, #42]	@ 0x2a
 8005976:	4623      	mov	r3, r4
 8005978:	469a      	mov	sl, r3
 800597a:	f813 2b01 	ldrb.w	r2, [r3], #1
 800597e:	b10a      	cbz	r2, 8005984 <_svfiprintf_r+0x60>
 8005980:	2a25      	cmp	r2, #37	@ 0x25
 8005982:	d1f9      	bne.n	8005978 <_svfiprintf_r+0x54>
 8005984:	ebba 0b04 	subs.w	fp, sl, r4
 8005988:	d00b      	beq.n	80059a2 <_svfiprintf_r+0x7e>
 800598a:	465b      	mov	r3, fp
 800598c:	4622      	mov	r2, r4
 800598e:	4629      	mov	r1, r5
 8005990:	4638      	mov	r0, r7
 8005992:	f7ff ff6b 	bl	800586c <__ssputs_r>
 8005996:	3001      	adds	r0, #1
 8005998:	f000 80a7 	beq.w	8005aea <_svfiprintf_r+0x1c6>
 800599c:	9a09      	ldr	r2, [sp, #36]	@ 0x24
 800599e:	445a      	add	r2, fp
 80059a0:	9209      	str	r2, [sp, #36]	@ 0x24
 80059a2:	f89a 3000 	ldrb.w	r3, [sl]
 80059a6:	2b00      	cmp	r3, #0
 80059a8:	f000 809f 	beq.w	8005aea <_svfiprintf_r+0x1c6>
 80059ac:	2300      	movs	r3, #0
 80059ae:	f04f 32ff 	mov.w	r2, #4294967295
 80059b2:	e9cd 2305 	strd	r2, r3, [sp, #20]
 80059b6:	f10a 0a01 	add.w	sl, sl, #1
 80059ba:	9304      	str	r3, [sp, #16]
 80059bc:	9307      	str	r3, [sp, #28]
 80059be:	f88d 3053 	strb.w	r3, [sp, #83]	@ 0x53
 80059c2:	931a      	str	r3, [sp, #104]	@ 0x68
 80059c4:	4654      	mov	r4, sl
 80059c6:	2205      	movs	r2, #5
 80059c8:	f814 1b01 	ldrb.w	r1, [r4], #1
 80059cc:	484e      	ldr	r0, [pc, #312]	@ (8005b08 <_svfiprintf_r+0x1e4>)
 80059ce:	f000 fa61 	bl	8005e94 <memchr>
 80059d2:	9a04      	ldr	r2, [sp, #16]
 80059d4:	b9d8      	cbnz	r0, 8005a0e <_svfiprintf_r+0xea>
 80059d6:	06d0      	lsls	r0, r2, #27
 80059d8:	bf44      	itt	mi
 80059da:	2320      	movmi	r3, #32
 80059dc:	f88d 3053 	strbmi.w	r3, [sp, #83]	@ 0x53
 80059e0:	0711      	lsls	r1, r2, #28
 80059e2:	bf44      	itt	mi
 80059e4:	232b      	movmi	r3, #43	@ 0x2b
 80059e6:	f88d 3053 	strbmi.w	r3, [sp, #83]	@ 0x53
 80059ea:	f89a 3000 	ldrb.w	r3, [sl]
 80059ee:	2b2a      	cmp	r3, #42	@ 0x2a
 80059f0:	d015      	beq.n	8005a1e <_svfiprintf_r+0xfa>
 80059f2:	4654      	mov	r4, sl
 80059f4:	2000      	movs	r0, #0
 80059f6:	f04f 0c0a 	mov.w	ip, #10
 80059fa:	9a07      	ldr	r2, [sp, #28]
 80059fc:	4621      	mov	r1, r4
 80059fe:	f811 3b01 	ldrb.w	r3, [r1], #1
 8005a02:	3b30      	subs	r3, #48	@ 0x30
 8005a04:	2b09      	cmp	r3, #9
 8005a06:	d94b      	bls.n	8005aa0 <_svfiprintf_r+0x17c>
 8005a08:	b1b0      	cbz	r0, 8005a38 <_svfiprintf_r+0x114>
 8005a0a:	9207      	str	r2, [sp, #28]
 8005a0c:	e014      	b.n	8005a38 <_svfiprintf_r+0x114>
 8005a0e:	eba0 0308 	sub.w	r3, r0, r8
 8005a12:	fa09 f303 	lsl.w	r3, r9, r3
 8005a16:	4313      	orrs	r3, r2
 8005a18:	46a2      	mov	sl, r4
 8005a1a:	9304      	str	r3, [sp, #16]
 8005a1c:	e7d2      	b.n	80059c4 <_svfiprintf_r+0xa0>
 8005a1e:	9b03      	ldr	r3, [sp, #12]
 8005a20:	1d19      	adds	r1, r3, #4
 8005a22:	681b      	ldr	r3, [r3, #0]
 8005a24:	9103      	str	r1, [sp, #12]
 8005a26:	2b00      	cmp	r3, #0
 8005a28:	bfbb      	ittet	lt
 8005a2a:	425b      	neglt	r3, r3
 8005a2c:	f042 0202 	orrlt.w	r2, r2, #2
 8005a30:	9307      	strge	r3, [sp, #28]
 8005a32:	9307      	strlt	r3, [sp, #28]
 8005a34:	bfb8      	it	lt
 8005a36:	9204      	strlt	r2, [sp, #16]
 8005a38:	7823      	ldrb	r3, [r4, #0]
 8005a3a:	2b2e      	cmp	r3, #46	@ 0x2e
 8005a3c:	d10a      	bne.n	8005a54 <_svfiprintf_r+0x130>
 8005a3e:	7863      	ldrb	r3, [r4, #1]
 8005a40:	2b2a      	cmp	r3, #42	@ 0x2a
 8005a42:	d132      	bne.n	8005aaa <_svfiprintf_r+0x186>
 8005a44:	9b03      	ldr	r3, [sp, #12]
 8005a46:	3402      	adds	r4, #2
 8005a48:	1d1a      	adds	r2, r3, #4
 8005a4a:	681b      	ldr	r3, [r3, #0]
 8005a4c:	9203      	str	r2, [sp, #12]
 8005a4e:	ea43 73e3 	orr.w	r3, r3, r3, asr #31
 8005a52:	9305      	str	r3, [sp, #20]
 8005a54:	f8df a0b4 	ldr.w	sl, [pc, #180]	@ 8005b0c <_svfiprintf_r+0x1e8>
 8005a58:	2203      	movs	r2, #3
 8005a5a:	4650      	mov	r0, sl
 8005a5c:	7821      	ldrb	r1, [r4, #0]
 8005a5e:	f000 fa19 	bl	8005e94 <memchr>
 8005a62:	b138      	cbz	r0, 8005a74 <_svfiprintf_r+0x150>
 8005a64:	2240      	movs	r2, #64	@ 0x40
 8005a66:	9b04      	ldr	r3, [sp, #16]
 8005a68:	eba0 000a 	sub.w	r0, r0, sl
 8005a6c:	4082      	lsls	r2, r0
 8005a6e:	4313      	orrs	r3, r2
 8005a70:	3401      	adds	r4, #1
 8005a72:	9304      	str	r3, [sp, #16]
 8005a74:	f814 1b01 	ldrb.w	r1, [r4], #1
 8005a78:	2206      	movs	r2, #6
 8005a7a:	4825      	ldr	r0, [pc, #148]	@ (8005b10 <_svfiprintf_r+0x1ec>)
 8005a7c:	f88d 1028 	strb.w	r1, [sp, #40]	@ 0x28
 8005a80:	f000 fa08 	bl	8005e94 <memchr>
 8005a84:	2800      	cmp	r0, #0
 8005a86:	d036      	beq.n	8005af6 <_svfiprintf_r+0x1d2>
 8005a88:	4b22      	ldr	r3, [pc, #136]	@ (8005b14 <_svfiprintf_r+0x1f0>)
 8005a8a:	bb1b      	cbnz	r3, 8005ad4 <_svfiprintf_r+0x1b0>
 8005a8c:	9b03      	ldr	r3, [sp, #12]
 8005a8e:	3307      	adds	r3, #7
 8005a90:	f023 0307 	bic.w	r3, r3, #7
 8005a94:	3308      	adds	r3, #8
 8005a96:	9303      	str	r3, [sp, #12]
 8005a98:	9b09      	ldr	r3, [sp, #36]	@ 0x24
 8005a9a:	4433      	add	r3, r6
 8005a9c:	9309      	str	r3, [sp, #36]	@ 0x24
 8005a9e:	e76a      	b.n	8005976 <_svfiprintf_r+0x52>
 8005aa0:	460c      	mov	r4, r1
 8005aa2:	2001      	movs	r0, #1
 8005aa4:	fb0c 3202 	mla	r2, ip, r2, r3
 8005aa8:	e7a8      	b.n	80059fc <_svfiprintf_r+0xd8>
 8005aaa:	2300      	movs	r3, #0
 8005aac:	f04f 0c0a 	mov.w	ip, #10
 8005ab0:	4619      	mov	r1, r3
 8005ab2:	3401      	adds	r4, #1
 8005ab4:	9305      	str	r3, [sp, #20]
 8005ab6:	4620      	mov	r0, r4
 8005ab8:	f810 2b01 	ldrb.w	r2, [r0], #1
 8005abc:	3a30      	subs	r2, #48	@ 0x30
 8005abe:	2a09      	cmp	r2, #9
 8005ac0:	d903      	bls.n	8005aca <_svfiprintf_r+0x1a6>
 8005ac2:	2b00      	cmp	r3, #0
 8005ac4:	d0c6      	beq.n	8005a54 <_svfiprintf_r+0x130>
 8005ac6:	9105      	str	r1, [sp, #20]
 8005ac8:	e7c4      	b.n	8005a54 <_svfiprintf_r+0x130>
 8005aca:	4604      	mov	r4, r0
 8005acc:	2301      	movs	r3, #1
 8005ace:	fb0c 2101 	mla	r1, ip, r1, r2
 8005ad2:	e7f0      	b.n	8005ab6 <_svfiprintf_r+0x192>
 8005ad4:	ab03      	add	r3, sp, #12
 8005ad6:	9300      	str	r3, [sp, #0]
 8005ad8:	462a      	mov	r2, r5
 8005ada:	4638      	mov	r0, r7
 8005adc:	4b0e      	ldr	r3, [pc, #56]	@ (8005b18 <_svfiprintf_r+0x1f4>)
 8005ade:	a904      	add	r1, sp, #16
 8005ae0:	f3af 8000 	nop.w
 8005ae4:	1c42      	adds	r2, r0, #1
 8005ae6:	4606      	mov	r6, r0
 8005ae8:	d1d6      	bne.n	8005a98 <_svfiprintf_r+0x174>
 8005aea:	89ab      	ldrh	r3, [r5, #12]
 8005aec:	065b      	lsls	r3, r3, #25
 8005aee:	f53f af2d 	bmi.w	800594c <_svfiprintf_r+0x28>
 8005af2:	9809      	ldr	r0, [sp, #36]	@ 0x24
 8005af4:	e72c      	b.n	8005950 <_svfiprintf_r+0x2c>
 8005af6:	ab03      	add	r3, sp, #12
 8005af8:	9300      	str	r3, [sp, #0]
 8005afa:	462a      	mov	r2, r5
 8005afc:	4638      	mov	r0, r7
 8005afe:	4b06      	ldr	r3, [pc, #24]	@ (8005b18 <_svfiprintf_r+0x1f4>)
 8005b00:	a904      	add	r1, sp, #16
 8005b02:	f000 f87d 	bl	8005c00 <_printf_i>
 8005b06:	e7ed      	b.n	8005ae4 <_svfiprintf_r+0x1c0>
 8005b08:	08005fde 	.word	0x08005fde
 8005b0c:	08005fe4 	.word	0x08005fe4
 8005b10:	08005fe8 	.word	0x08005fe8
 8005b14:	00000000 	.word	0x00000000
 8005b18:	0800586d 	.word	0x0800586d

08005b1c <_printf_common>:
 8005b1c:	e92d 47f0 	stmdb	sp!, {r4, r5, r6, r7, r8, r9, sl, lr}
 8005b20:	4616      	mov	r6, r2
 8005b22:	4698      	mov	r8, r3
 8005b24:	688a      	ldr	r2, [r1, #8]
 8005b26:	690b      	ldr	r3, [r1, #16]
 8005b28:	4607      	mov	r7, r0
 8005b2a:	4293      	cmp	r3, r2
 8005b2c:	bfb8      	it	lt
 8005b2e:	4613      	movlt	r3, r2
 8005b30:	6033      	str	r3, [r6, #0]
 8005b32:	f891 2043 	ldrb.w	r2, [r1, #67]	@ 0x43
 8005b36:	460c      	mov	r4, r1
 8005b38:	f8dd 9020 	ldr.w	r9, [sp, #32]
 8005b3c:	b10a      	cbz	r2, 8005b42 <_printf_common+0x26>
 8005b3e:	3301      	adds	r3, #1
 8005b40:	6033      	str	r3, [r6, #0]
 8005b42:	6823      	ldr	r3, [r4, #0]
 8005b44:	0699      	lsls	r1, r3, #26
 8005b46:	bf42      	ittt	mi
 8005b48:	6833      	ldrmi	r3, [r6, #0]
 8005b4a:	3302      	addmi	r3, #2
 8005b4c:	6033      	strmi	r3, [r6, #0]
 8005b4e:	6825      	ldr	r5, [r4, #0]
 8005b50:	f015 0506 	ands.w	r5, r5, #6
 8005b54:	d106      	bne.n	8005b64 <_printf_common+0x48>
 8005b56:	f104 0a19 	add.w	sl, r4, #25
 8005b5a:	68e3      	ldr	r3, [r4, #12]
 8005b5c:	6832      	ldr	r2, [r6, #0]
 8005b5e:	1a9b      	subs	r3, r3, r2
 8005b60:	42ab      	cmp	r3, r5
 8005b62:	dc2b      	bgt.n	8005bbc <_printf_common+0xa0>
 8005b64:	f894 3043 	ldrb.w	r3, [r4, #67]	@ 0x43
 8005b68:	6822      	ldr	r2, [r4, #0]
 8005b6a:	3b00      	subs	r3, #0
 8005b6c:	bf18      	it	ne
 8005b6e:	2301      	movne	r3, #1
 8005b70:	0692      	lsls	r2, r2, #26
 8005b72:	d430      	bmi.n	8005bd6 <_printf_common+0xba>
 8005b74:	4641      	mov	r1, r8
 8005b76:	4638      	mov	r0, r7
 8005b78:	f104 0243 	add.w	r2, r4, #67	@ 0x43
 8005b7c:	47c8      	blx	r9
 8005b7e:	3001      	adds	r0, #1
 8005b80:	d023      	beq.n	8005bca <_printf_common+0xae>
 8005b82:	6823      	ldr	r3, [r4, #0]
 8005b84:	6922      	ldr	r2, [r4, #16]
 8005b86:	f003 0306 	and.w	r3, r3, #6
 8005b8a:	2b04      	cmp	r3, #4
 8005b8c:	bf14      	ite	ne
 8005b8e:	2500      	movne	r5, #0
 8005b90:	6833      	ldreq	r3, [r6, #0]
 8005b92:	f04f 0600 	mov.w	r6, #0
 8005b96:	bf08      	it	eq
 8005b98:	68e5      	ldreq	r5, [r4, #12]
 8005b9a:	f104 041a 	add.w	r4, r4, #26
 8005b9e:	bf08      	it	eq
 8005ba0:	1aed      	subeq	r5, r5, r3
 8005ba2:	f854 3c12 	ldr.w	r3, [r4, #-18]
 8005ba6:	bf08      	it	eq
 8005ba8:	ea25 75e5 	biceq.w	r5, r5, r5, asr #31
 8005bac:	4293      	cmp	r3, r2
 8005bae:	bfc4      	itt	gt
 8005bb0:	1a9b      	subgt	r3, r3, r2
 8005bb2:	18ed      	addgt	r5, r5, r3
 8005bb4:	42b5      	cmp	r5, r6
 8005bb6:	d11a      	bne.n	8005bee <_printf_common+0xd2>
 8005bb8:	2000      	movs	r0, #0
 8005bba:	e008      	b.n	8005bce <_printf_common+0xb2>
 8005bbc:	2301      	movs	r3, #1
 8005bbe:	4652      	mov	r2, sl
 8005bc0:	4641      	mov	r1, r8
 8005bc2:	4638      	mov	r0, r7
 8005bc4:	47c8      	blx	r9
 8005bc6:	3001      	adds	r0, #1
 8005bc8:	d103      	bne.n	8005bd2 <_printf_common+0xb6>
 8005bca:	f04f 30ff 	mov.w	r0, #4294967295
 8005bce:	e8bd 87f0 	ldmia.w	sp!, {r4, r5, r6, r7, r8, r9, sl, pc}
 8005bd2:	3501      	adds	r5, #1
 8005bd4:	e7c1      	b.n	8005b5a <_printf_common+0x3e>
 8005bd6:	2030      	movs	r0, #48	@ 0x30
 8005bd8:	18e1      	adds	r1, r4, r3
 8005bda:	f881 0043 	strb.w	r0, [r1, #67]	@ 0x43
 8005bde:	1c5a      	adds	r2, r3, #1
 8005be0:	f894 1045 	ldrb.w	r1, [r4, #69]	@ 0x45
 8005be4:	4422      	add	r2, r4
 8005be6:	3302      	adds	r3, #2
 8005be8:	f882 1043 	strb.w	r1, [r2, #67]	@ 0x43
 8005bec:	e7c2      	b.n	8005b74 <_printf_common+0x58>
 8005bee:	2301      	movs	r3, #1
 8005bf0:	4622      	mov	r2, r4
 8005bf2:	4641      	mov	r1, r8
 8005bf4:	4638      	mov	r0, r7
 8005bf6:	47c8      	blx	r9
 8005bf8:	3001      	adds	r0, #1
 8005bfa:	d0e6      	beq.n	8005bca <_printf_common+0xae>
 8005bfc:	3601      	adds	r6, #1
 8005bfe:	e7d9      	b.n	8005bb4 <_printf_common+0x98>

08005c00 <_printf_i>:
 8005c00:	e92d 47ff 	stmdb	sp!, {r0, r1, r2, r3, r4, r5, r6, r7, r8, r9, sl, lr}
 8005c04:	7e0f      	ldrb	r7, [r1, #24]
 8005c06:	4691      	mov	r9, r2
 8005c08:	2f78      	cmp	r7, #120	@ 0x78
 8005c0a:	4680      	mov	r8, r0
 8005c0c:	460c      	mov	r4, r1
 8005c0e:	469a      	mov	sl, r3
 8005c10:	9e0c      	ldr	r6, [sp, #48]	@ 0x30
 8005c12:	f101 0243 	add.w	r2, r1, #67	@ 0x43
 8005c16:	d807      	bhi.n	8005c28 <_printf_i+0x28>
 8005c18:	2f62      	cmp	r7, #98	@ 0x62
 8005c1a:	d80a      	bhi.n	8005c32 <_printf_i+0x32>
 8005c1c:	2f00      	cmp	r7, #0
 8005c1e:	f000 80d3 	beq.w	8005dc8 <_printf_i+0x1c8>
 8005c22:	2f58      	cmp	r7, #88	@ 0x58
 8005c24:	f000 80ba 	beq.w	8005d9c <_printf_i+0x19c>
 8005c28:	f104 0642 	add.w	r6, r4, #66	@ 0x42
 8005c2c:	f884 7042 	strb.w	r7, [r4, #66]	@ 0x42
 8005c30:	e03a      	b.n	8005ca8 <_printf_i+0xa8>
 8005c32:	f1a7 0363 	sub.w	r3, r7, #99	@ 0x63
 8005c36:	2b15      	cmp	r3, #21
 8005c38:	d8f6      	bhi.n	8005c28 <_printf_i+0x28>
 8005c3a:	a101      	add	r1, pc, #4	@ (adr r1, 8005c40 <_printf_i+0x40>)
 8005c3c:	f851 f023 	ldr.w	pc, [r1, r3, lsl #2]
 8005c40:	08005c99 	.word	0x08005c99
 8005c44:	08005cad 	.word	0x08005cad
 8005c48:	08005c29 	.word	0x08005c29
 8005c4c:	08005c29 	.word	0x08005c29
 8005c50:	08005c29 	.word	0x08005c29
 8005c54:	08005c29 	.word	0x08005c29
 8005c58:	08005cad 	.word	0x08005cad
 8005c5c:	08005c29 	.word	0x08005c29
 8005c60:	08005c29 	.word	0x08005c29
 8005c64:	08005c29 	.word	0x08005c29
 8005c68:	08005c29 	.word	0x08005c29
 8005c6c:	08005daf 	.word	0x08005daf
 8005c70:	08005cd7 	.word	0x08005cd7
 8005c74:	08005d69 	.word	0x08005d69
 8005c78:	08005c29 	.word	0x08005c29
 8005c7c:	08005c29 	.word	0x08005c29
 8005c80:	08005dd1 	.word	0x08005dd1
 8005c84:	08005c29 	.word	0x08005c29
 8005c88:	08005cd7 	.word	0x08005cd7
 8005c8c:	08005c29 	.word	0x08005c29
 8005c90:	08005c29 	.word	0x08005c29
 8005c94:	08005d71 	.word	0x08005d71
 8005c98:	6833      	ldr	r3, [r6, #0]
 8005c9a:	1d1a      	adds	r2, r3, #4
 8005c9c:	681b      	ldr	r3, [r3, #0]
 8005c9e:	6032      	str	r2, [r6, #0]
 8005ca0:	f104 0642 	add.w	r6, r4, #66	@ 0x42
 8005ca4:	f884 3042 	strb.w	r3, [r4, #66]	@ 0x42
 8005ca8:	2301      	movs	r3, #1
 8005caa:	e09e      	b.n	8005dea <_printf_i+0x1ea>
 8005cac:	6833      	ldr	r3, [r6, #0]
 8005cae:	6820      	ldr	r0, [r4, #0]
 8005cb0:	1d19      	adds	r1, r3, #4
 8005cb2:	6031      	str	r1, [r6, #0]
 8005cb4:	0606      	lsls	r6, r0, #24
 8005cb6:	d501      	bpl.n	8005cbc <_printf_i+0xbc>
 8005cb8:	681d      	ldr	r5, [r3, #0]
 8005cba:	e003      	b.n	8005cc4 <_printf_i+0xc4>
 8005cbc:	0645      	lsls	r5, r0, #25
 8005cbe:	d5fb      	bpl.n	8005cb8 <_printf_i+0xb8>
 8005cc0:	f9b3 5000 	ldrsh.w	r5, [r3]
 8005cc4:	2d00      	cmp	r5, #0
 8005cc6:	da03      	bge.n	8005cd0 <_printf_i+0xd0>
 8005cc8:	232d      	movs	r3, #45	@ 0x2d
 8005cca:	426d      	negs	r5, r5
 8005ccc:	f884 3043 	strb.w	r3, [r4, #67]	@ 0x43
 8005cd0:	230a      	movs	r3, #10
 8005cd2:	4859      	ldr	r0, [pc, #356]	@ (8005e38 <_printf_i+0x238>)
 8005cd4:	e011      	b.n	8005cfa <_printf_i+0xfa>
 8005cd6:	6821      	ldr	r1, [r4, #0]
 8005cd8:	6833      	ldr	r3, [r6, #0]
 8005cda:	0608      	lsls	r0, r1, #24
 8005cdc:	f853 5b04 	ldr.w	r5, [r3], #4
 8005ce0:	d402      	bmi.n	8005ce8 <_printf_i+0xe8>
 8005ce2:	0649      	lsls	r1, r1, #25
 8005ce4:	bf48      	it	mi
 8005ce6:	b2ad      	uxthmi	r5, r5
 8005ce8:	2f6f      	cmp	r7, #111	@ 0x6f
 8005cea:	6033      	str	r3, [r6, #0]
 8005cec:	bf14      	ite	ne
 8005cee:	230a      	movne	r3, #10
 8005cf0:	2308      	moveq	r3, #8
 8005cf2:	4851      	ldr	r0, [pc, #324]	@ (8005e38 <_printf_i+0x238>)
 8005cf4:	2100      	movs	r1, #0
 8005cf6:	f884 1043 	strb.w	r1, [r4, #67]	@ 0x43
 8005cfa:	6866      	ldr	r6, [r4, #4]
 8005cfc:	2e00      	cmp	r6, #0
 8005cfe:	bfa8      	it	ge
 8005d00:	6821      	ldrge	r1, [r4, #0]
 8005d02:	60a6      	str	r6, [r4, #8]
 8005d04:	bfa4      	itt	ge
 8005d06:	f021 0104 	bicge.w	r1, r1, #4
 8005d0a:	6021      	strge	r1, [r4, #0]
 8005d0c:	b90d      	cbnz	r5, 8005d12 <_printf_i+0x112>
 8005d0e:	2e00      	cmp	r6, #0
 8005d10:	d04b      	beq.n	8005daa <_printf_i+0x1aa>
 8005d12:	4616      	mov	r6, r2
 8005d14:	fbb5 f1f3 	udiv	r1, r5, r3
 8005d18:	fb03 5711 	mls	r7, r3, r1, r5
 8005d1c:	5dc7      	ldrb	r7, [r0, r7]
 8005d1e:	f806 7d01 	strb.w	r7, [r6, #-1]!
 8005d22:	462f      	mov	r7, r5
 8005d24:	42bb      	cmp	r3, r7
 8005d26:	460d      	mov	r5, r1
 8005d28:	d9f4      	bls.n	8005d14 <_printf_i+0x114>
 8005d2a:	2b08      	cmp	r3, #8
 8005d2c:	d10b      	bne.n	8005d46 <_printf_i+0x146>
 8005d2e:	6823      	ldr	r3, [r4, #0]
 8005d30:	07df      	lsls	r7, r3, #31
 8005d32:	d508      	bpl.n	8005d46 <_printf_i+0x146>
 8005d34:	6923      	ldr	r3, [r4, #16]
 8005d36:	6861      	ldr	r1, [r4, #4]
 8005d38:	4299      	cmp	r1, r3
 8005d3a:	bfde      	ittt	le
 8005d3c:	2330      	movle	r3, #48	@ 0x30
 8005d3e:	f806 3c01 	strble.w	r3, [r6, #-1]
 8005d42:	f106 36ff 	addle.w	r6, r6, #4294967295
 8005d46:	1b92      	subs	r2, r2, r6
 8005d48:	6122      	str	r2, [r4, #16]
 8005d4a:	464b      	mov	r3, r9
 8005d4c:	4621      	mov	r1, r4
 8005d4e:	4640      	mov	r0, r8
 8005d50:	f8cd a000 	str.w	sl, [sp]
 8005d54:	aa03      	add	r2, sp, #12
 8005d56:	f7ff fee1 	bl	8005b1c <_printf_common>
 8005d5a:	3001      	adds	r0, #1
 8005d5c:	d14a      	bne.n	8005df4 <_printf_i+0x1f4>
 8005d5e:	f04f 30ff 	mov.w	r0, #4294967295
 8005d62:	b004      	add	sp, #16
 8005d64:	e8bd 87f0 	ldmia.w	sp!, {r4, r5, r6, r7, r8, r9, sl, pc}
 8005d68:	6823      	ldr	r3, [r4, #0]
 8005d6a:	f043 0320 	orr.w	r3, r3, #32
 8005d6e:	6023      	str	r3, [r4, #0]
 8005d70:	2778      	movs	r7, #120	@ 0x78
 8005d72:	4832      	ldr	r0, [pc, #200]	@ (8005e3c <_printf_i+0x23c>)
 8005d74:	f884 7045 	strb.w	r7, [r4, #69]	@ 0x45
 8005d78:	6823      	ldr	r3, [r4, #0]
 8005d7a:	6831      	ldr	r1, [r6, #0]
 8005d7c:	061f      	lsls	r7, r3, #24
 8005d7e:	f851 5b04 	ldr.w	r5, [r1], #4
 8005d82:	d402      	bmi.n	8005d8a <_printf_i+0x18a>
 8005d84:	065f      	lsls	r7, r3, #25
 8005d86:	bf48      	it	mi
 8005d88:	b2ad      	uxthmi	r5, r5
 8005d8a:	6031      	str	r1, [r6, #0]
 8005d8c:	07d9      	lsls	r1, r3, #31
 8005d8e:	bf44      	itt	mi
 8005d90:	f043 0320 	orrmi.w	r3, r3, #32
 8005d94:	6023      	strmi	r3, [r4, #0]
 8005d96:	b11d      	cbz	r5, 8005da0 <_printf_i+0x1a0>
 8005d98:	2310      	movs	r3, #16
 8005d9a:	e7ab      	b.n	8005cf4 <_printf_i+0xf4>
 8005d9c:	4826      	ldr	r0, [pc, #152]	@ (8005e38 <_printf_i+0x238>)
 8005d9e:	e7e9      	b.n	8005d74 <_printf_i+0x174>
 8005da0:	6823      	ldr	r3, [r4, #0]
 8005da2:	f023 0320 	bic.w	r3, r3, #32
 8005da6:	6023      	str	r3, [r4, #0]
 8005da8:	e7f6      	b.n	8005d98 <_printf_i+0x198>
 8005daa:	4616      	mov	r6, r2
 8005dac:	e7bd      	b.n	8005d2a <_printf_i+0x12a>
 8005dae:	6833      	ldr	r3, [r6, #0]
 8005db0:	6825      	ldr	r5, [r4, #0]
 8005db2:	1d18      	adds	r0, r3, #4
 8005db4:	6961      	ldr	r1, [r4, #20]
 8005db6:	6030      	str	r0, [r6, #0]
 8005db8:	062e      	lsls	r6, r5, #24
 8005dba:	681b      	ldr	r3, [r3, #0]
 8005dbc:	d501      	bpl.n	8005dc2 <_printf_i+0x1c2>
 8005dbe:	6019      	str	r1, [r3, #0]
 8005dc0:	e002      	b.n	8005dc8 <_printf_i+0x1c8>
 8005dc2:	0668      	lsls	r0, r5, #25
 8005dc4:	d5fb      	bpl.n	8005dbe <_printf_i+0x1be>
 8005dc6:	8019      	strh	r1, [r3, #0]
 8005dc8:	2300      	movs	r3, #0
 8005dca:	4616      	mov	r6, r2
 8005dcc:	6123      	str	r3, [r4, #16]
 8005dce:	e7bc      	b.n	8005d4a <_printf_i+0x14a>
 8005dd0:	6833      	ldr	r3, [r6, #0]
 8005dd2:	2100      	movs	r1, #0
 8005dd4:	1d1a      	adds	r2, r3, #4
 8005dd6:	6032      	str	r2, [r6, #0]
 8005dd8:	681e      	ldr	r6, [r3, #0]
 8005dda:	6862      	ldr	r2, [r4, #4]
 8005ddc:	4630      	mov	r0, r6
 8005dde:	f000 f859 	bl	8005e94 <memchr>
 8005de2:	b108      	cbz	r0, 8005de8 <_printf_i+0x1e8>
 8005de4:	1b80      	subs	r0, r0, r6
 8005de6:	6060      	str	r0, [r4, #4]
 8005de8:	6863      	ldr	r3, [r4, #4]
 8005dea:	6123      	str	r3, [r4, #16]
 8005dec:	2300      	movs	r3, #0
 8005dee:	f884 3043 	strb.w	r3, [r4, #67]	@ 0x43
 8005df2:	e7aa      	b.n	8005d4a <_printf_i+0x14a>
 8005df4:	4632      	mov	r2, r6
 8005df6:	4649      	mov	r1, r9
 8005df8:	4640      	mov	r0, r8
 8005dfa:	6923      	ldr	r3, [r4, #16]
 8005dfc:	47d0      	blx	sl
 8005dfe:	3001      	adds	r0, #1
 8005e00:	d0ad      	beq.n	8005d5e <_printf_i+0x15e>
 8005e02:	6823      	ldr	r3, [r4, #0]
 8005e04:	079b      	lsls	r3, r3, #30
 8005e06:	d413      	bmi.n	8005e30 <_printf_i+0x230>
 8005e08:	68e0      	ldr	r0, [r4, #12]
 8005e0a:	9b03      	ldr	r3, [sp, #12]
 8005e0c:	4298      	cmp	r0, r3
 8005e0e:	bfb8      	it	lt
 8005e10:	4618      	movlt	r0, r3
 8005e12:	e7a6      	b.n	8005d62 <_printf_i+0x162>
 8005e14:	2301      	movs	r3, #1
 8005e16:	4632      	mov	r2, r6
 8005e18:	4649      	mov	r1, r9
 8005e1a:	4640      	mov	r0, r8
 8005e1c:	47d0      	blx	sl
 8005e1e:	3001      	adds	r0, #1
 8005e20:	d09d      	beq.n	8005d5e <_printf_i+0x15e>
 8005e22:	3501      	adds	r5, #1
 8005e24:	68e3      	ldr	r3, [r4, #12]
 8005e26:	9903      	ldr	r1, [sp, #12]
 8005e28:	1a5b      	subs	r3, r3, r1
 8005e2a:	42ab      	cmp	r3, r5
 8005e2c:	dcf2      	bgt.n	8005e14 <_printf_i+0x214>
 8005e2e:	e7eb      	b.n	8005e08 <_printf_i+0x208>
 8005e30:	2500      	movs	r5, #0
 8005e32:	f104 0619 	add.w	r6, r4, #25
 8005e36:	e7f5      	b.n	8005e24 <_printf_i+0x224>
 8005e38:	08005fef 	.word	0x08005fef
 8005e3c:	08006000 	.word	0x08006000

08005e40 <memmove>:
 8005e40:	4288      	cmp	r0, r1
 8005e42:	b510      	push	{r4, lr}
 8005e44:	eb01 0402 	add.w	r4, r1, r2
 8005e48:	d902      	bls.n	8005e50 <memmove+0x10>
 8005e4a:	4284      	cmp	r4, r0
 8005e4c:	4623      	mov	r3, r4
 8005e4e:	d807      	bhi.n	8005e60 <memmove+0x20>
 8005e50:	1e43      	subs	r3, r0, #1
 8005e52:	42a1      	cmp	r1, r4
 8005e54:	d008      	beq.n	8005e68 <memmove+0x28>
 8005e56:	f811 2b01 	ldrb.w	r2, [r1], #1
 8005e5a:	f803 2f01 	strb.w	r2, [r3, #1]!
 8005e5e:	e7f8      	b.n	8005e52 <memmove+0x12>
 8005e60:	4601      	mov	r1, r0
 8005e62:	4402      	add	r2, r0
 8005e64:	428a      	cmp	r2, r1
 8005e66:	d100      	bne.n	8005e6a <memmove+0x2a>
 8005e68:	bd10      	pop	{r4, pc}
 8005e6a:	f813 4d01 	ldrb.w	r4, [r3, #-1]!
 8005e6e:	f802 4d01 	strb.w	r4, [r2, #-1]!
 8005e72:	e7f7      	b.n	8005e64 <memmove+0x24>

08005e74 <_sbrk_r>:
 8005e74:	b538      	push	{r3, r4, r5, lr}
 8005e76:	2300      	movs	r3, #0
 8005e78:	4d05      	ldr	r5, [pc, #20]	@ (8005e90 <_sbrk_r+0x1c>)
 8005e7a:	4604      	mov	r4, r0
 8005e7c:	4608      	mov	r0, r1
 8005e7e:	602b      	str	r3, [r5, #0]
 8005e80:	f7fb f9b2 	bl	80011e8 <_sbrk>
 8005e84:	1c43      	adds	r3, r0, #1
 8005e86:	d102      	bne.n	8005e8e <_sbrk_r+0x1a>
 8005e88:	682b      	ldr	r3, [r5, #0]
 8005e8a:	b103      	cbz	r3, 8005e8e <_sbrk_r+0x1a>
 8005e8c:	6023      	str	r3, [r4, #0]
 8005e8e:	bd38      	pop	{r3, r4, r5, pc}
 8005e90:	200003a0 	.word	0x200003a0

08005e94 <memchr>:
 8005e94:	4603      	mov	r3, r0
 8005e96:	b510      	push	{r4, lr}
 8005e98:	b2c9      	uxtb	r1, r1
 8005e9a:	4402      	add	r2, r0
 8005e9c:	4293      	cmp	r3, r2
 8005e9e:	4618      	mov	r0, r3
 8005ea0:	d101      	bne.n	8005ea6 <memchr+0x12>
 8005ea2:	2000      	movs	r0, #0
 8005ea4:	e003      	b.n	8005eae <memchr+0x1a>
 8005ea6:	7804      	ldrb	r4, [r0, #0]
 8005ea8:	3301      	adds	r3, #1
 8005eaa:	428c      	cmp	r4, r1
 8005eac:	d1f6      	bne.n	8005e9c <memchr+0x8>
 8005eae:	bd10      	pop	{r4, pc}

08005eb0 <memcpy>:
 8005eb0:	440a      	add	r2, r1
 8005eb2:	4291      	cmp	r1, r2
 8005eb4:	f100 33ff 	add.w	r3, r0, #4294967295
 8005eb8:	d100      	bne.n	8005ebc <memcpy+0xc>
 8005eba:	4770      	bx	lr
 8005ebc:	b510      	push	{r4, lr}
 8005ebe:	f811 4b01 	ldrb.w	r4, [r1], #1
 8005ec2:	4291      	cmp	r1, r2
 8005ec4:	f803 4f01 	strb.w	r4, [r3, #1]!
 8005ec8:	d1f9      	bne.n	8005ebe <memcpy+0xe>
 8005eca:	bd10      	pop	{r4, pc}

08005ecc <_realloc_r>:
 8005ecc:	e92d 41f0 	stmdb	sp!, {r4, r5, r6, r7, r8, lr}
 8005ed0:	4680      	mov	r8, r0
 8005ed2:	4615      	mov	r5, r2
 8005ed4:	460c      	mov	r4, r1
 8005ed6:	b921      	cbnz	r1, 8005ee2 <_realloc_r+0x16>
 8005ed8:	4611      	mov	r1, r2
 8005eda:	e8bd 41f0 	ldmia.w	sp!, {r4, r5, r6, r7, r8, lr}
 8005ede:	f7ff bc39 	b.w	8005754 <_malloc_r>
 8005ee2:	b92a      	cbnz	r2, 8005ef0 <_realloc_r+0x24>
 8005ee4:	f7ff fbcc 	bl	8005680 <_free_r>
 8005ee8:	2400      	movs	r4, #0
 8005eea:	4620      	mov	r0, r4
 8005eec:	e8bd 81f0 	ldmia.w	sp!, {r4, r5, r6, r7, r8, pc}
 8005ef0:	f000 f81a 	bl	8005f28 <_malloc_usable_size_r>
 8005ef4:	4285      	cmp	r5, r0
 8005ef6:	4606      	mov	r6, r0
 8005ef8:	d802      	bhi.n	8005f00 <_realloc_r+0x34>
 8005efa:	ebb5 0f50 	cmp.w	r5, r0, lsr #1
 8005efe:	d8f4      	bhi.n	8005eea <_realloc_r+0x1e>
 8005f00:	4629      	mov	r1, r5
 8005f02:	4640      	mov	r0, r8
 8005f04:	f7ff fc26 	bl	8005754 <_malloc_r>
 8005f08:	4607      	mov	r7, r0
 8005f0a:	2800      	cmp	r0, #0
 8005f0c:	d0ec      	beq.n	8005ee8 <_realloc_r+0x1c>
 8005f0e:	42b5      	cmp	r5, r6
 8005f10:	462a      	mov	r2, r5
 8005f12:	4621      	mov	r1, r4
 8005f14:	bf28      	it	cs
 8005f16:	4632      	movcs	r2, r6
 8005f18:	f7ff ffca 	bl	8005eb0 <memcpy>
 8005f1c:	4621      	mov	r1, r4
 8005f1e:	4640      	mov	r0, r8
 8005f20:	f7ff fbae 	bl	8005680 <_free_r>
 8005f24:	463c      	mov	r4, r7
 8005f26:	e7e0      	b.n	8005eea <_realloc_r+0x1e>

08005f28 <_malloc_usable_size_r>:
 8005f28:	f851 3c04 	ldr.w	r3, [r1, #-4]
 8005f2c:	1f18      	subs	r0, r3, #4
 8005f2e:	2b00      	cmp	r3, #0
 8005f30:	bfbc      	itt	lt
 8005f32:	580b      	ldrlt	r3, [r1, r0]
 8005f34:	18c0      	addlt	r0, r0, r3
 8005f36:	4770      	bx	lr

08005f38 <_init>:
 8005f38:	b5f8      	push	{r3, r4, r5, r6, r7, lr}
 8005f3a:	bf00      	nop
 8005f3c:	bcf8      	pop	{r3, r4, r5, r6, r7}
 8005f3e:	bc08      	pop	{r3}
 8005f40:	469e      	mov	lr, r3
 8005f42:	4770      	bx	lr

08005f44 <_fini>:
 8005f44:	b5f8      	push	{r3, r4, r5, r6, r7, lr}
 8005f46:	bf00      	nop
 8005f48:	bcf8      	pop	{r3, r4, r5, r6, r7}
 8005f4a:	bc08      	pop	{r3}
 8005f4c:	469e      	mov	lr, r3
 8005f4e:	4770      	bx	lr
