
F103C6_project.elf:     file format elf32-littlearm

Sections:
Idx Name          Size      VMA       LMA       File off  Algn
  0 .isr_vector   0000010c  08000000  08000000  00001000  2**0
                  CONTENTS, ALLOC, LOAD, READONLY, DATA
  1 .text         00001cc8  0800010c  0800010c  0000110c  2**2
                  CONTENTS, ALLOC, LOAD, READONLY, CODE
  2 .rodata       0000003c  08001dd4  08001dd4  00002dd4  2**2
                  CONTENTS, ALLOC, LOAD, READONLY, DATA
  3 .ARM.extab    00000000  08001e10  08001e10  0000300c  2**0
                  CONTENTS
  4 .ARM          00000000  08001e10  08001e10  0000300c  2**0
                  CONTENTS
  5 .preinit_array 00000000  08001e10  08001e10  0000300c  2**0
                  CONTENTS, ALLOC, LOAD, DATA
  6 .init_array   00000004  08001e10  08001e10  00002e10  2**2
                  CONTENTS, ALLOC, LOAD, READONLY, DATA
  7 .fini_array   00000004  08001e14  08001e14  00002e14  2**2
                  CONTENTS, ALLOC, LOAD, READONLY, DATA
  8 .data         0000000c  20000000  08001e18  00003000  2**2
                  CONTENTS, ALLOC, LOAD, DATA
  9 .bss          0000015c  2000000c  08001e24  0000300c  2**2
                  ALLOC
 10 ._user_heap_stack 00000600  20000168  08001e24  00003168  2**0
                  ALLOC
 11 .ARM.attributes 00000029  00000000  00000000  0000300c  2**0
                  CONTENTS, READONLY
 12 .debug_info   0000a973  00000000  00000000  00003035  2**0
                  CONTENTS, READONLY, DEBUGGING, OCTETS
 13 .debug_abbrev 000017de  00000000  00000000  0000d9a8  2**0
                  CONTENTS, READONLY, DEBUGGING, OCTETS
 14 .debug_aranges 00000aa0  00000000  00000000  0000f188  2**3
                  CONTENTS, READONLY, DEBUGGING, OCTETS
 15 .debug_rnglists 0000085d  00000000  00000000  0000fc28  2**0
                  CONTENTS, READONLY, DEBUGGING, OCTETS
 16 .debug_macro  0000132b  00000000  00000000  00010485  2**0
                  CONTENTS, READONLY, DEBUGGING, OCTETS
 17 .debug_line   0000cf20  00000000  00000000  000117b0  2**0
                  CONTENTS, READONLY, DEBUGGING, OCTETS
 18 .debug_str    000800d0  00000000  00000000  0001e6d0  2**0
                  CONTENTS, READONLY, DEBUGGING, OCTETS
 19 .comment      00000043  00000000  00000000  0009e7a0  2**0
                  CONTENTS, READONLY
 20 .debug_frame  00002c64  00000000  00000000  0009e7e4  2**2
                  CONTENTS, READONLY, DEBUGGING, OCTETS
 21 .debug_line_str 00000073  00000000  00000000  000a1448  2**0
                  CONTENTS, READONLY, DEBUGGING, OCTETS

Disassembly of section .text:

0800010c <__do_global_dtors_aux>:
 800010c:	b510      	push	{r4, lr}
 800010e:	4c05      	ldr	r4, [pc, #20]	@ (8000124 <__do_global_dtors_aux+0x18>)
 8000110:	7823      	ldrb	r3, [r4, #0]
 8000112:	b933      	cbnz	r3, 8000122 <__do_global_dtors_aux+0x16>
 8000114:	4b04      	ldr	r3, [pc, #16]	@ (8000128 <__do_global_dtors_aux+0x1c>)
 8000116:	b113      	cbz	r3, 800011e <__do_global_dtors_aux+0x12>
 8000118:	4804      	ldr	r0, [pc, #16]	@ (800012c <__do_global_dtors_aux+0x20>)
 800011a:	f3af 8000 	nop.w
 800011e:	2301      	movs	r3, #1
 8000120:	7023      	strb	r3, [r4, #0]
 8000122:	bd10      	pop	{r4, pc}
 8000124:	2000000c 	.word	0x2000000c
 8000128:	00000000 	.word	0x00000000
 800012c:	08001dbc 	.word	0x08001dbc

08000130 <frame_dummy>:
 8000130:	b508      	push	{r3, lr}
 8000132:	4b03      	ldr	r3, [pc, #12]	@ (8000140 <frame_dummy+0x10>)
 8000134:	b11b      	cbz	r3, 800013e <frame_dummy+0xe>
 8000136:	4903      	ldr	r1, [pc, #12]	@ (8000144 <frame_dummy+0x14>)
 8000138:	4803      	ldr	r0, [pc, #12]	@ (8000148 <frame_dummy+0x18>)
 800013a:	f3af 8000 	nop.w
 800013e:	bd08      	pop	{r3, pc}
 8000140:	00000000 	.word	0x00000000
 8000144:	20000010 	.word	0x20000010
 8000148:	08001dbc 	.word	0x08001dbc

0800014c <main>:
/**
  * @brief  The application entry point.
  * @retval int
  */
int main(void)
{
 800014c:	b590      	push	{r4, r7, lr}
 800014e:	b085      	sub	sp, #20
 8000150:	af00      	add	r7, sp, #0

  /* USER CODE BEGIN 1 */
	const uint8_t hello[] = "Hello, World\r\n";
 8000152:	4b15      	ldr	r3, [pc, #84]	@ (80001a8 <main+0x5c>)
 8000154:	463c      	mov	r4, r7
 8000156:	cb0f      	ldmia	r3, {r0, r1, r2, r3}
 8000158:	c407      	stmia	r4!, {r0, r1, r2}
 800015a:	8023      	strh	r3, [r4, #0]
 800015c:	3402      	adds	r4, #2
 800015e:	0c1b      	lsrs	r3, r3, #16
 8000160:	7023      	strb	r3, [r4, #0]
  /* USER CODE END 1 */

  /* MCU Configuration--------------------------------------------------------*/

  /* Reset of all peripherals, Initializes the Flash interface and the Systick. */
  HAL_Init();
 8000162:	f000 fb01 	bl	8000768 <HAL_Init>
  /* USER CODE BEGIN Init */

  /* USER CODE END Init */

  /* Configure the system clock */
  SystemClock_Config();
 8000166:	f000 f823 	bl	80001b0 <SystemClock_Config>
  /* USER CODE BEGIN SysInit */

  /* USER CODE END SysInit */

  /* Initialize all configured peripherals */
  MX_GPIO_Init();
 800016a:	f000 f915 	bl	8000398 <MX_GPIO_Init>
  MX_USART1_UART_Init();
 800016e:	f000 f8bf 	bl	80002f0 <MX_USART1_UART_Init>
  MX_I2C1_Init();
 8000172:	f000 f859 	bl	8000228 <MX_I2C1_Init>
  MX_SPI1_Init();
 8000176:	f000 f885 	bl	8000284 <MX_SPI1_Init>
  MX_USART2_UART_Init();
 800017a:	f000 f8e3 	bl	8000344 <MX_USART2_UART_Init>
  /* USER CODE BEGIN 2 */
  HAL_UART_Transmit(&huart1, hello, sizeof(hello) - 1, 1000);
 800017e:	4639      	mov	r1, r7
 8000180:	f44f 737a 	mov.w	r3, #1000	@ 0x3e8
 8000184:	220e      	movs	r2, #14
 8000186:	4809      	ldr	r0, [pc, #36]	@ (80001ac <main+0x60>)
 8000188:	f001 fc6c 	bl	8001a64 <HAL_UART_Transmit>
  while (1)
  {
    /* USER CODE END WHILE */

    /* USER CODE BEGIN 3 */
	  HAL_UART_Transmit(&huart1, hello, sizeof(hello), 1000);
 800018c:	4639      	mov	r1, r7
 800018e:	f44f 737a 	mov.w	r3, #1000	@ 0x3e8
 8000192:	220f      	movs	r2, #15
 8000194:	4805      	ldr	r0, [pc, #20]	@ (80001ac <main+0x60>)
 8000196:	f001 fc65 	bl	8001a64 <HAL_UART_Transmit>
	  	  HAL_Delay(1000);
 800019a:	f44f 707a 	mov.w	r0, #1000	@ 0x3e8
 800019e:	f000 fb45 	bl	800082c <HAL_Delay>
	  HAL_UART_Transmit(&huart1, hello, sizeof(hello), 1000);
 80001a2:	bf00      	nop
 80001a4:	e7f2      	b.n	800018c <main+0x40>
 80001a6:	bf00      	nop
 80001a8:	08001dd4 	.word	0x08001dd4
 80001ac:	200000d4 	.word	0x200000d4

080001b0 <SystemClock_Config>:
/**
  * @brief System Clock Configuration
  * @retval None
  */
void SystemClock_Config(void)
{
 80001b0:	b580      	push	{r7, lr}
 80001b2:	b090      	sub	sp, #64	@ 0x40
 80001b4:	af00      	add	r7, sp, #0
  RCC_OscInitTypeDef RCC_OscInitStruct = {0};
 80001b6:	f107 0318 	add.w	r3, r7, #24
 80001ba:	2228      	movs	r2, #40	@ 0x28
 80001bc:	2100      	movs	r1, #0
 80001be:	4618      	mov	r0, r3
 80001c0:	f001 fdd0 	bl	8001d64 <memset>
  RCC_ClkInitTypeDef RCC_ClkInitStruct = {0};
 80001c4:	1d3b      	adds	r3, r7, #4
 80001c6:	2200      	movs	r2, #0
 80001c8:	601a      	str	r2, [r3, #0]
 80001ca:	605a      	str	r2, [r3, #4]
 80001cc:	609a      	str	r2, [r3, #8]
 80001ce:	60da      	str	r2, [r3, #12]
 80001d0:	611a      	str	r2, [r3, #16]

  /** Initializes the RCC Oscillators according to the specified parameters
  * in the RCC_OscInitTypeDef structure.
  */
  RCC_OscInitStruct.OscillatorType = RCC_OSCILLATORTYPE_HSI;
 80001d2:	2302      	movs	r3, #2
 80001d4:	61bb      	str	r3, [r7, #24]
  RCC_OscInitStruct.HSIState = RCC_HSI_ON;
 80001d6:	2301      	movs	r3, #1
 80001d8:	62bb      	str	r3, [r7, #40]	@ 0x28
  RCC_OscInitStruct.HSICalibrationValue = RCC_HSICALIBRATION_DEFAULT;
 80001da:	2310      	movs	r3, #16
 80001dc:	62fb      	str	r3, [r7, #44]	@ 0x2c
  RCC_OscInitStruct.PLL.PLLState = RCC_PLL_NONE;
 80001de:	2300      	movs	r3, #0
 80001e0:	637b      	str	r3, [r7, #52]	@ 0x34
  if (HAL_RCC_OscConfig(&RCC_OscInitStruct) != HAL_OK)
 80001e2:	f107 0318 	add.w	r3, r7, #24
 80001e6:	4618      	mov	r0, r3
 80001e8:	f000 ff00 	bl	8000fec <HAL_RCC_OscConfig>
 80001ec:	4603      	mov	r3, r0
 80001ee:	2b00      	cmp	r3, #0
 80001f0:	d001      	beq.n	80001f6 <SystemClock_Config+0x46>
  {
    Error_Handler();
 80001f2:	f000 f925 	bl	8000440 <Error_Handler>
  }

  /** Initializes the CPU, AHB and APB buses clocks
  */
  RCC_ClkInitStruct.ClockType = RCC_CLOCKTYPE_HCLK|RCC_CLOCKTYPE_SYSCLK
 80001f6:	230f      	movs	r3, #15
 80001f8:	607b      	str	r3, [r7, #4]
                              |RCC_CLOCKTYPE_PCLK1|RCC_CLOCKTYPE_PCLK2;
  RCC_ClkInitStruct.SYSCLKSource = RCC_SYSCLKSOURCE_HSI;
 80001fa:	2300      	movs	r3, #0
 80001fc:	60bb      	str	r3, [r7, #8]
  RCC_ClkInitStruct.AHBCLKDivider = RCC_SYSCLK_DIV1;
 80001fe:	2300      	movs	r3, #0
 8000200:	60fb      	str	r3, [r7, #12]
  RCC_ClkInitStruct.APB1CLKDivider = RCC_HCLK_DIV1;
 8000202:	2300      	movs	r3, #0
 8000204:	613b      	str	r3, [r7, #16]
  RCC_ClkInitStruct.APB2CLKDivider = RCC_HCLK_DIV1;
 8000206:	2300      	movs	r3, #0
 8000208:	617b      	str	r3, [r7, #20]

  if (HAL_RCC_ClockConfig(&RCC_ClkInitStruct, FLASH_LATENCY_0) != HAL_OK)
 800020a:	1d3b      	adds	r3, r7, #4
 800020c:	2100      	movs	r1, #0
 800020e:	4618      	mov	r0, r3
 8000210:	f001 f96e 	bl	80014f0 <HAL_RCC_ClockConfig>
 8000214:	4603      	mov	r3, r0
 8000216:	2b00      	cmp	r3, #0
 8000218:	d001      	beq.n	800021e <SystemClock_Config+0x6e>
  {
    Error_Handler();
 800021a:	f000 f911 	bl	8000440 <Error_Handler>
  }
}
 800021e:	bf00      	nop
 8000220:	3740      	adds	r7, #64	@ 0x40
 8000222:	46bd      	mov	sp, r7
 8000224:	bd80      	pop	{r7, pc}
	...

08000228 <MX_I2C1_Init>:
  * @brief I2C1 Initialization Function
  * @param None
  * @retval None
  */
static void MX_I2C1_Init(void)
{
 8000228:	b580      	push	{r7, lr}
 800022a:	af00      	add	r7, sp, #0
  /* USER CODE END I2C1_Init 0 */

  /* USER CODE BEGIN I2C1_Init 1 */

  /* USER CODE END I2C1_Init 1 */
  hi2c1.Instance = I2C1;
 800022c:	4b12      	ldr	r3, [pc, #72]	@ (8000278 <MX_I2C1_Init+0x50>)
 800022e:	4a13      	ldr	r2, [pc, #76]	@ (800027c <MX_I2C1_Init+0x54>)
 8000230:	601a      	str	r2, [r3, #0]
  hi2c1.Init.ClockSpeed = 100000;
 8000232:	4b11      	ldr	r3, [pc, #68]	@ (8000278 <MX_I2C1_Init+0x50>)
 8000234:	4a12      	ldr	r2, [pc, #72]	@ (8000280 <MX_I2C1_Init+0x58>)
 8000236:	605a      	str	r2, [r3, #4]
  hi2c1.Init.DutyCycle = I2C_DUTYCYCLE_2;
 8000238:	4b0f      	ldr	r3, [pc, #60]	@ (8000278 <MX_I2C1_Init+0x50>)
 800023a:	2200      	movs	r2, #0
 800023c:	609a      	str	r2, [r3, #8]
  hi2c1.Init.OwnAddress1 = 0;
 800023e:	4b0e      	ldr	r3, [pc, #56]	@ (8000278 <MX_I2C1_Init+0x50>)
 8000240:	2200      	movs	r2, #0
 8000242:	60da      	str	r2, [r3, #12]
  hi2c1.Init.AddressingMode = I2C_ADDRESSINGMODE_7BIT;
 8000244:	4b0c      	ldr	r3, [pc, #48]	@ (8000278 <MX_I2C1_Init+0x50>)
 8000246:	f44f 4280 	mov.w	r2, #16384	@ 0x4000
 800024a:	611a      	str	r2, [r3, #16]
  hi2c1.Init.DualAddressMode = I2C_DUALADDRESS_DISABLE;
 800024c:	4b0a      	ldr	r3, [pc, #40]	@ (8000278 <MX_I2C1_Init+0x50>)
 800024e:	2200      	movs	r2, #0
 8000250:	615a      	str	r2, [r3, #20]
  hi2c1.Init.OwnAddress2 = 0;
 8000252:	4b09      	ldr	r3, [pc, #36]	@ (8000278 <MX_I2C1_Init+0x50>)
 8000254:	2200      	movs	r2, #0
 8000256:	619a      	str	r2, [r3, #24]
  hi2c1.Init.GeneralCallMode = I2C_GENERALCALL_DISABLE;
 8000258:	4b07      	ldr	r3, [pc, #28]	@ (8000278 <MX_I2C1_Init+0x50>)
 800025a:	2200      	movs	r2, #0
 800025c:	61da      	str	r2, [r3, #28]
  hi2c1.Init.NoStretchMode = I2C_NOSTRETCH_DISABLE;
 800025e:	4b06      	ldr	r3, [pc, #24]	@ (8000278 <MX_I2C1_Init+0x50>)
 8000260:	2200      	movs	r2, #0
 8000262:	621a      	str	r2, [r3, #32]
  if (HAL_I2C_Init(&hi2c1) != HAL_OK)
 8000264:	4804      	ldr	r0, [pc, #16]	@ (8000278 <MX_I2C1_Init+0x50>)
 8000266:	f000 fd7d 	bl	8000d64 <HAL_I2C_Init>
 800026a:	4603      	mov	r3, r0
 800026c:	2b00      	cmp	r3, #0
 800026e:	d001      	beq.n	8000274 <MX_I2C1_Init+0x4c>
  {
    Error_Handler();
 8000270:	f000 f8e6 	bl	8000440 <Error_Handler>
  }
  /* USER CODE BEGIN I2C1_Init 2 */

  /* USER CODE END I2C1_Init 2 */

}
 8000274:	bf00      	nop
 8000276:	bd80      	pop	{r7, pc}
 8000278:	20000028 	.word	0x20000028
 800027c:	40005400 	.word	0x40005400
 8000280:	000186a0 	.word	0x000186a0

08000284 <MX_SPI1_Init>:
  * @brief SPI1 Initialization Function
  * @param None
  * @retval None
  */
static void MX_SPI1_Init(void)
{
 8000284:	b580      	push	{r7, lr}
 8000286:	af00      	add	r7, sp, #0

  /* USER CODE BEGIN SPI1_Init 1 */

  /* USER CODE END SPI1_Init 1 */
  /* SPI1 parameter configuration*/
  hspi1.Instance = SPI1;
 8000288:	4b17      	ldr	r3, [pc, #92]	@ (80002e8 <MX_SPI1_Init+0x64>)
 800028a:	4a18      	ldr	r2, [pc, #96]	@ (80002ec <MX_SPI1_Init+0x68>)
 800028c:	601a      	str	r2, [r3, #0]
  hspi1.Init.Mode = SPI_MODE_MASTER;
 800028e:	4b16      	ldr	r3, [pc, #88]	@ (80002e8 <MX_SPI1_Init+0x64>)
 8000290:	f44f 7282 	mov.w	r2, #260	@ 0x104
 8000294:	605a      	str	r2, [r3, #4]
  hspi1.Init.Direction = SPI_DIRECTION_2LINES;
 8000296:	4b14      	ldr	r3, [pc, #80]	@ (80002e8 <MX_SPI1_Init+0x64>)
 8000298:	2200      	movs	r2, #0
 800029a:	609a      	str	r2, [r3, #8]
  hspi1.Init.DataSize = SPI_DATASIZE_8BIT;
 800029c:	4b12      	ldr	r3, [pc, #72]	@ (80002e8 <MX_SPI1_Init+0x64>)
 800029e:	2200      	movs	r2, #0
 80002a0:	60da      	str	r2, [r3, #12]
  hspi1.Init.CLKPolarity = SPI_POLARITY_LOW;
 80002a2:	4b11      	ldr	r3, [pc, #68]	@ (80002e8 <MX_SPI1_Init+0x64>)
 80002a4:	2200      	movs	r2, #0
 80002a6:	611a      	str	r2, [r3, #16]
  hspi1.Init.CLKPhase = SPI_PHASE_1EDGE;
 80002a8:	4b0f      	ldr	r3, [pc, #60]	@ (80002e8 <MX_SPI1_Init+0x64>)
 80002aa:	2200      	movs	r2, #0
 80002ac:	615a      	str	r2, [r3, #20]
  hspi1.Init.NSS = SPI_NSS_SOFT;
 80002ae:	4b0e      	ldr	r3, [pc, #56]	@ (80002e8 <MX_SPI1_Init+0x64>)
 80002b0:	f44f 7200 	mov.w	r2, #512	@ 0x200
 80002b4:	619a      	str	r2, [r3, #24]
  hspi1.Init.BaudRatePrescaler = SPI_BAUDRATEPRESCALER_2;
 80002b6:	4b0c      	ldr	r3, [pc, #48]	@ (80002e8 <MX_SPI1_Init+0x64>)
 80002b8:	2200      	movs	r2, #0
 80002ba:	61da      	str	r2, [r3, #28]
  hspi1.Init.FirstBit = SPI_FIRSTBIT_MSB;
 80002bc:	4b0a      	ldr	r3, [pc, #40]	@ (80002e8 <MX_SPI1_Init+0x64>)
 80002be:	2200      	movs	r2, #0
 80002c0:	621a      	str	r2, [r3, #32]
  hspi1.Init.TIMode = SPI_TIMODE_DISABLE;
 80002c2:	4b09      	ldr	r3, [pc, #36]	@ (80002e8 <MX_SPI1_Init+0x64>)
 80002c4:	2200      	movs	r2, #0
 80002c6:	625a      	str	r2, [r3, #36]	@ 0x24
  hspi1.Init.CRCCalculation = SPI_CRCCALCULATION_DISABLE;
 80002c8:	4b07      	ldr	r3, [pc, #28]	@ (80002e8 <MX_SPI1_Init+0x64>)
 80002ca:	2200      	movs	r2, #0
 80002cc:	629a      	str	r2, [r3, #40]	@ 0x28
  hspi1.Init.CRCPolynomial = 10;
 80002ce:	4b06      	ldr	r3, [pc, #24]	@ (80002e8 <MX_SPI1_Init+0x64>)
 80002d0:	220a      	movs	r2, #10
 80002d2:	62da      	str	r2, [r3, #44]	@ 0x2c
  if (HAL_SPI_Init(&hspi1) != HAL_OK)
 80002d4:	4804      	ldr	r0, [pc, #16]	@ (80002e8 <MX_SPI1_Init+0x64>)
 80002d6:	f001 fa99 	bl	800180c <HAL_SPI_Init>
 80002da:	4603      	mov	r3, r0
 80002dc:	2b00      	cmp	r3, #0
 80002de:	d001      	beq.n	80002e4 <MX_SPI1_Init+0x60>
  {
    Error_Handler();
 80002e0:	f000 f8ae 	bl	8000440 <Error_Handler>
  }
  /* USER CODE BEGIN SPI1_Init 2 */

  /* USER CODE END SPI1_Init 2 */

}
 80002e4:	bf00      	nop
 80002e6:	bd80      	pop	{r7, pc}
 80002e8:	2000007c 	.word	0x2000007c
 80002ec:	40013000 	.word	0x40013000

080002f0 <MX_USART1_UART_Init>:
  * @brief USART1 Initialization Function
  * @param None
  * @retval None
  */
static void MX_USART1_UART_Init(void)
{
 80002f0:	b580      	push	{r7, lr}
 80002f2:	af00      	add	r7, sp, #0
  /* USER CODE END USART1_Init 0 */

  /* USER CODE BEGIN USART1_Init 1 */

  /* USER CODE END USART1_Init 1 */
  huart1.Instance = USART1;
 80002f4:	4b11      	ldr	r3, [pc, #68]	@ (800033c <MX_USART1_UART_Init+0x4c>)
 80002f6:	4a12      	ldr	r2, [pc, #72]	@ (8000340 <MX_USART1_UART_Init+0x50>)
 80002f8:	601a      	str	r2, [r3, #0]
  huart1.Init.BaudRate = 115200;
 80002fa:	4b10      	ldr	r3, [pc, #64]	@ (800033c <MX_USART1_UART_Init+0x4c>)
 80002fc:	f44f 32e1 	mov.w	r2, #115200	@ 0x1c200
 8000300:	605a      	str	r2, [r3, #4]
  huart1.Init.WordLength = UART_WORDLENGTH_8B;
 8000302:	4b0e      	ldr	r3, [pc, #56]	@ (800033c <MX_USART1_UART_Init+0x4c>)
 8000304:	2200      	movs	r2, #0
 8000306:	609a      	str	r2, [r3, #8]
  huart1.Init.StopBits = UART_STOPBITS_1;
 8000308:	4b0c      	ldr	r3, [pc, #48]	@ (800033c <MX_USART1_UART_Init+0x4c>)
 800030a:	2200      	movs	r2, #0
 800030c:	60da      	str	r2, [r3, #12]
  huart1.Init.Parity = UART_PARITY_NONE;
 800030e:	4b0b      	ldr	r3, [pc, #44]	@ (800033c <MX_USART1_UART_Init+0x4c>)
 8000310:	2200      	movs	r2, #0
 8000312:	611a      	str	r2, [r3, #16]
  huart1.Init.Mode = UART_MODE_TX_RX;
 8000314:	4b09      	ldr	r3, [pc, #36]	@ (800033c <MX_USART1_UART_Init+0x4c>)
 8000316:	220c      	movs	r2, #12
 8000318:	615a      	str	r2, [r3, #20]
  huart1.Init.HwFlowCtl = UART_HWCONTROL_NONE;
 800031a:	4b08      	ldr	r3, [pc, #32]	@ (800033c <MX_USART1_UART_Init+0x4c>)
 800031c:	2200      	movs	r2, #0
 800031e:	619a      	str	r2, [r3, #24]
  huart1.Init.OverSampling = UART_OVERSAMPLING_16;
 8000320:	4b06      	ldr	r3, [pc, #24]	@ (800033c <MX_USART1_UART_Init+0x4c>)
 8000322:	2200      	movs	r2, #0
 8000324:	61da      	str	r2, [r3, #28]
  if (HAL_UART_Init(&huart1) != HAL_OK)
 8000326:	4805      	ldr	r0, [pc, #20]	@ (800033c <MX_USART1_UART_Init+0x4c>)
 8000328:	f001 faf4 	bl	8001914 <HAL_UART_Init>
 800032c:	4603      	mov	r3, r0
 800032e:	2b00      	cmp	r3, #0
 8000330:	d001      	beq.n	8000336 <MX_USART1_UART_Init+0x46>
  {
    Error_Handler();
 8000332:	f000 f885 	bl	8000440 <Error_Handler>
  }
  /* USER CODE BEGIN USART1_Init 2 */

  /* USER CODE END USART1_Init 2 */

}
 8000336:	bf00      	nop
 8000338:	bd80      	pop	{r7, pc}
 800033a:	bf00      	nop
 800033c:	200000d4 	.word	0x200000d4
 8000340:	40013800 	.word	0x40013800

08000344 <MX_USART2_UART_Init>:
  * @brief USART2 Initialization Function
  * @param None
  * @retval None
  */
static void MX_USART2_UART_Init(void)
{
 8000344:	b580      	push	{r7, lr}
 8000346:	af00      	add	r7, sp, #0
  /* USER CODE END USART2_Init 0 */

  /* USER CODE BEGIN USART2_Init 1 */

  /* USER CODE END USART2_Init 1 */
  huart2.Instance = USART2;
 8000348:	4b11      	ldr	r3, [pc, #68]	@ (8000390 <MX_USART2_UART_Init+0x4c>)
 800034a:	4a12      	ldr	r2, [pc, #72]	@ (8000394 <MX_USART2_UART_Init+0x50>)
 800034c:	601a      	str	r2, [r3, #0]
  huart2.Init.BaudRate = 115200;
 800034e:	4b10      	ldr	r3, [pc, #64]	@ (8000390 <MX_USART2_UART_Init+0x4c>)
 8000350:	f44f 32e1 	mov.w	r2, #115200	@ 0x1c200
 8000354:	605a      	str	r2, [r3, #4]
  huart2.Init.WordLength = UART_WORDLENGTH_8B;
 8000356:	4b0e      	ldr	r3, [pc, #56]	@ (8000390 <MX_USART2_UART_Init+0x4c>)
 8000358:	2200      	movs	r2, #0
 800035a:	609a      	str	r2, [r3, #8]
  huart2.Init.StopBits = UART_STOPBITS_1;
 800035c:	4b0c      	ldr	r3, [pc, #48]	@ (8000390 <MX_USART2_UART_Init+0x4c>)
 800035e:	2200      	movs	r2, #0
 8000360:	60da      	str	r2, [r3, #12]
  huart2.Init.Parity = UART_PARITY_NONE;
 8000362:	4b0b      	ldr	r3, [pc, #44]	@ (8000390 <MX_USART2_UART_Init+0x4c>)
 8000364:	2200      	movs	r2, #0
 8000366:	611a      	str	r2, [r3, #16]
  huart2.Init.Mode = UART_MODE_TX_RX;
 8000368:	4b09      	ldr	r3, [pc, #36]	@ (8000390 <MX_USART2_UART_Init+0x4c>)
 800036a:	220c      	movs	r2, #12
 800036c:	615a      	str	r2, [r3, #20]
  huart2.Init.HwFlowCtl = UART_HWCONTROL_NONE;
 800036e:	4b08      	ldr	r3, [pc, #32]	@ (8000390 <MX_USART2_UART_Init+0x4c>)
 8000370:	2200      	movs	r2, #0
 8000372:	619a      	str	r2, [r3, #24]
  huart2.Init.OverSampling = UART_OVERSAMPLING_16;
 8000374:	4b06      	ldr	r3, [pc, #24]	@ (8000390 <MX_USART2_UART_Init+0x4c>)
 8000376:	2200      	movs	r2, #0
 8000378:	61da      	str	r2, [r3, #28]
  if (HAL_HalfDuplex_Init(&huart2) != HAL_OK)
 800037a:	4805      	ldr	r0, [pc, #20]	@ (8000390 <MX_USART2_UART_Init+0x4c>)
 800037c:	f001 fb1a 	bl	80019b4 <HAL_HalfDuplex_Init>
 8000380:	4603      	mov	r3, r0
 8000382:	2b00      	cmp	r3, #0
 8000384:	d001      	beq.n	800038a <MX_USART2_UART_Init+0x46>
  {
    Error_Handler();
 8000386:	f000 f85b 	bl	8000440 <Error_Handler>
  }
  /* USER CODE BEGIN USART2_Init 2 */

  /* USER CODE END USART2_Init 2 */

}
 800038a:	bf00      	nop
 800038c:	bd80      	pop	{r7, pc}
 800038e:	bf00      	nop
 8000390:	2000011c 	.word	0x2000011c
 8000394:	40004400 	.word	0x40004400

08000398 <MX_GPIO_Init>:
  * @brief GPIO Initialization Function
  * @param None
  * @retval None
  */
static void MX_GPIO_Init(void)
{
 8000398:	b580      	push	{r7, lr}
 800039a:	b086      	sub	sp, #24
 800039c:	af00      	add	r7, sp, #0
  GPIO_InitTypeDef GPIO_InitStruct = {0};
 800039e:	f107 0308 	add.w	r3, r7, #8
 80003a2:	2200      	movs	r2, #0
 80003a4:	601a      	str	r2, [r3, #0]
 80003a6:	605a      	str	r2, [r3, #4]
 80003a8:	609a      	str	r2, [r3, #8]
 80003aa:	60da      	str	r2, [r3, #12]
/* USER CODE BEGIN MX_GPIO_Init_1 */
/* USER CODE END MX_GPIO_Init_1 */

  /* GPIO Ports Clock Enable */
  __HAL_RCC_GPIOA_CLK_ENABLE();
 80003ac:	4b21      	ldr	r3, [pc, #132]	@ (8000434 <MX_GPIO_Init+0x9c>)
 80003ae:	699b      	ldr	r3, [r3, #24]
 80003b0:	4a20      	ldr	r2, [pc, #128]	@ (8000434 <MX_GPIO_Init+0x9c>)
 80003b2:	f043 0304 	orr.w	r3, r3, #4
 80003b6:	6193      	str	r3, [r2, #24]
 80003b8:	4b1e      	ldr	r3, [pc, #120]	@ (8000434 <MX_GPIO_Init+0x9c>)
 80003ba:	699b      	ldr	r3, [r3, #24]
 80003bc:	f003 0304 	and.w	r3, r3, #4
 80003c0:	607b      	str	r3, [r7, #4]
 80003c2:	687b      	ldr	r3, [r7, #4]
  __HAL_RCC_GPIOB_CLK_ENABLE();
 80003c4:	4b1b      	ldr	r3, [pc, #108]	@ (8000434 <MX_GPIO_Init+0x9c>)
 80003c6:	699b      	ldr	r3, [r3, #24]
 80003c8:	4a1a      	ldr	r2, [pc, #104]	@ (8000434 <MX_GPIO_Init+0x9c>)
 80003ca:	f043 0308 	orr.w	r3, r3, #8
 80003ce:	6193      	str	r3, [r2, #24]
 80003d0:	4b18      	ldr	r3, [pc, #96]	@ (8000434 <MX_GPIO_Init+0x9c>)
 80003d2:	699b      	ldr	r3, [r3, #24]
 80003d4:	f003 0308 	and.w	r3, r3, #8
 80003d8:	603b      	str	r3, [r7, #0]
 80003da:	683b      	ldr	r3, [r7, #0]

  /*Configure GPIO pin Output Level */
  HAL_GPIO_WritePin(USART1_CK_GPIO_Port, USART1_CK_Pin, GPIO_PIN_RESET);
 80003dc:	2200      	movs	r2, #0
 80003de:	f44f 7180 	mov.w	r1, #256	@ 0x100
 80003e2:	4815      	ldr	r0, [pc, #84]	@ (8000438 <MX_GPIO_Init+0xa0>)
 80003e4:	f000 fca6 	bl	8000d34 <HAL_GPIO_WritePin>

  /*Configure GPIO pin Output Level */
  HAL_GPIO_WritePin(I2C_CLK_GPIO_Port, I2C_CLK_Pin, GPIO_PIN_RESET);
 80003e8:	2200      	movs	r2, #0
 80003ea:	2120      	movs	r1, #32
 80003ec:	4813      	ldr	r0, [pc, #76]	@ (800043c <MX_GPIO_Init+0xa4>)
 80003ee:	f000 fca1 	bl	8000d34 <HAL_GPIO_WritePin>

  /*Configure GPIO pin : USART1_CK_Pin */
  GPIO_InitStruct.Pin = USART1_CK_Pin;
 80003f2:	f44f 7380 	mov.w	r3, #256	@ 0x100
 80003f6:	60bb      	str	r3, [r7, #8]
  GPIO_InitStruct.Mode = GPIO_MODE_OUTPUT_PP;
 80003f8:	2301      	movs	r3, #1
 80003fa:	60fb      	str	r3, [r7, #12]
  GPIO_InitStruct.Pull = GPIO_NOPULL;
 80003fc:	2300      	movs	r3, #0
 80003fe:	613b      	str	r3, [r7, #16]
  GPIO_InitStruct.Speed = GPIO_SPEED_FREQ_LOW;
 8000400:	2302      	movs	r3, #2
 8000402:	617b      	str	r3, [r7, #20]
  HAL_GPIO_Init(USART1_CK_GPIO_Port, &GPIO_InitStruct);
 8000404:	f107 0308 	add.w	r3, r7, #8
 8000408:	4619      	mov	r1, r3
 800040a:	480b      	ldr	r0, [pc, #44]	@ (8000438 <MX_GPIO_Init+0xa0>)
 800040c:	f000 fb16 	bl	8000a3c <HAL_GPIO_Init>

  /*Configure GPIO pin : I2C_CLK_Pin */
  GPIO_InitStruct.Pin = I2C_CLK_Pin;
 8000410:	2320      	movs	r3, #32
 8000412:	60bb      	str	r3, [r7, #8]
  GPIO_InitStruct.Mode = GPIO_MODE_OUTPUT_PP;
 8000414:	2301      	movs	r3, #1
 8000416:	60fb      	str	r3, [r7, #12]
  GPIO_InitStruct.Pull = GPIO_NOPULL;
 8000418:	2300      	movs	r3, #0
 800041a:	613b      	str	r3, [r7, #16]
  GPIO_InitStruct.Speed = GPIO_SPEED_FREQ_LOW;
 800041c:	2302      	movs	r3, #2
 800041e:	617b      	str	r3, [r7, #20]
  HAL_GPIO_Init(I2C_CLK_GPIO_Port, &GPIO_InitStruct);
 8000420:	f107 0308 	add.w	r3, r7, #8
 8000424:	4619      	mov	r1, r3
 8000426:	4805      	ldr	r0, [pc, #20]	@ (800043c <MX_GPIO_Init+0xa4>)
 8000428:	f000 fb08 	bl	8000a3c <HAL_GPIO_Init>

/* USER CODE BEGIN MX_GPIO_Init_2 */
/* USER CODE END MX_GPIO_Init_2 */
}
 800042c:	bf00      	nop
 800042e:	3718      	adds	r7, #24
 8000430:	46bd      	mov	sp, r7
 8000432:	bd80      	pop	{r7, pc}
 8000434:	40021000 	.word	0x40021000
 8000438:	40010800 	.word	0x40010800
 800043c:	40010c00 	.word	0x40010c00

08000440 <Error_Handler>:
/**
  * @brief  This function is executed in case of error occurrence.
  * @retval None
  */
void Error_Handler(void)
{
 8000440:	b480      	push	{r7}
 8000442:	af00      	add	r7, sp, #0
  \details Disables IRQ interrupts by setting the I-bit in the CPSR.
           Can only be executed in Privileged modes.
 */
__STATIC_FORCEINLINE void __disable_irq(void)
{
  __ASM volatile ("cpsid i" : : : "memory");
 8000444:	b672      	cpsid	i
}
 8000446:	bf00      	nop
  /* USER CODE BEGIN Error_Handler_Debug */
  /* User can add his own implementation to report the HAL error return state */
  __disable_irq();
  while (1)
 8000448:	bf00      	nop
 800044a:	e7fd      	b.n	8000448 <Error_Handler+0x8>

0800044c <HAL_MspInit>:
/* USER CODE END 0 */
/**
  * Initializes the Global MSP.
  */
void HAL_MspInit(void)
{
 800044c:	b480      	push	{r7}
 800044e:	b085      	sub	sp, #20
 8000450:	af00      	add	r7, sp, #0

  /* USER CODE BEGIN MspInit 0 */

  /* USER CODE END MspInit 0 */

  __HAL_RCC_AFIO_CLK_ENABLE();
 8000452:	4b15      	ldr	r3, [pc, #84]	@ (80004a8 <HAL_MspInit+0x5c>)
 8000454:	699b      	ldr	r3, [r3, #24]
 8000456:	4a14      	ldr	r2, [pc, #80]	@ (80004a8 <HAL_MspInit+0x5c>)
 8000458:	f043 0301 	orr.w	r3, r3, #1
 800045c:	6193      	str	r3, [r2, #24]
 800045e:	4b12      	ldr	r3, [pc, #72]	@ (80004a8 <HAL_MspInit+0x5c>)
 8000460:	699b      	ldr	r3, [r3, #24]
 8000462:	f003 0301 	and.w	r3, r3, #1
 8000466:	60bb      	str	r3, [r7, #8]
 8000468:	68bb      	ldr	r3, [r7, #8]
  __HAL_RCC_PWR_CLK_ENABLE();
 800046a:	4b0f      	ldr	r3, [pc, #60]	@ (80004a8 <HAL_MspInit+0x5c>)
 800046c:	69db      	ldr	r3, [r3, #28]
 800046e:	4a0e      	ldr	r2, [pc, #56]	@ (80004a8 <HAL_MspInit+0x5c>)
 8000470:	f043 5380 	orr.w	r3, r3, #268435456	@ 0x10000000
 8000474:	61d3      	str	r3, [r2, #28]
 8000476:	4b0c      	ldr	r3, [pc, #48]	@ (80004a8 <HAL_MspInit+0x5c>)
 8000478:	69db      	ldr	r3, [r3, #28]
 800047a:	f003 5380 	and.w	r3, r3, #268435456	@ 0x10000000
 800047e:	607b      	str	r3, [r7, #4]
 8000480:	687b      	ldr	r3, [r7, #4]

  /* System interrupt init*/

  /** NOJTAG: JTAG-DP Disabled and SW-DP Enabled
  */
  __HAL_AFIO_REMAP_SWJ_NOJTAG();
 8000482:	4b0a      	ldr	r3, [pc, #40]	@ (80004ac <HAL_MspInit+0x60>)
 8000484:	685b      	ldr	r3, [r3, #4]
 8000486:	60fb      	str	r3, [r7, #12]
 8000488:	68fb      	ldr	r3, [r7, #12]
 800048a:	f023 63e0 	bic.w	r3, r3, #117440512	@ 0x7000000
 800048e:	60fb      	str	r3, [r7, #12]
 8000490:	68fb      	ldr	r3, [r7, #12]
 8000492:	f043 7300 	orr.w	r3, r3, #33554432	@ 0x2000000
 8000496:	60fb      	str	r3, [r7, #12]
 8000498:	4a04      	ldr	r2, [pc, #16]	@ (80004ac <HAL_MspInit+0x60>)
 800049a:	68fb      	ldr	r3, [r7, #12]
 800049c:	6053      	str	r3, [r2, #4]

  /* USER CODE BEGIN MspInit 1 */

  /* USER CODE END MspInit 1 */
}
 800049e:	bf00      	nop
 80004a0:	3714      	adds	r7, #20
 80004a2:	46bd      	mov	sp, r7
 80004a4:	bc80      	pop	{r7}
 80004a6:	4770      	bx	lr
 80004a8:	40021000 	.word	0x40021000
 80004ac:	40010000 	.word	0x40010000

080004b0 <HAL_I2C_MspInit>:
* This function configures the hardware resources used in this example
* @param hi2c: I2C handle pointer
* @retval None
*/
void HAL_I2C_MspInit(I2C_HandleTypeDef* hi2c)
{
 80004b0:	b580      	push	{r7, lr}
 80004b2:	b088      	sub	sp, #32
 80004b4:	af00      	add	r7, sp, #0
 80004b6:	6078      	str	r0, [r7, #4]
  GPIO_InitTypeDef GPIO_InitStruct = {0};
 80004b8:	f107 0310 	add.w	r3, r7, #16
 80004bc:	2200      	movs	r2, #0
 80004be:	601a      	str	r2, [r3, #0]
 80004c0:	605a      	str	r2, [r3, #4]
 80004c2:	609a      	str	r2, [r3, #8]
 80004c4:	60da      	str	r2, [r3, #12]
  if(hi2c->Instance==I2C1)
 80004c6:	687b      	ldr	r3, [r7, #4]
 80004c8:	681b      	ldr	r3, [r3, #0]
 80004ca:	4a16      	ldr	r2, [pc, #88]	@ (8000524 <HAL_I2C_MspInit+0x74>)
 80004cc:	4293      	cmp	r3, r2
 80004ce:	d125      	bne.n	800051c <HAL_I2C_MspInit+0x6c>
  {
  /* USER CODE BEGIN I2C1_MspInit 0 */

  /* USER CODE END I2C1_MspInit 0 */

    __HAL_RCC_GPIOB_CLK_ENABLE();
 80004d0:	4b15      	ldr	r3, [pc, #84]	@ (8000528 <HAL_I2C_MspInit+0x78>)
 80004d2:	699b      	ldr	r3, [r3, #24]
 80004d4:	4a14      	ldr	r2, [pc, #80]	@ (8000528 <HAL_I2C_MspInit+0x78>)
 80004d6:	f043 0308 	orr.w	r3, r3, #8
 80004da:	6193      	str	r3, [r2, #24]
 80004dc:	4b12      	ldr	r3, [pc, #72]	@ (8000528 <HAL_I2C_MspInit+0x78>)
 80004de:	699b      	ldr	r3, [r3, #24]
 80004e0:	f003 0308 	and.w	r3, r3, #8
 80004e4:	60fb      	str	r3, [r7, #12]
 80004e6:	68fb      	ldr	r3, [r7, #12]
    /**I2C1 GPIO Configuration
    PB6     ------> I2C1_SCL
    PB7     ------> I2C1_SDA
    */
    GPIO_InitStruct.Pin = GPIO_PIN_6|GPIO_PIN_7;
 80004e8:	23c0      	movs	r3, #192	@ 0xc0
 80004ea:	613b      	str	r3, [r7, #16]
    GPIO_InitStruct.Mode = GPIO_MODE_AF_OD;
 80004ec:	2312      	movs	r3, #18
 80004ee:	617b      	str	r3, [r7, #20]
    GPIO_InitStruct.Pull = GPIO_NOPULL;
 80004f0:	2300      	movs	r3, #0
 80004f2:	61bb      	str	r3, [r7, #24]
    GPIO_InitStruct.Speed = GPIO_SPEED_FREQ_HIGH;
 80004f4:	2303      	movs	r3, #3
 80004f6:	61fb      	str	r3, [r7, #28]
    HAL_GPIO_Init(GPIOB, &GPIO_InitStruct);
 80004f8:	f107 0310 	add.w	r3, r7, #16
 80004fc:	4619      	mov	r1, r3
 80004fe:	480b      	ldr	r0, [pc, #44]	@ (800052c <HAL_I2C_MspInit+0x7c>)
 8000500:	f000 fa9c 	bl	8000a3c <HAL_GPIO_Init>

    /* Peripheral clock enable */
    __HAL_RCC_I2C1_CLK_ENABLE();
 8000504:	4b08      	ldr	r3, [pc, #32]	@ (8000528 <HAL_I2C_MspInit+0x78>)
 8000506:	69db      	ldr	r3, [r3, #28]
 8000508:	4a07      	ldr	r2, [pc, #28]	@ (8000528 <HAL_I2C_MspInit+0x78>)
 800050a:	f443 1300 	orr.w	r3, r3, #2097152	@ 0x200000
 800050e:	61d3      	str	r3, [r2, #28]
 8000510:	4b05      	ldr	r3, [pc, #20]	@ (8000528 <HAL_I2C_MspInit+0x78>)
 8000512:	69db      	ldr	r3, [r3, #28]
 8000514:	f403 1300 	and.w	r3, r3, #2097152	@ 0x200000
 8000518:	60bb      	str	r3, [r7, #8]
 800051a:	68bb      	ldr	r3, [r7, #8]
  /* USER CODE BEGIN I2C1_MspInit 1 */

  /* USER CODE END I2C1_MspInit 1 */
  }

}
 800051c:	bf00      	nop
 800051e:	3720      	adds	r7, #32
 8000520:	46bd      	mov	sp, r7
 8000522:	bd80      	pop	{r7, pc}
 8000524:	40005400 	.word	0x40005400
 8000528:	40021000 	.word	0x40021000
 800052c:	40010c00 	.word	0x40010c00

08000530 <HAL_SPI_MspInit>:
* This function configures the hardware resources used in this example
* @param hspi: SPI handle pointer
* @retval None
*/
void HAL_SPI_MspInit(SPI_HandleTypeDef* hspi)
{
 8000530:	b580      	push	{r7, lr}
 8000532:	b088      	sub	sp, #32
 8000534:	af00      	add	r7, sp, #0
 8000536:	6078      	str	r0, [r7, #4]
  GPIO_InitTypeDef GPIO_InitStruct = {0};
 8000538:	f107 0310 	add.w	r3, r7, #16
 800053c:	2200      	movs	r2, #0
 800053e:	601a      	str	r2, [r3, #0]
 8000540:	605a      	str	r2, [r3, #4]
 8000542:	609a      	str	r2, [r3, #8]
 8000544:	60da      	str	r2, [r3, #12]
  if(hspi->Instance==SPI1)
 8000546:	687b      	ldr	r3, [r7, #4]
 8000548:	681b      	ldr	r3, [r3, #0]
 800054a:	4a1b      	ldr	r2, [pc, #108]	@ (80005b8 <HAL_SPI_MspInit+0x88>)
 800054c:	4293      	cmp	r3, r2
 800054e:	d12f      	bne.n	80005b0 <HAL_SPI_MspInit+0x80>
  {
  /* USER CODE BEGIN SPI1_MspInit 0 */

  /* USER CODE END SPI1_MspInit 0 */
    /* Peripheral clock enable */
    __HAL_RCC_SPI1_CLK_ENABLE();
 8000550:	4b1a      	ldr	r3, [pc, #104]	@ (80005bc <HAL_SPI_MspInit+0x8c>)
 8000552:	699b      	ldr	r3, [r3, #24]
 8000554:	4a19      	ldr	r2, [pc, #100]	@ (80005bc <HAL_SPI_MspInit+0x8c>)
 8000556:	f443 5380 	orr.w	r3, r3, #4096	@ 0x1000
 800055a:	6193      	str	r3, [r2, #24]
 800055c:	4b17      	ldr	r3, [pc, #92]	@ (80005bc <HAL_SPI_MspInit+0x8c>)
 800055e:	699b      	ldr	r3, [r3, #24]
 8000560:	f403 5380 	and.w	r3, r3, #4096	@ 0x1000
 8000564:	60fb      	str	r3, [r7, #12]
 8000566:	68fb      	ldr	r3, [r7, #12]

    __HAL_RCC_GPIOA_CLK_ENABLE();
 8000568:	4b14      	ldr	r3, [pc, #80]	@ (80005bc <HAL_SPI_MspInit+0x8c>)
 800056a:	699b      	ldr	r3, [r3, #24]
 800056c:	4a13      	ldr	r2, [pc, #76]	@ (80005bc <HAL_SPI_MspInit+0x8c>)
 800056e:	f043 0304 	orr.w	r3, r3, #4
 8000572:	6193      	str	r3, [r2, #24]
 8000574:	4b11      	ldr	r3, [pc, #68]	@ (80005bc <HAL_SPI_MspInit+0x8c>)
 8000576:	699b      	ldr	r3, [r3, #24]
 8000578:	f003 0304 	and.w	r3, r3, #4
 800057c:	60bb      	str	r3, [r7, #8]
 800057e:	68bb      	ldr	r3, [r7, #8]
    /**SPI1 GPIO Configuration
    PA5     ------> SPI1_SCK
    PA6     ------> SPI1_MISO
    PA7     ------> SPI1_MOSI
    */
    GPIO_InitStruct.Pin = GPIO_PIN_5|GPIO_PIN_7;
 8000580:	23a0      	movs	r3, #160	@ 0xa0
 8000582:	613b      	str	r3, [r7, #16]
    GPIO_InitStruct.Mode = GPIO_MODE_AF_PP;
 8000584:	2302      	movs	r3, #2
 8000586:	617b      	str	r3, [r7, #20]
    GPIO_InitStruct.Speed = GPIO_SPEED_FREQ_HIGH;
 8000588:	2303      	movs	r3, #3
 800058a:	61fb      	str	r3, [r7, #28]
    HAL_GPIO_Init(GPIOA, &GPIO_InitStruct);
 800058c:	f107 0310 	add.w	r3, r7, #16
 8000590:	4619      	mov	r1, r3
 8000592:	480b      	ldr	r0, [pc, #44]	@ (80005c0 <HAL_SPI_MspInit+0x90>)
 8000594:	f000 fa52 	bl	8000a3c <HAL_GPIO_Init>

    GPIO_InitStruct.Pin = GPIO_PIN_6;
 8000598:	2340      	movs	r3, #64	@ 0x40
 800059a:	613b      	str	r3, [r7, #16]
    GPIO_InitStruct.Mode = GPIO_MODE_INPUT;
 800059c:	2300      	movs	r3, #0
 800059e:	617b      	str	r3, [r7, #20]
    GPIO_InitStruct.Pull = GPIO_NOPULL;
 80005a0:	2300      	movs	r3, #0
 80005a2:	61bb      	str	r3, [r7, #24]
    HAL_GPIO_Init(GPIOA, &GPIO_InitStruct);
 80005a4:	f107 0310 	add.w	r3, r7, #16
 80005a8:	4619      	mov	r1, r3
 80005aa:	4805      	ldr	r0, [pc, #20]	@ (80005c0 <HAL_SPI_MspInit+0x90>)
 80005ac:	f000 fa46 	bl	8000a3c <HAL_GPIO_Init>
  /* USER CODE BEGIN SPI1_MspInit 1 */

  /* USER CODE END SPI1_MspInit 1 */
  }

}
 80005b0:	bf00      	nop
 80005b2:	3720      	adds	r7, #32
 80005b4:	46bd      	mov	sp, r7
 80005b6:	bd80      	pop	{r7, pc}
 80005b8:	40013000 	.word	0x40013000
 80005bc:	40021000 	.word	0x40021000
 80005c0:	40010800 	.word	0x40010800

080005c4 <HAL_UART_MspInit>:
* This function configures the hardware resources used in this example
* @param huart: UART handle pointer
* @retval None
*/
void HAL_UART_MspInit(UART_HandleTypeDef* huart)
{
 80005c4:	b580      	push	{r7, lr}
 80005c6:	b08a      	sub	sp, #40	@ 0x28
 80005c8:	af00      	add	r7, sp, #0
 80005ca:	6078      	str	r0, [r7, #4]
  GPIO_InitTypeDef GPIO_InitStruct = {0};
 80005cc:	f107 0318 	add.w	r3, r7, #24
 80005d0:	2200      	movs	r2, #0
 80005d2:	601a      	str	r2, [r3, #0]
 80005d4:	605a      	str	r2, [r3, #4]
 80005d6:	609a      	str	r2, [r3, #8]
 80005d8:	60da      	str	r2, [r3, #12]
  if(huart->Instance==USART1)
 80005da:	687b      	ldr	r3, [r7, #4]
 80005dc:	681b      	ldr	r3, [r3, #0]
 80005de:	4a32      	ldr	r2, [pc, #200]	@ (80006a8 <HAL_UART_MspInit+0xe4>)
 80005e0:	4293      	cmp	r3, r2
 80005e2:	d132      	bne.n	800064a <HAL_UART_MspInit+0x86>
  {
  /* USER CODE BEGIN USART1_MspInit 0 */

  /* USER CODE END USART1_MspInit 0 */
    /* Peripheral clock enable */
    __HAL_RCC_USART1_CLK_ENABLE();
 80005e4:	4b31      	ldr	r3, [pc, #196]	@ (80006ac <HAL_UART_MspInit+0xe8>)
 80005e6:	699b      	ldr	r3, [r3, #24]
 80005e8:	4a30      	ldr	r2, [pc, #192]	@ (80006ac <HAL_UART_MspInit+0xe8>)
 80005ea:	f443 4380 	orr.w	r3, r3, #16384	@ 0x4000
 80005ee:	6193      	str	r3, [r2, #24]
 80005f0:	4b2e      	ldr	r3, [pc, #184]	@ (80006ac <HAL_UART_MspInit+0xe8>)
 80005f2:	699b      	ldr	r3, [r3, #24]
 80005f4:	f403 4380 	and.w	r3, r3, #16384	@ 0x4000
 80005f8:	617b      	str	r3, [r7, #20]
 80005fa:	697b      	ldr	r3, [r7, #20]

    __HAL_RCC_GPIOA_CLK_ENABLE();
 80005fc:	4b2b      	ldr	r3, [pc, #172]	@ (80006ac <HAL_UART_MspInit+0xe8>)
 80005fe:	699b      	ldr	r3, [r3, #24]
 8000600:	4a2a      	ldr	r2, [pc, #168]	@ (80006ac <HAL_UART_MspInit+0xe8>)
 8000602:	f043 0304 	orr.w	r3, r3, #4
 8000606:	6193      	str	r3, [r2, #24]
 8000608:	4b28      	ldr	r3, [pc, #160]	@ (80006ac <HAL_UART_MspInit+0xe8>)
 800060a:	699b      	ldr	r3, [r3, #24]
 800060c:	f003 0304 	and.w	r3, r3, #4
 8000610:	613b      	str	r3, [r7, #16]
 8000612:	693b      	ldr	r3, [r7, #16]
    /**USART1 GPIO Configuration
    PA9     ------> USART1_TX
    PA10     ------> USART1_RX
    */
    GPIO_InitStruct.Pin = GPIO_PIN_9;
 8000614:	f44f 7300 	mov.w	r3, #512	@ 0x200
 8000618:	61bb      	str	r3, [r7, #24]
    GPIO_InitStruct.Mode = GPIO_MODE_AF_PP;
 800061a:	2302      	movs	r3, #2
 800061c:	61fb      	str	r3, [r7, #28]
    GPIO_InitStruct.Speed = GPIO_SPEED_FREQ_HIGH;
 800061e:	2303      	movs	r3, #3
 8000620:	627b      	str	r3, [r7, #36]	@ 0x24
    HAL_GPIO_Init(GPIOA, &GPIO_InitStruct);
 8000622:	f107 0318 	add.w	r3, r7, #24
 8000626:	4619      	mov	r1, r3
 8000628:	4821      	ldr	r0, [pc, #132]	@ (80006b0 <HAL_UART_MspInit+0xec>)
 800062a:	f000 fa07 	bl	8000a3c <HAL_GPIO_Init>

    GPIO_InitStruct.Pin = GPIO_PIN_10;
 800062e:	f44f 6380 	mov.w	r3, #1024	@ 0x400
 8000632:	61bb      	str	r3, [r7, #24]
    GPIO_InitStruct.Mode = GPIO_MODE_INPUT;
 8000634:	2300      	movs	r3, #0
 8000636:	61fb      	str	r3, [r7, #28]
    GPIO_InitStruct.Pull = GPIO_NOPULL;
 8000638:	2300      	movs	r3, #0
 800063a:	623b      	str	r3, [r7, #32]
    HAL_GPIO_Init(GPIOA, &GPIO_InitStruct);
 800063c:	f107 0318 	add.w	r3, r7, #24
 8000640:	4619      	mov	r1, r3
 8000642:	481b      	ldr	r0, [pc, #108]	@ (80006b0 <HAL_UART_MspInit+0xec>)
 8000644:	f000 f9fa 	bl	8000a3c <HAL_GPIO_Init>
  /* USER CODE BEGIN USART2_MspInit 1 */

  /* USER CODE END USART2_MspInit 1 */
  }

}
 8000648:	e02a      	b.n	80006a0 <HAL_UART_MspInit+0xdc>
  else if(huart->Instance==USART2)
 800064a:	687b      	ldr	r3, [r7, #4]
 800064c:	681b      	ldr	r3, [r3, #0]
 800064e:	4a19      	ldr	r2, [pc, #100]	@ (80006b4 <HAL_UART_MspInit+0xf0>)
 8000650:	4293      	cmp	r3, r2
 8000652:	d125      	bne.n	80006a0 <HAL_UART_MspInit+0xdc>
    __HAL_RCC_USART2_CLK_ENABLE();
 8000654:	4b15      	ldr	r3, [pc, #84]	@ (80006ac <HAL_UART_MspInit+0xe8>)
 8000656:	69db      	ldr	r3, [r3, #28]
 8000658:	4a14      	ldr	r2, [pc, #80]	@ (80006ac <HAL_UART_MspInit+0xe8>)
 800065a:	f443 3300 	orr.w	r3, r3, #131072	@ 0x20000
 800065e:	61d3      	str	r3, [r2, #28]
 8000660:	4b12      	ldr	r3, [pc, #72]	@ (80006ac <HAL_UART_MspInit+0xe8>)
 8000662:	69db      	ldr	r3, [r3, #28]
 8000664:	f403 3300 	and.w	r3, r3, #131072	@ 0x20000
 8000668:	60fb      	str	r3, [r7, #12]
 800066a:	68fb      	ldr	r3, [r7, #12]
    __HAL_RCC_GPIOA_CLK_ENABLE();
 800066c:	4b0f      	ldr	r3, [pc, #60]	@ (80006ac <HAL_UART_MspInit+0xe8>)
 800066e:	699b      	ldr	r3, [r3, #24]
 8000670:	4a0e      	ldr	r2, [pc, #56]	@ (80006ac <HAL_UART_MspInit+0xe8>)
 8000672:	f043 0304 	orr.w	r3, r3, #4
 8000676:	6193      	str	r3, [r2, #24]
 8000678:	4b0c      	ldr	r3, [pc, #48]	@ (80006ac <HAL_UART_MspInit+0xe8>)
 800067a:	699b      	ldr	r3, [r3, #24]
 800067c:	f003 0304 	and.w	r3, r3, #4
 8000680:	60bb      	str	r3, [r7, #8]
 8000682:	68bb      	ldr	r3, [r7, #8]
    GPIO_InitStruct.Pin = GPIO_PIN_2;
 8000684:	2304      	movs	r3, #4
 8000686:	61bb      	str	r3, [r7, #24]
    GPIO_InitStruct.Mode = GPIO_MODE_AF_OD;
 8000688:	2312      	movs	r3, #18
 800068a:	61fb      	str	r3, [r7, #28]
    GPIO_InitStruct.Pull = GPIO_PULLUP;
 800068c:	2301      	movs	r3, #1
 800068e:	623b      	str	r3, [r7, #32]
    GPIO_InitStruct.Speed = GPIO_SPEED_FREQ_HIGH;
 8000690:	2303      	movs	r3, #3
 8000692:	627b      	str	r3, [r7, #36]	@ 0x24
    HAL_GPIO_Init(GPIOA, &GPIO_InitStruct);
 8000694:	f107 0318 	add.w	r3, r7, #24
 8000698:	4619      	mov	r1, r3
 800069a:	4805      	ldr	r0, [pc, #20]	@ (80006b0 <HAL_UART_MspInit+0xec>)
 800069c:	f000 f9ce 	bl	8000a3c <HAL_GPIO_Init>
}
 80006a0:	bf00      	nop
 80006a2:	3728      	adds	r7, #40	@ 0x28
 80006a4:	46bd      	mov	sp, r7
 80006a6:	bd80      	pop	{r7, pc}
 80006a8:	40013800 	.word	0x40013800
 80006ac:	40021000 	.word	0x40021000
 80006b0:	40010800 	.word	0x40010800
 80006b4:	40004400 	.word	0x40004400

080006b8 <NMI_Handler>:
/******************************************************************************/
/**
  * @brief This function handles Non maskable interrupt.
  */
void NMI_Handler(void)
{
 80006b8:	b480      	push	{r7}
 80006ba:	af00      	add	r7, sp, #0
  /* USER CODE BEGIN NonMaskableInt_IRQn 0 */

  /* USER CODE END NonMaskableInt_IRQn 0 */
  /* USER CODE BEGIN NonMaskableInt_IRQn 1 */
   while (1)
 80006bc:	bf00      	nop
 80006be:	e7fd      	b.n	80006bc <NMI_Handler+0x4>

080006c0 <HardFault_Handler>:

/**
  * @brief This function handles Hard fault interrupt.
  */
void HardFault_Handler(void)
{
 80006c0:	b480      	push	{r7}
 80006c2:	af00      	add	r7, sp, #0
  /* USER CODE BEGIN HardFault_IRQn 0 */

  /* USER CODE END HardFault_IRQn 0 */
  while (1)
 80006c4:	bf00      	nop
 80006c6:	e7fd      	b.n	80006c4 <HardFault_Handler+0x4>

080006c8 <MemManage_Handler>:

/**
  * @brief This function handles Memory management fault.
  */
void MemManage_Handler(void)
{
 80006c8:	b480      	push	{r7}
 80006ca:	af00      	add	r7, sp, #0
  /* USER CODE BEGIN MemoryManagement_IRQn 0 */

  /* USER CODE END MemoryManagement_IRQn 0 */
  while (1)
 80006cc:	bf00      	nop
 80006ce:	e7fd      	b.n	80006cc <MemManage_Handler+0x4>

080006d0 <BusFault_Handler>:

/**
  * @brief This function handles Prefetch fault, memory access fault.
  */
void BusFault_Handler(void)
{
 80006d0:	b480      	push	{r7}
 80006d2:	af00      	add	r7, sp, #0
  /* USER CODE BEGIN BusFault_IRQn 0 */

  /* USER CODE END BusFault_IRQn 0 */
  while (1)
 80006d4:	bf00      	nop
 80006d6:	e7fd      	b.n	80006d4 <BusFault_Handler+0x4>

080006d8 <UsageFault_Handler>:

/**
  * @brief This function handles Undefined instruction or illegal state.
  */
void UsageFault_Handler(void)
{
 80006d8:	b480      	push	{r7}
 80006da:	af00      	add	r7, sp, #0
  /* USER CODE BEGIN UsageFault_IRQn 0 */

  /* USER CODE END UsageFault_IRQn 0 */
  while (1)
 80006dc:	bf00      	nop
 80006de:	e7fd      	b.n	80006dc <UsageFault_Handler+0x4>

080006e0 <SVC_Handler>:

/**
  * @brief This function handles System service call via SWI instruction.
  */
void SVC_Handler(void)
{
 80006e0:	b480      	push	{r7}
 80006e2:	af00      	add	r7, sp, #0

  /* USER CODE END SVCall_IRQn 0 */
  /* USER CODE BEGIN SVCall_IRQn 1 */

  /* USER CODE END SVCall_IRQn 1 */
}
 80006e4:	bf00      	nop
 80006e6:	46bd      	mov	sp, r7
 80006e8:	bc80      	pop	{r7}
 80006ea:	4770      	bx	lr

080006ec <DebugMon_Handler>:

/**
  * @brief This function handles Debug monitor.
  */
void DebugMon_Handler(void)
{
 80006ec:	b480      	push	{r7}
 80006ee:	af00      	add	r7, sp, #0

  /* USER CODE END DebugMonitor_IRQn 0 */
  /* USER CODE BEGIN DebugMonitor_IRQn 1 */

  /* USER CODE END DebugMonitor_IRQn 1 */
}
 80006f0:	bf00      	nop
 80006f2:	46bd      	mov	sp, r7
 80006f4:	bc80      	pop	{r7}
 80006f6:	4770      	bx	lr

080006f8 <PendSV_Handler>:

/**
  * @brief This function handles Pendable request for system service.
  */
void PendSV_Handler(void)
{
 80006f8:	b480      	push	{r7}
 80006fa:	af00      	add	r7, sp, #0

  /* USER CODE END PendSV_IRQn 0 */
  /* USER CODE BEGIN PendSV_IRQn 1 */

  /* USER CODE END PendSV_IRQn 1 */
}
 80006fc:	bf00      	nop
 80006fe:	46bd      	mov	sp, r7
 8000700:	bc80      	pop	{r7}
 8000702:	4770      	bx	lr

08000704 <SysTick_Handler>:

/**
  * @brief This function handles System tick timer.
  */
void SysTick_Handler(void)
{
 8000704:	b580      	push	{r7, lr}
 8000706:	af00      	add	r7, sp, #0
  /* USER CODE BEGIN SysTick_IRQn 0 */

  /* USER CODE END SysTick_IRQn 0 */
  HAL_IncTick();
 8000708:	f000 f874 	bl	80007f4 <HAL_IncTick>
  /* USER CODE BEGIN SysTick_IRQn 1 */

  /* USER CODE END SysTick_IRQn 1 */
}
 800070c:	bf00      	nop
 800070e:	bd80      	pop	{r7, pc}

08000710 <SystemInit>:
  * @note   This function should be used only after reset.
  * @param  None
  * @retval None
  */
void SystemInit (void)
{
 8000710:	b480      	push	{r7}
 8000712:	af00      	add	r7, sp, #0

  /* Configure the Vector Table location -------------------------------------*/
#if defined(USER_VECT_TAB_ADDRESS)
  SCB->VTOR = VECT_TAB_BASE_ADDRESS | VECT_TAB_OFFSET; /* Vector Table Relocation in Internal SRAM. */
#endif /* USER_VECT_TAB_ADDRESS */
}
 8000714:	bf00      	nop
 8000716:	46bd      	mov	sp, r7
 8000718:	bc80      	pop	{r7}
 800071a:	4770      	bx	lr

0800071c <Reset_Handler>:
  .weak Reset_Handler
  .type Reset_Handler, %function
Reset_Handler:

/* Call the clock system initialization function.*/
    bl  SystemInit
 800071c:	f7ff fff8 	bl	8000710 <SystemInit>

/* Copy the data segment initializers from flash to SRAM */
  ldr r0, =_sdata
 8000720:	480b      	ldr	r0, [pc, #44]	@ (8000750 <LoopFillZerobss+0xe>)
  ldr r1, =_edata
 8000722:	490c      	ldr	r1, [pc, #48]	@ (8000754 <LoopFillZerobss+0x12>)
  ldr r2, =_sidata
 8000724:	4a0c      	ldr	r2, [pc, #48]	@ (8000758 <LoopFillZerobss+0x16>)
  movs r3, #0
 8000726:	2300      	movs	r3, #0
  b LoopCopyDataInit
 8000728:	e002      	b.n	8000730 <LoopCopyDataInit>

0800072a <CopyDataInit>:

CopyDataInit:
  ldr r4, [r2, r3]
 800072a:	58d4      	ldr	r4, [r2, r3]
  str r4, [r0, r3]
 800072c:	50c4      	str	r4, [r0, r3]
  adds r3, r3, #4
 800072e:	3304      	adds	r3, #4

08000730 <LoopCopyDataInit>:

LoopCopyDataInit:
  adds r4, r0, r3
 8000730:	18c4      	adds	r4, r0, r3
  cmp r4, r1
 8000732:	428c      	cmp	r4, r1
  bcc CopyDataInit
 8000734:	d3f9      	bcc.n	800072a <CopyDataInit>
  
/* Zero fill the bss segment. */
  ldr r2, =_sbss
 8000736:	4a09      	ldr	r2, [pc, #36]	@ (800075c <LoopFillZerobss+0x1a>)
  ldr r4, =_ebss
 8000738:	4c09      	ldr	r4, [pc, #36]	@ (8000760 <LoopFillZerobss+0x1e>)
  movs r3, #0
 800073a:	2300      	movs	r3, #0
  b LoopFillZerobss
 800073c:	e001      	b.n	8000742 <LoopFillZerobss>

0800073e <FillZerobss>:

FillZerobss:
  str  r3, [r2]
 800073e:	6013      	str	r3, [r2, #0]
  adds r2, r2, #4
 8000740:	3204      	adds	r2, #4

08000742 <LoopFillZerobss>:

LoopFillZerobss:
  cmp r2, r4
 8000742:	42a2      	cmp	r2, r4
  bcc FillZerobss
 8000744:	d3fb      	bcc.n	800073e <FillZerobss>

/* Call static constructors */
    bl __libc_init_array
 8000746:	f001 fb15 	bl	8001d74 <__libc_init_array>
/* Call the application's entry point.*/
  bl main
 800074a:	f7ff fcff 	bl	800014c <main>
  bx lr
 800074e:	4770      	bx	lr
  ldr r0, =_sdata
 8000750:	20000000 	.word	0x20000000
  ldr r1, =_edata
 8000754:	2000000c 	.word	0x2000000c
  ldr r2, =_sidata
 8000758:	08001e18 	.word	0x08001e18
  ldr r2, =_sbss
 800075c:	2000000c 	.word	0x2000000c
  ldr r4, =_ebss
 8000760:	20000168 	.word	0x20000168

08000764 <ADC1_2_IRQHandler>:
 * @retval : None
*/
    .section .text.Default_Handler,"ax",%progbits
Default_Handler:
Infinite_Loop:
  b Infinite_Loop
 8000764:	e7fe      	b.n	8000764 <ADC1_2_IRQHandler>
	...

08000768 <HAL_Init>:
  *         need to ensure that the SysTick time base is always set to 1 millisecond
  *         to have correct HAL operation.
  * @retval HAL status
  */
HAL_StatusTypeDef HAL_Init(void)
{
 8000768:	b580      	push	{r7, lr}
 800076a:	af00      	add	r7, sp, #0
    defined(STM32F102x6) || defined(STM32F102xB) || \
    defined(STM32F103x6) || defined(STM32F103xB) || defined(STM32F103xE) || defined(STM32F103xG) || \
    defined(STM32F105xC) || defined(STM32F107xC)

  /* Prefetch buffer is not available on value line devices */
  __HAL_FLASH_PREFETCH_BUFFER_ENABLE();
 800076c:	4b08      	ldr	r3, [pc, #32]	@ (8000790 <HAL_Init+0x28>)
 800076e:	681b      	ldr	r3, [r3, #0]
 8000770:	4a07      	ldr	r2, [pc, #28]	@ (8000790 <HAL_Init+0x28>)
 8000772:	f043 0310 	orr.w	r3, r3, #16
 8000776:	6013      	str	r3, [r2, #0]
#endif
#endif /* PREFETCH_ENABLE */

  /* Set Interrupt Group Priority */
  HAL_NVIC_SetPriorityGrouping(NVIC_PRIORITYGROUP_4);
 8000778:	2003      	movs	r0, #3
 800077a:	f000 f92b 	bl	80009d4 <HAL_NVIC_SetPriorityGrouping>

  /* Use systick as time base source and configure 1ms tick (default clock after Reset is HSI) */
  HAL_InitTick(TICK_INT_PRIORITY);
 800077e:	200f      	movs	r0, #15
 8000780:	f000 f808 	bl	8000794 <HAL_InitTick>

  /* Init the low level hardware */
  HAL_MspInit();
 8000784:	f7ff fe62 	bl	800044c <HAL_MspInit>

  /* Return function status */
  return HAL_OK;
 8000788:	2300      	movs	r3, #0
}
 800078a:	4618      	mov	r0, r3
 800078c:	bd80      	pop	{r7, pc}
 800078e:	bf00      	nop
 8000790:	40022000 	.word	0x40022000

08000794 <HAL_InitTick>:
  *       implementation  in user file.
  * @param TickPriority Tick interrupt priority.
  * @retval HAL status
  */
__weak HAL_StatusTypeDef HAL_InitTick(uint32_t TickPriority)
{
 8000794:	b580      	push	{r7, lr}
 8000796:	b082      	sub	sp, #8
 8000798:	af00      	add	r7, sp, #0
 800079a:	6078      	str	r0, [r7, #4]
  /* Configure the SysTick to have interrupt in 1ms time basis*/
  if (HAL_SYSTICK_Config(SystemCoreClock / (1000U / uwTickFreq)) > 0U)
 800079c:	4b12      	ldr	r3, [pc, #72]	@ (80007e8 <HAL_InitTick+0x54>)
 800079e:	681a      	ldr	r2, [r3, #0]
 80007a0:	4b12      	ldr	r3, [pc, #72]	@ (80007ec <HAL_InitTick+0x58>)
 80007a2:	781b      	ldrb	r3, [r3, #0]
 80007a4:	4619      	mov	r1, r3
 80007a6:	f44f 737a 	mov.w	r3, #1000	@ 0x3e8
 80007aa:	fbb3 f3f1 	udiv	r3, r3, r1
 80007ae:	fbb2 f3f3 	udiv	r3, r2, r3
 80007b2:	4618      	mov	r0, r3
 80007b4:	f000 f935 	bl	8000a22 <HAL_SYSTICK_Config>
 80007b8:	4603      	mov	r3, r0
 80007ba:	2b00      	cmp	r3, #0
 80007bc:	d001      	beq.n	80007c2 <HAL_InitTick+0x2e>
  {
    return HAL_ERROR;
 80007be:	2301      	movs	r3, #1
 80007c0:	e00e      	b.n	80007e0 <HAL_InitTick+0x4c>
  }

  /* Configure the SysTick IRQ priority */
  if (TickPriority < (1UL << __NVIC_PRIO_BITS))
 80007c2:	687b      	ldr	r3, [r7, #4]
 80007c4:	2b0f      	cmp	r3, #15
 80007c6:	d80a      	bhi.n	80007de <HAL_InitTick+0x4a>
  {
    HAL_NVIC_SetPriority(SysTick_IRQn, TickPriority, 0U);
 80007c8:	2200      	movs	r2, #0
 80007ca:	6879      	ldr	r1, [r7, #4]
 80007cc:	f04f 30ff 	mov.w	r0, #4294967295
 80007d0:	f000 f90b 	bl	80009ea <HAL_NVIC_SetPriority>
    uwTickPrio = TickPriority;
 80007d4:	4a06      	ldr	r2, [pc, #24]	@ (80007f0 <HAL_InitTick+0x5c>)
 80007d6:	687b      	ldr	r3, [r7, #4]
 80007d8:	6013      	str	r3, [r2, #0]
  {
    return HAL_ERROR;
  }

  /* Return function status */
  return HAL_OK;
 80007da:	2300      	movs	r3, #0
 80007dc:	e000      	b.n	80007e0 <HAL_InitTick+0x4c>
    return HAL_ERROR;
 80007de:	2301      	movs	r3, #1
}
 80007e0:	4618      	mov	r0, r3
 80007e2:	3708      	adds	r7, #8
 80007e4:	46bd      	mov	sp, r7
 80007e6:	bd80      	pop	{r7, pc}
 80007e8:	20000000 	.word	0x20000000
 80007ec:	20000008 	.word	0x20000008
 80007f0:	20000004 	.word	0x20000004

080007f4 <HAL_IncTick>:
  * @note This function is declared as __weak to be overwritten in case of other
  *      implementations in user file.
  * @retval None
  */
__weak void HAL_IncTick(void)
{
 80007f4:	b480      	push	{r7}
 80007f6:	af00      	add	r7, sp, #0
  uwTick += uwTickFreq;
 80007f8:	4b05      	ldr	r3, [pc, #20]	@ (8000810 <HAL_IncTick+0x1c>)
 80007fa:	781b      	ldrb	r3, [r3, #0]
 80007fc:	461a      	mov	r2, r3
 80007fe:	4b05      	ldr	r3, [pc, #20]	@ (8000814 <HAL_IncTick+0x20>)
 8000800:	681b      	ldr	r3, [r3, #0]
 8000802:	4413      	add	r3, r2
 8000804:	4a03      	ldr	r2, [pc, #12]	@ (8000814 <HAL_IncTick+0x20>)
 8000806:	6013      	str	r3, [r2, #0]
}
 8000808:	bf00      	nop
 800080a:	46bd      	mov	sp, r7
 800080c:	bc80      	pop	{r7}
 800080e:	4770      	bx	lr
 8000810:	20000008 	.word	0x20000008
 8000814:	20000164 	.word	0x20000164

08000818 <HAL_GetTick>:
  * @note  This function is declared as __weak to be overwritten in case of other
  *       implementations in user file.
  * @retval tick value
  */
__weak uint32_t HAL_GetTick(void)
{
 8000818:	b480      	push	{r7}
 800081a:	af00      	add	r7, sp, #0
  return uwTick;
 800081c:	4b02      	ldr	r3, [pc, #8]	@ (8000828 <HAL_GetTick+0x10>)
 800081e:	681b      	ldr	r3, [r3, #0]
}
 8000820:	4618      	mov	r0, r3
 8000822:	46bd      	mov	sp, r7
 8000824:	bc80      	pop	{r7}
 8000826:	4770      	bx	lr
 8000828:	20000164 	.word	0x20000164

0800082c <HAL_Delay>:
  *       implementations in user file.
  * @param Delay specifies the delay time length, in milliseconds.
  * @retval None
  */
__weak void HAL_Delay(uint32_t Delay)
{
 800082c:	b580      	push	{r7, lr}
 800082e:	b084      	sub	sp, #16
 8000830:	af00      	add	r7, sp, #0
 8000832:	6078      	str	r0, [r7, #4]
  uint32_t tickstart = HAL_GetTick();
 8000834:	f7ff fff0 	bl	8000818 <HAL_GetTick>
 8000838:	60b8      	str	r0, [r7, #8]
  uint32_t wait = Delay;
 800083a:	687b      	ldr	r3, [r7, #4]
 800083c:	60fb      	str	r3, [r7, #12]

  /* Add a freq to guarantee minimum wait */
  if (wait < HAL_MAX_DELAY)
 800083e:	68fb      	ldr	r3, [r7, #12]
 8000840:	f1b3 3fff 	cmp.w	r3, #4294967295
 8000844:	d005      	beq.n	8000852 <HAL_Delay+0x26>
  {
    wait += (uint32_t)(uwTickFreq);
 8000846:	4b0a      	ldr	r3, [pc, #40]	@ (8000870 <HAL_Delay+0x44>)
 8000848:	781b      	ldrb	r3, [r3, #0]
 800084a:	461a      	mov	r2, r3
 800084c:	68fb      	ldr	r3, [r7, #12]
 800084e:	4413      	add	r3, r2
 8000850:	60fb      	str	r3, [r7, #12]
  }

  while ((HAL_GetTick() - tickstart) < wait)
 8000852:	bf00      	nop
 8000854:	f7ff ffe0 	bl	8000818 <HAL_GetTick>
 8000858:	4602      	mov	r2, r0
 800085a:	68bb      	ldr	r3, [r7, #8]
 800085c:	1ad3      	subs	r3, r2, r3
 800085e:	68fa      	ldr	r2, [r7, #12]
 8000860:	429a      	cmp	r2, r3
 8000862:	d8f7      	bhi.n	8000854 <HAL_Delay+0x28>
  {
  }
}
 8000864:	bf00      	nop
 8000866:	bf00      	nop
 8000868:	3710      	adds	r7, #16
 800086a:	46bd      	mov	sp, r7
 800086c:	bd80      	pop	{r7, pc}
 800086e:	bf00      	nop
 8000870:	20000008 	.word	0x20000008

08000874 <__NVIC_SetPriorityGrouping>:
           In case of a conflict between priority grouping and available
           priority bits (__NVIC_PRIO_BITS), the smallest possible priority group is set.
  \param [in]      PriorityGroup  Priority grouping field.
 */
__STATIC_INLINE void __NVIC_SetPriorityGrouping(uint32_t PriorityGroup)
{
 8000874:	b480      	push	{r7}
 8000876:	b085      	sub	sp, #20
 8000878:	af00      	add	r7, sp, #0
 800087a:	6078      	str	r0, [r7, #4]
  uint32_t reg_value;
  uint32_t PriorityGroupTmp = (PriorityGroup & (uint32_t)0x07UL);             /* only values 0..7 are used          */
 800087c:	687b      	ldr	r3, [r7, #4]
 800087e:	f003 0307 	and.w	r3, r3, #7
 8000882:	60fb      	str	r3, [r7, #12]

  reg_value  =  SCB->AIRCR;                                                   /* read old register configuration    */
 8000884:	4b0c      	ldr	r3, [pc, #48]	@ (80008b8 <__NVIC_SetPriorityGrouping+0x44>)
 8000886:	68db      	ldr	r3, [r3, #12]
 8000888:	60bb      	str	r3, [r7, #8]
  reg_value &= ~((uint32_t)(SCB_AIRCR_VECTKEY_Msk | SCB_AIRCR_PRIGROUP_Msk)); /* clear bits to change               */
 800088a:	68ba      	ldr	r2, [r7, #8]
 800088c:	f64f 03ff 	movw	r3, #63743	@ 0xf8ff
 8000890:	4013      	ands	r3, r2
 8000892:	60bb      	str	r3, [r7, #8]
  reg_value  =  (reg_value                                   |
                ((uint32_t)0x5FAUL << SCB_AIRCR_VECTKEY_Pos) |
                (PriorityGroupTmp << SCB_AIRCR_PRIGROUP_Pos) );               /* Insert write key and priority group */
 8000894:	68fb      	ldr	r3, [r7, #12]
 8000896:	021a      	lsls	r2, r3, #8
                ((uint32_t)0x5FAUL << SCB_AIRCR_VECTKEY_Pos) |
 8000898:	68bb      	ldr	r3, [r7, #8]
 800089a:	4313      	orrs	r3, r2
  reg_value  =  (reg_value                                   |
 800089c:	f043 63bf 	orr.w	r3, r3, #100139008	@ 0x5f80000
 80008a0:	f443 3300 	orr.w	r3, r3, #131072	@ 0x20000
 80008a4:	60bb      	str	r3, [r7, #8]
  SCB->AIRCR =  reg_value;
 80008a6:	4a04      	ldr	r2, [pc, #16]	@ (80008b8 <__NVIC_SetPriorityGrouping+0x44>)
 80008a8:	68bb      	ldr	r3, [r7, #8]
 80008aa:	60d3      	str	r3, [r2, #12]
}
 80008ac:	bf00      	nop
 80008ae:	3714      	adds	r7, #20
 80008b0:	46bd      	mov	sp, r7
 80008b2:	bc80      	pop	{r7}
 80008b4:	4770      	bx	lr
 80008b6:	bf00      	nop
 80008b8:	e000ed00 	.word	0xe000ed00

080008bc <__NVIC_GetPriorityGrouping>:
  \brief   Get Priority Grouping
  \details Reads the priority grouping field from the NVIC Interrupt Controller.
  \return                Priority grouping field (SCB->AIRCR [10:8] PRIGROUP field).
 */
__STATIC_INLINE uint32_t __NVIC_GetPriorityGrouping(void)
{
 80008bc:	b480      	push	{r7}
 80008be:	af00      	add	r7, sp, #0
  return ((uint32_t)((SCB->AIRCR & SCB_AIRCR_PRIGROUP_Msk) >> SCB_AIRCR_PRIGROUP_Pos));
 80008c0:	4b04      	ldr	r3, [pc, #16]	@ (80008d4 <__NVIC_GetPriorityGrouping+0x18>)
 80008c2:	68db      	ldr	r3, [r3, #12]
 80008c4:	0a1b      	lsrs	r3, r3, #8
 80008c6:	f003 0307 	and.w	r3, r3, #7
}
 80008ca:	4618      	mov	r0, r3
 80008cc:	46bd      	mov	sp, r7
 80008ce:	bc80      	pop	{r7}
 80008d0:	4770      	bx	lr
 80008d2:	bf00      	nop
 80008d4:	e000ed00 	.word	0xe000ed00

080008d8 <__NVIC_SetPriority>:
  \param [in]      IRQn  Interrupt number.
  \param [in]  priority  Priority to set.
  \note    The priority cannot be set for every processor exception.
 */
__STATIC_INLINE void __NVIC_SetPriority(IRQn_Type IRQn, uint32_t priority)
{
 80008d8:	b480      	push	{r7}
 80008da:	b083      	sub	sp, #12
 80008dc:	af00      	add	r7, sp, #0
 80008de:	4603      	mov	r3, r0
 80008e0:	6039      	str	r1, [r7, #0]
 80008e2:	71fb      	strb	r3, [r7, #7]
  if ((int32_t)(IRQn) >= 0)
 80008e4:	f997 3007 	ldrsb.w	r3, [r7, #7]
 80008e8:	2b00      	cmp	r3, #0
 80008ea:	db0a      	blt.n	8000902 <__NVIC_SetPriority+0x2a>
  {
    NVIC->IP[((uint32_t)IRQn)]               = (uint8_t)((priority << (8U - __NVIC_PRIO_BITS)) & (uint32_t)0xFFUL);
 80008ec:	683b      	ldr	r3, [r7, #0]
 80008ee:	b2da      	uxtb	r2, r3
 80008f0:	490c      	ldr	r1, [pc, #48]	@ (8000924 <__NVIC_SetPriority+0x4c>)
 80008f2:	f997 3007 	ldrsb.w	r3, [r7, #7]
 80008f6:	0112      	lsls	r2, r2, #4
 80008f8:	b2d2      	uxtb	r2, r2
 80008fa:	440b      	add	r3, r1
 80008fc:	f883 2300 	strb.w	r2, [r3, #768]	@ 0x300
  }
  else
  {
    SCB->SHP[(((uint32_t)IRQn) & 0xFUL)-4UL] = (uint8_t)((priority << (8U - __NVIC_PRIO_BITS)) & (uint32_t)0xFFUL);
  }
}
 8000900:	e00a      	b.n	8000918 <__NVIC_SetPriority+0x40>
    SCB->SHP[(((uint32_t)IRQn) & 0xFUL)-4UL] = (uint8_t)((priority << (8U - __NVIC_PRIO_BITS)) & (uint32_t)0xFFUL);
 8000902:	683b      	ldr	r3, [r7, #0]
 8000904:	b2da      	uxtb	r2, r3
 8000906:	4908      	ldr	r1, [pc, #32]	@ (8000928 <__NVIC_SetPriority+0x50>)
 8000908:	79fb      	ldrb	r3, [r7, #7]
 800090a:	f003 030f 	and.w	r3, r3, #15
 800090e:	3b04      	subs	r3, #4
 8000910:	0112      	lsls	r2, r2, #4
 8000912:	b2d2      	uxtb	r2, r2
 8000914:	440b      	add	r3, r1
 8000916:	761a      	strb	r2, [r3, #24]
}
 8000918:	bf00      	nop
 800091a:	370c      	adds	r7, #12
 800091c:	46bd      	mov	sp, r7
 800091e:	bc80      	pop	{r7}
 8000920:	4770      	bx	lr
 8000922:	bf00      	nop
 8000924:	e000e100 	.word	0xe000e100
 8000928:	e000ed00 	.word	0xe000ed00

0800092c <NVIC_EncodePriority>:
  \param [in]   PreemptPriority  Preemptive priority value (starting from 0).
  \param [in]       SubPriority  Subpriority value (starting from 0).
  \return                        Encoded priority. Value can be used in the function \ref NVIC_SetPriority().
 */
__STATIC_INLINE uint32_t NVIC_EncodePriority (uint32_t PriorityGroup, uint32_t PreemptPriority, uint32_t SubPriority)
{
 800092c:	b480      	push	{r7}
 800092e:	b089      	sub	sp, #36	@ 0x24
 8000930:	af00      	add	r7, sp, #0
 8000932:	60f8      	str	r0, [r7, #12]
 8000934:	60b9      	str	r1, [r7, #8]
 8000936:	607a      	str	r2, [r7, #4]
  uint32_t PriorityGroupTmp = (PriorityGroup & (uint32_t)0x07UL);   /* only values 0..7 are used          */
 8000938:	68fb      	ldr	r3, [r7, #12]
 800093a:	f003 0307 	and.w	r3, r3, #7
 800093e:	61fb      	str	r3, [r7, #28]
  uint32_t PreemptPriorityBits;
  uint32_t SubPriorityBits;

  PreemptPriorityBits = ((7UL - PriorityGroupTmp) > (uint32_t)(__NVIC_PRIO_BITS)) ? (uint32_t)(__NVIC_PRIO_BITS) : (uint32_t)(7UL - PriorityGroupTmp);
 8000940:	69fb      	ldr	r3, [r7, #28]
 8000942:	f1c3 0307 	rsb	r3, r3, #7
 8000946:	2b04      	cmp	r3, #4
 8000948:	bf28      	it	cs
 800094a:	2304      	movcs	r3, #4
 800094c:	61bb      	str	r3, [r7, #24]
  SubPriorityBits     = ((PriorityGroupTmp + (uint32_t)(__NVIC_PRIO_BITS)) < (uint32_t)7UL) ? (uint32_t)0UL : (uint32_t)((PriorityGroupTmp - 7UL) + (uint32_t)(__NVIC_PRIO_BITS));
 800094e:	69fb      	ldr	r3, [r7, #28]
 8000950:	3304      	adds	r3, #4
 8000952:	2b06      	cmp	r3, #6
 8000954:	d902      	bls.n	800095c <NVIC_EncodePriority+0x30>
 8000956:	69fb      	ldr	r3, [r7, #28]
 8000958:	3b03      	subs	r3, #3
 800095a:	e000      	b.n	800095e <NVIC_EncodePriority+0x32>
 800095c:	2300      	movs	r3, #0
 800095e:	617b      	str	r3, [r7, #20]

  return (
           ((PreemptPriority & (uint32_t)((1UL << (PreemptPriorityBits)) - 1UL)) << SubPriorityBits) |
 8000960:	f04f 32ff 	mov.w	r2, #4294967295
 8000964:	69bb      	ldr	r3, [r7, #24]
 8000966:	fa02 f303 	lsl.w	r3, r2, r3
 800096a:	43da      	mvns	r2, r3
 800096c:	68bb      	ldr	r3, [r7, #8]
 800096e:	401a      	ands	r2, r3
 8000970:	697b      	ldr	r3, [r7, #20]
 8000972:	409a      	lsls	r2, r3
           ((SubPriority     & (uint32_t)((1UL << (SubPriorityBits    )) - 1UL)))
 8000974:	f04f 31ff 	mov.w	r1, #4294967295
 8000978:	697b      	ldr	r3, [r7, #20]
 800097a:	fa01 f303 	lsl.w	r3, r1, r3
 800097e:	43d9      	mvns	r1, r3
 8000980:	687b      	ldr	r3, [r7, #4]
 8000982:	400b      	ands	r3, r1
           ((PreemptPriority & (uint32_t)((1UL << (PreemptPriorityBits)) - 1UL)) << SubPriorityBits) |
 8000984:	4313      	orrs	r3, r2
         );
}
 8000986:	4618      	mov	r0, r3
 8000988:	3724      	adds	r7, #36	@ 0x24
 800098a:	46bd      	mov	sp, r7
 800098c:	bc80      	pop	{r7}
 800098e:	4770      	bx	lr

08000990 <SysTick_Config>:
  \note    When the variable <b>__Vendor_SysTickConfig</b> is set to 1, then the
           function <b>SysTick_Config</b> is not included. In this case, the file <b><i>device</i>.h</b>
           must contain a vendor-specific implementation of this function.
 */
__STATIC_INLINE uint32_t SysTick_Config(uint32_t ticks)
{
 8000990:	b580      	push	{r7, lr}
 8000992:	b082      	sub	sp, #8
 8000994:	af00      	add	r7, sp, #0
 8000996:	6078      	str	r0, [r7, #4]
  if ((ticks - 1UL) > SysTick_LOAD_RELOAD_Msk)
 8000998:	687b      	ldr	r3, [r7, #4]
 800099a:	3b01      	subs	r3, #1
 800099c:	f1b3 7f80 	cmp.w	r3, #16777216	@ 0x1000000
 80009a0:	d301      	bcc.n	80009a6 <SysTick_Config+0x16>
  {
    return (1UL);                                                   /* Reload value impossible */
 80009a2:	2301      	movs	r3, #1
 80009a4:	e00f      	b.n	80009c6 <SysTick_Config+0x36>
  }

  SysTick->LOAD  = (uint32_t)(ticks - 1UL);                         /* set reload register */
 80009a6:	4a0a      	ldr	r2, [pc, #40]	@ (80009d0 <SysTick_Config+0x40>)
 80009a8:	687b      	ldr	r3, [r7, #4]
 80009aa:	3b01      	subs	r3, #1
 80009ac:	6053      	str	r3, [r2, #4]
  NVIC_SetPriority (SysTick_IRQn, (1UL << __NVIC_PRIO_BITS) - 1UL); /* set Priority for Systick Interrupt */
 80009ae:	210f      	movs	r1, #15
 80009b0:	f04f 30ff 	mov.w	r0, #4294967295
 80009b4:	f7ff ff90 	bl	80008d8 <__NVIC_SetPriority>
  SysTick->VAL   = 0UL;                                             /* Load the SysTick Counter Value */
 80009b8:	4b05      	ldr	r3, [pc, #20]	@ (80009d0 <SysTick_Config+0x40>)
 80009ba:	2200      	movs	r2, #0
 80009bc:	609a      	str	r2, [r3, #8]
  SysTick->CTRL  = SysTick_CTRL_CLKSOURCE_Msk |
 80009be:	4b04      	ldr	r3, [pc, #16]	@ (80009d0 <SysTick_Config+0x40>)
 80009c0:	2207      	movs	r2, #7
 80009c2:	601a      	str	r2, [r3, #0]
                   SysTick_CTRL_TICKINT_Msk   |
                   SysTick_CTRL_ENABLE_Msk;                         /* Enable SysTick IRQ and SysTick Timer */
  return (0UL);                                                     /* Function successful */
 80009c4:	2300      	movs	r3, #0
}
 80009c6:	4618      	mov	r0, r3
 80009c8:	3708      	adds	r7, #8
 80009ca:	46bd      	mov	sp, r7
 80009cc:	bd80      	pop	{r7, pc}
 80009ce:	bf00      	nop
 80009d0:	e000e010 	.word	0xe000e010

080009d4 <HAL_NVIC_SetPriorityGrouping>:
  * @note   When the NVIC_PriorityGroup_0 is selected, IRQ preemption is no more possible. 
  *         The pending IRQ priority will be managed only by the subpriority. 
  * @retval None
  */
void HAL_NVIC_SetPriorityGrouping(uint32_t PriorityGroup)
{
 80009d4:	b580      	push	{r7, lr}
 80009d6:	b082      	sub	sp, #8
 80009d8:	af00      	add	r7, sp, #0
 80009da:	6078      	str	r0, [r7, #4]
  /* Check the parameters */
  assert_param(IS_NVIC_PRIORITY_GROUP(PriorityGroup));
  
  /* Set the PRIGROUP[10:8] bits according to the PriorityGroup parameter value */
  NVIC_SetPriorityGrouping(PriorityGroup);
 80009dc:	6878      	ldr	r0, [r7, #4]
 80009de:	f7ff ff49 	bl	8000874 <__NVIC_SetPriorityGrouping>
}
 80009e2:	bf00      	nop
 80009e4:	3708      	adds	r7, #8
 80009e6:	46bd      	mov	sp, r7
 80009e8:	bd80      	pop	{r7, pc}

080009ea <HAL_NVIC_SetPriority>:
  *         This parameter can be a value between 0 and 15
  *         A lower priority value indicates a higher priority.          
  * @retval None
  */
void HAL_NVIC_SetPriority(IRQn_Type IRQn, uint32_t PreemptPriority, uint32_t SubPriority)
{ 
 80009ea:	b580      	push	{r7, lr}
 80009ec:	b086      	sub	sp, #24
 80009ee:	af00      	add	r7, sp, #0
 80009f0:	4603      	mov	r3, r0
 80009f2:	60b9      	str	r1, [r7, #8]
 80009f4:	607a      	str	r2, [r7, #4]
 80009f6:	73fb      	strb	r3, [r7, #15]
  uint32_t prioritygroup = 0x00U;
 80009f8:	2300      	movs	r3, #0
 80009fa:	617b      	str	r3, [r7, #20]
  
  /* Check the parameters */
  assert_param(IS_NVIC_SUB_PRIORITY(SubPriority));
  assert_param(IS_NVIC_PREEMPTION_PRIORITY(PreemptPriority));
  
  prioritygroup = NVIC_GetPriorityGrouping();
 80009fc:	f7ff ff5e 	bl	80008bc <__NVIC_GetPriorityGrouping>
 8000a00:	6178      	str	r0, [r7, #20]
  
  NVIC_SetPriority(IRQn, NVIC_EncodePriority(prioritygroup, PreemptPriority, SubPriority));
 8000a02:	687a      	ldr	r2, [r7, #4]
 8000a04:	68b9      	ldr	r1, [r7, #8]
 8000a06:	6978      	ldr	r0, [r7, #20]
 8000a08:	f7ff ff90 	bl	800092c <NVIC_EncodePriority>
 8000a0c:	4602      	mov	r2, r0
 8000a0e:	f997 300f 	ldrsb.w	r3, [r7, #15]
 8000a12:	4611      	mov	r1, r2
 8000a14:	4618      	mov	r0, r3
 8000a16:	f7ff ff5f 	bl	80008d8 <__NVIC_SetPriority>
}
 8000a1a:	bf00      	nop
 8000a1c:	3718      	adds	r7, #24
 8000a1e:	46bd      	mov	sp, r7
 8000a20:	bd80      	pop	{r7, pc}

08000a22 <HAL_SYSTICK_Config>:
  * @param  TicksNumb: Specifies the ticks Number of ticks between two interrupts.
  * @retval status:  - 0  Function succeeded.
  *                  - 1  Function failed.
  */
uint32_t HAL_SYSTICK_Config(uint32_t TicksNumb)
{
 8000a22:	b580      	push	{r7, lr}
 8000a24:	b082      	sub	sp, #8
 8000a26:	af00      	add	r7, sp, #0
 8000a28:	6078      	str	r0, [r7, #4]
   return SysTick_Config(TicksNumb);
 8000a2a:	6878      	ldr	r0, [r7, #4]
 8000a2c:	f7ff ffb0 	bl	8000990 <SysTick_Config>
 8000a30:	4603      	mov	r3, r0
}
 8000a32:	4618      	mov	r0, r3
 8000a34:	3708      	adds	r7, #8
 8000a36:	46bd      	mov	sp, r7
 8000a38:	bd80      	pop	{r7, pc}
	...

08000a3c <HAL_GPIO_Init>:
  * @param  GPIO_Init: pointer to a GPIO_InitTypeDef structure that contains
  *         the configuration information for the specified GPIO peripheral.
  * @retval None
  */
void HAL_GPIO_Init(GPIO_TypeDef  *GPIOx, GPIO_InitTypeDef *GPIO_Init)
{
 8000a3c:	b480      	push	{r7}
 8000a3e:	b08b      	sub	sp, #44	@ 0x2c
 8000a40:	af00      	add	r7, sp, #0
 8000a42:	6078      	str	r0, [r7, #4]
 8000a44:	6039      	str	r1, [r7, #0]
  uint32_t position = 0x00u;
 8000a46:	2300      	movs	r3, #0
 8000a48:	627b      	str	r3, [r7, #36]	@ 0x24
  uint32_t ioposition;
  uint32_t iocurrent;
  uint32_t temp;
  uint32_t config = 0x00u;
 8000a4a:	2300      	movs	r3, #0
 8000a4c:	623b      	str	r3, [r7, #32]
  assert_param(IS_GPIO_ALL_INSTANCE(GPIOx));
  assert_param(IS_GPIO_PIN(GPIO_Init->Pin));
  assert_param(IS_GPIO_MODE(GPIO_Init->Mode));

  /* Configure the port pins */
  while (((GPIO_Init->Pin) >> position) != 0x00u)
 8000a4e:	e161      	b.n	8000d14 <HAL_GPIO_Init+0x2d8>
  {
    /* Get the IO position */
    ioposition = (0x01uL << position);
 8000a50:	2201      	movs	r2, #1
 8000a52:	6a7b      	ldr	r3, [r7, #36]	@ 0x24
 8000a54:	fa02 f303 	lsl.w	r3, r2, r3
 8000a58:	61fb      	str	r3, [r7, #28]

    /* Get the current IO position */
    iocurrent = (uint32_t)(GPIO_Init->Pin) & ioposition;
 8000a5a:	683b      	ldr	r3, [r7, #0]
 8000a5c:	681b      	ldr	r3, [r3, #0]
 8000a5e:	69fa      	ldr	r2, [r7, #28]
 8000a60:	4013      	ands	r3, r2
 8000a62:	61bb      	str	r3, [r7, #24]

    if (iocurrent == ioposition)
 8000a64:	69ba      	ldr	r2, [r7, #24]
 8000a66:	69fb      	ldr	r3, [r7, #28]
 8000a68:	429a      	cmp	r2, r3
 8000a6a:	f040 8150 	bne.w	8000d0e <HAL_GPIO_Init+0x2d2>
    {
      /* Check the Alternate function parameters */
      assert_param(IS_GPIO_AF_INSTANCE(GPIOx));

      /* Based on the required mode, filling config variable with MODEy[1:0] and CNFy[3:2] corresponding bits */
      switch (GPIO_Init->Mode)
 8000a6e:	683b      	ldr	r3, [r7, #0]
 8000a70:	685b      	ldr	r3, [r3, #4]
 8000a72:	4a97      	ldr	r2, [pc, #604]	@ (8000cd0 <HAL_GPIO_Init+0x294>)
 8000a74:	4293      	cmp	r3, r2
 8000a76:	d05e      	beq.n	8000b36 <HAL_GPIO_Init+0xfa>
 8000a78:	4a95      	ldr	r2, [pc, #596]	@ (8000cd0 <HAL_GPIO_Init+0x294>)
 8000a7a:	4293      	cmp	r3, r2
 8000a7c:	d875      	bhi.n	8000b6a <HAL_GPIO_Init+0x12e>
 8000a7e:	4a95      	ldr	r2, [pc, #596]	@ (8000cd4 <HAL_GPIO_Init+0x298>)
 8000a80:	4293      	cmp	r3, r2
 8000a82:	d058      	beq.n	8000b36 <HAL_GPIO_Init+0xfa>
 8000a84:	4a93      	ldr	r2, [pc, #588]	@ (8000cd4 <HAL_GPIO_Init+0x298>)
 8000a86:	4293      	cmp	r3, r2
 8000a88:	d86f      	bhi.n	8000b6a <HAL_GPIO_Init+0x12e>
 8000a8a:	4a93      	ldr	r2, [pc, #588]	@ (8000cd8 <HAL_GPIO_Init+0x29c>)
 8000a8c:	4293      	cmp	r3, r2
 8000a8e:	d052      	beq.n	8000b36 <HAL_GPIO_Init+0xfa>
 8000a90:	4a91      	ldr	r2, [pc, #580]	@ (8000cd8 <HAL_GPIO_Init+0x29c>)
 8000a92:	4293      	cmp	r3, r2
 8000a94:	d869      	bhi.n	8000b6a <HAL_GPIO_Init+0x12e>
 8000a96:	4a91      	ldr	r2, [pc, #580]	@ (8000cdc <HAL_GPIO_Init+0x2a0>)
 8000a98:	4293      	cmp	r3, r2
 8000a9a:	d04c      	beq.n	8000b36 <HAL_GPIO_Init+0xfa>
 8000a9c:	4a8f      	ldr	r2, [pc, #572]	@ (8000cdc <HAL_GPIO_Init+0x2a0>)
 8000a9e:	4293      	cmp	r3, r2
 8000aa0:	d863      	bhi.n	8000b6a <HAL_GPIO_Init+0x12e>
 8000aa2:	4a8f      	ldr	r2, [pc, #572]	@ (8000ce0 <HAL_GPIO_Init+0x2a4>)
 8000aa4:	4293      	cmp	r3, r2
 8000aa6:	d046      	beq.n	8000b36 <HAL_GPIO_Init+0xfa>
 8000aa8:	4a8d      	ldr	r2, [pc, #564]	@ (8000ce0 <HAL_GPIO_Init+0x2a4>)
 8000aaa:	4293      	cmp	r3, r2
 8000aac:	d85d      	bhi.n	8000b6a <HAL_GPIO_Init+0x12e>
 8000aae:	2b12      	cmp	r3, #18
 8000ab0:	d82a      	bhi.n	8000b08 <HAL_GPIO_Init+0xcc>
 8000ab2:	2b12      	cmp	r3, #18
 8000ab4:	d859      	bhi.n	8000b6a <HAL_GPIO_Init+0x12e>
 8000ab6:	a201      	add	r2, pc, #4	@ (adr r2, 8000abc <HAL_GPIO_Init+0x80>)
 8000ab8:	f852 f023 	ldr.w	pc, [r2, r3, lsl #2]
 8000abc:	08000b37 	.word	0x08000b37
 8000ac0:	08000b11 	.word	0x08000b11
 8000ac4:	08000b23 	.word	0x08000b23
 8000ac8:	08000b65 	.word	0x08000b65
 8000acc:	08000b6b 	.word	0x08000b6b
 8000ad0:	08000b6b 	.word	0x08000b6b
 8000ad4:	08000b6b 	.word	0x08000b6b
 8000ad8:	08000b6b 	.word	0x08000b6b
 8000adc:	08000b6b 	.word	0x08000b6b
 8000ae0:	08000b6b 	.word	0x08000b6b
 8000ae4:	08000b6b 	.word	0x08000b6b
 8000ae8:	08000b6b 	.word	0x08000b6b
 8000aec:	08000b6b 	.word	0x08000b6b
 8000af0:	08000b6b 	.word	0x08000b6b
 8000af4:	08000b6b 	.word	0x08000b6b
 8000af8:	08000b6b 	.word	0x08000b6b
 8000afc:	08000b6b 	.word	0x08000b6b
 8000b00:	08000b19 	.word	0x08000b19
 8000b04:	08000b2d 	.word	0x08000b2d
 8000b08:	4a76      	ldr	r2, [pc, #472]	@ (8000ce4 <HAL_GPIO_Init+0x2a8>)
 8000b0a:	4293      	cmp	r3, r2
 8000b0c:	d013      	beq.n	8000b36 <HAL_GPIO_Init+0xfa>
          config = GPIO_CR_MODE_INPUT + GPIO_CR_CNF_ANALOG;
          break;

        /* Parameters are checked with assert_param */
        default:
          break;
 8000b0e:	e02c      	b.n	8000b6a <HAL_GPIO_Init+0x12e>
          config = GPIO_Init->Speed + GPIO_CR_CNF_GP_OUTPUT_PP;
 8000b10:	683b      	ldr	r3, [r7, #0]
 8000b12:	68db      	ldr	r3, [r3, #12]
 8000b14:	623b      	str	r3, [r7, #32]
          break;
 8000b16:	e029      	b.n	8000b6c <HAL_GPIO_Init+0x130>
          config = GPIO_Init->Speed + GPIO_CR_CNF_GP_OUTPUT_OD;
 8000b18:	683b      	ldr	r3, [r7, #0]
 8000b1a:	68db      	ldr	r3, [r3, #12]
 8000b1c:	3304      	adds	r3, #4
 8000b1e:	623b      	str	r3, [r7, #32]
          break;
 8000b20:	e024      	b.n	8000b6c <HAL_GPIO_Init+0x130>
          config = GPIO_Init->Speed + GPIO_CR_CNF_AF_OUTPUT_PP;
 8000b22:	683b      	ldr	r3, [r7, #0]
 8000b24:	68db      	ldr	r3, [r3, #12]
 8000b26:	3308      	adds	r3, #8
 8000b28:	623b      	str	r3, [r7, #32]
          break;
 8000b2a:	e01f      	b.n	8000b6c <HAL_GPIO_Init+0x130>
          config = GPIO_Init->Speed + GPIO_CR_CNF_AF_OUTPUT_OD;
 8000b2c:	683b      	ldr	r3, [r7, #0]
 8000b2e:	68db      	ldr	r3, [r3, #12]
 8000b30:	330c      	adds	r3, #12
 8000b32:	623b      	str	r3, [r7, #32]
          break;
 8000b34:	e01a      	b.n	8000b6c <HAL_GPIO_Init+0x130>
          if (GPIO_Init->Pull == GPIO_NOPULL)
 8000b36:	683b      	ldr	r3, [r7, #0]
 8000b38:	689b      	ldr	r3, [r3, #8]
 8000b3a:	2b00      	cmp	r3, #0
 8000b3c:	d102      	bne.n	8000b44 <HAL_GPIO_Init+0x108>
            config = GPIO_CR_MODE_INPUT + GPIO_CR_CNF_INPUT_FLOATING;
 8000b3e:	2304      	movs	r3, #4
 8000b40:	623b      	str	r3, [r7, #32]
          break;
 8000b42:	e013      	b.n	8000b6c <HAL_GPIO_Init+0x130>
          else if (GPIO_Init->Pull == GPIO_PULLUP)
 8000b44:	683b      	ldr	r3, [r7, #0]
 8000b46:	689b      	ldr	r3, [r3, #8]
 8000b48:	2b01      	cmp	r3, #1
 8000b4a:	d105      	bne.n	8000b58 <HAL_GPIO_Init+0x11c>
            config = GPIO_CR_MODE_INPUT + GPIO_CR_CNF_INPUT_PU_PD;
 8000b4c:	2308      	movs	r3, #8
 8000b4e:	623b      	str	r3, [r7, #32]
            GPIOx->BSRR = ioposition;
 8000b50:	687b      	ldr	r3, [r7, #4]
 8000b52:	69fa      	ldr	r2, [r7, #28]
 8000b54:	611a      	str	r2, [r3, #16]
          break;
 8000b56:	e009      	b.n	8000b6c <HAL_GPIO_Init+0x130>
            config = GPIO_CR_MODE_INPUT + GPIO_CR_CNF_INPUT_PU_PD;
 8000b58:	2308      	movs	r3, #8
 8000b5a:	623b      	str	r3, [r7, #32]
            GPIOx->BRR = ioposition;
 8000b5c:	687b      	ldr	r3, [r7, #4]
 8000b5e:	69fa      	ldr	r2, [r7, #28]
 8000b60:	615a      	str	r2, [r3, #20]
          break;
 8000b62:	e003      	b.n	8000b6c <HAL_GPIO_Init+0x130>
          config = GPIO_CR_MODE_INPUT + GPIO_CR_CNF_ANALOG;
 8000b64:	2300      	movs	r3, #0
 8000b66:	623b      	str	r3, [r7, #32]
          break;
 8000b68:	e000      	b.n	8000b6c <HAL_GPIO_Init+0x130>
          break;
 8000b6a:	bf00      	nop
      }

      /* Check if the current bit belongs to first half or last half of the pin count number
       in order to address CRH or CRL register*/
      configregister = (iocurrent < GPIO_PIN_8) ? &GPIOx->CRL     : &GPIOx->CRH;
 8000b6c:	69bb      	ldr	r3, [r7, #24]
 8000b6e:	2bff      	cmp	r3, #255	@ 0xff
 8000b70:	d801      	bhi.n	8000b76 <HAL_GPIO_Init+0x13a>
 8000b72:	687b      	ldr	r3, [r7, #4]
 8000b74:	e001      	b.n	8000b7a <HAL_GPIO_Init+0x13e>
 8000b76:	687b      	ldr	r3, [r7, #4]
 8000b78:	3304      	adds	r3, #4
 8000b7a:	617b      	str	r3, [r7, #20]
      registeroffset = (iocurrent < GPIO_PIN_8) ? (position << 2u) : ((position - 8u) << 2u);
 8000b7c:	69bb      	ldr	r3, [r7, #24]
 8000b7e:	2bff      	cmp	r3, #255	@ 0xff
 8000b80:	d802      	bhi.n	8000b88 <HAL_GPIO_Init+0x14c>
 8000b82:	6a7b      	ldr	r3, [r7, #36]	@ 0x24
 8000b84:	009b      	lsls	r3, r3, #2
 8000b86:	e002      	b.n	8000b8e <HAL_GPIO_Init+0x152>
 8000b88:	6a7b      	ldr	r3, [r7, #36]	@ 0x24
 8000b8a:	3b08      	subs	r3, #8
 8000b8c:	009b      	lsls	r3, r3, #2
 8000b8e:	613b      	str	r3, [r7, #16]

      /* Apply the new configuration of the pin to the register */
      MODIFY_REG((*configregister), ((GPIO_CRL_MODE0 | GPIO_CRL_CNF0) << registeroffset), (config << registeroffset));
 8000b90:	697b      	ldr	r3, [r7, #20]
 8000b92:	681a      	ldr	r2, [r3, #0]
 8000b94:	210f      	movs	r1, #15
 8000b96:	693b      	ldr	r3, [r7, #16]
 8000b98:	fa01 f303 	lsl.w	r3, r1, r3
 8000b9c:	43db      	mvns	r3, r3
 8000b9e:	401a      	ands	r2, r3
 8000ba0:	6a39      	ldr	r1, [r7, #32]
 8000ba2:	693b      	ldr	r3, [r7, #16]
 8000ba4:	fa01 f303 	lsl.w	r3, r1, r3
 8000ba8:	431a      	orrs	r2, r3
 8000baa:	697b      	ldr	r3, [r7, #20]
 8000bac:	601a      	str	r2, [r3, #0]

      /*--------------------- EXTI Mode Configuration ------------------------*/
      /* Configure the External Interrupt or event for the current IO */
      if ((GPIO_Init->Mode & EXTI_MODE) == EXTI_MODE)
 8000bae:	683b      	ldr	r3, [r7, #0]
 8000bb0:	685b      	ldr	r3, [r3, #4]
 8000bb2:	f003 5380 	and.w	r3, r3, #268435456	@ 0x10000000
 8000bb6:	2b00      	cmp	r3, #0
 8000bb8:	f000 80a9 	beq.w	8000d0e <HAL_GPIO_Init+0x2d2>
      {
        /* Enable AFIO Clock */
        __HAL_RCC_AFIO_CLK_ENABLE();
 8000bbc:	4b4a      	ldr	r3, [pc, #296]	@ (8000ce8 <HAL_GPIO_Init+0x2ac>)
 8000bbe:	699b      	ldr	r3, [r3, #24]
 8000bc0:	4a49      	ldr	r2, [pc, #292]	@ (8000ce8 <HAL_GPIO_Init+0x2ac>)
 8000bc2:	f043 0301 	orr.w	r3, r3, #1
 8000bc6:	6193      	str	r3, [r2, #24]
 8000bc8:	4b47      	ldr	r3, [pc, #284]	@ (8000ce8 <HAL_GPIO_Init+0x2ac>)
 8000bca:	699b      	ldr	r3, [r3, #24]
 8000bcc:	f003 0301 	and.w	r3, r3, #1
 8000bd0:	60bb      	str	r3, [r7, #8]
 8000bd2:	68bb      	ldr	r3, [r7, #8]
        temp = AFIO->EXTICR[position >> 2u];
 8000bd4:	4a45      	ldr	r2, [pc, #276]	@ (8000cec <HAL_GPIO_Init+0x2b0>)
 8000bd6:	6a7b      	ldr	r3, [r7, #36]	@ 0x24
 8000bd8:	089b      	lsrs	r3, r3, #2
 8000bda:	3302      	adds	r3, #2
 8000bdc:	f852 3023 	ldr.w	r3, [r2, r3, lsl #2]
 8000be0:	60fb      	str	r3, [r7, #12]
        CLEAR_BIT(temp, (0x0Fu) << (4u * (position & 0x03u)));
 8000be2:	6a7b      	ldr	r3, [r7, #36]	@ 0x24
 8000be4:	f003 0303 	and.w	r3, r3, #3
 8000be8:	009b      	lsls	r3, r3, #2
 8000bea:	220f      	movs	r2, #15
 8000bec:	fa02 f303 	lsl.w	r3, r2, r3
 8000bf0:	43db      	mvns	r3, r3
 8000bf2:	68fa      	ldr	r2, [r7, #12]
 8000bf4:	4013      	ands	r3, r2
 8000bf6:	60fb      	str	r3, [r7, #12]
        SET_BIT(temp, (GPIO_GET_INDEX(GPIOx)) << (4u * (position & 0x03u)));
 8000bf8:	687b      	ldr	r3, [r7, #4]
 8000bfa:	4a3d      	ldr	r2, [pc, #244]	@ (8000cf0 <HAL_GPIO_Init+0x2b4>)
 8000bfc:	4293      	cmp	r3, r2
 8000bfe:	d00d      	beq.n	8000c1c <HAL_GPIO_Init+0x1e0>
 8000c00:	687b      	ldr	r3, [r7, #4]
 8000c02:	4a3c      	ldr	r2, [pc, #240]	@ (8000cf4 <HAL_GPIO_Init+0x2b8>)
 8000c04:	4293      	cmp	r3, r2
 8000c06:	d007      	beq.n	8000c18 <HAL_GPIO_Init+0x1dc>
 8000c08:	687b      	ldr	r3, [r7, #4]
 8000c0a:	4a3b      	ldr	r2, [pc, #236]	@ (8000cf8 <HAL_GPIO_Init+0x2bc>)
 8000c0c:	4293      	cmp	r3, r2
 8000c0e:	d101      	bne.n	8000c14 <HAL_GPIO_Init+0x1d8>
 8000c10:	2302      	movs	r3, #2
 8000c12:	e004      	b.n	8000c1e <HAL_GPIO_Init+0x1e2>
 8000c14:	2303      	movs	r3, #3
 8000c16:	e002      	b.n	8000c1e <HAL_GPIO_Init+0x1e2>
 8000c18:	2301      	movs	r3, #1
 8000c1a:	e000      	b.n	8000c1e <HAL_GPIO_Init+0x1e2>
 8000c1c:	2300      	movs	r3, #0
 8000c1e:	6a7a      	ldr	r2, [r7, #36]	@ 0x24
 8000c20:	f002 0203 	and.w	r2, r2, #3
 8000c24:	0092      	lsls	r2, r2, #2
 8000c26:	4093      	lsls	r3, r2
 8000c28:	68fa      	ldr	r2, [r7, #12]
 8000c2a:	4313      	orrs	r3, r2
 8000c2c:	60fb      	str	r3, [r7, #12]
        AFIO->EXTICR[position >> 2u] = temp;
 8000c2e:	492f      	ldr	r1, [pc, #188]	@ (8000cec <HAL_GPIO_Init+0x2b0>)
 8000c30:	6a7b      	ldr	r3, [r7, #36]	@ 0x24
 8000c32:	089b      	lsrs	r3, r3, #2
 8000c34:	3302      	adds	r3, #2
 8000c36:	68fa      	ldr	r2, [r7, #12]
 8000c38:	f841 2023 	str.w	r2, [r1, r3, lsl #2]


        /* Enable or disable the rising trigger */
        if ((GPIO_Init->Mode & RISING_EDGE) == RISING_EDGE)
 8000c3c:	683b      	ldr	r3, [r7, #0]
 8000c3e:	685b      	ldr	r3, [r3, #4]
 8000c40:	f403 1380 	and.w	r3, r3, #1048576	@ 0x100000
 8000c44:	2b00      	cmp	r3, #0
 8000c46:	d006      	beq.n	8000c56 <HAL_GPIO_Init+0x21a>
        {
          SET_BIT(EXTI->RTSR, iocurrent);
 8000c48:	4b2c      	ldr	r3, [pc, #176]	@ (8000cfc <HAL_GPIO_Init+0x2c0>)
 8000c4a:	689a      	ldr	r2, [r3, #8]
 8000c4c:	492b      	ldr	r1, [pc, #172]	@ (8000cfc <HAL_GPIO_Init+0x2c0>)
 8000c4e:	69bb      	ldr	r3, [r7, #24]
 8000c50:	4313      	orrs	r3, r2
 8000c52:	608b      	str	r3, [r1, #8]
 8000c54:	e006      	b.n	8000c64 <HAL_GPIO_Init+0x228>
        }
        else
        {
          CLEAR_BIT(EXTI->RTSR, iocurrent);
 8000c56:	4b29      	ldr	r3, [pc, #164]	@ (8000cfc <HAL_GPIO_Init+0x2c0>)
 8000c58:	689a      	ldr	r2, [r3, #8]
 8000c5a:	69bb      	ldr	r3, [r7, #24]
 8000c5c:	43db      	mvns	r3, r3
 8000c5e:	4927      	ldr	r1, [pc, #156]	@ (8000cfc <HAL_GPIO_Init+0x2c0>)
 8000c60:	4013      	ands	r3, r2
 8000c62:	608b      	str	r3, [r1, #8]
        }

        /* Enable or disable the falling trigger */
        if ((GPIO_Init->Mode & FALLING_EDGE) == FALLING_EDGE)
 8000c64:	683b      	ldr	r3, [r7, #0]
 8000c66:	685b      	ldr	r3, [r3, #4]
 8000c68:	f403 1300 	and.w	r3, r3, #2097152	@ 0x200000
 8000c6c:	2b00      	cmp	r3, #0
 8000c6e:	d006      	beq.n	8000c7e <HAL_GPIO_Init+0x242>
        {
          SET_BIT(EXTI->FTSR, iocurrent);
 8000c70:	4b22      	ldr	r3, [pc, #136]	@ (8000cfc <HAL_GPIO_Init+0x2c0>)
 8000c72:	68da      	ldr	r2, [r3, #12]
 8000c74:	4921      	ldr	r1, [pc, #132]	@ (8000cfc <HAL_GPIO_Init+0x2c0>)
 8000c76:	69bb      	ldr	r3, [r7, #24]
 8000c78:	4313      	orrs	r3, r2
 8000c7a:	60cb      	str	r3, [r1, #12]
 8000c7c:	e006      	b.n	8000c8c <HAL_GPIO_Init+0x250>
        }
        else
        {
          CLEAR_BIT(EXTI->FTSR, iocurrent);
 8000c7e:	4b1f      	ldr	r3, [pc, #124]	@ (8000cfc <HAL_GPIO_Init+0x2c0>)
 8000c80:	68da      	ldr	r2, [r3, #12]
 8000c82:	69bb      	ldr	r3, [r7, #24]
 8000c84:	43db      	mvns	r3, r3
 8000c86:	491d      	ldr	r1, [pc, #116]	@ (8000cfc <HAL_GPIO_Init+0x2c0>)
 8000c88:	4013      	ands	r3, r2
 8000c8a:	60cb      	str	r3, [r1, #12]
        }

        /* Configure the event mask */
        if ((GPIO_Init->Mode & GPIO_MODE_EVT) == GPIO_MODE_EVT)
 8000c8c:	683b      	ldr	r3, [r7, #0]
 8000c8e:	685b      	ldr	r3, [r3, #4]
 8000c90:	f403 3300 	and.w	r3, r3, #131072	@ 0x20000
 8000c94:	2b00      	cmp	r3, #0
 8000c96:	d006      	beq.n	8000ca6 <HAL_GPIO_Init+0x26a>
        {
          SET_BIT(EXTI->EMR, iocurrent);
 8000c98:	4b18      	ldr	r3, [pc, #96]	@ (8000cfc <HAL_GPIO_Init+0x2c0>)
 8000c9a:	685a      	ldr	r2, [r3, #4]
 8000c9c:	4917      	ldr	r1, [pc, #92]	@ (8000cfc <HAL_GPIO_Init+0x2c0>)
 8000c9e:	69bb      	ldr	r3, [r7, #24]
 8000ca0:	4313      	orrs	r3, r2
 8000ca2:	604b      	str	r3, [r1, #4]
 8000ca4:	e006      	b.n	8000cb4 <HAL_GPIO_Init+0x278>
        }
        else
        {
          CLEAR_BIT(EXTI->EMR, iocurrent);
 8000ca6:	4b15      	ldr	r3, [pc, #84]	@ (8000cfc <HAL_GPIO_Init+0x2c0>)
 8000ca8:	685a      	ldr	r2, [r3, #4]
 8000caa:	69bb      	ldr	r3, [r7, #24]
 8000cac:	43db      	mvns	r3, r3
 8000cae:	4913      	ldr	r1, [pc, #76]	@ (8000cfc <HAL_GPIO_Init+0x2c0>)
 8000cb0:	4013      	ands	r3, r2
 8000cb2:	604b      	str	r3, [r1, #4]
        }

        /* Configure the interrupt mask */
        if ((GPIO_Init->Mode & GPIO_MODE_IT) == GPIO_MODE_IT)
 8000cb4:	683b      	ldr	r3, [r7, #0]
 8000cb6:	685b      	ldr	r3, [r3, #4]
 8000cb8:	f403 3380 	and.w	r3, r3, #65536	@ 0x10000
 8000cbc:	2b00      	cmp	r3, #0
 8000cbe:	d01f      	beq.n	8000d00 <HAL_GPIO_Init+0x2c4>
        {
          SET_BIT(EXTI->IMR, iocurrent);
 8000cc0:	4b0e      	ldr	r3, [pc, #56]	@ (8000cfc <HAL_GPIO_Init+0x2c0>)
 8000cc2:	681a      	ldr	r2, [r3, #0]
 8000cc4:	490d      	ldr	r1, [pc, #52]	@ (8000cfc <HAL_GPIO_Init+0x2c0>)
 8000cc6:	69bb      	ldr	r3, [r7, #24]
 8000cc8:	4313      	orrs	r3, r2
 8000cca:	600b      	str	r3, [r1, #0]
 8000ccc:	e01f      	b.n	8000d0e <HAL_GPIO_Init+0x2d2>
 8000cce:	bf00      	nop
 8000cd0:	10320000 	.word	0x10320000
 8000cd4:	10310000 	.word	0x10310000
 8000cd8:	10220000 	.word	0x10220000
 8000cdc:	10210000 	.word	0x10210000
 8000ce0:	10120000 	.word	0x10120000
 8000ce4:	10110000 	.word	0x10110000
 8000ce8:	40021000 	.word	0x40021000
 8000cec:	40010000 	.word	0x40010000
 8000cf0:	40010800 	.word	0x40010800
 8000cf4:	40010c00 	.word	0x40010c00
 8000cf8:	40011000 	.word	0x40011000
 8000cfc:	40010400 	.word	0x40010400
        }
        else
        {
          CLEAR_BIT(EXTI->IMR, iocurrent);
 8000d00:	4b0b      	ldr	r3, [pc, #44]	@ (8000d30 <HAL_GPIO_Init+0x2f4>)
 8000d02:	681a      	ldr	r2, [r3, #0]
 8000d04:	69bb      	ldr	r3, [r7, #24]
 8000d06:	43db      	mvns	r3, r3
 8000d08:	4909      	ldr	r1, [pc, #36]	@ (8000d30 <HAL_GPIO_Init+0x2f4>)
 8000d0a:	4013      	ands	r3, r2
 8000d0c:	600b      	str	r3, [r1, #0]
        }
      }
    }

	position++;
 8000d0e:	6a7b      	ldr	r3, [r7, #36]	@ 0x24
 8000d10:	3301      	adds	r3, #1
 8000d12:	627b      	str	r3, [r7, #36]	@ 0x24
  while (((GPIO_Init->Pin) >> position) != 0x00u)
 8000d14:	683b      	ldr	r3, [r7, #0]
 8000d16:	681a      	ldr	r2, [r3, #0]
 8000d18:	6a7b      	ldr	r3, [r7, #36]	@ 0x24
 8000d1a:	fa22 f303 	lsr.w	r3, r2, r3
 8000d1e:	2b00      	cmp	r3, #0
 8000d20:	f47f ae96 	bne.w	8000a50 <HAL_GPIO_Init+0x14>
  }
}
 8000d24:	bf00      	nop
 8000d26:	bf00      	nop
 8000d28:	372c      	adds	r7, #44	@ 0x2c
 8000d2a:	46bd      	mov	sp, r7
 8000d2c:	bc80      	pop	{r7}
 8000d2e:	4770      	bx	lr
 8000d30:	40010400 	.word	0x40010400

08000d34 <HAL_GPIO_WritePin>:
  *            @arg GPIO_PIN_RESET: to clear the port pin
  *            @arg GPIO_PIN_SET: to set the port pin
  * @retval None
  */
void HAL_GPIO_WritePin(GPIO_TypeDef *GPIOx, uint16_t GPIO_Pin, GPIO_PinState PinState)
{
 8000d34:	b480      	push	{r7}
 8000d36:	b083      	sub	sp, #12
 8000d38:	af00      	add	r7, sp, #0
 8000d3a:	6078      	str	r0, [r7, #4]
 8000d3c:	460b      	mov	r3, r1
 8000d3e:	807b      	strh	r3, [r7, #2]
 8000d40:	4613      	mov	r3, r2
 8000d42:	707b      	strb	r3, [r7, #1]
  /* Check the parameters */
  assert_param(IS_GPIO_PIN(GPIO_Pin));
  assert_param(IS_GPIO_PIN_ACTION(PinState));

  if (PinState != GPIO_PIN_RESET)
 8000d44:	787b      	ldrb	r3, [r7, #1]
 8000d46:	2b00      	cmp	r3, #0
 8000d48:	d003      	beq.n	8000d52 <HAL_GPIO_WritePin+0x1e>
  {
    GPIOx->BSRR = GPIO_Pin;
 8000d4a:	887a      	ldrh	r2, [r7, #2]
 8000d4c:	687b      	ldr	r3, [r7, #4]
 8000d4e:	611a      	str	r2, [r3, #16]
  }
  else
  {
    GPIOx->BSRR = (uint32_t)GPIO_Pin << 16u;
  }
}
 8000d50:	e003      	b.n	8000d5a <HAL_GPIO_WritePin+0x26>
    GPIOx->BSRR = (uint32_t)GPIO_Pin << 16u;
 8000d52:	887b      	ldrh	r3, [r7, #2]
 8000d54:	041a      	lsls	r2, r3, #16
 8000d56:	687b      	ldr	r3, [r7, #4]
 8000d58:	611a      	str	r2, [r3, #16]
}
 8000d5a:	bf00      	nop
 8000d5c:	370c      	adds	r7, #12
 8000d5e:	46bd      	mov	sp, r7
 8000d60:	bc80      	pop	{r7}
 8000d62:	4770      	bx	lr

08000d64 <HAL_I2C_Init>:
  * @param  hi2c Pointer to a I2C_HandleTypeDef structure that contains
  *                the configuration information for the specified I2C.
  * @retval HAL status
  */
HAL_StatusTypeDef HAL_I2C_Init(I2C_HandleTypeDef *hi2c)
{
 8000d64:	b580      	push	{r7, lr}
 8000d66:	b084      	sub	sp, #16
 8000d68:	af00      	add	r7, sp, #0
 8000d6a:	6078      	str	r0, [r7, #4]
  uint32_t freqrange;
  uint32_t pclk1;

  /* Check the I2C handle allocation */
  if (hi2c == NULL)
 8000d6c:	687b      	ldr	r3, [r7, #4]
 8000d6e:	2b00      	cmp	r3, #0
 8000d70:	d101      	bne.n	8000d76 <HAL_I2C_Init+0x12>
  {
    return HAL_ERROR;
 8000d72:	2301      	movs	r3, #1
 8000d74:	e12b      	b.n	8000fce <HAL_I2C_Init+0x26a>
  assert_param(IS_I2C_DUAL_ADDRESS(hi2c->Init.DualAddressMode));
  assert_param(IS_I2C_OWN_ADDRESS2(hi2c->Init.OwnAddress2));
  assert_param(IS_I2C_GENERAL_CALL(hi2c->Init.GeneralCallMode));
  assert_param(IS_I2C_NO_STRETCH(hi2c->Init.NoStretchMode));

  if (hi2c->State == HAL_I2C_STATE_RESET)
 8000d76:	687b      	ldr	r3, [r7, #4]
 8000d78:	f893 303d 	ldrb.w	r3, [r3, #61]	@ 0x3d
 8000d7c:	b2db      	uxtb	r3, r3
 8000d7e:	2b00      	cmp	r3, #0
 8000d80:	d106      	bne.n	8000d90 <HAL_I2C_Init+0x2c>
  {
    /* Allocate lock resource and initialize it */
    hi2c->Lock = HAL_UNLOCKED;
 8000d82:	687b      	ldr	r3, [r7, #4]
 8000d84:	2200      	movs	r2, #0
 8000d86:	f883 203c 	strb.w	r2, [r3, #60]	@ 0x3c

    /* Init the low level hardware : GPIO, CLOCK, NVIC */
    hi2c->MspInitCallback(hi2c);
#else
    /* Init the low level hardware : GPIO, CLOCK, NVIC */
    HAL_I2C_MspInit(hi2c);
 8000d8a:	6878      	ldr	r0, [r7, #4]
 8000d8c:	f7ff fb90 	bl	80004b0 <HAL_I2C_MspInit>
#endif /* USE_HAL_I2C_REGISTER_CALLBACKS */
  }

  hi2c->State = HAL_I2C_STATE_BUSY;
 8000d90:	687b      	ldr	r3, [r7, #4]
 8000d92:	2224      	movs	r2, #36	@ 0x24
 8000d94:	f883 203d 	strb.w	r2, [r3, #61]	@ 0x3d

  /* Disable the selected I2C peripheral */
  __HAL_I2C_DISABLE(hi2c);
 8000d98:	687b      	ldr	r3, [r7, #4]
 8000d9a:	681b      	ldr	r3, [r3, #0]
 8000d9c:	681a      	ldr	r2, [r3, #0]
 8000d9e:	687b      	ldr	r3, [r7, #4]
 8000da0:	681b      	ldr	r3, [r3, #0]
 8000da2:	f022 0201 	bic.w	r2, r2, #1
 8000da6:	601a      	str	r2, [r3, #0]

  /*Reset I2C*/
  hi2c->Instance->CR1 |= I2C_CR1_SWRST;
 8000da8:	687b      	ldr	r3, [r7, #4]
 8000daa:	681b      	ldr	r3, [r3, #0]
 8000dac:	681a      	ldr	r2, [r3, #0]
 8000dae:	687b      	ldr	r3, [r7, #4]
 8000db0:	681b      	ldr	r3, [r3, #0]
 8000db2:	f442 4200 	orr.w	r2, r2, #32768	@ 0x8000
 8000db6:	601a      	str	r2, [r3, #0]
  hi2c->Instance->CR1 &= ~I2C_CR1_SWRST;
 8000db8:	687b      	ldr	r3, [r7, #4]
 8000dba:	681b      	ldr	r3, [r3, #0]
 8000dbc:	681a      	ldr	r2, [r3, #0]
 8000dbe:	687b      	ldr	r3, [r7, #4]
 8000dc0:	681b      	ldr	r3, [r3, #0]
 8000dc2:	f422 4200 	bic.w	r2, r2, #32768	@ 0x8000
 8000dc6:	601a      	str	r2, [r3, #0]

  /* Get PCLK1 frequency */
  pclk1 = HAL_RCC_GetPCLK1Freq();
 8000dc8:	f000 fcda 	bl	8001780 <HAL_RCC_GetPCLK1Freq>
 8000dcc:	60f8      	str	r0, [r7, #12]

  /* Check the minimum allowed PCLK1 frequency */
  if (I2C_MIN_PCLK_FREQ(pclk1, hi2c->Init.ClockSpeed) == 1U)
 8000dce:	687b      	ldr	r3, [r7, #4]
 8000dd0:	685b      	ldr	r3, [r3, #4]
 8000dd2:	4a81      	ldr	r2, [pc, #516]	@ (8000fd8 <HAL_I2C_Init+0x274>)
 8000dd4:	4293      	cmp	r3, r2
 8000dd6:	d807      	bhi.n	8000de8 <HAL_I2C_Init+0x84>
 8000dd8:	68fb      	ldr	r3, [r7, #12]
 8000dda:	4a80      	ldr	r2, [pc, #512]	@ (8000fdc <HAL_I2C_Init+0x278>)
 8000ddc:	4293      	cmp	r3, r2
 8000dde:	bf94      	ite	ls
 8000de0:	2301      	movls	r3, #1
 8000de2:	2300      	movhi	r3, #0
 8000de4:	b2db      	uxtb	r3, r3
 8000de6:	e006      	b.n	8000df6 <HAL_I2C_Init+0x92>
 8000de8:	68fb      	ldr	r3, [r7, #12]
 8000dea:	4a7d      	ldr	r2, [pc, #500]	@ (8000fe0 <HAL_I2C_Init+0x27c>)
 8000dec:	4293      	cmp	r3, r2
 8000dee:	bf94      	ite	ls
 8000df0:	2301      	movls	r3, #1
 8000df2:	2300      	movhi	r3, #0
 8000df4:	b2db      	uxtb	r3, r3
 8000df6:	2b00      	cmp	r3, #0
 8000df8:	d001      	beq.n	8000dfe <HAL_I2C_Init+0x9a>
  {
    return HAL_ERROR;
 8000dfa:	2301      	movs	r3, #1
 8000dfc:	e0e7      	b.n	8000fce <HAL_I2C_Init+0x26a>
  }

  /* Calculate frequency range */
  freqrange = I2C_FREQRANGE(pclk1);
 8000dfe:	68fb      	ldr	r3, [r7, #12]
 8000e00:	4a78      	ldr	r2, [pc, #480]	@ (8000fe4 <HAL_I2C_Init+0x280>)
 8000e02:	fba2 2303 	umull	r2, r3, r2, r3
 8000e06:	0c9b      	lsrs	r3, r3, #18
 8000e08:	60bb      	str	r3, [r7, #8]

  /*---------------------------- I2Cx CR2 Configuration ----------------------*/
  /* Configure I2Cx: Frequency range */
  MODIFY_REG(hi2c->Instance->CR2, I2C_CR2_FREQ, freqrange);
 8000e0a:	687b      	ldr	r3, [r7, #4]
 8000e0c:	681b      	ldr	r3, [r3, #0]
 8000e0e:	685b      	ldr	r3, [r3, #4]
 8000e10:	f023 013f 	bic.w	r1, r3, #63	@ 0x3f
 8000e14:	687b      	ldr	r3, [r7, #4]
 8000e16:	681b      	ldr	r3, [r3, #0]
 8000e18:	68ba      	ldr	r2, [r7, #8]
 8000e1a:	430a      	orrs	r2, r1
 8000e1c:	605a      	str	r2, [r3, #4]

  /*---------------------------- I2Cx TRISE Configuration --------------------*/
  /* Configure I2Cx: Rise Time */
  MODIFY_REG(hi2c->Instance->TRISE, I2C_TRISE_TRISE, I2C_RISE_TIME(freqrange, hi2c->Init.ClockSpeed));
 8000e1e:	687b      	ldr	r3, [r7, #4]
 8000e20:	681b      	ldr	r3, [r3, #0]
 8000e22:	6a1b      	ldr	r3, [r3, #32]
 8000e24:	f023 013f 	bic.w	r1, r3, #63	@ 0x3f
 8000e28:	687b      	ldr	r3, [r7, #4]
 8000e2a:	685b      	ldr	r3, [r3, #4]
 8000e2c:	4a6a      	ldr	r2, [pc, #424]	@ (8000fd8 <HAL_I2C_Init+0x274>)
 8000e2e:	4293      	cmp	r3, r2
 8000e30:	d802      	bhi.n	8000e38 <HAL_I2C_Init+0xd4>
 8000e32:	68bb      	ldr	r3, [r7, #8]
 8000e34:	3301      	adds	r3, #1
 8000e36:	e009      	b.n	8000e4c <HAL_I2C_Init+0xe8>
 8000e38:	68bb      	ldr	r3, [r7, #8]
 8000e3a:	f44f 7296 	mov.w	r2, #300	@ 0x12c
 8000e3e:	fb02 f303 	mul.w	r3, r2, r3
 8000e42:	4a69      	ldr	r2, [pc, #420]	@ (8000fe8 <HAL_I2C_Init+0x284>)
 8000e44:	fba2 2303 	umull	r2, r3, r2, r3
 8000e48:	099b      	lsrs	r3, r3, #6
 8000e4a:	3301      	adds	r3, #1
 8000e4c:	687a      	ldr	r2, [r7, #4]
 8000e4e:	6812      	ldr	r2, [r2, #0]
 8000e50:	430b      	orrs	r3, r1
 8000e52:	6213      	str	r3, [r2, #32]

  /*---------------------------- I2Cx CCR Configuration ----------------------*/
  /* Configure I2Cx: Speed */
  MODIFY_REG(hi2c->Instance->CCR, (I2C_CCR_FS | I2C_CCR_DUTY | I2C_CCR_CCR), I2C_SPEED(pclk1, hi2c->Init.ClockSpeed, hi2c->Init.DutyCycle));
 8000e54:	687b      	ldr	r3, [r7, #4]
 8000e56:	681b      	ldr	r3, [r3, #0]
 8000e58:	69db      	ldr	r3, [r3, #28]
 8000e5a:	f423 424f 	bic.w	r2, r3, #52992	@ 0xcf00
 8000e5e:	f022 02ff 	bic.w	r2, r2, #255	@ 0xff
 8000e62:	687b      	ldr	r3, [r7, #4]
 8000e64:	685b      	ldr	r3, [r3, #4]
 8000e66:	495c      	ldr	r1, [pc, #368]	@ (8000fd8 <HAL_I2C_Init+0x274>)
 8000e68:	428b      	cmp	r3, r1
 8000e6a:	d819      	bhi.n	8000ea0 <HAL_I2C_Init+0x13c>
 8000e6c:	68fb      	ldr	r3, [r7, #12]
 8000e6e:	1e59      	subs	r1, r3, #1
 8000e70:	687b      	ldr	r3, [r7, #4]
 8000e72:	685b      	ldr	r3, [r3, #4]
 8000e74:	005b      	lsls	r3, r3, #1
 8000e76:	fbb1 f3f3 	udiv	r3, r1, r3
 8000e7a:	1c59      	adds	r1, r3, #1
 8000e7c:	f640 73fc 	movw	r3, #4092	@ 0xffc
 8000e80:	400b      	ands	r3, r1
 8000e82:	2b00      	cmp	r3, #0
 8000e84:	d00a      	beq.n	8000e9c <HAL_I2C_Init+0x138>
 8000e86:	68fb      	ldr	r3, [r7, #12]
 8000e88:	1e59      	subs	r1, r3, #1
 8000e8a:	687b      	ldr	r3, [r7, #4]
 8000e8c:	685b      	ldr	r3, [r3, #4]
 8000e8e:	005b      	lsls	r3, r3, #1
 8000e90:	fbb1 f3f3 	udiv	r3, r1, r3
 8000e94:	3301      	adds	r3, #1
 8000e96:	f3c3 030b 	ubfx	r3, r3, #0, #12
 8000e9a:	e051      	b.n	8000f40 <HAL_I2C_Init+0x1dc>
 8000e9c:	2304      	movs	r3, #4
 8000e9e:	e04f      	b.n	8000f40 <HAL_I2C_Init+0x1dc>
 8000ea0:	687b      	ldr	r3, [r7, #4]
 8000ea2:	689b      	ldr	r3, [r3, #8]
 8000ea4:	2b00      	cmp	r3, #0
 8000ea6:	d111      	bne.n	8000ecc <HAL_I2C_Init+0x168>
 8000ea8:	68fb      	ldr	r3, [r7, #12]
 8000eaa:	1e58      	subs	r0, r3, #1
 8000eac:	687b      	ldr	r3, [r7, #4]
 8000eae:	6859      	ldr	r1, [r3, #4]
 8000eb0:	460b      	mov	r3, r1
 8000eb2:	005b      	lsls	r3, r3, #1
 8000eb4:	440b      	add	r3, r1
 8000eb6:	fbb0 f3f3 	udiv	r3, r0, r3
 8000eba:	3301      	adds	r3, #1
 8000ebc:	f3c3 030b 	ubfx	r3, r3, #0, #12
 8000ec0:	2b00      	cmp	r3, #0
 8000ec2:	bf0c      	ite	eq
 8000ec4:	2301      	moveq	r3, #1
 8000ec6:	2300      	movne	r3, #0
 8000ec8:	b2db      	uxtb	r3, r3
 8000eca:	e012      	b.n	8000ef2 <HAL_I2C_Init+0x18e>
 8000ecc:	68fb      	ldr	r3, [r7, #12]
 8000ece:	1e58      	subs	r0, r3, #1
 8000ed0:	687b      	ldr	r3, [r7, #4]
 8000ed2:	6859      	ldr	r1, [r3, #4]
 8000ed4:	460b      	mov	r3, r1
 8000ed6:	009b      	lsls	r3, r3, #2
 8000ed8:	440b      	add	r3, r1
 8000eda:	0099      	lsls	r1, r3, #2
 8000edc:	440b      	add	r3, r1
 8000ede:	fbb0 f3f3 	udiv	r3, r0, r3
 8000ee2:	3301      	adds	r3, #1
 8000ee4:	f3c3 030b 	ubfx	r3, r3, #0, #12
 8000ee8:	2b00      	cmp	r3, #0
 8000eea:	bf0c      	ite	eq
 8000eec:	2301      	moveq	r3, #1
 8000eee:	2300      	movne	r3, #0
 8000ef0:	b2db      	uxtb	r3, r3
 8000ef2:	2b00      	cmp	r3, #0
 8000ef4:	d001      	beq.n	8000efa <HAL_I2C_Init+0x196>
 8000ef6:	2301      	movs	r3, #1
 8000ef8:	e022      	b.n	8000f40 <HAL_I2C_Init+0x1dc>
 8000efa:	687b      	ldr	r3, [r7, #4]
 8000efc:	689b      	ldr	r3, [r3, #8]
 8000efe:	2b00      	cmp	r3, #0
 8000f00:	d10e      	bne.n	8000f20 <HAL_I2C_Init+0x1bc>
 8000f02:	68fb      	ldr	r3, [r7, #12]
 8000f04:	1e58      	subs	r0, r3, #1
 8000f06:	687b      	ldr	r3, [r7, #4]
 8000f08:	6859      	ldr	r1, [r3, #4]
 8000f0a:	460b      	mov	r3, r1
 8000f0c:	005b      	lsls	r3, r3, #1
 8000f0e:	440b      	add	r3, r1
 8000f10:	fbb0 f3f3 	udiv	r3, r0, r3
 8000f14:	3301      	adds	r3, #1
 8000f16:	f3c3 030b 	ubfx	r3, r3, #0, #12
 8000f1a:	f443 4300 	orr.w	r3, r3, #32768	@ 0x8000
 8000f1e:	e00f      	b.n	8000f40 <HAL_I2C_Init+0x1dc>
 8000f20:	68fb      	ldr	r3, [r7, #12]
 8000f22:	1e58      	subs	r0, r3, #1
 8000f24:	687b      	ldr	r3, [r7, #4]
 8000f26:	6859      	ldr	r1, [r3, #4]
 8000f28:	460b      	mov	r3, r1
 8000f2a:	009b      	lsls	r3, r3, #2
 8000f2c:	440b      	add	r3, r1
 8000f2e:	0099      	lsls	r1, r3, #2
 8000f30:	440b      	add	r3, r1
 8000f32:	fbb0 f3f3 	udiv	r3, r0, r3
 8000f36:	3301      	adds	r3, #1
 8000f38:	f3c3 030b 	ubfx	r3, r3, #0, #12
 8000f3c:	f443 4340 	orr.w	r3, r3, #49152	@ 0xc000
 8000f40:	6879      	ldr	r1, [r7, #4]
 8000f42:	6809      	ldr	r1, [r1, #0]
 8000f44:	4313      	orrs	r3, r2
 8000f46:	61cb      	str	r3, [r1, #28]

  /*---------------------------- I2Cx CR1 Configuration ----------------------*/
  /* Configure I2Cx: Generalcall and NoStretch mode */
  MODIFY_REG(hi2c->Instance->CR1, (I2C_CR1_ENGC | I2C_CR1_NOSTRETCH), (hi2c->Init.GeneralCallMode | hi2c->Init.NoStretchMode));
 8000f48:	687b      	ldr	r3, [r7, #4]
 8000f4a:	681b      	ldr	r3, [r3, #0]
 8000f4c:	681b      	ldr	r3, [r3, #0]
 8000f4e:	f023 01c0 	bic.w	r1, r3, #192	@ 0xc0
 8000f52:	687b      	ldr	r3, [r7, #4]
 8000f54:	69da      	ldr	r2, [r3, #28]
 8000f56:	687b      	ldr	r3, [r7, #4]
 8000f58:	6a1b      	ldr	r3, [r3, #32]
 8000f5a:	431a      	orrs	r2, r3
 8000f5c:	687b      	ldr	r3, [r7, #4]
 8000f5e:	681b      	ldr	r3, [r3, #0]
 8000f60:	430a      	orrs	r2, r1
 8000f62:	601a      	str	r2, [r3, #0]

  /*---------------------------- I2Cx OAR1 Configuration ---------------------*/
  /* Configure I2Cx: Own Address1 and addressing mode */
  MODIFY_REG(hi2c->Instance->OAR1, (I2C_OAR1_ADDMODE | I2C_OAR1_ADD8_9 | I2C_OAR1_ADD1_7 | I2C_OAR1_ADD0), (hi2c->Init.AddressingMode | hi2c->Init.OwnAddress1));
 8000f64:	687b      	ldr	r3, [r7, #4]
 8000f66:	681b      	ldr	r3, [r3, #0]
 8000f68:	689b      	ldr	r3, [r3, #8]
 8000f6a:	f423 4303 	bic.w	r3, r3, #33536	@ 0x8300
 8000f6e:	f023 03ff 	bic.w	r3, r3, #255	@ 0xff
 8000f72:	687a      	ldr	r2, [r7, #4]
 8000f74:	6911      	ldr	r1, [r2, #16]
 8000f76:	687a      	ldr	r2, [r7, #4]
 8000f78:	68d2      	ldr	r2, [r2, #12]
 8000f7a:	4311      	orrs	r1, r2
 8000f7c:	687a      	ldr	r2, [r7, #4]
 8000f7e:	6812      	ldr	r2, [r2, #0]
 8000f80:	430b      	orrs	r3, r1
 8000f82:	6093      	str	r3, [r2, #8]

  /*---------------------------- I2Cx OAR2 Configuration ---------------------*/
  /* Configure I2Cx: Dual mode and Own Address2 */
  MODIFY_REG(hi2c->Instance->OAR2, (I2C_OAR2_ENDUAL | I2C_OAR2_ADD2), (hi2c->Init.DualAddressMode | hi2c->Init.OwnAddress2));
 8000f84:	687b      	ldr	r3, [r7, #4]
 8000f86:	681b      	ldr	r3, [r3, #0]
 8000f88:	68db      	ldr	r3, [r3, #12]
 8000f8a:	f023 01ff 	bic.w	r1, r3, #255	@ 0xff
 8000f8e:	687b      	ldr	r3, [r7, #4]
 8000f90:	695a      	ldr	r2, [r3, #20]
 8000f92:	687b      	ldr	r3, [r7, #4]
 8000f94:	699b      	ldr	r3, [r3, #24]
 8000f96:	431a      	orrs	r2, r3
 8000f98:	687b      	ldr	r3, [r7, #4]
 8000f9a:	681b      	ldr	r3, [r3, #0]
 8000f9c:	430a      	orrs	r2, r1
 8000f9e:	60da      	str	r2, [r3, #12]

  /* Enable the selected I2C peripheral */
  __HAL_I2C_ENABLE(hi2c);
 8000fa0:	687b      	ldr	r3, [r7, #4]
 8000fa2:	681b      	ldr	r3, [r3, #0]
 8000fa4:	681a      	ldr	r2, [r3, #0]
 8000fa6:	687b      	ldr	r3, [r7, #4]
 8000fa8:	681b      	ldr	r3, [r3, #0]
 8000faa:	f042 0201 	orr.w	r2, r2, #1
 8000fae:	601a      	str	r2, [r3, #0]

  hi2c->ErrorCode = HAL_I2C_ERROR_NONE;
 8000fb0:	687b      	ldr	r3, [r7, #4]
 8000fb2:	2200      	movs	r2, #0
 8000fb4:	641a      	str	r2, [r3, #64]	@ 0x40
  hi2c->State = HAL_I2C_STATE_READY;
 8000fb6:	687b      	ldr	r3, [r7, #4]
 8000fb8:	2220      	movs	r2, #32
 8000fba:	f883 203d 	strb.w	r2, [r3, #61]	@ 0x3d
  hi2c->PreviousState = I2C_STATE_NONE;
 8000fbe:	687b      	ldr	r3, [r7, #4]
 8000fc0:	2200      	movs	r2, #0
 8000fc2:	631a      	str	r2, [r3, #48]	@ 0x30
  hi2c->Mode = HAL_I2C_MODE_NONE;
 8000fc4:	687b      	ldr	r3, [r7, #4]
 8000fc6:	2200      	movs	r2, #0
 8000fc8:	f883 203e 	strb.w	r2, [r3, #62]	@ 0x3e

  return HAL_OK;
 8000fcc:	2300      	movs	r3, #0
}
 8000fce:	4618      	mov	r0, r3
 8000fd0:	3710      	adds	r7, #16
 8000fd2:	46bd      	mov	sp, r7
 8000fd4:	bd80      	pop	{r7, pc}
 8000fd6:	bf00      	nop
 8000fd8:	000186a0 	.word	0x000186a0
 8000fdc:	001e847f 	.word	0x001e847f
 8000fe0:	003d08ff 	.word	0x003d08ff
 8000fe4:	431bde83 	.word	0x431bde83
 8000fe8:	10624dd3 	.word	0x10624dd3

08000fec <HAL_RCC_OscConfig>:
  *         supported by this macro. User should request a transition to HSE Off
  *         first and then HSE On or HSE Bypass.
  * @retval HAL status
  */
HAL_StatusTypeDef HAL_RCC_OscConfig(RCC_OscInitTypeDef  *RCC_OscInitStruct)
{
 8000fec:	b580      	push	{r7, lr}
 8000fee:	b086      	sub	sp, #24
 8000ff0:	af00      	add	r7, sp, #0
 8000ff2:	6078      	str	r0, [r7, #4]
  uint32_t tickstart;
  uint32_t pll_config;

  /* Check Null pointer */
  if (RCC_OscInitStruct == NULL)
 8000ff4:	687b      	ldr	r3, [r7, #4]
 8000ff6:	2b00      	cmp	r3, #0
 8000ff8:	d101      	bne.n	8000ffe <HAL_RCC_OscConfig+0x12>
  {
    return HAL_ERROR;
 8000ffa:	2301      	movs	r3, #1
 8000ffc:	e272      	b.n	80014e4 <HAL_RCC_OscConfig+0x4f8>

  /* Check the parameters */
  assert_param(IS_RCC_OSCILLATORTYPE(RCC_OscInitStruct->OscillatorType));

  /*------------------------------- HSE Configuration ------------------------*/
  if (((RCC_OscInitStruct->OscillatorType) & RCC_OSCILLATORTYPE_HSE) == RCC_OSCILLATORTYPE_HSE)
 8000ffe:	687b      	ldr	r3, [r7, #4]
 8001000:	681b      	ldr	r3, [r3, #0]
 8001002:	f003 0301 	and.w	r3, r3, #1
 8001006:	2b00      	cmp	r3, #0
 8001008:	f000 8087 	beq.w	800111a <HAL_RCC_OscConfig+0x12e>
  {
    /* Check the parameters */
    assert_param(IS_RCC_HSE(RCC_OscInitStruct->HSEState));

    /* When the HSE is used as system clock or clock source for PLL in these cases it is not allowed to be disabled */
    if ((__HAL_RCC_GET_SYSCLK_SOURCE() == RCC_SYSCLKSOURCE_STATUS_HSE)
 800100c:	4b92      	ldr	r3, [pc, #584]	@ (8001258 <HAL_RCC_OscConfig+0x26c>)
 800100e:	685b      	ldr	r3, [r3, #4]
 8001010:	f003 030c 	and.w	r3, r3, #12
 8001014:	2b04      	cmp	r3, #4
 8001016:	d00c      	beq.n	8001032 <HAL_RCC_OscConfig+0x46>
        || ((__HAL_RCC_GET_SYSCLK_SOURCE() == RCC_SYSCLKSOURCE_STATUS_PLLCLK) && (__HAL_RCC_GET_PLL_OSCSOURCE() == RCC_PLLSOURCE_HSE)))
 8001018:	4b8f      	ldr	r3, [pc, #572]	@ (8001258 <HAL_RCC_OscConfig+0x26c>)
 800101a:	685b      	ldr	r3, [r3, #4]
 800101c:	f003 030c 	and.w	r3, r3, #12
 8001020:	2b08      	cmp	r3, #8
 8001022:	d112      	bne.n	800104a <HAL_RCC_OscConfig+0x5e>
 8001024:	4b8c      	ldr	r3, [pc, #560]	@ (8001258 <HAL_RCC_OscConfig+0x26c>)
 8001026:	685b      	ldr	r3, [r3, #4]
 8001028:	f403 3380 	and.w	r3, r3, #65536	@ 0x10000
 800102c:	f5b3 3f80 	cmp.w	r3, #65536	@ 0x10000
 8001030:	d10b      	bne.n	800104a <HAL_RCC_OscConfig+0x5e>
    {
      if ((__HAL_RCC_GET_FLAG(RCC_FLAG_HSERDY) != RESET) && (RCC_OscInitStruct->HSEState == RCC_HSE_OFF))
 8001032:	4b89      	ldr	r3, [pc, #548]	@ (8001258 <HAL_RCC_OscConfig+0x26c>)
 8001034:	681b      	ldr	r3, [r3, #0]
 8001036:	f403 3300 	and.w	r3, r3, #131072	@ 0x20000
 800103a:	2b00      	cmp	r3, #0
 800103c:	d06c      	beq.n	8001118 <HAL_RCC_OscConfig+0x12c>
 800103e:	687b      	ldr	r3, [r7, #4]
 8001040:	685b      	ldr	r3, [r3, #4]
 8001042:	2b00      	cmp	r3, #0
 8001044:	d168      	bne.n	8001118 <HAL_RCC_OscConfig+0x12c>
      {
        return HAL_ERROR;
 8001046:	2301      	movs	r3, #1
 8001048:	e24c      	b.n	80014e4 <HAL_RCC_OscConfig+0x4f8>
      }
    }
    else
    {
      /* Set the new HSE configuration ---------------------------------------*/
      __HAL_RCC_HSE_CONFIG(RCC_OscInitStruct->HSEState);
 800104a:	687b      	ldr	r3, [r7, #4]
 800104c:	685b      	ldr	r3, [r3, #4]
 800104e:	f5b3 3f80 	cmp.w	r3, #65536	@ 0x10000
 8001052:	d106      	bne.n	8001062 <HAL_RCC_OscConfig+0x76>
 8001054:	4b80      	ldr	r3, [pc, #512]	@ (8001258 <HAL_RCC_OscConfig+0x26c>)
 8001056:	681b      	ldr	r3, [r3, #0]
 8001058:	4a7f      	ldr	r2, [pc, #508]	@ (8001258 <HAL_RCC_OscConfig+0x26c>)
 800105a:	f443 3380 	orr.w	r3, r3, #65536	@ 0x10000
 800105e:	6013      	str	r3, [r2, #0]
 8001060:	e02e      	b.n	80010c0 <HAL_RCC_OscConfig+0xd4>
 8001062:	687b      	ldr	r3, [r7, #4]
 8001064:	685b      	ldr	r3, [r3, #4]
 8001066:	2b00      	cmp	r3, #0
 8001068:	d10c      	bne.n	8001084 <HAL_RCC_OscConfig+0x98>
 800106a:	4b7b      	ldr	r3, [pc, #492]	@ (8001258 <HAL_RCC_OscConfig+0x26c>)
 800106c:	681b      	ldr	r3, [r3, #0]
 800106e:	4a7a      	ldr	r2, [pc, #488]	@ (8001258 <HAL_RCC_OscConfig+0x26c>)
 8001070:	f423 3380 	bic.w	r3, r3, #65536	@ 0x10000
 8001074:	6013      	str	r3, [r2, #0]
 8001076:	4b78      	ldr	r3, [pc, #480]	@ (8001258 <HAL_RCC_OscConfig+0x26c>)
 8001078:	681b      	ldr	r3, [r3, #0]
 800107a:	4a77      	ldr	r2, [pc, #476]	@ (8001258 <HAL_RCC_OscConfig+0x26c>)
 800107c:	f423 2380 	bic.w	r3, r3, #262144	@ 0x40000
 8001080:	6013      	str	r3, [r2, #0]
 8001082:	e01d      	b.n	80010c0 <HAL_RCC_OscConfig+0xd4>
 8001084:	687b      	ldr	r3, [r7, #4]
 8001086:	685b      	ldr	r3, [r3, #4]
 8001088:	f5b3 2fa0 	cmp.w	r3, #327680	@ 0x50000
 800108c:	d10c      	bne.n	80010a8 <HAL_RCC_OscConfig+0xbc>
 800108e:	4b72      	ldr	r3, [pc, #456]	@ (8001258 <HAL_RCC_OscConfig+0x26c>)
 8001090:	681b      	ldr	r3, [r3, #0]
 8001092:	4a71      	ldr	r2, [pc, #452]	@ (8001258 <HAL_RCC_OscConfig+0x26c>)
 8001094:	f443 2380 	orr.w	r3, r3, #262144	@ 0x40000
 8001098:	6013      	str	r3, [r2, #0]
 800109a:	4b6f      	ldr	r3, [pc, #444]	@ (8001258 <HAL_RCC_OscConfig+0x26c>)
 800109c:	681b      	ldr	r3, [r3, #0]
 800109e:	4a6e      	ldr	r2, [pc, #440]	@ (8001258 <HAL_RCC_OscConfig+0x26c>)
 80010a0:	f443 3380 	orr.w	r3, r3, #65536	@ 0x10000
 80010a4:	6013      	str	r3, [r2, #0]
 80010a6:	e00b      	b.n	80010c0 <HAL_RCC_OscConfig+0xd4>
 80010a8:	4b6b      	ldr	r3, [pc, #428]	@ (8001258 <HAL_RCC_OscConfig+0x26c>)
 80010aa:	681b      	ldr	r3, [r3, #0]
 80010ac:	4a6a      	ldr	r2, [pc, #424]	@ (8001258 <HAL_RCC_OscConfig+0x26c>)
 80010ae:	f423 3380 	bic.w	r3, r3, #65536	@ 0x10000
 80010b2:	6013      	str	r3, [r2, #0]
 80010b4:	4b68      	ldr	r3, [pc, #416]	@ (8001258 <HAL_RCC_OscConfig+0x26c>)
 80010b6:	681b      	ldr	r3, [r3, #0]
 80010b8:	4a67      	ldr	r2, [pc, #412]	@ (8001258 <HAL_RCC_OscConfig+0x26c>)
 80010ba:	f423 2380 	bic.w	r3, r3, #262144	@ 0x40000
 80010be:	6013      	str	r3, [r2, #0]


      /* Check the HSE State */
      if (RCC_OscInitStruct->HSEState != RCC_HSE_OFF)
 80010c0:	687b      	ldr	r3, [r7, #4]
 80010c2:	685b      	ldr	r3, [r3, #4]
 80010c4:	2b00      	cmp	r3, #0
 80010c6:	d013      	beq.n	80010f0 <HAL_RCC_OscConfig+0x104>
      {
        /* Get Start Tick */
        tickstart = HAL_GetTick();
 80010c8:	f7ff fba6 	bl	8000818 <HAL_GetTick>
 80010cc:	6138      	str	r0, [r7, #16]

        /* Wait till HSE is ready */
        while (__HAL_RCC_GET_FLAG(RCC_FLAG_HSERDY) == RESET)
 80010ce:	e008      	b.n	80010e2 <HAL_RCC_OscConfig+0xf6>
        {
          if ((HAL_GetTick() - tickstart) > HSE_TIMEOUT_VALUE)
 80010d0:	f7ff fba2 	bl	8000818 <HAL_GetTick>
 80010d4:	4602      	mov	r2, r0
 80010d6:	693b      	ldr	r3, [r7, #16]
 80010d8:	1ad3      	subs	r3, r2, r3
 80010da:	2b64      	cmp	r3, #100	@ 0x64
 80010dc:	d901      	bls.n	80010e2 <HAL_RCC_OscConfig+0xf6>
          {
            return HAL_TIMEOUT;
 80010de:	2303      	movs	r3, #3
 80010e0:	e200      	b.n	80014e4 <HAL_RCC_OscConfig+0x4f8>
        while (__HAL_RCC_GET_FLAG(RCC_FLAG_HSERDY) == RESET)
 80010e2:	4b5d      	ldr	r3, [pc, #372]	@ (8001258 <HAL_RCC_OscConfig+0x26c>)
 80010e4:	681b      	ldr	r3, [r3, #0]
 80010e6:	f403 3300 	and.w	r3, r3, #131072	@ 0x20000
 80010ea:	2b00      	cmp	r3, #0
 80010ec:	d0f0      	beq.n	80010d0 <HAL_RCC_OscConfig+0xe4>
 80010ee:	e014      	b.n	800111a <HAL_RCC_OscConfig+0x12e>
        }
      }
      else
      {
        /* Get Start Tick */
        tickstart = HAL_GetTick();
 80010f0:	f7ff fb92 	bl	8000818 <HAL_GetTick>
 80010f4:	6138      	str	r0, [r7, #16]

        /* Wait till HSE is disabled */
        while (__HAL_RCC_GET_FLAG(RCC_FLAG_HSERDY) != RESET)
 80010f6:	e008      	b.n	800110a <HAL_RCC_OscConfig+0x11e>
        {
          if ((HAL_GetTick() - tickstart) > HSE_TIMEOUT_VALUE)
 80010f8:	f7ff fb8e 	bl	8000818 <HAL_GetTick>
 80010fc:	4602      	mov	r2, r0
 80010fe:	693b      	ldr	r3, [r7, #16]
 8001100:	1ad3      	subs	r3, r2, r3
 8001102:	2b64      	cmp	r3, #100	@ 0x64
 8001104:	d901      	bls.n	800110a <HAL_RCC_OscConfig+0x11e>
          {
            return HAL_TIMEOUT;
 8001106:	2303      	movs	r3, #3
 8001108:	e1ec      	b.n	80014e4 <HAL_RCC_OscConfig+0x4f8>
        while (__HAL_RCC_GET_FLAG(RCC_FLAG_HSERDY) != RESET)
 800110a:	4b53      	ldr	r3, [pc, #332]	@ (8001258 <HAL_RCC_OscConfig+0x26c>)
 800110c:	681b      	ldr	r3, [r3, #0]
 800110e:	f403 3300 	and.w	r3, r3, #131072	@ 0x20000
 8001112:	2b00      	cmp	r3, #0
 8001114:	d1f0      	bne.n	80010f8 <HAL_RCC_OscConfig+0x10c>
 8001116:	e000      	b.n	800111a <HAL_RCC_OscConfig+0x12e>
      if ((__HAL_RCC_GET_FLAG(RCC_FLAG_HSERDY) != RESET) && (RCC_OscInitStruct->HSEState == RCC_HSE_OFF))
 8001118:	bf00      	nop
        }
      }
    }
  }
  /*----------------------------- HSI Configuration --------------------------*/
  if (((RCC_OscInitStruct->OscillatorType) & RCC_OSCILLATORTYPE_HSI) == RCC_OSCILLATORTYPE_HSI)
 800111a:	687b      	ldr	r3, [r7, #4]
 800111c:	681b      	ldr	r3, [r3, #0]
 800111e:	f003 0302 	and.w	r3, r3, #2
 8001122:	2b00      	cmp	r3, #0
 8001124:	d063      	beq.n	80011ee <HAL_RCC_OscConfig+0x202>
    /* Check the parameters */
    assert_param(IS_RCC_HSI(RCC_OscInitStruct->HSIState));
    assert_param(IS_RCC_CALIBRATION_VALUE(RCC_OscInitStruct->HSICalibrationValue));

    /* Check if HSI is used as system clock or as PLL source when PLL is selected as system clock */
    if ((__HAL_RCC_GET_SYSCLK_SOURCE() == RCC_SYSCLKSOURCE_STATUS_HSI)
 8001126:	4b4c      	ldr	r3, [pc, #304]	@ (8001258 <HAL_RCC_OscConfig+0x26c>)
 8001128:	685b      	ldr	r3, [r3, #4]
 800112a:	f003 030c 	and.w	r3, r3, #12
 800112e:	2b00      	cmp	r3, #0
 8001130:	d00b      	beq.n	800114a <HAL_RCC_OscConfig+0x15e>
        || ((__HAL_RCC_GET_SYSCLK_SOURCE() == RCC_SYSCLKSOURCE_STATUS_PLLCLK) && (__HAL_RCC_GET_PLL_OSCSOURCE() == RCC_PLLSOURCE_HSI_DIV2)))
 8001132:	4b49      	ldr	r3, [pc, #292]	@ (8001258 <HAL_RCC_OscConfig+0x26c>)
 8001134:	685b      	ldr	r3, [r3, #4]
 8001136:	f003 030c 	and.w	r3, r3, #12
 800113a:	2b08      	cmp	r3, #8
 800113c:	d11c      	bne.n	8001178 <HAL_RCC_OscConfig+0x18c>
 800113e:	4b46      	ldr	r3, [pc, #280]	@ (8001258 <HAL_RCC_OscConfig+0x26c>)
 8001140:	685b      	ldr	r3, [r3, #4]
 8001142:	f403 3380 	and.w	r3, r3, #65536	@ 0x10000
 8001146:	2b00      	cmp	r3, #0
 8001148:	d116      	bne.n	8001178 <HAL_RCC_OscConfig+0x18c>
    {
      /* When HSI is used as system clock it will not disabled */
      if ((__HAL_RCC_GET_FLAG(RCC_FLAG_HSIRDY) != RESET) && (RCC_OscInitStruct->HSIState != RCC_HSI_ON))
 800114a:	4b43      	ldr	r3, [pc, #268]	@ (8001258 <HAL_RCC_OscConfig+0x26c>)
 800114c:	681b      	ldr	r3, [r3, #0]
 800114e:	f003 0302 	and.w	r3, r3, #2
 8001152:	2b00      	cmp	r3, #0
 8001154:	d005      	beq.n	8001162 <HAL_RCC_OscConfig+0x176>
 8001156:	687b      	ldr	r3, [r7, #4]
 8001158:	691b      	ldr	r3, [r3, #16]
 800115a:	2b01      	cmp	r3, #1
 800115c:	d001      	beq.n	8001162 <HAL_RCC_OscConfig+0x176>
      {
        return HAL_ERROR;
 800115e:	2301      	movs	r3, #1
 8001160:	e1c0      	b.n	80014e4 <HAL_RCC_OscConfig+0x4f8>
      }
      /* Otherwise, just the calibration is allowed */
      else
      {
        /* Adjusts the Internal High Speed oscillator (HSI) calibration value.*/
        __HAL_RCC_HSI_CALIBRATIONVALUE_ADJUST(RCC_OscInitStruct->HSICalibrationValue);
 8001162:	4b3d      	ldr	r3, [pc, #244]	@ (8001258 <HAL_RCC_OscConfig+0x26c>)
 8001164:	681b      	ldr	r3, [r3, #0]
 8001166:	f023 02f8 	bic.w	r2, r3, #248	@ 0xf8
 800116a:	687b      	ldr	r3, [r7, #4]
 800116c:	695b      	ldr	r3, [r3, #20]
 800116e:	00db      	lsls	r3, r3, #3
 8001170:	4939      	ldr	r1, [pc, #228]	@ (8001258 <HAL_RCC_OscConfig+0x26c>)
 8001172:	4313      	orrs	r3, r2
 8001174:	600b      	str	r3, [r1, #0]
      if ((__HAL_RCC_GET_FLAG(RCC_FLAG_HSIRDY) != RESET) && (RCC_OscInitStruct->HSIState != RCC_HSI_ON))
 8001176:	e03a      	b.n	80011ee <HAL_RCC_OscConfig+0x202>
      }
    }
    else
    {
      /* Check the HSI State */
      if (RCC_OscInitStruct->HSIState != RCC_HSI_OFF)
 8001178:	687b      	ldr	r3, [r7, #4]
 800117a:	691b      	ldr	r3, [r3, #16]
 800117c:	2b00      	cmp	r3, #0
 800117e:	d020      	beq.n	80011c2 <HAL_RCC_OscConfig+0x1d6>
      {
        /* Enable the Internal High Speed oscillator (HSI). */
        __HAL_RCC_HSI_ENABLE();
 8001180:	4b36      	ldr	r3, [pc, #216]	@ (800125c <HAL_RCC_OscConfig+0x270>)
 8001182:	2201      	movs	r2, #1
 8001184:	601a      	str	r2, [r3, #0]

        /* Get Start Tick */
        tickstart = HAL_GetTick();
 8001186:	f7ff fb47 	bl	8000818 <HAL_GetTick>
 800118a:	6138      	str	r0, [r7, #16]

        /* Wait till HSI is ready */
        while (__HAL_RCC_GET_FLAG(RCC_FLAG_HSIRDY) == RESET)
 800118c:	e008      	b.n	80011a0 <HAL_RCC_OscConfig+0x1b4>
        {
          if ((HAL_GetTick() - tickstart) > HSI_TIMEOUT_VALUE)
 800118e:	f7ff fb43 	bl	8000818 <HAL_GetTick>
 8001192:	4602      	mov	r2, r0
 8001194:	693b      	ldr	r3, [r7, #16]
 8001196:	1ad3      	subs	r3, r2, r3
 8001198:	2b02      	cmp	r3, #2
 800119a:	d901      	bls.n	80011a0 <HAL_RCC_OscConfig+0x1b4>
          {
            return HAL_TIMEOUT;
 800119c:	2303      	movs	r3, #3
 800119e:	e1a1      	b.n	80014e4 <HAL_RCC_OscConfig+0x4f8>
        while (__HAL_RCC_GET_FLAG(RCC_FLAG_HSIRDY) == RESET)
 80011a0:	4b2d      	ldr	r3, [pc, #180]	@ (8001258 <HAL_RCC_OscConfig+0x26c>)
 80011a2:	681b      	ldr	r3, [r3, #0]
 80011a4:	f003 0302 	and.w	r3, r3, #2
 80011a8:	2b00      	cmp	r3, #0
 80011aa:	d0f0      	beq.n	800118e <HAL_RCC_OscConfig+0x1a2>
          }
        }

        /* Adjusts the Internal High Speed oscillator (HSI) calibration value.*/
        __HAL_RCC_HSI_CALIBRATIONVALUE_ADJUST(RCC_OscInitStruct->HSICalibrationValue);
 80011ac:	4b2a      	ldr	r3, [pc, #168]	@ (8001258 <HAL_RCC_OscConfig+0x26c>)
 80011ae:	681b      	ldr	r3, [r3, #0]
 80011b0:	f023 02f8 	bic.w	r2, r3, #248	@ 0xf8
 80011b4:	687b      	ldr	r3, [r7, #4]
 80011b6:	695b      	ldr	r3, [r3, #20]
 80011b8:	00db      	lsls	r3, r3, #3
 80011ba:	4927      	ldr	r1, [pc, #156]	@ (8001258 <HAL_RCC_OscConfig+0x26c>)
 80011bc:	4313      	orrs	r3, r2
 80011be:	600b      	str	r3, [r1, #0]
 80011c0:	e015      	b.n	80011ee <HAL_RCC_OscConfig+0x202>
      }
      else
      {
        /* Disable the Internal High Speed oscillator (HSI). */
        __HAL_RCC_HSI_DISABLE();
 80011c2:	4b26      	ldr	r3, [pc, #152]	@ (800125c <HAL_RCC_OscConfig+0x270>)
 80011c4:	2200      	movs	r2, #0
 80011c6:	601a      	str	r2, [r3, #0]

        /* Get Start Tick */
        tickstart = HAL_GetTick();
 80011c8:	f7ff fb26 	bl	8000818 <HAL_GetTick>
 80011cc:	6138      	str	r0, [r7, #16]

        /* Wait till HSI is disabled */
        while (__HAL_RCC_GET_FLAG(RCC_FLAG_HSIRDY) != RESET)
 80011ce:	e008      	b.n	80011e2 <HAL_RCC_OscConfig+0x1f6>
        {
          if ((HAL_GetTick() - tickstart) > HSI_TIMEOUT_VALUE)
 80011d0:	f7ff fb22 	bl	8000818 <HAL_GetTick>
 80011d4:	4602      	mov	r2, r0
 80011d6:	693b      	ldr	r3, [r7, #16]
 80011d8:	1ad3      	subs	r3, r2, r3
 80011da:	2b02      	cmp	r3, #2
 80011dc:	d901      	bls.n	80011e2 <HAL_RCC_OscConfig+0x1f6>
          {
            return HAL_TIMEOUT;
 80011de:	2303      	movs	r3, #3
 80011e0:	e180      	b.n	80014e4 <HAL_RCC_OscConfig+0x4f8>
        while (__HAL_RCC_GET_FLAG(RCC_FLAG_HSIRDY) != RESET)
 80011e2:	4b1d      	ldr	r3, [pc, #116]	@ (8001258 <HAL_RCC_OscConfig+0x26c>)
 80011e4:	681b      	ldr	r3, [r3, #0]
 80011e6:	f003 0302 	and.w	r3, r3, #2
 80011ea:	2b00      	cmp	r3, #0
 80011ec:	d1f0      	bne.n	80011d0 <HAL_RCC_OscConfig+0x1e4>
        }
      }
    }
  }
  /*------------------------------ LSI Configuration -------------------------*/
  if (((RCC_OscInitStruct->OscillatorType) & RCC_OSCILLATORTYPE_LSI) == RCC_OSCILLATORTYPE_LSI)
 80011ee:	687b      	ldr	r3, [r7, #4]
 80011f0:	681b      	ldr	r3, [r3, #0]
 80011f2:	f003 0308 	and.w	r3, r3, #8
 80011f6:	2b00      	cmp	r3, #0
 80011f8:	d03a      	beq.n	8001270 <HAL_RCC_OscConfig+0x284>
  {
    /* Check the parameters */
    assert_param(IS_RCC_LSI(RCC_OscInitStruct->LSIState));

    /* Check the LSI State */
    if (RCC_OscInitStruct->LSIState != RCC_LSI_OFF)
 80011fa:	687b      	ldr	r3, [r7, #4]
 80011fc:	699b      	ldr	r3, [r3, #24]
 80011fe:	2b00      	cmp	r3, #0
 8001200:	d019      	beq.n	8001236 <HAL_RCC_OscConfig+0x24a>
    {
      /* Enable the Internal Low Speed oscillator (LSI). */
      __HAL_RCC_LSI_ENABLE();
 8001202:	4b17      	ldr	r3, [pc, #92]	@ (8001260 <HAL_RCC_OscConfig+0x274>)
 8001204:	2201      	movs	r2, #1
 8001206:	601a      	str	r2, [r3, #0]

      /* Get Start Tick */
      tickstart = HAL_GetTick();
 8001208:	f7ff fb06 	bl	8000818 <HAL_GetTick>
 800120c:	6138      	str	r0, [r7, #16]

      /* Wait till LSI is ready */
      while (__HAL_RCC_GET_FLAG(RCC_FLAG_LSIRDY) == RESET)
 800120e:	e008      	b.n	8001222 <HAL_RCC_OscConfig+0x236>
      {
        if ((HAL_GetTick() - tickstart) > LSI_TIMEOUT_VALUE)
 8001210:	f7ff fb02 	bl	8000818 <HAL_GetTick>
 8001214:	4602      	mov	r2, r0
 8001216:	693b      	ldr	r3, [r7, #16]
 8001218:	1ad3      	subs	r3, r2, r3
 800121a:	2b02      	cmp	r3, #2
 800121c:	d901      	bls.n	8001222 <HAL_RCC_OscConfig+0x236>
        {
          return HAL_TIMEOUT;
 800121e:	2303      	movs	r3, #3
 8001220:	e160      	b.n	80014e4 <HAL_RCC_OscConfig+0x4f8>
      while (__HAL_RCC_GET_FLAG(RCC_FLAG_LSIRDY) == RESET)
 8001222:	4b0d      	ldr	r3, [pc, #52]	@ (8001258 <HAL_RCC_OscConfig+0x26c>)
 8001224:	6a5b      	ldr	r3, [r3, #36]	@ 0x24
 8001226:	f003 0302 	and.w	r3, r3, #2
 800122a:	2b00      	cmp	r3, #0
 800122c:	d0f0      	beq.n	8001210 <HAL_RCC_OscConfig+0x224>
        }
      }
      /*  To have a fully stabilized clock in the specified range, a software delay of 1ms
          should be added.*/
      RCC_Delay(1);
 800122e:	2001      	movs	r0, #1
 8001230:	f000 face 	bl	80017d0 <RCC_Delay>
 8001234:	e01c      	b.n	8001270 <HAL_RCC_OscConfig+0x284>
    }
    else
    {
      /* Disable the Internal Low Speed oscillator (LSI). */
      __HAL_RCC_LSI_DISABLE();
 8001236:	4b0a      	ldr	r3, [pc, #40]	@ (8001260 <HAL_RCC_OscConfig+0x274>)
 8001238:	2200      	movs	r2, #0
 800123a:	601a      	str	r2, [r3, #0]

      /* Get Start Tick */
      tickstart = HAL_GetTick();
 800123c:	f7ff faec 	bl	8000818 <HAL_GetTick>
 8001240:	6138      	str	r0, [r7, #16]

      /* Wait till LSI is disabled */
      while (__HAL_RCC_GET_FLAG(RCC_FLAG_LSIRDY) != RESET)
 8001242:	e00f      	b.n	8001264 <HAL_RCC_OscConfig+0x278>
      {
        if ((HAL_GetTick() - tickstart) > LSI_TIMEOUT_VALUE)
 8001244:	f7ff fae8 	bl	8000818 <HAL_GetTick>
 8001248:	4602      	mov	r2, r0
 800124a:	693b      	ldr	r3, [r7, #16]
 800124c:	1ad3      	subs	r3, r2, r3
 800124e:	2b02      	cmp	r3, #2
 8001250:	d908      	bls.n	8001264 <HAL_RCC_OscConfig+0x278>
        {
          return HAL_TIMEOUT;
 8001252:	2303      	movs	r3, #3
 8001254:	e146      	b.n	80014e4 <HAL_RCC_OscConfig+0x4f8>
 8001256:	bf00      	nop
 8001258:	40021000 	.word	0x40021000
 800125c:	42420000 	.word	0x42420000
 8001260:	42420480 	.word	0x42420480
      while (__HAL_RCC_GET_FLAG(RCC_FLAG_LSIRDY) != RESET)
 8001264:	4b92      	ldr	r3, [pc, #584]	@ (80014b0 <HAL_RCC_OscConfig+0x4c4>)
 8001266:	6a5b      	ldr	r3, [r3, #36]	@ 0x24
 8001268:	f003 0302 	and.w	r3, r3, #2
 800126c:	2b00      	cmp	r3, #0
 800126e:	d1e9      	bne.n	8001244 <HAL_RCC_OscConfig+0x258>
        }
      }
    }
  }
  /*------------------------------ LSE Configuration -------------------------*/
  if (((RCC_OscInitStruct->OscillatorType) & RCC_OSCILLATORTYPE_LSE) == RCC_OSCILLATORTYPE_LSE)
 8001270:	687b      	ldr	r3, [r7, #4]
 8001272:	681b      	ldr	r3, [r3, #0]
 8001274:	f003 0304 	and.w	r3, r3, #4
 8001278:	2b00      	cmp	r3, #0
 800127a:	f000 80a6 	beq.w	80013ca <HAL_RCC_OscConfig+0x3de>
  {
    FlagStatus       pwrclkchanged = RESET;
 800127e:	2300      	movs	r3, #0
 8001280:	75fb      	strb	r3, [r7, #23]
    /* Check the parameters */
    assert_param(IS_RCC_LSE(RCC_OscInitStruct->LSEState));

    /* Update LSE configuration in Backup Domain control register    */
    /* Requires to enable write access to Backup Domain of necessary */
    if (__HAL_RCC_PWR_IS_CLK_DISABLED())
 8001282:	4b8b      	ldr	r3, [pc, #556]	@ (80014b0 <HAL_RCC_OscConfig+0x4c4>)
 8001284:	69db      	ldr	r3, [r3, #28]
 8001286:	f003 5380 	and.w	r3, r3, #268435456	@ 0x10000000
 800128a:	2b00      	cmp	r3, #0
 800128c:	d10d      	bne.n	80012aa <HAL_RCC_OscConfig+0x2be>
    {
      __HAL_RCC_PWR_CLK_ENABLE();
 800128e:	4b88      	ldr	r3, [pc, #544]	@ (80014b0 <HAL_RCC_OscConfig+0x4c4>)
 8001290:	69db      	ldr	r3, [r3, #28]
 8001292:	4a87      	ldr	r2, [pc, #540]	@ (80014b0 <HAL_RCC_OscConfig+0x4c4>)
 8001294:	f043 5380 	orr.w	r3, r3, #268435456	@ 0x10000000
 8001298:	61d3      	str	r3, [r2, #28]
 800129a:	4b85      	ldr	r3, [pc, #532]	@ (80014b0 <HAL_RCC_OscConfig+0x4c4>)
 800129c:	69db      	ldr	r3, [r3, #28]
 800129e:	f003 5380 	and.w	r3, r3, #268435456	@ 0x10000000
 80012a2:	60bb      	str	r3, [r7, #8]
 80012a4:	68bb      	ldr	r3, [r7, #8]
      pwrclkchanged = SET;
 80012a6:	2301      	movs	r3, #1
 80012a8:	75fb      	strb	r3, [r7, #23]
    }

    if (HAL_IS_BIT_CLR(PWR->CR, PWR_CR_DBP))
 80012aa:	4b82      	ldr	r3, [pc, #520]	@ (80014b4 <HAL_RCC_OscConfig+0x4c8>)
 80012ac:	681b      	ldr	r3, [r3, #0]
 80012ae:	f403 7380 	and.w	r3, r3, #256	@ 0x100
 80012b2:	2b00      	cmp	r3, #0
 80012b4:	d118      	bne.n	80012e8 <HAL_RCC_OscConfig+0x2fc>
    {
      /* Enable write access to Backup domain */
      SET_BIT(PWR->CR, PWR_CR_DBP);
 80012b6:	4b7f      	ldr	r3, [pc, #508]	@ (80014b4 <HAL_RCC_OscConfig+0x4c8>)
 80012b8:	681b      	ldr	r3, [r3, #0]
 80012ba:	4a7e      	ldr	r2, [pc, #504]	@ (80014b4 <HAL_RCC_OscConfig+0x4c8>)
 80012bc:	f443 7380 	orr.w	r3, r3, #256	@ 0x100
 80012c0:	6013      	str	r3, [r2, #0]

      /* Wait for Backup domain Write protection disable */
      tickstart = HAL_GetTick();
 80012c2:	f7ff faa9 	bl	8000818 <HAL_GetTick>
 80012c6:	6138      	str	r0, [r7, #16]

      while (HAL_IS_BIT_CLR(PWR->CR, PWR_CR_DBP))
 80012c8:	e008      	b.n	80012dc <HAL_RCC_OscConfig+0x2f0>
      {
        if ((HAL_GetTick() - tickstart) > RCC_DBP_TIMEOUT_VALUE)
 80012ca:	f7ff faa5 	bl	8000818 <HAL_GetTick>
 80012ce:	4602      	mov	r2, r0
 80012d0:	693b      	ldr	r3, [r7, #16]
 80012d2:	1ad3      	subs	r3, r2, r3
 80012d4:	2b64      	cmp	r3, #100	@ 0x64
 80012d6:	d901      	bls.n	80012dc <HAL_RCC_OscConfig+0x2f0>
        {
          return HAL_TIMEOUT;
 80012d8:	2303      	movs	r3, #3
 80012da:	e103      	b.n	80014e4 <HAL_RCC_OscConfig+0x4f8>
      while (HAL_IS_BIT_CLR(PWR->CR, PWR_CR_DBP))
 80012dc:	4b75      	ldr	r3, [pc, #468]	@ (80014b4 <HAL_RCC_OscConfig+0x4c8>)
 80012de:	681b      	ldr	r3, [r3, #0]
 80012e0:	f403 7380 	and.w	r3, r3, #256	@ 0x100
 80012e4:	2b00      	cmp	r3, #0
 80012e6:	d0f0      	beq.n	80012ca <HAL_RCC_OscConfig+0x2de>
        }
      }
    }

    /* Set the new LSE configuration -----------------------------------------*/
    __HAL_RCC_LSE_CONFIG(RCC_OscInitStruct->LSEState);
 80012e8:	687b      	ldr	r3, [r7, #4]
 80012ea:	68db      	ldr	r3, [r3, #12]
 80012ec:	2b01      	cmp	r3, #1
 80012ee:	d106      	bne.n	80012fe <HAL_RCC_OscConfig+0x312>
 80012f0:	4b6f      	ldr	r3, [pc, #444]	@ (80014b0 <HAL_RCC_OscConfig+0x4c4>)
 80012f2:	6a1b      	ldr	r3, [r3, #32]
 80012f4:	4a6e      	ldr	r2, [pc, #440]	@ (80014b0 <HAL_RCC_OscConfig+0x4c4>)
 80012f6:	f043 0301 	orr.w	r3, r3, #1
 80012fa:	6213      	str	r3, [r2, #32]
 80012fc:	e02d      	b.n	800135a <HAL_RCC_OscConfig+0x36e>
 80012fe:	687b      	ldr	r3, [r7, #4]
 8001300:	68db      	ldr	r3, [r3, #12]
 8001302:	2b00      	cmp	r3, #0
 8001304:	d10c      	bne.n	8001320 <HAL_RCC_OscConfig+0x334>
 8001306:	4b6a      	ldr	r3, [pc, #424]	@ (80014b0 <HAL_RCC_OscConfig+0x4c4>)
 8001308:	6a1b      	ldr	r3, [r3, #32]
 800130a:	4a69      	ldr	r2, [pc, #420]	@ (80014b0 <HAL_RCC_OscConfig+0x4c4>)
 800130c:	f023 0301 	bic.w	r3, r3, #1
 8001310:	6213      	str	r3, [r2, #32]
 8001312:	4b67      	ldr	r3, [pc, #412]	@ (80014b0 <HAL_RCC_OscConfig+0x4c4>)
 8001314:	6a1b      	ldr	r3, [r3, #32]
 8001316:	4a66      	ldr	r2, [pc, #408]	@ (80014b0 <HAL_RCC_OscConfig+0x4c4>)
 8001318:	f023 0304 	bic.w	r3, r3, #4
 800131c:	6213      	str	r3, [r2, #32]
 800131e:	e01c      	b.n	800135a <HAL_RCC_OscConfig+0x36e>
 8001320:	687b      	ldr	r3, [r7, #4]
 8001322:	68db      	ldr	r3, [r3, #12]
 8001324:	2b05      	cmp	r3, #5
 8001326:	d10c      	bne.n	8001342 <HAL_RCC_OscConfig+0x356>
 8001328:	4b61      	ldr	r3, [pc, #388]	@ (80014b0 <HAL_RCC_OscConfig+0x4c4>)
 800132a:	6a1b      	ldr	r3, [r3, #32]
 800132c:	4a60      	ldr	r2, [pc, #384]	@ (80014b0 <HAL_RCC_OscConfig+0x4c4>)
 800132e:	f043 0304 	orr.w	r3, r3, #4
 8001332:	6213      	str	r3, [r2, #32]
 8001334:	4b5e      	ldr	r3, [pc, #376]	@ (80014b0 <HAL_RCC_OscConfig+0x4c4>)
 8001336:	6a1b      	ldr	r3, [r3, #32]
 8001338:	4a5d      	ldr	r2, [pc, #372]	@ (80014b0 <HAL_RCC_OscConfig+0x4c4>)
 800133a:	f043 0301 	orr.w	r3, r3, #1
 800133e:	6213      	str	r3, [r2, #32]
 8001340:	e00b      	b.n	800135a <HAL_RCC_OscConfig+0x36e>
 8001342:	4b5b      	ldr	r3, [pc, #364]	@ (80014b0 <HAL_RCC_OscConfig+0x4c4>)
 8001344:	6a1b      	ldr	r3, [r3, #32]
 8001346:	4a5a      	ldr	r2, [pc, #360]	@ (80014b0 <HAL_RCC_OscConfig+0x4c4>)
 8001348:	f023 0301 	bic.w	r3, r3, #1
 800134c:	6213      	str	r3, [r2, #32]
 800134e:	4b58      	ldr	r3, [pc, #352]	@ (80014b0 <HAL_RCC_OscConfig+0x4c4>)
 8001350:	6a1b      	ldr	r3, [r3, #32]
 8001352:	4a57      	ldr	r2, [pc, #348]	@ (80014b0 <HAL_RCC_OscConfig+0x4c4>)
 8001354:	f023 0304 	bic.w	r3, r3, #4
 8001358:	6213      	str	r3, [r2, #32]
    /* Check the LSE State */
    if (RCC_OscInitStruct->LSEState != RCC_LSE_OFF)
 800135a:	687b      	ldr	r3, [r7, #4]
 800135c:	68db      	ldr	r3, [r3, #12]
 800135e:	2b00      	cmp	r3, #0
 8001360:	d015      	beq.n	800138e <HAL_RCC_OscConfig+0x3a2>
    {
      /* Get Start Tick */
      tickstart = HAL_GetTick();
 8001362:	f7ff fa59 	bl	8000818 <HAL_GetTick>
 8001366:	6138      	str	r0, [r7, #16]

      /* Wait till LSE is ready */
      while (__HAL_RCC_GET_FLAG(RCC_FLAG_LSERDY) == RESET)
 8001368:	e00a      	b.n	8001380 <HAL_RCC_OscConfig+0x394>
      {
        if ((HAL_GetTick() - tickstart) > RCC_LSE_TIMEOUT_VALUE)
 800136a:	f7ff fa55 	bl	8000818 <HAL_GetTick>
 800136e:	4602      	mov	r2, r0
 8001370:	693b      	ldr	r3, [r7, #16]
 8001372:	1ad3      	subs	r3, r2, r3
 8001374:	f241 3288 	movw	r2, #5000	@ 0x1388
 8001378:	4293      	cmp	r3, r2
 800137a:	d901      	bls.n	8001380 <HAL_RCC_OscConfig+0x394>
        {
          return HAL_TIMEOUT;
 800137c:	2303      	movs	r3, #3
 800137e:	e0b1      	b.n	80014e4 <HAL_RCC_OscConfig+0x4f8>
      while (__HAL_RCC_GET_FLAG(RCC_FLAG_LSERDY) == RESET)
 8001380:	4b4b      	ldr	r3, [pc, #300]	@ (80014b0 <HAL_RCC_OscConfig+0x4c4>)
 8001382:	6a1b      	ldr	r3, [r3, #32]
 8001384:	f003 0302 	and.w	r3, r3, #2
 8001388:	2b00      	cmp	r3, #0
 800138a:	d0ee      	beq.n	800136a <HAL_RCC_OscConfig+0x37e>
 800138c:	e014      	b.n	80013b8 <HAL_RCC_OscConfig+0x3cc>
      }
    }
    else
    {
      /* Get Start Tick */
      tickstart = HAL_GetTick();
 800138e:	f7ff fa43 	bl	8000818 <HAL_GetTick>
 8001392:	6138      	str	r0, [r7, #16]

      /* Wait till LSE is disabled */
      while (__HAL_RCC_GET_FLAG(RCC_FLAG_LSERDY) != RESET)
 8001394:	e00a      	b.n	80013ac <HAL_RCC_OscConfig+0x3c0>
      {
        if ((HAL_GetTick() - tickstart) > RCC_LSE_TIMEOUT_VALUE)
 8001396:	f7ff fa3f 	bl	8000818 <HAL_GetTick>
 800139a:	4602      	mov	r2, r0
 800139c:	693b      	ldr	r3, [r7, #16]
 800139e:	1ad3      	subs	r3, r2, r3
 80013a0:	f241 3288 	movw	r2, #5000	@ 0x1388
 80013a4:	4293      	cmp	r3, r2
 80013a6:	d901      	bls.n	80013ac <HAL_RCC_OscConfig+0x3c0>
        {
          return HAL_TIMEOUT;
 80013a8:	2303      	movs	r3, #3
 80013aa:	e09b      	b.n	80014e4 <HAL_RCC_OscConfig+0x4f8>
      while (__HAL_RCC_GET_FLAG(RCC_FLAG_LSERDY) != RESET)
 80013ac:	4b40      	ldr	r3, [pc, #256]	@ (80014b0 <HAL_RCC_OscConfig+0x4c4>)
 80013ae:	6a1b      	ldr	r3, [r3, #32]
 80013b0:	f003 0302 	and.w	r3, r3, #2
 80013b4:	2b00      	cmp	r3, #0
 80013b6:	d1ee      	bne.n	8001396 <HAL_RCC_OscConfig+0x3aa>
        }
      }
    }

    /* Require to disable power clock if necessary */
    if (pwrclkchanged == SET)
 80013b8:	7dfb      	ldrb	r3, [r7, #23]
 80013ba:	2b01      	cmp	r3, #1
 80013bc:	d105      	bne.n	80013ca <HAL_RCC_OscConfig+0x3de>
    {
      __HAL_RCC_PWR_CLK_DISABLE();
 80013be:	4b3c      	ldr	r3, [pc, #240]	@ (80014b0 <HAL_RCC_OscConfig+0x4c4>)
 80013c0:	69db      	ldr	r3, [r3, #28]
 80013c2:	4a3b      	ldr	r2, [pc, #236]	@ (80014b0 <HAL_RCC_OscConfig+0x4c4>)
 80013c4:	f023 5380 	bic.w	r3, r3, #268435456	@ 0x10000000
 80013c8:	61d3      	str	r3, [r2, #28]

#endif /* RCC_CR_PLL2ON */
  /*-------------------------------- PLL Configuration -----------------------*/
  /* Check the parameters */
  assert_param(IS_RCC_PLL(RCC_OscInitStruct->PLL.PLLState));
  if ((RCC_OscInitStruct->PLL.PLLState) != RCC_PLL_NONE)
 80013ca:	687b      	ldr	r3, [r7, #4]
 80013cc:	69db      	ldr	r3, [r3, #28]
 80013ce:	2b00      	cmp	r3, #0
 80013d0:	f000 8087 	beq.w	80014e2 <HAL_RCC_OscConfig+0x4f6>
  {
    /* Check if the PLL is used as system clock or not */
    if (__HAL_RCC_GET_SYSCLK_SOURCE() != RCC_SYSCLKSOURCE_STATUS_PLLCLK)
 80013d4:	4b36      	ldr	r3, [pc, #216]	@ (80014b0 <HAL_RCC_OscConfig+0x4c4>)
 80013d6:	685b      	ldr	r3, [r3, #4]
 80013d8:	f003 030c 	and.w	r3, r3, #12
 80013dc:	2b08      	cmp	r3, #8
 80013de:	d061      	beq.n	80014a4 <HAL_RCC_OscConfig+0x4b8>
    {
      if ((RCC_OscInitStruct->PLL.PLLState) == RCC_PLL_ON)
 80013e0:	687b      	ldr	r3, [r7, #4]
 80013e2:	69db      	ldr	r3, [r3, #28]
 80013e4:	2b02      	cmp	r3, #2
 80013e6:	d146      	bne.n	8001476 <HAL_RCC_OscConfig+0x48a>
        /* Check the parameters */
        assert_param(IS_RCC_PLLSOURCE(RCC_OscInitStruct->PLL.PLLSource));
        assert_param(IS_RCC_PLL_MUL(RCC_OscInitStruct->PLL.PLLMUL));

        /* Disable the main PLL. */
        __HAL_RCC_PLL_DISABLE();
 80013e8:	4b33      	ldr	r3, [pc, #204]	@ (80014b8 <HAL_RCC_OscConfig+0x4cc>)
 80013ea:	2200      	movs	r2, #0
 80013ec:	601a      	str	r2, [r3, #0]

        /* Get Start Tick */
        tickstart = HAL_GetTick();
 80013ee:	f7ff fa13 	bl	8000818 <HAL_GetTick>
 80013f2:	6138      	str	r0, [r7, #16]

        /* Wait till PLL is disabled */
        while (__HAL_RCC_GET_FLAG(RCC_FLAG_PLLRDY)  != RESET)
 80013f4:	e008      	b.n	8001408 <HAL_RCC_OscConfig+0x41c>
        {
          if ((HAL_GetTick() - tickstart) > PLL_TIMEOUT_VALUE)
 80013f6:	f7ff fa0f 	bl	8000818 <HAL_GetTick>
 80013fa:	4602      	mov	r2, r0
 80013fc:	693b      	ldr	r3, [r7, #16]
 80013fe:	1ad3      	subs	r3, r2, r3
 8001400:	2b02      	cmp	r3, #2
 8001402:	d901      	bls.n	8001408 <HAL_RCC_OscConfig+0x41c>
          {
            return HAL_TIMEOUT;
 8001404:	2303      	movs	r3, #3
 8001406:	e06d      	b.n	80014e4 <HAL_RCC_OscConfig+0x4f8>
        while (__HAL_RCC_GET_FLAG(RCC_FLAG_PLLRDY)  != RESET)
 8001408:	4b29      	ldr	r3, [pc, #164]	@ (80014b0 <HAL_RCC_OscConfig+0x4c4>)
 800140a:	681b      	ldr	r3, [r3, #0]
 800140c:	f003 7300 	and.w	r3, r3, #33554432	@ 0x2000000
 8001410:	2b00      	cmp	r3, #0
 8001412:	d1f0      	bne.n	80013f6 <HAL_RCC_OscConfig+0x40a>
          }
        }

        /* Configure the HSE prediv factor --------------------------------*/
        /* It can be written only when the PLL is disabled. Not used in PLL source is different than HSE */
        if (RCC_OscInitStruct->PLL.PLLSource == RCC_PLLSOURCE_HSE)
 8001414:	687b      	ldr	r3, [r7, #4]
 8001416:	6a1b      	ldr	r3, [r3, #32]
 8001418:	f5b3 3f80 	cmp.w	r3, #65536	@ 0x10000
 800141c:	d108      	bne.n	8001430 <HAL_RCC_OscConfig+0x444>
          /* Set PREDIV1 source */
          SET_BIT(RCC->CFGR2, RCC_OscInitStruct->Prediv1Source);
#endif /* RCC_CFGR2_PREDIV1SRC */

          /* Set PREDIV1 Value */
          __HAL_RCC_HSE_PREDIV_CONFIG(RCC_OscInitStruct->HSEPredivValue);
 800141e:	4b24      	ldr	r3, [pc, #144]	@ (80014b0 <HAL_RCC_OscConfig+0x4c4>)
 8001420:	685b      	ldr	r3, [r3, #4]
 8001422:	f423 3200 	bic.w	r2, r3, #131072	@ 0x20000
 8001426:	687b      	ldr	r3, [r7, #4]
 8001428:	689b      	ldr	r3, [r3, #8]
 800142a:	4921      	ldr	r1, [pc, #132]	@ (80014b0 <HAL_RCC_OscConfig+0x4c4>)
 800142c:	4313      	orrs	r3, r2
 800142e:	604b      	str	r3, [r1, #4]
        }

        /* Configure the main PLL clock source and multiplication factors. */
        __HAL_RCC_PLL_CONFIG(RCC_OscInitStruct->PLL.PLLSource,
 8001430:	4b1f      	ldr	r3, [pc, #124]	@ (80014b0 <HAL_RCC_OscConfig+0x4c4>)
 8001432:	685b      	ldr	r3, [r3, #4]
 8001434:	f423 1274 	bic.w	r2, r3, #3997696	@ 0x3d0000
 8001438:	687b      	ldr	r3, [r7, #4]
 800143a:	6a19      	ldr	r1, [r3, #32]
 800143c:	687b      	ldr	r3, [r7, #4]
 800143e:	6a5b      	ldr	r3, [r3, #36]	@ 0x24
 8001440:	430b      	orrs	r3, r1
 8001442:	491b      	ldr	r1, [pc, #108]	@ (80014b0 <HAL_RCC_OscConfig+0x4c4>)
 8001444:	4313      	orrs	r3, r2
 8001446:	604b      	str	r3, [r1, #4]
                             RCC_OscInitStruct->PLL.PLLMUL);
        /* Enable the main PLL. */
        __HAL_RCC_PLL_ENABLE();
 8001448:	4b1b      	ldr	r3, [pc, #108]	@ (80014b8 <HAL_RCC_OscConfig+0x4cc>)
 800144a:	2201      	movs	r2, #1
 800144c:	601a      	str	r2, [r3, #0]

        /* Get Start Tick */
        tickstart = HAL_GetTick();
 800144e:	f7ff f9e3 	bl	8000818 <HAL_GetTick>
 8001452:	6138      	str	r0, [r7, #16]

        /* Wait till PLL is ready */
        while (__HAL_RCC_GET_FLAG(RCC_FLAG_PLLRDY)  == RESET)
 8001454:	e008      	b.n	8001468 <HAL_RCC_OscConfig+0x47c>
        {
          if ((HAL_GetTick() - tickstart) > PLL_TIMEOUT_VALUE)
 8001456:	f7ff f9df 	bl	8000818 <HAL_GetTick>
 800145a:	4602      	mov	r2, r0
 800145c:	693b      	ldr	r3, [r7, #16]
 800145e:	1ad3      	subs	r3, r2, r3
 8001460:	2b02      	cmp	r3, #2
 8001462:	d901      	bls.n	8001468 <HAL_RCC_OscConfig+0x47c>
          {
            return HAL_TIMEOUT;
 8001464:	2303      	movs	r3, #3
 8001466:	e03d      	b.n	80014e4 <HAL_RCC_OscConfig+0x4f8>
        while (__HAL_RCC_GET_FLAG(RCC_FLAG_PLLRDY)  == RESET)
 8001468:	4b11      	ldr	r3, [pc, #68]	@ (80014b0 <HAL_RCC_OscConfig+0x4c4>)
 800146a:	681b      	ldr	r3, [r3, #0]
 800146c:	f003 7300 	and.w	r3, r3, #33554432	@ 0x2000000
 8001470:	2b00      	cmp	r3, #0
 8001472:	d0f0      	beq.n	8001456 <HAL_RCC_OscConfig+0x46a>
 8001474:	e035      	b.n	80014e2 <HAL_RCC_OscConfig+0x4f6>
        }
      }
      else
      {
        /* Disable the main PLL. */
        __HAL_RCC_PLL_DISABLE();
 8001476:	4b10      	ldr	r3, [pc, #64]	@ (80014b8 <HAL_RCC_OscConfig+0x4cc>)
 8001478:	2200      	movs	r2, #0
 800147a:	601a      	str	r2, [r3, #0]

        /* Get Start Tick */
        tickstart = HAL_GetTick();
 800147c:	f7ff f9cc 	bl	8000818 <HAL_GetTick>
 8001480:	6138      	str	r0, [r7, #16]

        /* Wait till PLL is disabled */
        while (__HAL_RCC_GET_FLAG(RCC_FLAG_PLLRDY)  != RESET)
 8001482:	e008      	b.n	8001496 <HAL_RCC_OscConfig+0x4aa>
        {
          if ((HAL_GetTick() - tickstart) > PLL_TIMEOUT_VALUE)
 8001484:	f7ff f9c8 	bl	8000818 <HAL_GetTick>
 8001488:	4602      	mov	r2, r0
 800148a:	693b      	ldr	r3, [r7, #16]
 800148c:	1ad3      	subs	r3, r2, r3
 800148e:	2b02      	cmp	r3, #2
 8001490:	d901      	bls.n	8001496 <HAL_RCC_OscConfig+0x4aa>
          {
            return HAL_TIMEOUT;
 8001492:	2303      	movs	r3, #3
 8001494:	e026      	b.n	80014e4 <HAL_RCC_OscConfig+0x4f8>
        while (__HAL_RCC_GET_FLAG(RCC_FLAG_PLLRDY)  != RESET)
 8001496:	4b06      	ldr	r3, [pc, #24]	@ (80014b0 <HAL_RCC_OscConfig+0x4c4>)
 8001498:	681b      	ldr	r3, [r3, #0]
 800149a:	f003 7300 	and.w	r3, r3, #33554432	@ 0x2000000
 800149e:	2b00      	cmp	r3, #0
 80014a0:	d1f0      	bne.n	8001484 <HAL_RCC_OscConfig+0x498>
 80014a2:	e01e      	b.n	80014e2 <HAL_RCC_OscConfig+0x4f6>
      }
    }
    else
    {
      /* Check if there is a request to disable the PLL used as System clock source */
      if ((RCC_OscInitStruct->PLL.PLLState) == RCC_PLL_OFF)
 80014a4:	687b      	ldr	r3, [r7, #4]
 80014a6:	69db      	ldr	r3, [r3, #28]
 80014a8:	2b01      	cmp	r3, #1
 80014aa:	d107      	bne.n	80014bc <HAL_RCC_OscConfig+0x4d0>
      {
        return HAL_ERROR;
 80014ac:	2301      	movs	r3, #1
 80014ae:	e019      	b.n	80014e4 <HAL_RCC_OscConfig+0x4f8>
 80014b0:	40021000 	.word	0x40021000
 80014b4:	40007000 	.word	0x40007000
 80014b8:	42420060 	.word	0x42420060
      }
      else
      {
        /* Do not return HAL_ERROR if request repeats the current configuration */
        pll_config = RCC->CFGR;
 80014bc:	4b0b      	ldr	r3, [pc, #44]	@ (80014ec <HAL_RCC_OscConfig+0x500>)
 80014be:	685b      	ldr	r3, [r3, #4]
 80014c0:	60fb      	str	r3, [r7, #12]
        if ((READ_BIT(pll_config, RCC_CFGR_PLLSRC) != RCC_OscInitStruct->PLL.PLLSource) ||
 80014c2:	68fb      	ldr	r3, [r7, #12]
 80014c4:	f403 3280 	and.w	r2, r3, #65536	@ 0x10000
 80014c8:	687b      	ldr	r3, [r7, #4]
 80014ca:	6a1b      	ldr	r3, [r3, #32]
 80014cc:	429a      	cmp	r2, r3
 80014ce:	d106      	bne.n	80014de <HAL_RCC_OscConfig+0x4f2>
            (READ_BIT(pll_config, RCC_CFGR_PLLMULL) != RCC_OscInitStruct->PLL.PLLMUL))
 80014d0:	68fb      	ldr	r3, [r7, #12]
 80014d2:	f403 1270 	and.w	r2, r3, #3932160	@ 0x3c0000
 80014d6:	687b      	ldr	r3, [r7, #4]
 80014d8:	6a5b      	ldr	r3, [r3, #36]	@ 0x24
        if ((READ_BIT(pll_config, RCC_CFGR_PLLSRC) != RCC_OscInitStruct->PLL.PLLSource) ||
 80014da:	429a      	cmp	r2, r3
 80014dc:	d001      	beq.n	80014e2 <HAL_RCC_OscConfig+0x4f6>
        {
          return HAL_ERROR;
 80014de:	2301      	movs	r3, #1
 80014e0:	e000      	b.n	80014e4 <HAL_RCC_OscConfig+0x4f8>
        }
      }
    }
  }

  return HAL_OK;
 80014e2:	2300      	movs	r3, #0
}
 80014e4:	4618      	mov	r0, r3
 80014e6:	3718      	adds	r7, #24
 80014e8:	46bd      	mov	sp, r7
 80014ea:	bd80      	pop	{r7, pc}
 80014ec:	40021000 	.word	0x40021000

080014f0 <HAL_RCC_ClockConfig>:
  *         You can use @ref HAL_RCC_GetClockConfig() function to know which clock is
  *         currently used as system clock source.
  * @retval HAL status
  */
HAL_StatusTypeDef HAL_RCC_ClockConfig(RCC_ClkInitTypeDef  *RCC_ClkInitStruct, uint32_t FLatency)
{
 80014f0:	b580      	push	{r7, lr}
 80014f2:	b084      	sub	sp, #16
 80014f4:	af00      	add	r7, sp, #0
 80014f6:	6078      	str	r0, [r7, #4]
 80014f8:	6039      	str	r1, [r7, #0]
  uint32_t tickstart;

  /* Check Null pointer */
  if (RCC_ClkInitStruct == NULL)
 80014fa:	687b      	ldr	r3, [r7, #4]
 80014fc:	2b00      	cmp	r3, #0
 80014fe:	d101      	bne.n	8001504 <HAL_RCC_ClockConfig+0x14>
  {
    return HAL_ERROR;
 8001500:	2301      	movs	r3, #1
 8001502:	e0d0      	b.n	80016a6 <HAL_RCC_ClockConfig+0x1b6>
  must be correctly programmed according to the frequency of the CPU clock
    (HCLK) of the device. */

#if defined(FLASH_ACR_LATENCY)
  /* Increasing the number of wait states because of higher CPU frequency */
  if (FLatency > __HAL_FLASH_GET_LATENCY())
 8001504:	4b6a      	ldr	r3, [pc, #424]	@ (80016b0 <HAL_RCC_ClockConfig+0x1c0>)
 8001506:	681b      	ldr	r3, [r3, #0]
 8001508:	f003 0307 	and.w	r3, r3, #7
 800150c:	683a      	ldr	r2, [r7, #0]
 800150e:	429a      	cmp	r2, r3
 8001510:	d910      	bls.n	8001534 <HAL_RCC_ClockConfig+0x44>
  {
    /* Program the new number of wait states to the LATENCY bits in the FLASH_ACR register */
    __HAL_FLASH_SET_LATENCY(FLatency);
 8001512:	4b67      	ldr	r3, [pc, #412]	@ (80016b0 <HAL_RCC_ClockConfig+0x1c0>)
 8001514:	681b      	ldr	r3, [r3, #0]
 8001516:	f023 0207 	bic.w	r2, r3, #7
 800151a:	4965      	ldr	r1, [pc, #404]	@ (80016b0 <HAL_RCC_ClockConfig+0x1c0>)
 800151c:	683b      	ldr	r3, [r7, #0]
 800151e:	4313      	orrs	r3, r2
 8001520:	600b      	str	r3, [r1, #0]

    /* Check that the new number of wait states is taken into account to access the Flash
    memory by reading the FLASH_ACR register */
    if (__HAL_FLASH_GET_LATENCY() != FLatency)
 8001522:	4b63      	ldr	r3, [pc, #396]	@ (80016b0 <HAL_RCC_ClockConfig+0x1c0>)
 8001524:	681b      	ldr	r3, [r3, #0]
 8001526:	f003 0307 	and.w	r3, r3, #7
 800152a:	683a      	ldr	r2, [r7, #0]
 800152c:	429a      	cmp	r2, r3
 800152e:	d001      	beq.n	8001534 <HAL_RCC_ClockConfig+0x44>
  {
    return HAL_ERROR;
 8001530:	2301      	movs	r3, #1
 8001532:	e0b8      	b.n	80016a6 <HAL_RCC_ClockConfig+0x1b6>
  }
}

#endif /* FLASH_ACR_LATENCY */
/*-------------------------- HCLK Configuration --------------------------*/
if (((RCC_ClkInitStruct->ClockType) & RCC_CLOCKTYPE_HCLK) == RCC_CLOCKTYPE_HCLK)
 8001534:	687b      	ldr	r3, [r7, #4]
 8001536:	681b      	ldr	r3, [r3, #0]
 8001538:	f003 0302 	and.w	r3, r3, #2
 800153c:	2b00      	cmp	r3, #0
 800153e:	d020      	beq.n	8001582 <HAL_RCC_ClockConfig+0x92>
  {
    /* Set the highest APBx dividers in order to ensure that we do not go through
    a non-spec phase whatever we decrease or increase HCLK. */
    if (((RCC_ClkInitStruct->ClockType) & RCC_CLOCKTYPE_PCLK1) == RCC_CLOCKTYPE_PCLK1)
 8001540:	687b      	ldr	r3, [r7, #4]
 8001542:	681b      	ldr	r3, [r3, #0]
 8001544:	f003 0304 	and.w	r3, r3, #4
 8001548:	2b00      	cmp	r3, #0
 800154a:	d005      	beq.n	8001558 <HAL_RCC_ClockConfig+0x68>
    {
      MODIFY_REG(RCC->CFGR, RCC_CFGR_PPRE1, RCC_HCLK_DIV16);
 800154c:	4b59      	ldr	r3, [pc, #356]	@ (80016b4 <HAL_RCC_ClockConfig+0x1c4>)
 800154e:	685b      	ldr	r3, [r3, #4]
 8001550:	4a58      	ldr	r2, [pc, #352]	@ (80016b4 <HAL_RCC_ClockConfig+0x1c4>)
 8001552:	f443 63e0 	orr.w	r3, r3, #1792	@ 0x700
 8001556:	6053      	str	r3, [r2, #4]
    }

    if (((RCC_ClkInitStruct->ClockType) & RCC_CLOCKTYPE_PCLK2) == RCC_CLOCKTYPE_PCLK2)
 8001558:	687b      	ldr	r3, [r7, #4]
 800155a:	681b      	ldr	r3, [r3, #0]
 800155c:	f003 0308 	and.w	r3, r3, #8
 8001560:	2b00      	cmp	r3, #0
 8001562:	d005      	beq.n	8001570 <HAL_RCC_ClockConfig+0x80>
    {
      MODIFY_REG(RCC->CFGR, RCC_CFGR_PPRE2, (RCC_HCLK_DIV16 << 3));
 8001564:	4b53      	ldr	r3, [pc, #332]	@ (80016b4 <HAL_RCC_ClockConfig+0x1c4>)
 8001566:	685b      	ldr	r3, [r3, #4]
 8001568:	4a52      	ldr	r2, [pc, #328]	@ (80016b4 <HAL_RCC_ClockConfig+0x1c4>)
 800156a:	f443 5360 	orr.w	r3, r3, #14336	@ 0x3800
 800156e:	6053      	str	r3, [r2, #4]
    }

    /* Set the new HCLK clock divider */
    assert_param(IS_RCC_HCLK(RCC_ClkInitStruct->AHBCLKDivider));
    MODIFY_REG(RCC->CFGR, RCC_CFGR_HPRE, RCC_ClkInitStruct->AHBCLKDivider);
 8001570:	4b50      	ldr	r3, [pc, #320]	@ (80016b4 <HAL_RCC_ClockConfig+0x1c4>)
 8001572:	685b      	ldr	r3, [r3, #4]
 8001574:	f023 02f0 	bic.w	r2, r3, #240	@ 0xf0
 8001578:	687b      	ldr	r3, [r7, #4]
 800157a:	689b      	ldr	r3, [r3, #8]
 800157c:	494d      	ldr	r1, [pc, #308]	@ (80016b4 <HAL_RCC_ClockConfig+0x1c4>)
 800157e:	4313      	orrs	r3, r2
 8001580:	604b      	str	r3, [r1, #4]
  }

  /*------------------------- SYSCLK Configuration ---------------------------*/
  if (((RCC_ClkInitStruct->ClockType) & RCC_CLOCKTYPE_SYSCLK) == RCC_CLOCKTYPE_SYSCLK)
 8001582:	687b      	ldr	r3, [r7, #4]
 8001584:	681b      	ldr	r3, [r3, #0]
 8001586:	f003 0301 	and.w	r3, r3, #1
 800158a:	2b00      	cmp	r3, #0
 800158c:	d040      	beq.n	8001610 <HAL_RCC_ClockConfig+0x120>
  {
    assert_param(IS_RCC_SYSCLKSOURCE(RCC_ClkInitStruct->SYSCLKSource));

    /* HSE is selected as System Clock Source */
    if (RCC_ClkInitStruct->SYSCLKSource == RCC_SYSCLKSOURCE_HSE)
 800158e:	687b      	ldr	r3, [r7, #4]
 8001590:	685b      	ldr	r3, [r3, #4]
 8001592:	2b01      	cmp	r3, #1
 8001594:	d107      	bne.n	80015a6 <HAL_RCC_ClockConfig+0xb6>
    {
      /* Check the HSE ready flag */
      if (__HAL_RCC_GET_FLAG(RCC_FLAG_HSERDY) == RESET)
 8001596:	4b47      	ldr	r3, [pc, #284]	@ (80016b4 <HAL_RCC_ClockConfig+0x1c4>)
 8001598:	681b      	ldr	r3, [r3, #0]
 800159a:	f403 3300 	and.w	r3, r3, #131072	@ 0x20000
 800159e:	2b00      	cmp	r3, #0
 80015a0:	d115      	bne.n	80015ce <HAL_RCC_ClockConfig+0xde>
      {
        return HAL_ERROR;
 80015a2:	2301      	movs	r3, #1
 80015a4:	e07f      	b.n	80016a6 <HAL_RCC_ClockConfig+0x1b6>
      }
    }
    /* PLL is selected as System Clock Source */
    else if (RCC_ClkInitStruct->SYSCLKSource == RCC_SYSCLKSOURCE_PLLCLK)
 80015a6:	687b      	ldr	r3, [r7, #4]
 80015a8:	685b      	ldr	r3, [r3, #4]
 80015aa:	2b02      	cmp	r3, #2
 80015ac:	d107      	bne.n	80015be <HAL_RCC_ClockConfig+0xce>
    {
      /* Check the PLL ready flag */
      if (__HAL_RCC_GET_FLAG(RCC_FLAG_PLLRDY) == RESET)
 80015ae:	4b41      	ldr	r3, [pc, #260]	@ (80016b4 <HAL_RCC_ClockConfig+0x1c4>)
 80015b0:	681b      	ldr	r3, [r3, #0]
 80015b2:	f003 7300 	and.w	r3, r3, #33554432	@ 0x2000000
 80015b6:	2b00      	cmp	r3, #0
 80015b8:	d109      	bne.n	80015ce <HAL_RCC_ClockConfig+0xde>
      {
        return HAL_ERROR;
 80015ba:	2301      	movs	r3, #1
 80015bc:	e073      	b.n	80016a6 <HAL_RCC_ClockConfig+0x1b6>
    }
    /* HSI is selected as System Clock Source */
    else
    {
      /* Check the HSI ready flag */
      if (__HAL_RCC_GET_FLAG(RCC_FLAG_HSIRDY) == RESET)
 80015be:	4b3d      	ldr	r3, [pc, #244]	@ (80016b4 <HAL_RCC_ClockConfig+0x1c4>)
 80015c0:	681b      	ldr	r3, [r3, #0]
 80015c2:	f003 0302 	and.w	r3, r3, #2
 80015c6:	2b00      	cmp	r3, #0
 80015c8:	d101      	bne.n	80015ce <HAL_RCC_ClockConfig+0xde>
      {
        return HAL_ERROR;
 80015ca:	2301      	movs	r3, #1
 80015cc:	e06b      	b.n	80016a6 <HAL_RCC_ClockConfig+0x1b6>
      }
    }
    __HAL_RCC_SYSCLK_CONFIG(RCC_ClkInitStruct->SYSCLKSource);
 80015ce:	4b39      	ldr	r3, [pc, #228]	@ (80016b4 <HAL_RCC_ClockConfig+0x1c4>)
 80015d0:	685b      	ldr	r3, [r3, #4]
 80015d2:	f023 0203 	bic.w	r2, r3, #3
 80015d6:	687b      	ldr	r3, [r7, #4]
 80015d8:	685b      	ldr	r3, [r3, #4]
 80015da:	4936      	ldr	r1, [pc, #216]	@ (80016b4 <HAL_RCC_ClockConfig+0x1c4>)
 80015dc:	4313      	orrs	r3, r2
 80015de:	604b      	str	r3, [r1, #4]

    /* Get Start Tick */
    tickstart = HAL_GetTick();
 80015e0:	f7ff f91a 	bl	8000818 <HAL_GetTick>
 80015e4:	60f8      	str	r0, [r7, #12]

    while (__HAL_RCC_GET_SYSCLK_SOURCE() != (RCC_ClkInitStruct->SYSCLKSource << RCC_CFGR_SWS_Pos))
 80015e6:	e00a      	b.n	80015fe <HAL_RCC_ClockConfig+0x10e>
    {
      if ((HAL_GetTick() - tickstart) > CLOCKSWITCH_TIMEOUT_VALUE)
 80015e8:	f7ff f916 	bl	8000818 <HAL_GetTick>
 80015ec:	4602      	mov	r2, r0
 80015ee:	68fb      	ldr	r3, [r7, #12]
 80015f0:	1ad3      	subs	r3, r2, r3
 80015f2:	f241 3288 	movw	r2, #5000	@ 0x1388
 80015f6:	4293      	cmp	r3, r2
 80015f8:	d901      	bls.n	80015fe <HAL_RCC_ClockConfig+0x10e>
      {
        return HAL_TIMEOUT;
 80015fa:	2303      	movs	r3, #3
 80015fc:	e053      	b.n	80016a6 <HAL_RCC_ClockConfig+0x1b6>
    while (__HAL_RCC_GET_SYSCLK_SOURCE() != (RCC_ClkInitStruct->SYSCLKSource << RCC_CFGR_SWS_Pos))
 80015fe:	4b2d      	ldr	r3, [pc, #180]	@ (80016b4 <HAL_RCC_ClockConfig+0x1c4>)
 8001600:	685b      	ldr	r3, [r3, #4]
 8001602:	f003 020c 	and.w	r2, r3, #12
 8001606:	687b      	ldr	r3, [r7, #4]
 8001608:	685b      	ldr	r3, [r3, #4]
 800160a:	009b      	lsls	r3, r3, #2
 800160c:	429a      	cmp	r2, r3
 800160e:	d1eb      	bne.n	80015e8 <HAL_RCC_ClockConfig+0xf8>
    }
  }

#if defined(FLASH_ACR_LATENCY)
  /* Decreasing the number of wait states because of lower CPU frequency */
  if (FLatency < __HAL_FLASH_GET_LATENCY())
 8001610:	4b27      	ldr	r3, [pc, #156]	@ (80016b0 <HAL_RCC_ClockConfig+0x1c0>)
 8001612:	681b      	ldr	r3, [r3, #0]
 8001614:	f003 0307 	and.w	r3, r3, #7
 8001618:	683a      	ldr	r2, [r7, #0]
 800161a:	429a      	cmp	r2, r3
 800161c:	d210      	bcs.n	8001640 <HAL_RCC_ClockConfig+0x150>
  {
    /* Program the new number of wait states to the LATENCY bits in the FLASH_ACR register */
    __HAL_FLASH_SET_LATENCY(FLatency);
 800161e:	4b24      	ldr	r3, [pc, #144]	@ (80016b0 <HAL_RCC_ClockConfig+0x1c0>)
 8001620:	681b      	ldr	r3, [r3, #0]
 8001622:	f023 0207 	bic.w	r2, r3, #7
 8001626:	4922      	ldr	r1, [pc, #136]	@ (80016b0 <HAL_RCC_ClockConfig+0x1c0>)
 8001628:	683b      	ldr	r3, [r7, #0]
 800162a:	4313      	orrs	r3, r2
 800162c:	600b      	str	r3, [r1, #0]

    /* Check that the new number of wait states is taken into account to access the Flash
    memory by reading the FLASH_ACR register */
    if (__HAL_FLASH_GET_LATENCY() != FLatency)
 800162e:	4b20      	ldr	r3, [pc, #128]	@ (80016b0 <HAL_RCC_ClockConfig+0x1c0>)
 8001630:	681b      	ldr	r3, [r3, #0]
 8001632:	f003 0307 	and.w	r3, r3, #7
 8001636:	683a      	ldr	r2, [r7, #0]
 8001638:	429a      	cmp	r2, r3
 800163a:	d001      	beq.n	8001640 <HAL_RCC_ClockConfig+0x150>
  {
    return HAL_ERROR;
 800163c:	2301      	movs	r3, #1
 800163e:	e032      	b.n	80016a6 <HAL_RCC_ClockConfig+0x1b6>
  }
}
#endif /* FLASH_ACR_LATENCY */

/*-------------------------- PCLK1 Configuration ---------------------------*/
if (((RCC_ClkInitStruct->ClockType) & RCC_CLOCKTYPE_PCLK1) == RCC_CLOCKTYPE_PCLK1)
 8001640:	687b      	ldr	r3, [r7, #4]
 8001642:	681b      	ldr	r3, [r3, #0]
 8001644:	f003 0304 	and.w	r3, r3, #4
 8001648:	2b00      	cmp	r3, #0
 800164a:	d008      	beq.n	800165e <HAL_RCC_ClockConfig+0x16e>
  {
    assert_param(IS_RCC_PCLK(RCC_ClkInitStruct->APB1CLKDivider));
    MODIFY_REG(RCC->CFGR, RCC_CFGR_PPRE1, RCC_ClkInitStruct->APB1CLKDivider);
 800164c:	4b19      	ldr	r3, [pc, #100]	@ (80016b4 <HAL_RCC_ClockConfig+0x1c4>)
 800164e:	685b      	ldr	r3, [r3, #4]
 8001650:	f423 62e0 	bic.w	r2, r3, #1792	@ 0x700
 8001654:	687b      	ldr	r3, [r7, #4]
 8001656:	68db      	ldr	r3, [r3, #12]
 8001658:	4916      	ldr	r1, [pc, #88]	@ (80016b4 <HAL_RCC_ClockConfig+0x1c4>)
 800165a:	4313      	orrs	r3, r2
 800165c:	604b      	str	r3, [r1, #4]
  }

  /*-------------------------- PCLK2 Configuration ---------------------------*/
  if (((RCC_ClkInitStruct->ClockType) & RCC_CLOCKTYPE_PCLK2) == RCC_CLOCKTYPE_PCLK2)
 800165e:	687b      	ldr	r3, [r7, #4]
 8001660:	681b      	ldr	r3, [r3, #0]
 8001662:	f003 0308 	and.w	r3, r3, #8
 8001666:	2b00      	cmp	r3, #0
 8001668:	d009      	beq.n	800167e <HAL_RCC_ClockConfig+0x18e>
  {
    assert_param(IS_RCC_PCLK(RCC_ClkInitStruct->APB2CLKDivider));
    MODIFY_REG(RCC->CFGR, RCC_CFGR_PPRE2, ((RCC_ClkInitStruct->APB2CLKDivider) << 3));
 800166a:	4b12      	ldr	r3, [pc, #72]	@ (80016b4 <HAL_RCC_ClockConfig+0x1c4>)
 800166c:	685b      	ldr	r3, [r3, #4]
 800166e:	f423 5260 	bic.w	r2, r3, #14336	@ 0x3800
 8001672:	687b      	ldr	r3, [r7, #4]
 8001674:	691b      	ldr	r3, [r3, #16]
 8001676:	00db      	lsls	r3, r3, #3
 8001678:	490e      	ldr	r1, [pc, #56]	@ (80016b4 <HAL_RCC_ClockConfig+0x1c4>)
 800167a:	4313      	orrs	r3, r2
 800167c:	604b      	str	r3, [r1, #4]
  }

  /* Update the SystemCoreClock global variable */
  SystemCoreClock = HAL_RCC_GetSysClockFreq() >> AHBPrescTable[(RCC->CFGR & RCC_CFGR_HPRE) >> RCC_CFGR_HPRE_Pos];
 800167e:	f000 f821 	bl	80016c4 <HAL_RCC_GetSysClockFreq>
 8001682:	4602      	mov	r2, r0
 8001684:	4b0b      	ldr	r3, [pc, #44]	@ (80016b4 <HAL_RCC_ClockConfig+0x1c4>)
 8001686:	685b      	ldr	r3, [r3, #4]
 8001688:	091b      	lsrs	r3, r3, #4
 800168a:	f003 030f 	and.w	r3, r3, #15
 800168e:	490a      	ldr	r1, [pc, #40]	@ (80016b8 <HAL_RCC_ClockConfig+0x1c8>)
 8001690:	5ccb      	ldrb	r3, [r1, r3]
 8001692:	fa22 f303 	lsr.w	r3, r2, r3
 8001696:	4a09      	ldr	r2, [pc, #36]	@ (80016bc <HAL_RCC_ClockConfig+0x1cc>)
 8001698:	6013      	str	r3, [r2, #0]

  /* Configure the source of time base considering new system clocks settings*/
  HAL_InitTick(uwTickPrio);
 800169a:	4b09      	ldr	r3, [pc, #36]	@ (80016c0 <HAL_RCC_ClockConfig+0x1d0>)
 800169c:	681b      	ldr	r3, [r3, #0]
 800169e:	4618      	mov	r0, r3
 80016a0:	f7ff f878 	bl	8000794 <HAL_InitTick>

  return HAL_OK;
 80016a4:	2300      	movs	r3, #0
}
 80016a6:	4618      	mov	r0, r3
 80016a8:	3710      	adds	r7, #16
 80016aa:	46bd      	mov	sp, r7
 80016ac:	bd80      	pop	{r7, pc}
 80016ae:	bf00      	nop
 80016b0:	40022000 	.word	0x40022000
 80016b4:	40021000 	.word	0x40021000
 80016b8:	08001de4 	.word	0x08001de4
 80016bc:	20000000 	.word	0x20000000
 80016c0:	20000004 	.word	0x20000004

080016c4 <HAL_RCC_GetSysClockFreq>:
  *         right SYSCLK value. Otherwise, any configuration based on this function will be incorrect.
  *
  * @retval SYSCLK frequency
  */
uint32_t HAL_RCC_GetSysClockFreq(void)
{
 80016c4:	b480      	push	{r7}
 80016c6:	b087      	sub	sp, #28
 80016c8:	af00      	add	r7, sp, #0
#else
  static const uint8_t aPredivFactorTable[2U] = {1, 2};
#endif /*RCC_CFGR2_PREDIV1*/

#endif
  uint32_t tmpreg = 0U, prediv = 0U, pllclk = 0U, pllmul = 0U;
 80016ca:	2300      	movs	r3, #0
 80016cc:	60fb      	str	r3, [r7, #12]
 80016ce:	2300      	movs	r3, #0
 80016d0:	60bb      	str	r3, [r7, #8]
 80016d2:	2300      	movs	r3, #0
 80016d4:	617b      	str	r3, [r7, #20]
 80016d6:	2300      	movs	r3, #0
 80016d8:	607b      	str	r3, [r7, #4]
  uint32_t sysclockfreq = 0U;
 80016da:	2300      	movs	r3, #0
 80016dc:	613b      	str	r3, [r7, #16]
#if defined(RCC_CFGR2_PREDIV1SRC)
  uint32_t prediv2 = 0U, pll2mul = 0U;
#endif /*RCC_CFGR2_PREDIV1SRC*/

  tmpreg = RCC->CFGR;
 80016de:	4b1e      	ldr	r3, [pc, #120]	@ (8001758 <HAL_RCC_GetSysClockFreq+0x94>)
 80016e0:	685b      	ldr	r3, [r3, #4]
 80016e2:	60fb      	str	r3, [r7, #12]

  /* Get SYSCLK source -------------------------------------------------------*/
  switch (tmpreg & RCC_CFGR_SWS)
 80016e4:	68fb      	ldr	r3, [r7, #12]
 80016e6:	f003 030c 	and.w	r3, r3, #12
 80016ea:	2b04      	cmp	r3, #4
 80016ec:	d002      	beq.n	80016f4 <HAL_RCC_GetSysClockFreq+0x30>
 80016ee:	2b08      	cmp	r3, #8
 80016f0:	d003      	beq.n	80016fa <HAL_RCC_GetSysClockFreq+0x36>
 80016f2:	e027      	b.n	8001744 <HAL_RCC_GetSysClockFreq+0x80>
  {
    case RCC_SYSCLKSOURCE_STATUS_HSE:  /* HSE used as system clock */
    {
      sysclockfreq = HSE_VALUE;
 80016f4:	4b19      	ldr	r3, [pc, #100]	@ (800175c <HAL_RCC_GetSysClockFreq+0x98>)
 80016f6:	613b      	str	r3, [r7, #16]
      break;
 80016f8:	e027      	b.n	800174a <HAL_RCC_GetSysClockFreq+0x86>
    }
    case RCC_SYSCLKSOURCE_STATUS_PLLCLK:  /* PLL used as system clock */
    {
      pllmul = aPLLMULFactorTable[(uint32_t)(tmpreg & RCC_CFGR_PLLMULL) >> RCC_CFGR_PLLMULL_Pos];
 80016fa:	68fb      	ldr	r3, [r7, #12]
 80016fc:	0c9b      	lsrs	r3, r3, #18
 80016fe:	f003 030f 	and.w	r3, r3, #15
 8001702:	4a17      	ldr	r2, [pc, #92]	@ (8001760 <HAL_RCC_GetSysClockFreq+0x9c>)
 8001704:	5cd3      	ldrb	r3, [r2, r3]
 8001706:	607b      	str	r3, [r7, #4]
      if ((tmpreg & RCC_CFGR_PLLSRC) != RCC_PLLSOURCE_HSI_DIV2)
 8001708:	68fb      	ldr	r3, [r7, #12]
 800170a:	f403 3380 	and.w	r3, r3, #65536	@ 0x10000
 800170e:	2b00      	cmp	r3, #0
 8001710:	d010      	beq.n	8001734 <HAL_RCC_GetSysClockFreq+0x70>
      {
#if defined(RCC_CFGR2_PREDIV1)
        prediv = aPredivFactorTable[(uint32_t)(RCC->CFGR2 & RCC_CFGR2_PREDIV1) >> RCC_CFGR2_PREDIV1_Pos];
#else
        prediv = aPredivFactorTable[(uint32_t)(RCC->CFGR & RCC_CFGR_PLLXTPRE) >> RCC_CFGR_PLLXTPRE_Pos];
 8001712:	4b11      	ldr	r3, [pc, #68]	@ (8001758 <HAL_RCC_GetSysClockFreq+0x94>)
 8001714:	685b      	ldr	r3, [r3, #4]
 8001716:	0c5b      	lsrs	r3, r3, #17
 8001718:	f003 0301 	and.w	r3, r3, #1
 800171c:	4a11      	ldr	r2, [pc, #68]	@ (8001764 <HAL_RCC_GetSysClockFreq+0xa0>)
 800171e:	5cd3      	ldrb	r3, [r2, r3]
 8001720:	60bb      	str	r3, [r7, #8]
        {
          pllclk = pllclk / 2;
        }
#else
        /* HSE used as PLL clock source : PLLCLK = HSE/PREDIV1 * PLLMUL */
        pllclk = (uint32_t)((HSE_VALUE  * pllmul) / prediv);
 8001722:	687b      	ldr	r3, [r7, #4]
 8001724:	4a0d      	ldr	r2, [pc, #52]	@ (800175c <HAL_RCC_GetSysClockFreq+0x98>)
 8001726:	fb03 f202 	mul.w	r2, r3, r2
 800172a:	68bb      	ldr	r3, [r7, #8]
 800172c:	fbb2 f3f3 	udiv	r3, r2, r3
 8001730:	617b      	str	r3, [r7, #20]
 8001732:	e004      	b.n	800173e <HAL_RCC_GetSysClockFreq+0x7a>
#endif /*RCC_CFGR2_PREDIV1SRC*/
      }
      else
      {
        /* HSI used as PLL clock source : PLLCLK = HSI/2 * PLLMUL */
        pllclk = (uint32_t)((HSI_VALUE >> 1) * pllmul);
 8001734:	687b      	ldr	r3, [r7, #4]
 8001736:	4a0c      	ldr	r2, [pc, #48]	@ (8001768 <HAL_RCC_GetSysClockFreq+0xa4>)
 8001738:	fb02 f303 	mul.w	r3, r2, r3
 800173c:	617b      	str	r3, [r7, #20]
      }
      sysclockfreq = pllclk;
 800173e:	697b      	ldr	r3, [r7, #20]
 8001740:	613b      	str	r3, [r7, #16]
      break;
 8001742:	e002      	b.n	800174a <HAL_RCC_GetSysClockFreq+0x86>
    }
    case RCC_SYSCLKSOURCE_STATUS_HSI:  /* HSI used as system clock source */
    default: /* HSI used as system clock */
    {
      sysclockfreq = HSI_VALUE;
 8001744:	4b05      	ldr	r3, [pc, #20]	@ (800175c <HAL_RCC_GetSysClockFreq+0x98>)
 8001746:	613b      	str	r3, [r7, #16]
      break;
 8001748:	bf00      	nop
    }
  }
  return sysclockfreq;
 800174a:	693b      	ldr	r3, [r7, #16]
}
 800174c:	4618      	mov	r0, r3
 800174e:	371c      	adds	r7, #28
 8001750:	46bd      	mov	sp, r7
 8001752:	bc80      	pop	{r7}
 8001754:	4770      	bx	lr
 8001756:	bf00      	nop
 8001758:	40021000 	.word	0x40021000
 800175c:	007a1200 	.word	0x007a1200
 8001760:	08001dfc 	.word	0x08001dfc
 8001764:	08001e0c 	.word	0x08001e0c
 8001768:	003d0900 	.word	0x003d0900

0800176c <HAL_RCC_GetHCLKFreq>:
  * @note   The SystemCoreClock CMSIS variable is used to store System Clock Frequency
  *         and updated within this function
  * @retval HCLK frequency
  */
uint32_t HAL_RCC_GetHCLKFreq(void)
{
 800176c:	b480      	push	{r7}
 800176e:	af00      	add	r7, sp, #0
  return SystemCoreClock;
 8001770:	4b02      	ldr	r3, [pc, #8]	@ (800177c <HAL_RCC_GetHCLKFreq+0x10>)
 8001772:	681b      	ldr	r3, [r3, #0]
}
 8001774:	4618      	mov	r0, r3
 8001776:	46bd      	mov	sp, r7
 8001778:	bc80      	pop	{r7}
 800177a:	4770      	bx	lr
 800177c:	20000000 	.word	0x20000000

08001780 <HAL_RCC_GetPCLK1Freq>:
  * @note   Each time PCLK1 changes, this function must be called to update the
  *         right PCLK1 value. Otherwise, any configuration based on this function will be incorrect.
  * @retval PCLK1 frequency
  */
uint32_t HAL_RCC_GetPCLK1Freq(void)
{
 8001780:	b580      	push	{r7, lr}
 8001782:	af00      	add	r7, sp, #0
  /* Get HCLK source and Compute PCLK1 frequency ---------------------------*/
  return (HAL_RCC_GetHCLKFreq() >> APBPrescTable[(RCC->CFGR & RCC_CFGR_PPRE1) >> RCC_CFGR_PPRE1_Pos]);
 8001784:	f7ff fff2 	bl	800176c <HAL_RCC_GetHCLKFreq>
 8001788:	4602      	mov	r2, r0
 800178a:	4b05      	ldr	r3, [pc, #20]	@ (80017a0 <HAL_RCC_GetPCLK1Freq+0x20>)
 800178c:	685b      	ldr	r3, [r3, #4]
 800178e:	0a1b      	lsrs	r3, r3, #8
 8001790:	f003 0307 	and.w	r3, r3, #7
 8001794:	4903      	ldr	r1, [pc, #12]	@ (80017a4 <HAL_RCC_GetPCLK1Freq+0x24>)
 8001796:	5ccb      	ldrb	r3, [r1, r3]
 8001798:	fa22 f303 	lsr.w	r3, r2, r3
}
 800179c:	4618      	mov	r0, r3
 800179e:	bd80      	pop	{r7, pc}
 80017a0:	40021000 	.word	0x40021000
 80017a4:	08001df4 	.word	0x08001df4

080017a8 <HAL_RCC_GetPCLK2Freq>:
  * @note   Each time PCLK2 changes, this function must be called to update the
  *         right PCLK2 value. Otherwise, any configuration based on this function will be incorrect.
  * @retval PCLK2 frequency
  */
uint32_t HAL_RCC_GetPCLK2Freq(void)
{
 80017a8:	b580      	push	{r7, lr}
 80017aa:	af00      	add	r7, sp, #0
  /* Get HCLK source and Compute PCLK2 frequency ---------------------------*/
  return (HAL_RCC_GetHCLKFreq() >> APBPrescTable[(RCC->CFGR & RCC_CFGR_PPRE2) >> RCC_CFGR_PPRE2_Pos]);
 80017ac:	f7ff ffde 	bl	800176c <HAL_RCC_GetHCLKFreq>
 80017b0:	4602      	mov	r2, r0
 80017b2:	4b05      	ldr	r3, [pc, #20]	@ (80017c8 <HAL_RCC_GetPCLK2Freq+0x20>)
 80017b4:	685b      	ldr	r3, [r3, #4]
 80017b6:	0adb      	lsrs	r3, r3, #11
 80017b8:	f003 0307 	and.w	r3, r3, #7
 80017bc:	4903      	ldr	r1, [pc, #12]	@ (80017cc <HAL_RCC_GetPCLK2Freq+0x24>)
 80017be:	5ccb      	ldrb	r3, [r1, r3]
 80017c0:	fa22 f303 	lsr.w	r3, r2, r3
}
 80017c4:	4618      	mov	r0, r3
 80017c6:	bd80      	pop	{r7, pc}
 80017c8:	40021000 	.word	0x40021000
 80017cc:	08001df4 	.word	0x08001df4

080017d0 <RCC_Delay>:
  * @brief  This function provides delay (in milliseconds) based on CPU cycles method.
  * @param  mdelay: specifies the delay time length, in milliseconds.
  * @retval None
  */
static void RCC_Delay(uint32_t mdelay)
{
 80017d0:	b480      	push	{r7}
 80017d2:	b085      	sub	sp, #20
 80017d4:	af00      	add	r7, sp, #0
 80017d6:	6078      	str	r0, [r7, #4]
  __IO uint32_t Delay = mdelay * (SystemCoreClock / 8U / 1000U);
 80017d8:	4b0a      	ldr	r3, [pc, #40]	@ (8001804 <RCC_Delay+0x34>)
 80017da:	681b      	ldr	r3, [r3, #0]
 80017dc:	4a0a      	ldr	r2, [pc, #40]	@ (8001808 <RCC_Delay+0x38>)
 80017de:	fba2 2303 	umull	r2, r3, r2, r3
 80017e2:	0a5b      	lsrs	r3, r3, #9
 80017e4:	687a      	ldr	r2, [r7, #4]
 80017e6:	fb02 f303 	mul.w	r3, r2, r3
 80017ea:	60fb      	str	r3, [r7, #12]
  do
  {
    __NOP();
 80017ec:	bf00      	nop
  }
  while (Delay --);
 80017ee:	68fb      	ldr	r3, [r7, #12]
 80017f0:	1e5a      	subs	r2, r3, #1
 80017f2:	60fa      	str	r2, [r7, #12]
 80017f4:	2b00      	cmp	r3, #0
 80017f6:	d1f9      	bne.n	80017ec <RCC_Delay+0x1c>
}
 80017f8:	bf00      	nop
 80017fa:	bf00      	nop
 80017fc:	3714      	adds	r7, #20
 80017fe:	46bd      	mov	sp, r7
 8001800:	bc80      	pop	{r7}
 8001802:	4770      	bx	lr
 8001804:	20000000 	.word	0x20000000
 8001808:	10624dd3 	.word	0x10624dd3

0800180c <HAL_SPI_Init>:
  * @param  hspi pointer to a SPI_HandleTypeDef structure that contains
  *               the configuration information for SPI module.
  * @retval HAL status
  */
HAL_StatusTypeDef HAL_SPI_Init(SPI_HandleTypeDef *hspi)
{
 800180c:	b580      	push	{r7, lr}
 800180e:	b082      	sub	sp, #8
 8001810:	af00      	add	r7, sp, #0
 8001812:	6078      	str	r0, [r7, #4]
  /* Check the SPI handle allocation */
  if (hspi == NULL)
 8001814:	687b      	ldr	r3, [r7, #4]
 8001816:	2b00      	cmp	r3, #0
 8001818:	d101      	bne.n	800181e <HAL_SPI_Init+0x12>
  {
    return HAL_ERROR;
 800181a:	2301      	movs	r3, #1
 800181c:	e076      	b.n	800190c <HAL_SPI_Init+0x100>
  assert_param(IS_SPI_BAUDRATE_PRESCALER(hspi->Init.BaudRatePrescaler));
  assert_param(IS_SPI_FIRST_BIT(hspi->Init.FirstBit));
  /* TI mode is not supported on this device.
     TIMode parameter is mandatory equal to SPI_TIMODE_DISABLE */
  assert_param(IS_SPI_TIMODE(hspi->Init.TIMode));
  if (hspi->Init.TIMode == SPI_TIMODE_DISABLE)
 800181e:	687b      	ldr	r3, [r7, #4]
 8001820:	6a5b      	ldr	r3, [r3, #36]	@ 0x24
 8001822:	2b00      	cmp	r3, #0
 8001824:	d108      	bne.n	8001838 <HAL_SPI_Init+0x2c>
  {
    assert_param(IS_SPI_CPOL(hspi->Init.CLKPolarity));
    assert_param(IS_SPI_CPHA(hspi->Init.CLKPhase));

    if (hspi->Init.Mode == SPI_MODE_MASTER)
 8001826:	687b      	ldr	r3, [r7, #4]
 8001828:	685b      	ldr	r3, [r3, #4]
 800182a:	f5b3 7f82 	cmp.w	r3, #260	@ 0x104
 800182e:	d009      	beq.n	8001844 <HAL_SPI_Init+0x38>
      assert_param(IS_SPI_BAUDRATE_PRESCALER(hspi->Init.BaudRatePrescaler));
    }
    else
    {
      /* Baudrate prescaler not use in Motoraola Slave mode. force to default value */
      hspi->Init.BaudRatePrescaler = SPI_BAUDRATEPRESCALER_2;
 8001830:	687b      	ldr	r3, [r7, #4]
 8001832:	2200      	movs	r2, #0
 8001834:	61da      	str	r2, [r3, #28]
 8001836:	e005      	b.n	8001844 <HAL_SPI_Init+0x38>
  else
  {
    assert_param(IS_SPI_BAUDRATE_PRESCALER(hspi->Init.BaudRatePrescaler));

    /* Force polarity and phase to TI protocaol requirements */
    hspi->Init.CLKPolarity = SPI_POLARITY_LOW;
 8001838:	687b      	ldr	r3, [r7, #4]
 800183a:	2200      	movs	r2, #0
 800183c:	611a      	str	r2, [r3, #16]
    hspi->Init.CLKPhase    = SPI_PHASE_1EDGE;
 800183e:	687b      	ldr	r3, [r7, #4]
 8001840:	2200      	movs	r2, #0
 8001842:	615a      	str	r2, [r3, #20]
  if (hspi->Init.CRCCalculation == SPI_CRCCALCULATION_ENABLE)
  {
    assert_param(IS_SPI_CRC_POLYNOMIAL(hspi->Init.CRCPolynomial));
  }
#else
  hspi->Init.CRCCalculation = SPI_CRCCALCULATION_DISABLE;
 8001844:	687b      	ldr	r3, [r7, #4]
 8001846:	2200      	movs	r2, #0
 8001848:	629a      	str	r2, [r3, #40]	@ 0x28
#endif /* USE_SPI_CRC */

  if (hspi->State == HAL_SPI_STATE_RESET)
 800184a:	687b      	ldr	r3, [r7, #4]
 800184c:	f893 3051 	ldrb.w	r3, [r3, #81]	@ 0x51
 8001850:	b2db      	uxtb	r3, r3
 8001852:	2b00      	cmp	r3, #0
 8001854:	d106      	bne.n	8001864 <HAL_SPI_Init+0x58>
  {
    /* Allocate lock resource and initialize it */
    hspi->Lock = HAL_UNLOCKED;
 8001856:	687b      	ldr	r3, [r7, #4]
 8001858:	2200      	movs	r2, #0
 800185a:	f883 2050 	strb.w	r2, [r3, #80]	@ 0x50

    /* Init the low level hardware : GPIO, CLOCK, NVIC... */
    hspi->MspInitCallback(hspi);
#else
    /* Init the low level hardware : GPIO, CLOCK, NVIC... */
    HAL_SPI_MspInit(hspi);
 800185e:	6878      	ldr	r0, [r7, #4]
 8001860:	f7fe fe66 	bl	8000530 <HAL_SPI_MspInit>
#endif /* USE_HAL_SPI_REGISTER_CALLBACKS */
  }

  hspi->State = HAL_SPI_STATE_BUSY;
 8001864:	687b      	ldr	r3, [r7, #4]
 8001866:	2202      	movs	r2, #2
 8001868:	f883 2051 	strb.w	r2, [r3, #81]	@ 0x51

  /* Disable the selected SPI peripheral */
  __HAL_SPI_DISABLE(hspi);
 800186c:	687b      	ldr	r3, [r7, #4]
 800186e:	681b      	ldr	r3, [r3, #0]
 8001870:	681a      	ldr	r2, [r3, #0]
 8001872:	687b      	ldr	r3, [r7, #4]
 8001874:	681b      	ldr	r3, [r3, #0]
 8001876:	f022 0240 	bic.w	r2, r2, #64	@ 0x40
 800187a:	601a      	str	r2, [r3, #0]

  /*----------------------- SPIx CR1 & CR2 Configuration ---------------------*/
  /* Configure : SPI Mode, Communication Mode, Data size, Clock polarity and phase, NSS management,
  Communication speed, First bit and CRC calculation state */
  WRITE_REG(hspi->Instance->CR1, ((hspi->Init.Mode & (SPI_CR1_MSTR | SPI_CR1_SSI)) |
 800187c:	687b      	ldr	r3, [r7, #4]
 800187e:	685b      	ldr	r3, [r3, #4]
 8001880:	f403 7282 	and.w	r2, r3, #260	@ 0x104
 8001884:	687b      	ldr	r3, [r7, #4]
 8001886:	689b      	ldr	r3, [r3, #8]
 8001888:	f403 4304 	and.w	r3, r3, #33792	@ 0x8400
 800188c:	431a      	orrs	r2, r3
 800188e:	687b      	ldr	r3, [r7, #4]
 8001890:	68db      	ldr	r3, [r3, #12]
 8001892:	f403 6300 	and.w	r3, r3, #2048	@ 0x800
 8001896:	431a      	orrs	r2, r3
 8001898:	687b      	ldr	r3, [r7, #4]
 800189a:	691b      	ldr	r3, [r3, #16]
 800189c:	f003 0302 	and.w	r3, r3, #2
 80018a0:	431a      	orrs	r2, r3
 80018a2:	687b      	ldr	r3, [r7, #4]
 80018a4:	695b      	ldr	r3, [r3, #20]
 80018a6:	f003 0301 	and.w	r3, r3, #1
 80018aa:	431a      	orrs	r2, r3
 80018ac:	687b      	ldr	r3, [r7, #4]
 80018ae:	699b      	ldr	r3, [r3, #24]
 80018b0:	f403 7300 	and.w	r3, r3, #512	@ 0x200
 80018b4:	431a      	orrs	r2, r3
 80018b6:	687b      	ldr	r3, [r7, #4]
 80018b8:	69db      	ldr	r3, [r3, #28]
 80018ba:	f003 0338 	and.w	r3, r3, #56	@ 0x38
 80018be:	431a      	orrs	r2, r3
 80018c0:	687b      	ldr	r3, [r7, #4]
 80018c2:	6a1b      	ldr	r3, [r3, #32]
 80018c4:	f003 0380 	and.w	r3, r3, #128	@ 0x80
 80018c8:	ea42 0103 	orr.w	r1, r2, r3
 80018cc:	687b      	ldr	r3, [r7, #4]
 80018ce:	6a9b      	ldr	r3, [r3, #40]	@ 0x28
 80018d0:	f403 5200 	and.w	r2, r3, #8192	@ 0x2000
 80018d4:	687b      	ldr	r3, [r7, #4]
 80018d6:	681b      	ldr	r3, [r3, #0]
 80018d8:	430a      	orrs	r2, r1
 80018da:	601a      	str	r2, [r3, #0]
                                  (hspi->Init.BaudRatePrescaler & SPI_CR1_BR_Msk) |
                                  (hspi->Init.FirstBit  & SPI_CR1_LSBFIRST) |
                                  (hspi->Init.CRCCalculation & SPI_CR1_CRCEN)));

  /* Configure : NSS management */
  WRITE_REG(hspi->Instance->CR2, ((hspi->Init.NSS >> 16U) & SPI_CR2_SSOE));
 80018dc:	687b      	ldr	r3, [r7, #4]
 80018de:	699b      	ldr	r3, [r3, #24]
 80018e0:	0c1a      	lsrs	r2, r3, #16
 80018e2:	687b      	ldr	r3, [r7, #4]
 80018e4:	681b      	ldr	r3, [r3, #0]
 80018e6:	f002 0204 	and.w	r2, r2, #4
 80018ea:	605a      	str	r2, [r3, #4]
  }
#endif /* USE_SPI_CRC */

#if defined(SPI_I2SCFGR_I2SMOD)
  /* Activate the SPI mode (Make sure that I2SMOD bit in I2SCFGR register is reset) */
  CLEAR_BIT(hspi->Instance->I2SCFGR, SPI_I2SCFGR_I2SMOD);
 80018ec:	687b      	ldr	r3, [r7, #4]
 80018ee:	681b      	ldr	r3, [r3, #0]
 80018f0:	69da      	ldr	r2, [r3, #28]
 80018f2:	687b      	ldr	r3, [r7, #4]
 80018f4:	681b      	ldr	r3, [r3, #0]
 80018f6:	f422 6200 	bic.w	r2, r2, #2048	@ 0x800
 80018fa:	61da      	str	r2, [r3, #28]
#endif /* SPI_I2SCFGR_I2SMOD */

  hspi->ErrorCode = HAL_SPI_ERROR_NONE;
 80018fc:	687b      	ldr	r3, [r7, #4]
 80018fe:	2200      	movs	r2, #0
 8001900:	655a      	str	r2, [r3, #84]	@ 0x54
  hspi->State     = HAL_SPI_STATE_READY;
 8001902:	687b      	ldr	r3, [r7, #4]
 8001904:	2201      	movs	r2, #1
 8001906:	f883 2051 	strb.w	r2, [r3, #81]	@ 0x51

  return HAL_OK;
 800190a:	2300      	movs	r3, #0
}
 800190c:	4618      	mov	r0, r3
 800190e:	3708      	adds	r7, #8
 8001910:	46bd      	mov	sp, r7
 8001912:	bd80      	pop	{r7, pc}

08001914 <HAL_UART_Init>:
  * @param  huart  Pointer to a UART_HandleTypeDef structure that contains
  *                the configuration information for the specified UART module.
  * @retval HAL status
  */
HAL_StatusTypeDef HAL_UART_Init(UART_HandleTypeDef *huart)
{
 8001914:	b580      	push	{r7, lr}
 8001916:	b082      	sub	sp, #8
 8001918:	af00      	add	r7, sp, #0
 800191a:	6078      	str	r0, [r7, #4]
  /* Check the UART handle allocation */
  if (huart == NULL)
 800191c:	687b      	ldr	r3, [r7, #4]
 800191e:	2b00      	cmp	r3, #0
 8001920:	d101      	bne.n	8001926 <HAL_UART_Init+0x12>
  {
    return HAL_ERROR;
 8001922:	2301      	movs	r3, #1
 8001924:	e042      	b.n	80019ac <HAL_UART_Init+0x98>
  assert_param(IS_UART_WORD_LENGTH(huart->Init.WordLength));
#if defined(USART_CR1_OVER8)
  assert_param(IS_UART_OVERSAMPLING(huart->Init.OverSampling));
#endif /* USART_CR1_OVER8 */

  if (huart->gState == HAL_UART_STATE_RESET)
 8001926:	687b      	ldr	r3, [r7, #4]
 8001928:	f893 3041 	ldrb.w	r3, [r3, #65]	@ 0x41
 800192c:	b2db      	uxtb	r3, r3
 800192e:	2b00      	cmp	r3, #0
 8001930:	d106      	bne.n	8001940 <HAL_UART_Init+0x2c>
  {
    /* Allocate lock resource and initialize it */
    huart->Lock = HAL_UNLOCKED;
 8001932:	687b      	ldr	r3, [r7, #4]
 8001934:	2200      	movs	r2, #0
 8001936:	f883 2040 	strb.w	r2, [r3, #64]	@ 0x40

    /* Init the low level hardware */
    huart->MspInitCallback(huart);
#else
    /* Init the low level hardware : GPIO, CLOCK */
    HAL_UART_MspInit(huart);
 800193a:	6878      	ldr	r0, [r7, #4]
 800193c:	f7fe fe42 	bl	80005c4 <HAL_UART_MspInit>
#endif /* (USE_HAL_UART_REGISTER_CALLBACKS) */
  }

  huart->gState = HAL_UART_STATE_BUSY;
 8001940:	687b      	ldr	r3, [r7, #4]
 8001942:	2224      	movs	r2, #36	@ 0x24
 8001944:	f883 2041 	strb.w	r2, [r3, #65]	@ 0x41

  /* Disable the peripheral */
  __HAL_UART_DISABLE(huart);
 8001948:	687b      	ldr	r3, [r7, #4]
 800194a:	681b      	ldr	r3, [r3, #0]
 800194c:	68da      	ldr	r2, [r3, #12]
 800194e:	687b      	ldr	r3, [r7, #4]
 8001950:	681b      	ldr	r3, [r3, #0]
 8001952:	f422 5200 	bic.w	r2, r2, #8192	@ 0x2000
 8001956:	60da      	str	r2, [r3, #12]

  /* Set the UART Communication parameters */
  UART_SetConfig(huart);
 8001958:	6878      	ldr	r0, [r7, #4]
 800195a:	f000 f975 	bl	8001c48 <UART_SetConfig>

  /* In asynchronous mode, the following bits must be kept cleared:
     - LINEN and CLKEN bits in the USART_CR2 register,
     - SCEN, HDSEL and IREN  bits in the USART_CR3 register.*/
  CLEAR_BIT(huart->Instance->CR2, (USART_CR2_LINEN | USART_CR2_CLKEN));
 800195e:	687b      	ldr	r3, [r7, #4]
 8001960:	681b      	ldr	r3, [r3, #0]
 8001962:	691a      	ldr	r2, [r3, #16]
 8001964:	687b      	ldr	r3, [r7, #4]
 8001966:	681b      	ldr	r3, [r3, #0]
 8001968:	f422 4290 	bic.w	r2, r2, #18432	@ 0x4800
 800196c:	611a      	str	r2, [r3, #16]
  CLEAR_BIT(huart->Instance->CR3, (USART_CR3_SCEN | USART_CR3_HDSEL | USART_CR3_IREN));
 800196e:	687b      	ldr	r3, [r7, #4]
 8001970:	681b      	ldr	r3, [r3, #0]
 8001972:	695a      	ldr	r2, [r3, #20]
 8001974:	687b      	ldr	r3, [r7, #4]
 8001976:	681b      	ldr	r3, [r3, #0]
 8001978:	f022 022a 	bic.w	r2, r2, #42	@ 0x2a
 800197c:	615a      	str	r2, [r3, #20]

  /* Enable the peripheral */
  __HAL_UART_ENABLE(huart);
 800197e:	687b      	ldr	r3, [r7, #4]
 8001980:	681b      	ldr	r3, [r3, #0]
 8001982:	68da      	ldr	r2, [r3, #12]
 8001984:	687b      	ldr	r3, [r7, #4]
 8001986:	681b      	ldr	r3, [r3, #0]
 8001988:	f442 5200 	orr.w	r2, r2, #8192	@ 0x2000
 800198c:	60da      	str	r2, [r3, #12]

  /* Initialize the UART state */
  huart->ErrorCode = HAL_UART_ERROR_NONE;
 800198e:	687b      	ldr	r3, [r7, #4]
 8001990:	2200      	movs	r2, #0
 8001992:	645a      	str	r2, [r3, #68]	@ 0x44
  huart->gState = HAL_UART_STATE_READY;
 8001994:	687b      	ldr	r3, [r7, #4]
 8001996:	2220      	movs	r2, #32
 8001998:	f883 2041 	strb.w	r2, [r3, #65]	@ 0x41
  huart->RxState = HAL_UART_STATE_READY;
 800199c:	687b      	ldr	r3, [r7, #4]
 800199e:	2220      	movs	r2, #32
 80019a0:	f883 2042 	strb.w	r2, [r3, #66]	@ 0x42
  huart->RxEventType = HAL_UART_RXEVENT_TC;
 80019a4:	687b      	ldr	r3, [r7, #4]
 80019a6:	2200      	movs	r2, #0
 80019a8:	635a      	str	r2, [r3, #52]	@ 0x34

  return HAL_OK;
 80019aa:	2300      	movs	r3, #0
}
 80019ac:	4618      	mov	r0, r3
 80019ae:	3708      	adds	r7, #8
 80019b0:	46bd      	mov	sp, r7
 80019b2:	bd80      	pop	{r7, pc}

080019b4 <HAL_HalfDuplex_Init>:
  * @param  huart  Pointer to a UART_HandleTypeDef structure that contains
  *                the configuration information for the specified UART module.
  * @retval HAL status
  */
HAL_StatusTypeDef HAL_HalfDuplex_Init(UART_HandleTypeDef *huart)
{
 80019b4:	b580      	push	{r7, lr}
 80019b6:	b082      	sub	sp, #8
 80019b8:	af00      	add	r7, sp, #0
 80019ba:	6078      	str	r0, [r7, #4]
  /* Check the UART handle allocation */
  if (huart == NULL)
 80019bc:	687b      	ldr	r3, [r7, #4]
 80019be:	2b00      	cmp	r3, #0
 80019c0:	d101      	bne.n	80019c6 <HAL_HalfDuplex_Init+0x12>
  {
    return HAL_ERROR;
 80019c2:	2301      	movs	r3, #1
 80019c4:	e04a      	b.n	8001a5c <HAL_HalfDuplex_Init+0xa8>
  assert_param(IS_UART_WORD_LENGTH(huart->Init.WordLength));
#if defined(USART_CR1_OVER8)
  assert_param(IS_UART_OVERSAMPLING(huart->Init.OverSampling));
#endif /* USART_CR1_OVER8 */

  if (huart->gState == HAL_UART_STATE_RESET)
 80019c6:	687b      	ldr	r3, [r7, #4]
 80019c8:	f893 3041 	ldrb.w	r3, [r3, #65]	@ 0x41
 80019cc:	b2db      	uxtb	r3, r3
 80019ce:	2b00      	cmp	r3, #0
 80019d0:	d106      	bne.n	80019e0 <HAL_HalfDuplex_Init+0x2c>
  {
    /* Allocate lock resource and initialize it */
    huart->Lock = HAL_UNLOCKED;
 80019d2:	687b      	ldr	r3, [r7, #4]
 80019d4:	2200      	movs	r2, #0
 80019d6:	f883 2040 	strb.w	r2, [r3, #64]	@ 0x40

    /* Init the low level hardware */
    huart->MspInitCallback(huart);
#else
    /* Init the low level hardware : GPIO, CLOCK */
    HAL_UART_MspInit(huart);
 80019da:	6878      	ldr	r0, [r7, #4]
 80019dc:	f7fe fdf2 	bl	80005c4 <HAL_UART_MspInit>
#endif /* (USE_HAL_UART_REGISTER_CALLBACKS) */
  }

  huart->gState = HAL_UART_STATE_BUSY;
 80019e0:	687b      	ldr	r3, [r7, #4]
 80019e2:	2224      	movs	r2, #36	@ 0x24
 80019e4:	f883 2041 	strb.w	r2, [r3, #65]	@ 0x41

  /* Disable the peripheral */
  __HAL_UART_DISABLE(huart);
 80019e8:	687b      	ldr	r3, [r7, #4]
 80019ea:	681b      	ldr	r3, [r3, #0]
 80019ec:	68da      	ldr	r2, [r3, #12]
 80019ee:	687b      	ldr	r3, [r7, #4]
 80019f0:	681b      	ldr	r3, [r3, #0]
 80019f2:	f422 5200 	bic.w	r2, r2, #8192	@ 0x2000
 80019f6:	60da      	str	r2, [r3, #12]

  /* Set the UART Communication parameters */
  UART_SetConfig(huart);
 80019f8:	6878      	ldr	r0, [r7, #4]
 80019fa:	f000 f925 	bl	8001c48 <UART_SetConfig>

  /* In half-duplex mode, the following bits must be kept cleared:
     - LINEN and CLKEN bits in the USART_CR2 register,
     - SCEN and IREN bits in the USART_CR3 register.*/
  CLEAR_BIT(huart->Instance->CR2, (USART_CR2_LINEN | USART_CR2_CLKEN));
 80019fe:	687b      	ldr	r3, [r7, #4]
 8001a00:	681b      	ldr	r3, [r3, #0]
 8001a02:	691a      	ldr	r2, [r3, #16]
 8001a04:	687b      	ldr	r3, [r7, #4]
 8001a06:	681b      	ldr	r3, [r3, #0]
 8001a08:	f422 4290 	bic.w	r2, r2, #18432	@ 0x4800
 8001a0c:	611a      	str	r2, [r3, #16]
  CLEAR_BIT(huart->Instance->CR3, (USART_CR3_IREN | USART_CR3_SCEN));
 8001a0e:	687b      	ldr	r3, [r7, #4]
 8001a10:	681b      	ldr	r3, [r3, #0]
 8001a12:	695a      	ldr	r2, [r3, #20]
 8001a14:	687b      	ldr	r3, [r7, #4]
 8001a16:	681b      	ldr	r3, [r3, #0]
 8001a18:	f022 0222 	bic.w	r2, r2, #34	@ 0x22
 8001a1c:	615a      	str	r2, [r3, #20]

  /* Enable the Half-Duplex mode by setting the HDSEL bit in the CR3 register */
  SET_BIT(huart->Instance->CR3, USART_CR3_HDSEL);
 8001a1e:	687b      	ldr	r3, [r7, #4]
 8001a20:	681b      	ldr	r3, [r3, #0]
 8001a22:	695a      	ldr	r2, [r3, #20]
 8001a24:	687b      	ldr	r3, [r7, #4]
 8001a26:	681b      	ldr	r3, [r3, #0]
 8001a28:	f042 0208 	orr.w	r2, r2, #8
 8001a2c:	615a      	str	r2, [r3, #20]

  /* Enable the peripheral */
  __HAL_UART_ENABLE(huart);
 8001a2e:	687b      	ldr	r3, [r7, #4]
 8001a30:	681b      	ldr	r3, [r3, #0]
 8001a32:	68da      	ldr	r2, [r3, #12]
 8001a34:	687b      	ldr	r3, [r7, #4]
 8001a36:	681b      	ldr	r3, [r3, #0]
 8001a38:	f442 5200 	orr.w	r2, r2, #8192	@ 0x2000
 8001a3c:	60da      	str	r2, [r3, #12]

  /* Initialize the UART state*/
  huart->ErrorCode = HAL_UART_ERROR_NONE;
 8001a3e:	687b      	ldr	r3, [r7, #4]
 8001a40:	2200      	movs	r2, #0
 8001a42:	645a      	str	r2, [r3, #68]	@ 0x44
  huart->gState = HAL_UART_STATE_READY;
 8001a44:	687b      	ldr	r3, [r7, #4]
 8001a46:	2220      	movs	r2, #32
 8001a48:	f883 2041 	strb.w	r2, [r3, #65]	@ 0x41
  huart->RxState = HAL_UART_STATE_READY;
 8001a4c:	687b      	ldr	r3, [r7, #4]
 8001a4e:	2220      	movs	r2, #32
 8001a50:	f883 2042 	strb.w	r2, [r3, #66]	@ 0x42
  huart->RxEventType = HAL_UART_RXEVENT_TC;
 8001a54:	687b      	ldr	r3, [r7, #4]
 8001a56:	2200      	movs	r2, #0
 8001a58:	635a      	str	r2, [r3, #52]	@ 0x34

  return HAL_OK;
 8001a5a:	2300      	movs	r3, #0
}
 8001a5c:	4618      	mov	r0, r3
 8001a5e:	3708      	adds	r7, #8
 8001a60:	46bd      	mov	sp, r7
 8001a62:	bd80      	pop	{r7, pc}

08001a64 <HAL_UART_Transmit>:
  * @param  Size  Amount of data elements (u8 or u16) to be sent
  * @param  Timeout Timeout duration
  * @retval HAL status
  */
HAL_StatusTypeDef HAL_UART_Transmit(UART_HandleTypeDef *huart, const uint8_t *pData, uint16_t Size, uint32_t Timeout)
{
 8001a64:	b580      	push	{r7, lr}
 8001a66:	b08a      	sub	sp, #40	@ 0x28
 8001a68:	af02      	add	r7, sp, #8
 8001a6a:	60f8      	str	r0, [r7, #12]
 8001a6c:	60b9      	str	r1, [r7, #8]
 8001a6e:	603b      	str	r3, [r7, #0]
 8001a70:	4613      	mov	r3, r2
 8001a72:	80fb      	strh	r3, [r7, #6]
  const uint8_t  *pdata8bits;
  const uint16_t *pdata16bits;
  uint32_t tickstart = 0U;
 8001a74:	2300      	movs	r3, #0
 8001a76:	617b      	str	r3, [r7, #20]

  /* Check that a Tx process is not already ongoing */
  if (huart->gState == HAL_UART_STATE_READY)
 8001a78:	68fb      	ldr	r3, [r7, #12]
 8001a7a:	f893 3041 	ldrb.w	r3, [r3, #65]	@ 0x41
 8001a7e:	b2db      	uxtb	r3, r3
 8001a80:	2b20      	cmp	r3, #32
 8001a82:	d16d      	bne.n	8001b60 <HAL_UART_Transmit+0xfc>
  {
    if ((pData == NULL) || (Size == 0U))
 8001a84:	68bb      	ldr	r3, [r7, #8]
 8001a86:	2b00      	cmp	r3, #0
 8001a88:	d002      	beq.n	8001a90 <HAL_UART_Transmit+0x2c>
 8001a8a:	88fb      	ldrh	r3, [r7, #6]
 8001a8c:	2b00      	cmp	r3, #0
 8001a8e:	d101      	bne.n	8001a94 <HAL_UART_Transmit+0x30>
    {
      return  HAL_ERROR;
 8001a90:	2301      	movs	r3, #1
 8001a92:	e066      	b.n	8001b62 <HAL_UART_Transmit+0xfe>
    }

    huart->ErrorCode = HAL_UART_ERROR_NONE;
 8001a94:	68fb      	ldr	r3, [r7, #12]
 8001a96:	2200      	movs	r2, #0
 8001a98:	645a      	str	r2, [r3, #68]	@ 0x44
    huart->gState = HAL_UART_STATE_BUSY_TX;
 8001a9a:	68fb      	ldr	r3, [r7, #12]
 8001a9c:	2221      	movs	r2, #33	@ 0x21
 8001a9e:	f883 2041 	strb.w	r2, [r3, #65]	@ 0x41

    /* Init tickstart for timeout management */
    tickstart = HAL_GetTick();
 8001aa2:	f7fe feb9 	bl	8000818 <HAL_GetTick>
 8001aa6:	6178      	str	r0, [r7, #20]

    huart->TxXferSize = Size;
 8001aa8:	68fb      	ldr	r3, [r7, #12]
 8001aaa:	88fa      	ldrh	r2, [r7, #6]
 8001aac:	849a      	strh	r2, [r3, #36]	@ 0x24
    huart->TxXferCount = Size;
 8001aae:	68fb      	ldr	r3, [r7, #12]
 8001ab0:	88fa      	ldrh	r2, [r7, #6]
 8001ab2:	84da      	strh	r2, [r3, #38]	@ 0x26

    /* In case of 9bits/No Parity transfer, pData needs to be handled as a uint16_t pointer */
    if ((huart->Init.WordLength == UART_WORDLENGTH_9B) && (huart->Init.Parity == UART_PARITY_NONE))
 8001ab4:	68fb      	ldr	r3, [r7, #12]
 8001ab6:	689b      	ldr	r3, [r3, #8]
 8001ab8:	f5b3 5f80 	cmp.w	r3, #4096	@ 0x1000
 8001abc:	d108      	bne.n	8001ad0 <HAL_UART_Transmit+0x6c>
 8001abe:	68fb      	ldr	r3, [r7, #12]
 8001ac0:	691b      	ldr	r3, [r3, #16]
 8001ac2:	2b00      	cmp	r3, #0
 8001ac4:	d104      	bne.n	8001ad0 <HAL_UART_Transmit+0x6c>
    {
      pdata8bits  = NULL;
 8001ac6:	2300      	movs	r3, #0
 8001ac8:	61fb      	str	r3, [r7, #28]
      pdata16bits = (const uint16_t *) pData;
 8001aca:	68bb      	ldr	r3, [r7, #8]
 8001acc:	61bb      	str	r3, [r7, #24]
 8001ace:	e003      	b.n	8001ad8 <HAL_UART_Transmit+0x74>
    }
    else
    {
      pdata8bits  = pData;
 8001ad0:	68bb      	ldr	r3, [r7, #8]
 8001ad2:	61fb      	str	r3, [r7, #28]
      pdata16bits = NULL;
 8001ad4:	2300      	movs	r3, #0
 8001ad6:	61bb      	str	r3, [r7, #24]
    }

    while (huart->TxXferCount > 0U)
 8001ad8:	e02a      	b.n	8001b30 <HAL_UART_Transmit+0xcc>
    {
      if (UART_WaitOnFlagUntilTimeout(huart, UART_FLAG_TXE, RESET, tickstart, Timeout) != HAL_OK)
 8001ada:	683b      	ldr	r3, [r7, #0]
 8001adc:	9300      	str	r3, [sp, #0]
 8001ade:	697b      	ldr	r3, [r7, #20]
 8001ae0:	2200      	movs	r2, #0
 8001ae2:	2180      	movs	r1, #128	@ 0x80
 8001ae4:	68f8      	ldr	r0, [r7, #12]
 8001ae6:	f000 f840 	bl	8001b6a <UART_WaitOnFlagUntilTimeout>
 8001aea:	4603      	mov	r3, r0
 8001aec:	2b00      	cmp	r3, #0
 8001aee:	d001      	beq.n	8001af4 <HAL_UART_Transmit+0x90>
      {
        return HAL_TIMEOUT;
 8001af0:	2303      	movs	r3, #3
 8001af2:	e036      	b.n	8001b62 <HAL_UART_Transmit+0xfe>
      }
      if (pdata8bits == NULL)
 8001af4:	69fb      	ldr	r3, [r7, #28]
 8001af6:	2b00      	cmp	r3, #0
 8001af8:	d10b      	bne.n	8001b12 <HAL_UART_Transmit+0xae>
      {
        huart->Instance->DR = (uint16_t)(*pdata16bits & 0x01FFU);
 8001afa:	69bb      	ldr	r3, [r7, #24]
 8001afc:	881b      	ldrh	r3, [r3, #0]
 8001afe:	461a      	mov	r2, r3
 8001b00:	68fb      	ldr	r3, [r7, #12]
 8001b02:	681b      	ldr	r3, [r3, #0]
 8001b04:	f3c2 0208 	ubfx	r2, r2, #0, #9
 8001b08:	605a      	str	r2, [r3, #4]
        pdata16bits++;
 8001b0a:	69bb      	ldr	r3, [r7, #24]
 8001b0c:	3302      	adds	r3, #2
 8001b0e:	61bb      	str	r3, [r7, #24]
 8001b10:	e007      	b.n	8001b22 <HAL_UART_Transmit+0xbe>
      }
      else
      {
        huart->Instance->DR = (uint8_t)(*pdata8bits & 0xFFU);
 8001b12:	69fb      	ldr	r3, [r7, #28]
 8001b14:	781a      	ldrb	r2, [r3, #0]
 8001b16:	68fb      	ldr	r3, [r7, #12]
 8001b18:	681b      	ldr	r3, [r3, #0]
 8001b1a:	605a      	str	r2, [r3, #4]
        pdata8bits++;
 8001b1c:	69fb      	ldr	r3, [r7, #28]
 8001b1e:	3301      	adds	r3, #1
 8001b20:	61fb      	str	r3, [r7, #28]
      }
      huart->TxXferCount--;
 8001b22:	68fb      	ldr	r3, [r7, #12]
 8001b24:	8cdb      	ldrh	r3, [r3, #38]	@ 0x26
 8001b26:	b29b      	uxth	r3, r3
 8001b28:	3b01      	subs	r3, #1
 8001b2a:	b29a      	uxth	r2, r3
 8001b2c:	68fb      	ldr	r3, [r7, #12]
 8001b2e:	84da      	strh	r2, [r3, #38]	@ 0x26
    while (huart->TxXferCount > 0U)
 8001b30:	68fb      	ldr	r3, [r7, #12]
 8001b32:	8cdb      	ldrh	r3, [r3, #38]	@ 0x26
 8001b34:	b29b      	uxth	r3, r3
 8001b36:	2b00      	cmp	r3, #0
 8001b38:	d1cf      	bne.n	8001ada <HAL_UART_Transmit+0x76>
    }

    if (UART_WaitOnFlagUntilTimeout(huart, UART_FLAG_TC, RESET, tickstart, Timeout) != HAL_OK)
 8001b3a:	683b      	ldr	r3, [r7, #0]
 8001b3c:	9300      	str	r3, [sp, #0]
 8001b3e:	697b      	ldr	r3, [r7, #20]
 8001b40:	2200      	movs	r2, #0
 8001b42:	2140      	movs	r1, #64	@ 0x40
 8001b44:	68f8      	ldr	r0, [r7, #12]
 8001b46:	f000 f810 	bl	8001b6a <UART_WaitOnFlagUntilTimeout>
 8001b4a:	4603      	mov	r3, r0
 8001b4c:	2b00      	cmp	r3, #0
 8001b4e:	d001      	beq.n	8001b54 <HAL_UART_Transmit+0xf0>
    {
      return HAL_TIMEOUT;
 8001b50:	2303      	movs	r3, #3
 8001b52:	e006      	b.n	8001b62 <HAL_UART_Transmit+0xfe>
    }

    /* At end of Tx process, restore huart->gState to Ready */
    huart->gState = HAL_UART_STATE_READY;
 8001b54:	68fb      	ldr	r3, [r7, #12]
 8001b56:	2220      	movs	r2, #32
 8001b58:	f883 2041 	strb.w	r2, [r3, #65]	@ 0x41

    return HAL_OK;
 8001b5c:	2300      	movs	r3, #0
 8001b5e:	e000      	b.n	8001b62 <HAL_UART_Transmit+0xfe>
  }
  else
  {
    return HAL_BUSY;
 8001b60:	2302      	movs	r3, #2
  }
}
 8001b62:	4618      	mov	r0, r3
 8001b64:	3720      	adds	r7, #32
 8001b66:	46bd      	mov	sp, r7
 8001b68:	bd80      	pop	{r7, pc}

08001b6a <UART_WaitOnFlagUntilTimeout>:
  * @param  Timeout Timeout duration
  * @retval HAL status
  */
static HAL_StatusTypeDef UART_WaitOnFlagUntilTimeout(UART_HandleTypeDef *huart, uint32_t Flag, FlagStatus Status,
                                                     uint32_t Tickstart, uint32_t Timeout)
{
 8001b6a:	b580      	push	{r7, lr}
 8001b6c:	b090      	sub	sp, #64	@ 0x40
 8001b6e:	af00      	add	r7, sp, #0
 8001b70:	60f8      	str	r0, [r7, #12]
 8001b72:	60b9      	str	r1, [r7, #8]
 8001b74:	603b      	str	r3, [r7, #0]
 8001b76:	4613      	mov	r3, r2
 8001b78:	71fb      	strb	r3, [r7, #7]
  /* Wait until flag is set */
  while ((__HAL_UART_GET_FLAG(huart, Flag) ? SET : RESET) == Status)
 8001b7a:	e050      	b.n	8001c1e <UART_WaitOnFlagUntilTimeout+0xb4>
  {
    /* Check for the Timeout */
    if (Timeout != HAL_MAX_DELAY)
 8001b7c:	6cbb      	ldr	r3, [r7, #72]	@ 0x48
 8001b7e:	f1b3 3fff 	cmp.w	r3, #4294967295
 8001b82:	d04c      	beq.n	8001c1e <UART_WaitOnFlagUntilTimeout+0xb4>
    {
      if ((Timeout == 0U) || ((HAL_GetTick() - Tickstart) > Timeout))
 8001b84:	6cbb      	ldr	r3, [r7, #72]	@ 0x48
 8001b86:	2b00      	cmp	r3, #0
 8001b88:	d007      	beq.n	8001b9a <UART_WaitOnFlagUntilTimeout+0x30>
 8001b8a:	f7fe fe45 	bl	8000818 <HAL_GetTick>
 8001b8e:	4602      	mov	r2, r0
 8001b90:	683b      	ldr	r3, [r7, #0]
 8001b92:	1ad3      	subs	r3, r2, r3
 8001b94:	6cba      	ldr	r2, [r7, #72]	@ 0x48
 8001b96:	429a      	cmp	r2, r3
 8001b98:	d241      	bcs.n	8001c1e <UART_WaitOnFlagUntilTimeout+0xb4>
      {
        /* Disable TXE, RXNE, PE and ERR (Frame error, noise error, overrun error) interrupts for the interrupt process */
        ATOMIC_CLEAR_BIT(huart->Instance->CR1, (USART_CR1_RXNEIE | USART_CR1_PEIE | USART_CR1_TXEIE));
 8001b9a:	68fb      	ldr	r3, [r7, #12]
 8001b9c:	681b      	ldr	r3, [r3, #0]
 8001b9e:	330c      	adds	r3, #12
 8001ba0:	62bb      	str	r3, [r7, #40]	@ 0x28
 */
__STATIC_FORCEINLINE uint32_t __LDREXW(volatile uint32_t *addr)
{
    uint32_t result;

   __ASM volatile ("ldrex %0, %1" : "=r" (result) : "Q" (*addr) );
 8001ba2:	6abb      	ldr	r3, [r7, #40]	@ 0x28
 8001ba4:	e853 3f00 	ldrex	r3, [r3]
 8001ba8:	627b      	str	r3, [r7, #36]	@ 0x24
   return(result);
 8001baa:	6a7b      	ldr	r3, [r7, #36]	@ 0x24
 8001bac:	f423 73d0 	bic.w	r3, r3, #416	@ 0x1a0
 8001bb0:	63fb      	str	r3, [r7, #60]	@ 0x3c
 8001bb2:	68fb      	ldr	r3, [r7, #12]
 8001bb4:	681b      	ldr	r3, [r3, #0]
 8001bb6:	330c      	adds	r3, #12
 8001bb8:	6bfa      	ldr	r2, [r7, #60]	@ 0x3c
 8001bba:	637a      	str	r2, [r7, #52]	@ 0x34
 8001bbc:	633b      	str	r3, [r7, #48]	@ 0x30
 */
__STATIC_FORCEINLINE uint32_t __STREXW(uint32_t value, volatile uint32_t *addr)
{
   uint32_t result;

   __ASM volatile ("strex %0, %2, %1" : "=&r" (result), "=Q" (*addr) : "r" (value) );
 8001bbe:	6b39      	ldr	r1, [r7, #48]	@ 0x30
 8001bc0:	6b7a      	ldr	r2, [r7, #52]	@ 0x34
 8001bc2:	e841 2300 	strex	r3, r2, [r1]
 8001bc6:	62fb      	str	r3, [r7, #44]	@ 0x2c
   return(result);
 8001bc8:	6afb      	ldr	r3, [r7, #44]	@ 0x2c
 8001bca:	2b00      	cmp	r3, #0
 8001bcc:	d1e5      	bne.n	8001b9a <UART_WaitOnFlagUntilTimeout+0x30>
        ATOMIC_CLEAR_BIT(huart->Instance->CR3, USART_CR3_EIE);
 8001bce:	68fb      	ldr	r3, [r7, #12]
 8001bd0:	681b      	ldr	r3, [r3, #0]
 8001bd2:	3314      	adds	r3, #20
 8001bd4:	617b      	str	r3, [r7, #20]
   __ASM volatile ("ldrex %0, %1" : "=r" (result) : "Q" (*addr) );
 8001bd6:	697b      	ldr	r3, [r7, #20]
 8001bd8:	e853 3f00 	ldrex	r3, [r3]
 8001bdc:	613b      	str	r3, [r7, #16]
   return(result);
 8001bde:	693b      	ldr	r3, [r7, #16]
 8001be0:	f023 0301 	bic.w	r3, r3, #1
 8001be4:	63bb      	str	r3, [r7, #56]	@ 0x38
 8001be6:	68fb      	ldr	r3, [r7, #12]
 8001be8:	681b      	ldr	r3, [r3, #0]
 8001bea:	3314      	adds	r3, #20
 8001bec:	6bba      	ldr	r2, [r7, #56]	@ 0x38
 8001bee:	623a      	str	r2, [r7, #32]
 8001bf0:	61fb      	str	r3, [r7, #28]
   __ASM volatile ("strex %0, %2, %1" : "=&r" (result), "=Q" (*addr) : "r" (value) );
 8001bf2:	69f9      	ldr	r1, [r7, #28]
 8001bf4:	6a3a      	ldr	r2, [r7, #32]
 8001bf6:	e841 2300 	strex	r3, r2, [r1]
 8001bfa:	61bb      	str	r3, [r7, #24]
   return(result);
 8001bfc:	69bb      	ldr	r3, [r7, #24]
 8001bfe:	2b00      	cmp	r3, #0
 8001c00:	d1e5      	bne.n	8001bce <UART_WaitOnFlagUntilTimeout+0x64>

        huart->gState  = HAL_UART_STATE_READY;
 8001c02:	68fb      	ldr	r3, [r7, #12]
 8001c04:	2220      	movs	r2, #32
 8001c06:	f883 2041 	strb.w	r2, [r3, #65]	@ 0x41
        huart->RxState = HAL_UART_STATE_READY;
 8001c0a:	68fb      	ldr	r3, [r7, #12]
 8001c0c:	2220      	movs	r2, #32
 8001c0e:	f883 2042 	strb.w	r2, [r3, #66]	@ 0x42

        /* Process Unlocked */
        __HAL_UNLOCK(huart);
 8001c12:	68fb      	ldr	r3, [r7, #12]
 8001c14:	2200      	movs	r2, #0
 8001c16:	f883 2040 	strb.w	r2, [r3, #64]	@ 0x40

        return HAL_TIMEOUT;
 8001c1a:	2303      	movs	r3, #3
 8001c1c:	e00f      	b.n	8001c3e <UART_WaitOnFlagUntilTimeout+0xd4>
  while ((__HAL_UART_GET_FLAG(huart, Flag) ? SET : RESET) == Status)
 8001c1e:	68fb      	ldr	r3, [r7, #12]
 8001c20:	681b      	ldr	r3, [r3, #0]
 8001c22:	681a      	ldr	r2, [r3, #0]
 8001c24:	68bb      	ldr	r3, [r7, #8]
 8001c26:	4013      	ands	r3, r2
 8001c28:	68ba      	ldr	r2, [r7, #8]
 8001c2a:	429a      	cmp	r2, r3
 8001c2c:	bf0c      	ite	eq
 8001c2e:	2301      	moveq	r3, #1
 8001c30:	2300      	movne	r3, #0
 8001c32:	b2db      	uxtb	r3, r3
 8001c34:	461a      	mov	r2, r3
 8001c36:	79fb      	ldrb	r3, [r7, #7]
 8001c38:	429a      	cmp	r2, r3
 8001c3a:	d09f      	beq.n	8001b7c <UART_WaitOnFlagUntilTimeout+0x12>
      }
    }
  }
  return HAL_OK;
 8001c3c:	2300      	movs	r3, #0
}
 8001c3e:	4618      	mov	r0, r3
 8001c40:	3740      	adds	r7, #64	@ 0x40
 8001c42:	46bd      	mov	sp, r7
 8001c44:	bd80      	pop	{r7, pc}
	...

08001c48 <UART_SetConfig>:
  * @param  huart  Pointer to a UART_HandleTypeDef structure that contains
  *                the configuration information for the specified UART module.
  * @retval None
  */
static void UART_SetConfig(UART_HandleTypeDef *huart)
{
 8001c48:	b580      	push	{r7, lr}
 8001c4a:	b084      	sub	sp, #16
 8001c4c:	af00      	add	r7, sp, #0
 8001c4e:	6078      	str	r0, [r7, #4]
  assert_param(IS_UART_MODE(huart->Init.Mode));

  /*-------------------------- USART CR2 Configuration -----------------------*/
  /* Configure the UART Stop Bits: Set STOP[13:12] bits
     according to huart->Init.StopBits value */
  MODIFY_REG(huart->Instance->CR2, USART_CR2_STOP, huart->Init.StopBits);
 8001c50:	687b      	ldr	r3, [r7, #4]
 8001c52:	681b      	ldr	r3, [r3, #0]
 8001c54:	691b      	ldr	r3, [r3, #16]
 8001c56:	f423 5140 	bic.w	r1, r3, #12288	@ 0x3000
 8001c5a:	687b      	ldr	r3, [r7, #4]
 8001c5c:	68da      	ldr	r2, [r3, #12]
 8001c5e:	687b      	ldr	r3, [r7, #4]
 8001c60:	681b      	ldr	r3, [r3, #0]
 8001c62:	430a      	orrs	r2, r1
 8001c64:	611a      	str	r2, [r3, #16]
  tmpreg = (uint32_t)huart->Init.WordLength | huart->Init.Parity | huart->Init.Mode | huart->Init.OverSampling;
  MODIFY_REG(huart->Instance->CR1,
             (uint32_t)(USART_CR1_M | USART_CR1_PCE | USART_CR1_PS | USART_CR1_TE | USART_CR1_RE | USART_CR1_OVER8),
             tmpreg);
#else
  tmpreg = (uint32_t)huart->Init.WordLength | huart->Init.Parity | huart->Init.Mode;
 8001c66:	687b      	ldr	r3, [r7, #4]
 8001c68:	689a      	ldr	r2, [r3, #8]
 8001c6a:	687b      	ldr	r3, [r7, #4]
 8001c6c:	691b      	ldr	r3, [r3, #16]
 8001c6e:	431a      	orrs	r2, r3
 8001c70:	687b      	ldr	r3, [r7, #4]
 8001c72:	695b      	ldr	r3, [r3, #20]
 8001c74:	4313      	orrs	r3, r2
 8001c76:	60bb      	str	r3, [r7, #8]
  MODIFY_REG(huart->Instance->CR1,
 8001c78:	687b      	ldr	r3, [r7, #4]
 8001c7a:	681b      	ldr	r3, [r3, #0]
 8001c7c:	68db      	ldr	r3, [r3, #12]
 8001c7e:	f423 53b0 	bic.w	r3, r3, #5632	@ 0x1600
 8001c82:	f023 030c 	bic.w	r3, r3, #12
 8001c86:	687a      	ldr	r2, [r7, #4]
 8001c88:	6812      	ldr	r2, [r2, #0]
 8001c8a:	68b9      	ldr	r1, [r7, #8]
 8001c8c:	430b      	orrs	r3, r1
 8001c8e:	60d3      	str	r3, [r2, #12]
             tmpreg);
#endif /* USART_CR1_OVER8 */

  /*-------------------------- USART CR3 Configuration -----------------------*/
  /* Configure the UART HFC: Set CTSE and RTSE bits according to huart->Init.HwFlowCtl value */
  MODIFY_REG(huart->Instance->CR3, (USART_CR3_RTSE | USART_CR3_CTSE), huart->Init.HwFlowCtl);
 8001c90:	687b      	ldr	r3, [r7, #4]
 8001c92:	681b      	ldr	r3, [r3, #0]
 8001c94:	695b      	ldr	r3, [r3, #20]
 8001c96:	f423 7140 	bic.w	r1, r3, #768	@ 0x300
 8001c9a:	687b      	ldr	r3, [r7, #4]
 8001c9c:	699a      	ldr	r2, [r3, #24]
 8001c9e:	687b      	ldr	r3, [r7, #4]
 8001ca0:	681b      	ldr	r3, [r3, #0]
 8001ca2:	430a      	orrs	r2, r1
 8001ca4:	615a      	str	r2, [r3, #20]


  if(huart->Instance == USART1)
 8001ca6:	687b      	ldr	r3, [r7, #4]
 8001ca8:	681b      	ldr	r3, [r3, #0]
 8001caa:	4a2c      	ldr	r2, [pc, #176]	@ (8001d5c <UART_SetConfig+0x114>)
 8001cac:	4293      	cmp	r3, r2
 8001cae:	d103      	bne.n	8001cb8 <UART_SetConfig+0x70>
  {
    pclk = HAL_RCC_GetPCLK2Freq();
 8001cb0:	f7ff fd7a 	bl	80017a8 <HAL_RCC_GetPCLK2Freq>
 8001cb4:	60f8      	str	r0, [r7, #12]
 8001cb6:	e002      	b.n	8001cbe <UART_SetConfig+0x76>
  }
  else
  {
    pclk = HAL_RCC_GetPCLK1Freq();
 8001cb8:	f7ff fd62 	bl	8001780 <HAL_RCC_GetPCLK1Freq>
 8001cbc:	60f8      	str	r0, [r7, #12]
  else
  {
    huart->Instance->BRR = UART_BRR_SAMPLING16(pclk, huart->Init.BaudRate);
  }
#else
  huart->Instance->BRR = UART_BRR_SAMPLING16(pclk, huart->Init.BaudRate);
 8001cbe:	68fa      	ldr	r2, [r7, #12]
 8001cc0:	4613      	mov	r3, r2
 8001cc2:	009b      	lsls	r3, r3, #2
 8001cc4:	4413      	add	r3, r2
 8001cc6:	009a      	lsls	r2, r3, #2
 8001cc8:	441a      	add	r2, r3
 8001cca:	687b      	ldr	r3, [r7, #4]
 8001ccc:	685b      	ldr	r3, [r3, #4]
 8001cce:	009b      	lsls	r3, r3, #2
 8001cd0:	fbb2 f3f3 	udiv	r3, r2, r3
 8001cd4:	4a22      	ldr	r2, [pc, #136]	@ (8001d60 <UART_SetConfig+0x118>)
 8001cd6:	fba2 2303 	umull	r2, r3, r2, r3
 8001cda:	095b      	lsrs	r3, r3, #5
 8001cdc:	0119      	lsls	r1, r3, #4
 8001cde:	68fa      	ldr	r2, [r7, #12]
 8001ce0:	4613      	mov	r3, r2
 8001ce2:	009b      	lsls	r3, r3, #2
 8001ce4:	4413      	add	r3, r2
 8001ce6:	009a      	lsls	r2, r3, #2
 8001ce8:	441a      	add	r2, r3
 8001cea:	687b      	ldr	r3, [r7, #4]
 8001cec:	685b      	ldr	r3, [r3, #4]
 8001cee:	009b      	lsls	r3, r3, #2
 8001cf0:	fbb2 f2f3 	udiv	r2, r2, r3
 8001cf4:	4b1a      	ldr	r3, [pc, #104]	@ (8001d60 <UART_SetConfig+0x118>)
 8001cf6:	fba3 0302 	umull	r0, r3, r3, r2
 8001cfa:	095b      	lsrs	r3, r3, #5
 8001cfc:	2064      	movs	r0, #100	@ 0x64
 8001cfe:	fb00 f303 	mul.w	r3, r0, r3
 8001d02:	1ad3      	subs	r3, r2, r3
 8001d04:	011b      	lsls	r3, r3, #4
 8001d06:	3332      	adds	r3, #50	@ 0x32
 8001d08:	4a15      	ldr	r2, [pc, #84]	@ (8001d60 <UART_SetConfig+0x118>)
 8001d0a:	fba2 2303 	umull	r2, r3, r2, r3
 8001d0e:	095b      	lsrs	r3, r3, #5
 8001d10:	f003 03f0 	and.w	r3, r3, #240	@ 0xf0
 8001d14:	4419      	add	r1, r3
 8001d16:	68fa      	ldr	r2, [r7, #12]
 8001d18:	4613      	mov	r3, r2
 8001d1a:	009b      	lsls	r3, r3, #2
 8001d1c:	4413      	add	r3, r2
 8001d1e:	009a      	lsls	r2, r3, #2
 8001d20:	441a      	add	r2, r3
 8001d22:	687b      	ldr	r3, [r7, #4]
 8001d24:	685b      	ldr	r3, [r3, #4]
 8001d26:	009b      	lsls	r3, r3, #2
 8001d28:	fbb2 f2f3 	udiv	r2, r2, r3
 8001d2c:	4b0c      	ldr	r3, [pc, #48]	@ (8001d60 <UART_SetConfig+0x118>)
 8001d2e:	fba3 0302 	umull	r0, r3, r3, r2
 8001d32:	095b      	lsrs	r3, r3, #5
 8001d34:	2064      	movs	r0, #100	@ 0x64
 8001d36:	fb00 f303 	mul.w	r3, r0, r3
 8001d3a:	1ad3      	subs	r3, r2, r3
 8001d3c:	011b      	lsls	r3, r3, #4
 8001d3e:	3332      	adds	r3, #50	@ 0x32
 8001d40:	4a07      	ldr	r2, [pc, #28]	@ (8001d60 <UART_SetConfig+0x118>)
 8001d42:	fba2 2303 	umull	r2, r3, r2, r3
 8001d46:	095b      	lsrs	r3, r3, #5
 8001d48:	f003 020f 	and.w	r2, r3, #15
 8001d4c:	687b      	ldr	r3, [r7, #4]
 8001d4e:	681b      	ldr	r3, [r3, #0]
 8001d50:	440a      	add	r2, r1
 8001d52:	609a      	str	r2, [r3, #8]
#endif /* USART_CR1_OVER8 */
}
 8001d54:	bf00      	nop
 8001d56:	3710      	adds	r7, #16
 8001d58:	46bd      	mov	sp, r7
 8001d5a:	bd80      	pop	{r7, pc}
 8001d5c:	40013800 	.word	0x40013800
 8001d60:	51eb851f 	.word	0x51eb851f

08001d64 <memset>:
 8001d64:	4603      	mov	r3, r0
 8001d66:	4402      	add	r2, r0
 8001d68:	4293      	cmp	r3, r2
 8001d6a:	d100      	bne.n	8001d6e <memset+0xa>
 8001d6c:	4770      	bx	lr
 8001d6e:	f803 1b01 	strb.w	r1, [r3], #1
 8001d72:	e7f9      	b.n	8001d68 <memset+0x4>

08001d74 <__libc_init_array>:
 8001d74:	b570      	push	{r4, r5, r6, lr}
 8001d76:	2600      	movs	r6, #0
 8001d78:	4d0c      	ldr	r5, [pc, #48]	@ (8001dac <__libc_init_array+0x38>)
 8001d7a:	4c0d      	ldr	r4, [pc, #52]	@ (8001db0 <__libc_init_array+0x3c>)
 8001d7c:	1b64      	subs	r4, r4, r5
 8001d7e:	10a4      	asrs	r4, r4, #2
 8001d80:	42a6      	cmp	r6, r4
 8001d82:	d109      	bne.n	8001d98 <__libc_init_array+0x24>
 8001d84:	f000 f81a 	bl	8001dbc <_init>
 8001d88:	2600      	movs	r6, #0
 8001d8a:	4d0a      	ldr	r5, [pc, #40]	@ (8001db4 <__libc_init_array+0x40>)
 8001d8c:	4c0a      	ldr	r4, [pc, #40]	@ (8001db8 <__libc_init_array+0x44>)
 8001d8e:	1b64      	subs	r4, r4, r5
 8001d90:	10a4      	asrs	r4, r4, #2
 8001d92:	42a6      	cmp	r6, r4
 8001d94:	d105      	bne.n	8001da2 <__libc_init_array+0x2e>
 8001d96:	bd70      	pop	{r4, r5, r6, pc}
 8001d98:	f855 3b04 	ldr.w	r3, [r5], #4
 8001d9c:	4798      	blx	r3
 8001d9e:	3601      	adds	r6, #1
 8001da0:	e7ee      	b.n	8001d80 <__libc_init_array+0xc>
 8001da2:	f855 3b04 	ldr.w	r3, [r5], #4
 8001da6:	4798      	blx	r3
 8001da8:	3601      	adds	r6, #1
 8001daa:	e7f2      	b.n	8001d92 <__libc_init_array+0x1e>
 8001dac:	08001e10 	.word	0x08001e10
 8001db0:	08001e10 	.word	0x08001e10
 8001db4:	08001e10 	.word	0x08001e10
 8001db8:	08001e14 	.word	0x08001e14

08001dbc <_init>:
 8001dbc:	b5f8      	push	{r3, r4, r5, r6, r7, lr}
 8001dbe:	bf00      	nop
 8001dc0:	bcf8      	pop	{r3, r4, r5, r6, r7}
 8001dc2:	bc08      	pop	{r3}
 8001dc4:	469e      	mov	lr, r3
 8001dc6:	4770      	bx	lr

08001dc8 <_fini>:
 8001dc8:	b5f8      	push	{r3, r4, r5, r6, r7, lr}
 8001dca:	bf00      	nop
 8001dcc:	bcf8      	pop	{r3, r4, r5, r6, r7}
 8001dce:	bc08      	pop	{r3}
 8001dd0:	469e      	mov	lr, r3
 8001dd2:	4770      	bx	lr
